# github.com/lasselj/timebeat/beater/clocksync/clients/ptp.(*Controller).Start
# addr 0x45e7560 size 224 (0xe0)


/mnt/c/Users/SHIWA/GitHub/TimeCard-Mini/timebeat-extracted/usr/share/timebeat/bin/timebeat:     file format elf64-x86-64


Disassembly of section .text:

00000000045e7560 <github.com/lasselj/timebeat/beater/clocksync/clients/ptp.(*Controller).Start@@Base>:
 45e7560:	49 3b 66 10          	cmp    0x10(%r14),%rsp
 45e7564:	0f 86 aa 00 00 00    	jbe    45e7614 <github.com/lasselj/timebeat/beater/clocksync/clients/ptp.(*Controller).Start@@Base+0xb4>
 45e756a:	48 83 ec 18          	sub    $0x18,%rsp
 45e756e:	48 89 6c 24 10       	mov    %rbp,0x10(%rsp)
 45e7573:	48 8d 6c 24 10       	lea    0x10(%rsp),%rbp
 45e7578:	48 89 44 24 20       	mov    %rax,0x20(%rsp)
 45e757d:	0f 1f 00             	nopl   (%rax)
 45e7580:	e8 1b 3e 00 00       	call   45eb3a0 <github.com/lasselj/timebeat/beater/clocksync/clients/ptp.(*Controller).createAndStartSockets@@Base>
 45e7585:	48 8b 44 24 20       	mov    0x20(%rsp),%rax
 45e758a:	e8 d1 3f 00 00       	call   45eb560 <github.com/lasselj/timebeat/beater/clocksync/clients/ptp.(*Controller).createAndStartClients@@Base>
 45e758f:	48 8d 05 ca 53 4d 01 	lea    0x14d53ca(%rip),%rax        # 5abc960 <type:CrKIUAl0@@Base>
 45e7596:	e8 45 8f 90 fd       	call   1ef04e0 <runtime.newobject@@Base>
 45e759b:	48 8d 0d fe 00 00 00 	lea    0xfe(%rip),%rcx        # 45e76a0 <github.com/lasselj/timebeat/beater/clocksync/clients/ptp.(*Controller).Start.func1@@Base>
 45e75a2:	48 89 08             	mov    %rcx,(%rax)
 45e75a5:	83 3d b4 43 89 03 00 	cmpl   $0x0,0x38943b4(%rip)        # 7e7b960 <runtime.writeBarrier@@Base>
 45e75ac:	75 0b                	jne    45e75b9 <github.com/lasselj/timebeat/beater/clocksync/clients/ptp.(*Controller).Start@@Base+0x59>
 45e75ae:	48 8b 4c 24 20       	mov    0x20(%rsp),%rcx
 45e75b3:	48 89 48 08          	mov    %rcx,0x8(%rax)
 45e75b7:	eb 0e                	jmp    45e75c7 <github.com/lasselj/timebeat/beater/clocksync/clients/ptp.(*Controller).Start@@Base+0x67>
 45e75b9:	48 8d 78 08          	lea    0x8(%rax),%rdi
 45e75bd:	48 8b 4c 24 20       	mov    0x20(%rsp),%rcx
 45e75c2:	e8 39 f1 96 fd       	call   1f56700 <runtime.gcWriteBarrierCX@@Base>
 45e75c7:	e8 94 15 94 fd       	call   1f28b60 <runtime.newproc@@Base>
 45e75cc:	48 8d 05 0d 54 4d 01 	lea    0x14d540d(%rip),%rax        # 5abc9e0 <type:zg4ePgSK@@Base>
 45e75d3:	e8 08 8f 90 fd       	call   1ef04e0 <runtime.newobject@@Base>
 45e75d8:	48 8d 0d 61 00 00 00 	lea    0x61(%rip),%rcx        # 45e7640 <github.com/lasselj/timebeat/beater/clocksync/clients/ptp.(*Controller).Start.func2@@Base>
 45e75df:	48 89 08             	mov    %rcx,(%rax)
 45e75e2:	83 3d 77 43 89 03 00 	cmpl   $0x0,0x3894377(%rip)        # 7e7b960 <runtime.writeBarrier@@Base>
 45e75e9:	75 0b                	jne    45e75f6 <github.com/lasselj/timebeat/beater/clocksync/clients/ptp.(*Controller).Start@@Base+0x96>
 45e75eb:	48 8b 4c 24 20       	mov    0x20(%rsp),%rcx
 45e75f0:	48 89 48 08          	mov    %rcx,0x8(%rax)
 45e75f4:	eb 0f                	jmp    45e7605 <github.com/lasselj/timebeat/beater/clocksync/clients/ptp.(*Controller).Start@@Base+0xa5>
 45e75f6:	48 8d 78 08          	lea    0x8(%rax),%rdi
 45e75fa:	48 8b 4c 24 20       	mov    0x20(%rsp),%rcx
 45e75ff:	90                   	nop
 45e7600:	e8 fb f0 96 fd       	call   1f56700 <runtime.gcWriteBarrierCX@@Base>
 45e7605:	e8 56 15 94 fd       	call   1f28b60 <runtime.newproc@@Base>
 45e760a:	48 8b 6c 24 10       	mov    0x10(%rsp),%rbp
 45e760f:	48 83 c4 18          	add    $0x18,%rsp
 45e7613:	c3                   	ret
 45e7614:	48 89 44 24 08       	mov    %rax,0x8(%rsp)
 45e7619:	e8 42 ce 96 fd       	call   1f54460 <runtime.morestack_noctxt.abi0@@Base>
 45e761e:	48 8b 44 24 08       	mov    0x8(%rsp),%rax
 45e7623:	e9 38 ff ff ff       	jmp    45e7560 <github.com/lasselj/timebeat/beater/clocksync/clients/ptp.(*Controller).Start@@Base>
 45e7628:	cc                   	int3
 45e7629:	cc                   	int3
 45e762a:	cc                   	int3
 45e762b:	cc                   	int3
 45e762c:	cc                   	int3
 45e762d:	cc                   	int3
 45e762e:	cc                   	int3
 45e762f:	cc                   	int3
 45e7630:	cc                   	int3
 45e7631:	cc                   	int3
 45e7632:	cc                   	int3
 45e7633:	cc                   	int3
 45e7634:	cc                   	int3
 45e7635:	cc                   	int3
 45e7636:	cc                   	int3
 45e7637:	cc                   	int3
 45e7638:	cc                   	int3
 45e7639:	cc                   	int3
 45e763a:	cc                   	int3
 45e763b:	cc                   	int3
 45e763c:	cc                   	int3
 45e763d:	cc                   	int3
 45e763e:	cc                   	int3
 45e763f:	cc                   	int3
