# github.com/lasselj/timebeat/beater/clocksync/clients/ptp.SetPTPPeerInfoAssociationsDelete
# addr 0x45e70a0 size 256 (0x100)


/mnt/c/Users/SHIWA/GitHub/TimeCard-Mini/timebeat-extracted/usr/share/timebeat/bin/timebeat:     file format elf64-x86-64


Disassembly of section .text:

00000000045e70a0 <github.com/lasselj/timebeat/beater/clocksync/clients/ptp.SetPTPPeerInfoAssociationsDelete@@Base>:
 45e70a0:	49 3b 66 10          	cmp    0x10(%r14),%rsp
 45e70a4:	0f 86 c6 00 00 00    	jbe    45e7170 <github.com/lasselj/timebeat/beater/clocksync/clients/ptp.SetPTPPeerInfoAssociationsDelete@@Base+0xd0>
 45e70aa:	48 83 ec 20          	sub    $0x20,%rsp
 45e70ae:	48 89 6c 24 18       	mov    %rbp,0x18(%rsp)
 45e70b3:	48 8d 6c 24 18       	lea    0x18(%rsp),%rbp
 45e70b8:	48 89 44 24 28       	mov    %rax,0x28(%rsp)
 45e70bd:	0f 1f 00             	nopl   (%rax)
 45e70c0:	48 85 db             	test   %rbx,%rbx
 45e70c3:	0f 86 9c 00 00 00    	jbe    45e7165 <github.com/lasselj/timebeat/beater/clocksync/clients/ptp.SetPTPPeerInfoAssociationsDelete@@Base+0xc5>
 45e70c9:	48 89 5c 24 30       	mov    %rbx,0x30(%rsp)
 45e70ce:	48 89 44 24 28       	mov    %rax,0x28(%rsp)
 45e70d3:	48 8b 08             	mov    (%rax),%rcx
 45e70d6:	48 8b 58 08          	mov    0x8(%rax),%rbx
 45e70da:	48 89 c8             	mov    %rcx,%rax
 45e70dd:	0f 1f 00             	nopl   (%rax)
 45e70e0:	e8 5b f8 ff ff       	call   45e6940 <github.com/lasselj/timebeat/beater/clocksync/clients/ptp.GetClientWithPeerID@@Base>
 45e70e5:	48 85 c0             	test   %rax,%rax
 45e70e8:	74 54                	je     45e713e <github.com/lasselj/timebeat/beater/clocksync/clients/ptp.SetPTPPeerInfoAssociationsDelete@@Base+0x9e>
 45e70ea:	48 8b 54 24 30       	mov    0x30(%rsp),%rdx
 45e70ef:	48 83 fa 01          	cmp    $0x1,%rdx
 45e70f3:	76 5f                	jbe    45e7154 <github.com/lasselj/timebeat/beater/clocksync/clients/ptp.SetPTPPeerInfoAssociationsDelete@@Base+0xb4>
 45e70f5:	48 89 44 24 10       	mov    %rax,0x10(%rsp)
 45e70fa:	48 8b 4c 24 28       	mov    0x28(%rsp),%rcx
 45e70ff:	48 8b 41 10          	mov    0x10(%rcx),%rax
 45e7103:	48 8b 59 18          	mov    0x18(%rcx),%rbx
 45e7107:	e8 f4 7f 98 fd       	call   1f6f100 <strconv.Atoi@@Base>
 45e710c:	48 85 db             	test   %rbx,%rbx
 45e710f:	74 16                	je     45e7127 <github.com/lasselj/timebeat/beater/clocksync/clients/ptp.SetPTPPeerInfoAssociationsDelete@@Base+0x87>
 45e7111:	48 8d 05 83 7e 68 00 	lea    0x687e83(%rip),%rax        # 4c6ef9b <_IO_stdin_used@@Base+0x3bf9b>
 45e7118:	bb 0c 00 00 00       	mov    $0xc,%ebx
 45e711d:	48 8b 6c 24 18       	mov    0x18(%rsp),%rbp
 45e7122:	48 83 c4 20          	add    $0x20,%rsp
 45e7126:	c3                   	ret
 45e7127:	48 89 c3             	mov    %rax,%rbx
 45e712a:	48 8b 44 24 10       	mov    0x10(%rsp),%rax
 45e712f:	e8 4c e1 fe ff       	call   45d5280 <github.com/lasselj/timebeat/beater/clocksync/clients/ptp/client.(*Client).DeletePeerInfoAssociation@@Base>
 45e7134:	48 8b 6c 24 18       	mov    0x18(%rsp),%rbp
 45e7139:	48 83 c4 20          	add    $0x20,%rsp
 45e713d:	c3                   	ret
 45e713e:	48 8d 05 3b 22 70 00 	lea    0x70223b(%rip),%rax        # 4ce9380 <_IO_stdin_used@@Base+0xb6380>
 45e7145:	bb 10 00 00 00       	mov    $0x10,%ebx
 45e714a:	48 8b 6c 24 18       	mov    0x18(%rsp),%rbp
 45e714f:	48 83 c4 20          	add    $0x20,%rsp
 45e7153:	c3                   	ret
 45e7154:	b8 01 00 00 00       	mov    $0x1,%eax
 45e7159:	48 89 c1             	mov    %rax,%rcx
 45e715c:	0f 1f 40 00          	nopl   0x0(%rax)
 45e7160:	e8 3b f9 96 fd       	call   1f56aa0 <runtime.panicIndex@@Base>
 45e7165:	31 c0                	xor    %eax,%eax
 45e7167:	48 89 c1             	mov    %rax,%rcx
 45e716a:	e8 31 f9 96 fd       	call   1f56aa0 <runtime.panicIndex@@Base>
 45e716f:	90                   	nop
 45e7170:	48 89 44 24 08       	mov    %rax,0x8(%rsp)
 45e7175:	48 89 5c 24 10       	mov    %rbx,0x10(%rsp)
 45e717a:	48 89 4c 24 18       	mov    %rcx,0x18(%rsp)
 45e717f:	90                   	nop
 45e7180:	e8 db d2 96 fd       	call   1f54460 <runtime.morestack_noctxt.abi0@@Base>
 45e7185:	48 8b 44 24 08       	mov    0x8(%rsp),%rax
 45e718a:	48 8b 5c 24 10       	mov    0x10(%rsp),%rbx
 45e718f:	48 8b 4c 24 18       	mov    0x18(%rsp),%rcx
 45e7194:	e9 07 ff ff ff       	jmp    45e70a0 <github.com/lasselj/timebeat/beater/clocksync/clients/ptp.SetPTPPeerInfoAssociationsDelete@@Base>
 45e7199:	cc                   	int3
 45e719a:	cc                   	int3
 45e719b:	cc                   	int3
 45e719c:	cc                   	int3
 45e719d:	cc                   	int3
 45e719e:	cc                   	int3
 45e719f:	cc                   	int3
