# github.com/lasselj/timebeat/beater/clocksync/clients/ptp/raw_socket.(*PTPSocket).dumpDataReceived
# addr 0x45c45c0 size 320 (0x140)


/mnt/c/Users/SHIWA/GitHub/TimeCard-Mini/timebeat-extracted/usr/share/timebeat/bin/timebeat:     file format elf64-x86-64


Disassembly of section .text:

00000000045c45c0 <github.com/lasselj/timebeat/beater/clocksync/clients/ptp/raw_socket.(*PTPSocket).dumpDataReceived@@Base>:
 45c45c0:	49 3b 66 10          	cmp    0x10(%r14),%rsp
 45c45c4:	0f 86 ff 00 00 00    	jbe    45c46c9 <github.com/lasselj/timebeat/beater/clocksync/clients/ptp/raw_socket.(*PTPSocket).dumpDataReceived@@Base+0x109>
 45c45ca:	48 83 ec 60          	sub    $0x60,%rsp
 45c45ce:	48 89 6c 24 58       	mov    %rbp,0x58(%rsp)
 45c45d3:	48 8d 6c 24 58       	lea    0x58(%rsp),%rbp
 45c45d8:	48 89 44 24 68       	mov    %rax,0x68(%rsp)
 45c45dd:	48 89 7c 24 40       	mov    %rdi,0x40(%rsp)
 45c45e2:	48 85 db             	test   %rbx,%rbx
 45c45e5:	75 0e                	jne    45c45f5 <github.com/lasselj/timebeat/beater/clocksync/clients/ptp/raw_socket.(*PTPSocket).dumpDataReceived@@Base+0x35>
 45c45e7:	ba 0b 00 00 00       	mov    $0xb,%edx
 45c45ec:	48 8d 35 35 6a 6a 00 	lea    0x6a6a35(%rip),%rsi        # 4c6b028 <_IO_stdin_used@@Base+0x38028>
 45c45f3:	eb 22                	jmp    45c4617 <github.com/lasselj/timebeat/beater/clocksync/clients/ptp/raw_socket.(*PTPSocket).dumpDataReceived@@Base+0x57>
 45c45f5:	48 83 fb 01          	cmp    $0x1,%rbx
 45c45f9:	ba 00 00 00 00       	mov    $0x0,%edx
 45c45fe:	be 08 00 00 00       	mov    $0x8,%esi
 45c4603:	48 0f 44 d6          	cmove  %rsi,%rdx
 45c4607:	be 00 00 00 00       	mov    $0x0,%esi
 45c460c:	4c 8d 05 42 dd 69 00 	lea    0x69dd42(%rip),%r8        # 4c62355 <_IO_stdin_used@@Base+0x2f355>
 45c4613:	49 0f 44 f0          	cmove  %r8,%rsi
 45c4617:	48 89 74 24 48       	mov    %rsi,0x48(%rsp)
 45c461c:	48 89 54 24 38       	mov    %rdx,0x38(%rsp)
 45c4621:	48 89 c8             	mov    %rcx,%rax
 45c4624:	bb 0a 00 00 00       	mov    $0xa,%ebx
 45c4629:	e8 b2 f4 9a fd       	call   1f73ae0 <strconv.FormatInt@@Base>
 45c462e:	48 8b 4c 24 68       	mov    0x68(%rsp),%rcx
 45c4633:	48 8b 51 08          	mov    0x8(%rcx),%rdx
 45c4637:	48 89 54 24 50       	mov    %rdx,0x50(%rsp)
 45c463c:	48 8d 3d bf 63 81 00 	lea    0x8163bf(%rip),%rdi        # 4ddaa02 <_IO_stdin_used@@Base+0x1a7a02>
 45c4643:	be 19 00 00 00       	mov    $0x19,%esi
 45c4648:	49 89 c0             	mov    %rax,%r8
 45c464b:	49 89 d9             	mov    %rbx,%r9
 45c464e:	31 c0                	xor    %eax,%eax
 45c4650:	48 8b 5c 24 48       	mov    0x48(%rsp),%rbx
 45c4655:	48 8b 4c 24 38       	mov    0x38(%rsp),%rcx
 45c465a:	e8 61 5d 97 fd       	call   1f3a3c0 <runtime.concatstring3@@Base>
 45c465f:	48 89 d9             	mov    %rbx,%rcx
 45c4662:	48 89 c3             	mov    %rax,%rbx
 45c4665:	48 8b 44 24 50       	mov    0x50(%rsp),%rax
 45c466a:	e8 71 2c e4 ff       	call   44072e0 <github.com/lasselj/timebeat/beater/logging.(*Logger).Info@@Base>
 45c466f:	48 8b 44 24 40       	mov    0x40(%rsp),%rax
 45c4674:	bb 0a 00 00 00       	mov    $0xa,%ebx
 45c4679:	e8 62 f4 9a fd       	call   1f73ae0 <strconv.FormatInt@@Base>
 45c467e:	48 8b 4c 24 68       	mov    0x68(%rsp),%rcx
 45c4683:	48 8b 49 08          	mov    0x8(%rcx),%rcx
 45c4687:	48 89 4c 24 50       	mov    %rcx,0x50(%rsp)
 45c468c:	48 8d 3d 56 63 81 00 	lea    0x816356(%rip),%rdi        # 4dda9e9 <_IO_stdin_used@@Base+0x1a79e9>
 45c4693:	be 19 00 00 00       	mov    $0x19,%esi
 45c4698:	49 89 c0             	mov    %rax,%r8
 45c469b:	49 89 d9             	mov    %rbx,%r9
 45c469e:	31 c0                	xor    %eax,%eax
 45c46a0:	48 8b 5c 24 48       	mov    0x48(%rsp),%rbx
 45c46a5:	48 8b 4c 24 38       	mov    0x38(%rsp),%rcx
 45c46aa:	e8 11 5d 97 fd       	call   1f3a3c0 <runtime.concatstring3@@Base>
 45c46af:	48 89 d9             	mov    %rbx,%rcx
 45c46b2:	48 89 c3             	mov    %rax,%rbx
 45c46b5:	48 8b 44 24 50       	mov    0x50(%rsp),%rax
 45c46ba:	e8 21 2c e4 ff       	call   44072e0 <github.com/lasselj/timebeat/beater/logging.(*Logger).Info@@Base>
 45c46bf:	48 8b 6c 24 58       	mov    0x58(%rsp),%rbp
 45c46c4:	48 83 c4 60          	add    $0x60,%rsp
 45c46c8:	c3                   	ret
 45c46c9:	48 89 44 24 08       	mov    %rax,0x8(%rsp)
 45c46ce:	48 89 5c 24 10       	mov    %rbx,0x10(%rsp)
 45c46d3:	48 89 4c 24 18       	mov    %rcx,0x18(%rsp)
 45c46d8:	48 89 7c 24 20       	mov    %rdi,0x20(%rsp)
 45c46dd:	0f 1f 00             	nopl   (%rax)
 45c46e0:	e8 7b fd 98 fd       	call   1f54460 <runtime.morestack_noctxt.abi0@@Base>
 45c46e5:	48 8b 44 24 08       	mov    0x8(%rsp),%rax
 45c46ea:	48 8b 5c 24 10       	mov    0x10(%rsp),%rbx
 45c46ef:	48 8b 4c 24 18       	mov    0x18(%rsp),%rcx
 45c46f4:	48 8b 7c 24 20       	mov    0x20(%rsp),%rdi
 45c46f9:	e9 c2 fe ff ff       	jmp    45c45c0 <github.com/lasselj/timebeat/beater/clocksync/clients/ptp/raw_socket.(*PTPSocket).dumpDataReceived@@Base>
 45c46fe:	cc                   	int3
 45c46ff:	cc                   	int3
