# github.com/lasselj/timebeat/beater/clocksync/sources.(*TimeSourceStore).getNextAvailablePTPAutoDomain
# addr 0x4418600 size 320 (0x140)


/mnt/c/Users/SHIWA/GitHub/TimeCard-Mini/timebeat-extracted/usr/share/timebeat/bin/timebeat:     file format elf64-x86-64


Disassembly of section .text:

0000000004418600 <github.com/lasselj/timebeat/beater/clocksync/sources.(*TimeSourceStore).getNextAvailablePTPAutoDomain@@Base>:
 4418600:	49 3b 66 10          	cmp    0x10(%r14),%rsp
 4418604:	0f 86 fc 00 00 00    	jbe    4418706 <github.com/lasselj/timebeat/beater/clocksync/sources.(*TimeSourceStore).getNextAvailablePTPAutoDomain@@Base+0x106>
 441860a:	48 83 ec 20          	sub    $0x20,%rsp
 441860e:	48 89 6c 24 18       	mov    %rbp,0x18(%rsp)
 4418613:	48 8d 6c 24 18       	lea    0x18(%rsp),%rbp
 4418618:	48 89 44 24 28       	mov    %rax,0x28(%rsp)
 441861d:	48 89 5c 24 30       	mov    %rbx,0x30(%rsp)
 4418622:	eb 08                	jmp    441862c <github.com/lasselj/timebeat/beater/clocksync/sources.(*TimeSourceStore).getNextAvailablePTPAutoDomain@@Base+0x2c>
 4418624:	48 89 d0             	mov    %rdx,%rax
 4418627:	48 8b 5c 24 30       	mov    0x30(%rsp),%rbx
 441862c:	48 8b 90 90 00 00 00 	mov    0x90(%rax),%rdx
 4418633:	48 83 fb 03          	cmp    $0x3,%rbx
 4418637:	0f 83 b8 00 00 00    	jae    44186f5 <github.com/lasselj/timebeat/beater/clocksync/sources.(*TimeSourceStore).getNextAvailablePTPAutoDomain@@Base+0xf5>
 441863d:	48 8d 0c 18          	lea    (%rax,%rbx,1),%rcx
 4418641:	48 8d 89 88 00 00 00 	lea    0x88(%rcx),%rcx
 4418648:	48 8d 05 f1 95 53 01 	lea    0x15395f1(%rip),%rax        # 5951c40 <type:UyFO1K5m@@Base>
 441864f:	48 89 d3             	mov    %rdx,%rbx
 4418652:	e8 c9 92 ad fd       	call   1ef1920 <runtime.mapaccess2@@Base>
 4418657:	84 db                	test   %bl,%bl
 4418659:	74 1e                	je     4418679 <github.com/lasselj/timebeat/beater/clocksync/sources.(*TimeSourceStore).getNextAvailablePTPAutoDomain@@Base+0x79>
 441865b:	48 8b 54 24 28       	mov    0x28(%rsp),%rdx
 4418660:	48 8b 44 24 30       	mov    0x30(%rsp),%rax
 4418665:	0f b6 b4 10 88 00 00 	movzbl 0x88(%rax,%rdx,1),%esi
 441866c:	00 
 441866d:	ff c6                	inc    %esi
 441866f:	40 88 b4 02 88 00 00 	mov    %sil,0x88(%rdx,%rax,1)
 4418676:	00 
 4418677:	eb ab                	jmp    4418624 <github.com/lasselj/timebeat/beater/clocksync/sources.(*TimeSourceStore).getNextAvailablePTPAutoDomain@@Base+0x24>
 4418679:	48 8b 54 24 28       	mov    0x28(%rsp),%rdx
 441867e:	48 8b 9a 90 00 00 00 	mov    0x90(%rdx),%rbx
 4418685:	48 8b 74 24 30       	mov    0x30(%rsp),%rsi
 441868a:	48 83 fe 02          	cmp    $0x2,%rsi
 441868e:	73 58                	jae    44186e8 <github.com/lasselj/timebeat/beater/clocksync/sources.(*TimeSourceStore).getNextAvailablePTPAutoDomain@@Base+0xe8>
 4418690:	48 8d 0c 32          	lea    (%rdx,%rsi,1),%rcx
 4418694:	48 8d 89 8b 00 00 00 	lea    0x8b(%rcx),%rcx
 441869b:	48 8d 05 9e 95 53 01 	lea    0x153959e(%rip),%rax        # 5951c40 <type:UyFO1K5m@@Base>
 44186a2:	e8 79 92 ad fd       	call   1ef1920 <runtime.mapaccess2@@Base>
 44186a7:	84 db                	test   %bl,%bl
 44186a9:	74 21                	je     44186cc <github.com/lasselj/timebeat/beater/clocksync/sources.(*TimeSourceStore).getNextAvailablePTPAutoDomain@@Base+0xcc>
 44186ab:	48 8b 44 24 30       	mov    0x30(%rsp),%rax
 44186b0:	48 8b 54 24 28       	mov    0x28(%rsp),%rdx
 44186b5:	0f b6 b4 02 8b 00 00 	movzbl 0x8b(%rdx,%rax,1),%esi
 44186bc:	00 
 44186bd:	ff c6                	inc    %esi
 44186bf:	40 88 b4 02 8b 00 00 	mov    %sil,0x8b(%rdx,%rax,1)
 44186c6:	00 
 44186c7:	e9 58 ff ff ff       	jmp    4418624 <github.com/lasselj/timebeat/beater/clocksync/sources.(*TimeSourceStore).getNextAvailablePTPAutoDomain@@Base+0x24>
 44186cc:	48 8b 4c 24 28       	mov    0x28(%rsp),%rcx
 44186d1:	48 8b 54 24 30       	mov    0x30(%rsp),%rdx
 44186d6:	0f b6 84 0a 88 00 00 	movzbl 0x88(%rdx,%rcx,1),%eax
 44186dd:	00 
 44186de:	48 8b 6c 24 18       	mov    0x18(%rsp),%rbp
 44186e3:	48 83 c4 20          	add    $0x20,%rsp
 44186e7:	c3                   	ret
 44186e8:	b8 02 00 00 00       	mov    $0x2,%eax
 44186ed:	48 89 c1             	mov    %rax,%rcx
 44186f0:	e8 ab e3 b3 fd       	call   1f56aa0 <runtime.panicIndex@@Base>
 44186f5:	48 89 d8             	mov    %rbx,%rax
 44186f8:	b9 03 00 00 00       	mov    $0x3,%ecx
 44186fd:	0f 1f 00             	nopl   (%rax)
 4418700:	e8 9b e3 b3 fd       	call   1f56aa0 <runtime.panicIndex@@Base>
 4418705:	90                   	nop
 4418706:	48 89 44 24 08       	mov    %rax,0x8(%rsp)
 441870b:	48 89 5c 24 10       	mov    %rbx,0x10(%rsp)
 4418710:	e8 4b bd b3 fd       	call   1f54460 <runtime.morestack_noctxt.abi0@@Base>
 4418715:	48 8b 44 24 08       	mov    0x8(%rsp),%rax
 441871a:	48 8b 5c 24 10       	mov    0x10(%rsp),%rbx
 441871f:	90                   	nop
 4418720:	e9 db fe ff ff       	jmp    4418600 <github.com/lasselj/timebeat/beater/clocksync/sources.(*TimeSourceStore).getNextAvailablePTPAutoDomain@@Base>
 4418725:	cc                   	int3
 4418726:	cc                   	int3
 4418727:	cc                   	int3
 4418728:	cc                   	int3
 4418729:	cc                   	int3
 441872a:	cc                   	int3
 441872b:	cc                   	int3
 441872c:	cc                   	int3
 441872d:	cc                   	int3
 441872e:	cc                   	int3
 441872f:	cc                   	int3
 4418730:	cc                   	int3
 4418731:	cc                   	int3
 4418732:	cc                   	int3
 4418733:	cc                   	int3
 4418734:	cc                   	int3
 4418735:	cc                   	int3
 4418736:	cc                   	int3
 4418737:	cc                   	int3
 4418738:	cc                   	int3
 4418739:	cc                   	int3
 441873a:	cc                   	int3
 441873b:	cc                   	int3
 441873c:	cc                   	int3
 441873d:	cc                   	int3
 441873e:	cc                   	int3
 441873f:	cc                   	int3
