# github.com/lasselj/timebeat/beater/clocksync/clients/ptp/server.(*UnicastManager).findSubscription
# addr 0x45cd4a0 size 224 (0xe0)


/mnt/c/Users/SHIWA/GitHub/TimeCard-Mini/timebeat-extracted/usr/share/timebeat/bin/timebeat:     file format elf64-x86-64


Disassembly of section .text:

00000000045cd4a0 <github.com/lasselj/timebeat/beater/clocksync/clients/ptp/server.(*UnicastManager).findSubscription@@Base>:
 45cd4a0:	49 3b 66 10          	cmp    0x10(%r14),%rsp
 45cd4a4:	0f 86 b2 00 00 00    	jbe    45cd55c <github.com/lasselj/timebeat/beater/clocksync/clients/ptp/server.(*UnicastManager).findSubscription@@Base+0xbc>
 45cd4aa:	48 83 ec 20          	sub    $0x20,%rsp
 45cd4ae:	48 89 6c 24 18       	mov    %rbp,0x18(%rsp)
 45cd4b3:	48 8d 6c 24 18       	lea    0x18(%rsp),%rbp
 45cd4b8:	48 89 5c 24 30       	mov    %rbx,0x30(%rsp)
 45cd4bd:	84 03                	test   %al,(%rbx)
 45cd4bf:	48 8b 90 20 08 00 00 	mov    0x820(%rax),%rdx
 45cd4c6:	48 8d 05 93 19 37 01 	lea    0x1371993(%rip),%rax        # 593ee60 <type:iZQywzBO@@Base>
 45cd4cd:	48 89 d9             	mov    %rbx,%rcx
 45cd4d0:	48 89 d3             	mov    %rdx,%rbx
 45cd4d3:	e8 48 44 92 fd       	call   1ef1920 <runtime.mapaccess2@@Base>
 45cd4d8:	48 8b 10             	mov    (%rax),%rdx
 45cd4db:	84 db                	test   %bl,%bl
 45cd4dd:	74 15                	je     45cd4f4 <github.com/lasselj/timebeat/beater/clocksync/clients/ptp/server.(*UnicastManager).findSubscription@@Base+0x54>
 45cd4df:	48 83 7a 28 00       	cmpq   $0x0,0x28(%rdx)
 45cd4e4:	75 04                	jne    45cd4ea <github.com/lasselj/timebeat/beater/clocksync/clients/ptp/server.(*UnicastManager).findSubscription@@Base+0x4a>
 45cd4e6:	31 d2                	xor    %edx,%edx
 45cd4e8:	eb 03                	jmp    45cd4ed <github.com/lasselj/timebeat/beater/clocksync/clients/ptp/server.(*UnicastManager).findSubscription@@Base+0x4d>
 45cd4ea:	48 8b 12             	mov    (%rdx),%rdx
 45cd4ed:	48 8b 74 24 30       	mov    0x30(%rsp),%rsi
 45cd4f2:	eb 11                	jmp    45cd505 <github.com/lasselj/timebeat/beater/clocksync/clients/ptp/server.(*UnicastManager).findSubscription@@Base+0x65>
 45cd4f4:	31 c0                	xor    %eax,%eax
 45cd4f6:	31 db                	xor    %ebx,%ebx
 45cd4f8:	48 8b 6c 24 18       	mov    0x18(%rsp),%rbp
 45cd4fd:	48 83 c4 20          	add    $0x20,%rsp
 45cd501:	c3                   	ret
 45cd502:	48 89 fa             	mov    %rdi,%rdx
 45cd505:	48 85 d2             	test   %rdx,%rdx
 45cd508:	74 ea                	je     45cd4f4 <github.com/lasselj/timebeat/beater/clocksync/clients/ptp/server.(*UnicastManager).findSubscription@@Base+0x54>
 45cd50a:	48 8b 42 20          	mov    0x20(%rdx),%rax
 45cd50e:	48 8b 7a 18          	mov    0x18(%rdx),%rdi
 45cd512:	48 8d 1d 67 f7 10 01 	lea    0x110f767(%rip),%rbx        # 56dcc80 <type:/e2xkghY@@Base>
 45cd519:	48 39 df             	cmp    %rbx,%rdi
 45cd51c:	75 2e                	jne    45cd54c <github.com/lasselj/timebeat/beater/clocksync/clients/ptp/server.(*UnicastManager).findSubscription@@Base+0xac>
 45cd51e:	0f b6 7e 41          	movzbl 0x41(%rsi),%edi
 45cd522:	40 38 78 41          	cmp    %dil,0x41(%rax)
 45cd526:	74 15                	je     45cd53d <github.com/lasselj/timebeat/beater/clocksync/clients/ptp/server.(*UnicastManager).findSubscription@@Base+0x9d>
 45cd528:	48 8b 3a             	mov    (%rdx),%rdi
 45cd52b:	48 8b 52 10          	mov    0x10(%rdx),%rdx
 45cd52f:	48 85 d2             	test   %rdx,%rdx
 45cd532:	74 05                	je     45cd539 <github.com/lasselj/timebeat/beater/clocksync/clients/ptp/server.(*UnicastManager).findSubscription@@Base+0x99>
 45cd534:	48 39 fa             	cmp    %rdi,%rdx
 45cd537:	75 c9                	jne    45cd502 <github.com/lasselj/timebeat/beater/clocksync/clients/ptp/server.(*UnicastManager).findSubscription@@Base+0x62>
 45cd539:	31 ff                	xor    %edi,%edi
 45cd53b:	eb c5                	jmp    45cd502 <github.com/lasselj/timebeat/beater/clocksync/clients/ptp/server.(*UnicastManager).findSubscription@@Base+0x62>
 45cd53d:	bb 01 00 00 00       	mov    $0x1,%ebx
 45cd542:	48 8b 6c 24 18       	mov    0x18(%rsp),%rbp
 45cd547:	48 83 c4 20          	add    $0x20,%rsp
 45cd54b:	c3                   	ret
 45cd54c:	48 89 f8             	mov    %rdi,%rax
 45cd54f:	48 8d 0d ea 6d 2e 01 	lea    0x12e6dea(%rip),%rcx        # 58b4340 <type:tpDRQG8O@@Base>
 45cd556:	e8 45 03 92 fd       	call   1eed8a0 <runtime.panicdottypeE@@Base>
 45cd55b:	90                   	nop
 45cd55c:	48 89 44 24 08       	mov    %rax,0x8(%rsp)
 45cd561:	48 89 5c 24 10       	mov    %rbx,0x10(%rsp)
 45cd566:	e8 f5 6e 98 fd       	call   1f54460 <runtime.morestack_noctxt.abi0@@Base>
 45cd56b:	48 8b 44 24 08       	mov    0x8(%rsp),%rax
 45cd570:	48 8b 5c 24 10       	mov    0x10(%rsp),%rbx
 45cd575:	e9 26 ff ff ff       	jmp    45cd4a0 <github.com/lasselj/timebeat/beater/clocksync/clients/ptp/server.(*UnicastManager).findSubscription@@Base>
 45cd57a:	cc                   	int3
 45cd57b:	cc                   	int3
 45cd57c:	cc                   	int3
 45cd57d:	cc                   	int3
 45cd57e:	cc                   	int3
 45cd57f:	cc                   	int3
