# github.com/lasselj/timebeat/beater/logging.(*HostClockLogEntry).Log
# addr 0x44093a0 size 2368 (0x940)


/mnt/c/Users/SHIWA/GitHub/TimeCard-Mini/timebeat-extracted/usr/share/timebeat/bin/timebeat:     file format elf64-x86-64


Disassembly of section .text:

00000000044093a0 <github.com/lasselj/timebeat/beater/logging.(*HostClockLogEntry).Log@@Base>:
 44093a0:	4c 8d 64 24 80       	lea    -0x80(%rsp),%r12
 44093a5:	4d 3b 66 10          	cmp    0x10(%r14),%r12
 44093a9:	0f 86 0d 09 00 00    	jbe    4409cbc <github.com/lasselj/timebeat/beater/logging.(*HostClockLogEntry).Log@@Base+0x91c>
 44093af:	48 81 ec 00 01 00 00 	sub    $0x100,%rsp
 44093b6:	48 89 ac 24 f8 00 00 	mov    %rbp,0xf8(%rsp)
 44093bd:	00 
 44093be:	48 8d ac 24 f8 00 00 	lea    0xf8(%rsp),%rbp
 44093c5:	00 
 44093c6:	48 89 84 24 08 01 00 	mov    %rax,0x108(%rsp)
 44093cd:	00 
 44093ce:	48 8b 08             	mov    (%rax),%rcx
 44093d1:	48 8b 58 08          	mov    0x8(%rax),%rbx
 44093d5:	48 89 c8             	mov    %rcx,%rax
 44093d8:	e8 83 53 00 00       	call   440e760 <github.com/lasselj/timebeat/beater/logging.ShouldLog@@Base>
 44093dd:	0f 1f 00             	nopl   (%rax)
 44093e0:	84 c0                	test   %al,%al
 44093e2:	0f 84 c4 08 00 00    	je     4409cac <github.com/lasselj/timebeat/beater/logging.(*HostClockLogEntry).Log@@Base+0x90c>
 44093e8:	e8 53 7e ae fd       	call   1ef1240 <runtime.makemap_small@@Base>
 44093ed:	48 89 84 24 98 00 00 	mov    %rax,0x98(%rsp)
 44093f4:	00 
 44093f5:	48 8b 8c 24 08 01 00 	mov    0x108(%rsp),%rcx
 44093fc:	00 
 44093fd:	48 8b 51 40          	mov    0x40(%rcx),%rdx
 4409401:	48 89 d0             	mov    %rdx,%rax
 4409404:	e8 d7 48 ae fd       	call   1eedce0 <runtime.convT64@@Base>
 4409409:	48 89 84 24 90 00 00 	mov    %rax,0x90(%rsp)
 4409410:	00 
 4409411:	48 8b 9c 24 98 00 00 	mov    0x98(%rsp),%rbx
 4409418:	00 
 4409419:	48 8d 0d 75 98 85 00 	lea    0x859875(%rip),%rcx        # 4c62c95 <_IO_stdin_used@@Base+0x2fc95>
 4409420:	bf 08 00 00 00       	mov    $0x8,%edi
 4409425:	48 8d 05 f4 55 9b 01 	lea    0x19b55f4(%rip),%rax        # 5dbea20 <type:HuWgEDJW@@Base>
 440942c:	e8 af cd ae fd       	call   1ef61e0 <runtime.mapassign_faststr@@Base>
 4409431:	48 8d 0d e8 12 3a 01 	lea    0x13a12e8(%rip),%rcx        # 57aa720 <type:int64@@Base>
 4409438:	48 89 08             	mov    %rcx,(%rax)
 440943b:	83 3d 1e 25 a7 03 00 	cmpl   $0x0,0x3a7251e(%rip)        # 7e7b960 <runtime.writeBarrier@@Base>
 4409442:	75 0e                	jne    4409452 <github.com/lasselj/timebeat/beater/logging.(*HostClockLogEntry).Log@@Base+0xb2>
 4409444:	48 8b 94 24 90 00 00 	mov    0x90(%rsp),%rdx
 440944b:	00 
 440944c:	48 89 50 08          	mov    %rdx,0x8(%rax)
 4409450:	eb 13                	jmp    4409465 <github.com/lasselj/timebeat/beater/logging.(*HostClockLogEntry).Log@@Base+0xc5>
 4409452:	48 8d 78 08          	lea    0x8(%rax),%rdi
 4409456:	48 8b 94 24 90 00 00 	mov    0x90(%rsp),%rdx
 440945d:	00 
 440945e:	66 90                	xchg   %ax,%ax
 4409460:	e8 bb d2 b4 fd       	call   1f56720 <runtime.gcWriteBarrierDX@@Base>
 4409465:	48 8b 8c 24 08 01 00 	mov    0x108(%rsp),%rcx
 440946c:	00 
 440946d:	48 8b 41 50          	mov    0x50(%rcx),%rax
 4409471:	e8 6a 48 ae fd       	call   1eedce0 <runtime.convT64@@Base>
 4409476:	48 89 84 24 90 00 00 	mov    %rax,0x90(%rsp)
 440947d:	00 
 440947e:	48 8b 9c 24 98 00 00 	mov    0x98(%rsp),%rbx
 4409485:	00 
 4409486:	48 8d 0d 65 22 86 00 	lea    0x862265(%rip),%rcx        # 4c6b6f2 <_IO_stdin_used@@Base+0x386f2>
 440948d:	bf 0b 00 00 00       	mov    $0xb,%edi
 4409492:	48 8d 05 87 55 9b 01 	lea    0x19b5587(%rip),%rax        # 5dbea20 <type:HuWgEDJW@@Base>
 4409499:	e8 42 cd ae fd       	call   1ef61e0 <runtime.mapassign_faststr@@Base>
 440949e:	48 8d 0d 7b 12 3a 01 	lea    0x13a127b(%rip),%rcx        # 57aa720 <type:int64@@Base>
 44094a5:	48 89 08             	mov    %rcx,(%rax)
 44094a8:	83 3d b1 24 a7 03 00 	cmpl   $0x0,0x3a724b1(%rip)        # 7e7b960 <runtime.writeBarrier@@Base>
 44094af:	75 0e                	jne    44094bf <github.com/lasselj/timebeat/beater/logging.(*HostClockLogEntry).Log@@Base+0x11f>
 44094b1:	48 8b 94 24 90 00 00 	mov    0x90(%rsp),%rdx
 44094b8:	00 
 44094b9:	48 89 50 08          	mov    %rdx,0x8(%rax)
 44094bd:	eb 11                	jmp    44094d0 <github.com/lasselj/timebeat/beater/logging.(*HostClockLogEntry).Log@@Base+0x130>
 44094bf:	48 8d 78 08          	lea    0x8(%rax),%rdi
 44094c3:	48 8b 94 24 90 00 00 	mov    0x90(%rsp),%rdx
 44094ca:	00 
 44094cb:	e8 50 d2 b4 fd       	call   1f56720 <runtime.gcWriteBarrierDX@@Base>
 44094d0:	48 8b 8c 24 08 01 00 	mov    0x108(%rsp),%rcx
 44094d7:	00 
 44094d8:	48 8b 41 30          	mov    0x30(%rcx),%rax
 44094dc:	0f 1f 40 00          	nopl   0x0(%rax)
 44094e0:	e8 fb 47 ae fd       	call   1eedce0 <runtime.convT64@@Base>
 44094e5:	48 89 84 24 90 00 00 	mov    %rax,0x90(%rsp)
 44094ec:	00 
 44094ed:	48 8b 9c 24 98 00 00 	mov    0x98(%rsp),%rbx
 44094f4:	00 
 44094f5:	48 8d 0d a6 2d 86 00 	lea    0x862da6(%rip),%rcx        # 4c6c2a2 <_IO_stdin_used@@Base+0x392a2>
 44094fc:	bf 0b 00 00 00       	mov    $0xb,%edi
 4409501:	48 8d 05 18 55 9b 01 	lea    0x19b5518(%rip),%rax        # 5dbea20 <type:HuWgEDJW@@Base>
 4409508:	e8 d3 cc ae fd       	call   1ef61e0 <runtime.mapassign_faststr@@Base>
 440950d:	48 8d 0d 0c 12 3a 01 	lea    0x13a120c(%rip),%rcx        # 57aa720 <type:int64@@Base>
 4409514:	48 89 08             	mov    %rcx,(%rax)
 4409517:	83 3d 42 24 a7 03 00 	cmpl   $0x0,0x3a72442(%rip)        # 7e7b960 <runtime.writeBarrier@@Base>
 440951e:	66 90                	xchg   %ax,%ax
 4409520:	75 0e                	jne    4409530 <github.com/lasselj/timebeat/beater/logging.(*HostClockLogEntry).Log@@Base+0x190>
 4409522:	48 8b 94 24 90 00 00 	mov    0x90(%rsp),%rdx
 4409529:	00 
 440952a:	48 89 50 08          	mov    %rdx,0x8(%rax)
 440952e:	eb 15                	jmp    4409545 <github.com/lasselj/timebeat/beater/logging.(*HostClockLogEntry).Log@@Base+0x1a5>
 4409530:	48 8d 78 08          	lea    0x8(%rax),%rdi
 4409534:	48 8b 94 24 90 00 00 	mov    0x90(%rsp),%rdx
 440953b:	00 
 440953c:	0f 1f 40 00          	nopl   0x0(%rax)
 4409540:	e8 db d1 b4 fd       	call   1f56720 <runtime.gcWriteBarrierDX@@Base>
 4409545:	48 8b 8c 24 08 01 00 	mov    0x108(%rsp),%rcx
 440954c:	00 
 440954d:	48 8b 41 38          	mov    0x38(%rcx),%rax
 4409551:	e8 8a 47 ae fd       	call   1eedce0 <runtime.convT64@@Base>
 4409556:	48 89 84 24 90 00 00 	mov    %rax,0x90(%rsp)
 440955d:	00 
 440955e:	48 8b 9c 24 98 00 00 	mov    0x98(%rsp),%rbx
 4409565:	00 
 4409566:	48 8d 0d 7e 7f 86 00 	lea    0x867f7e(%rip),%rcx        # 4c714eb <_IO_stdin_used@@Base+0x3e4eb>
 440956d:	bf 0c 00 00 00       	mov    $0xc,%edi
 4409572:	48 8d 05 a7 54 9b 01 	lea    0x19b54a7(%rip),%rax        # 5dbea20 <type:HuWgEDJW@@Base>
 4409579:	e8 62 cc ae fd       	call   1ef61e0 <runtime.mapassign_faststr@@Base>
 440957e:	48 8d 0d 9b 11 3a 01 	lea    0x13a119b(%rip),%rcx        # 57aa720 <type:int64@@Base>
 4409585:	48 89 08             	mov    %rcx,(%rax)
 4409588:	83 3d d1 23 a7 03 00 	cmpl   $0x0,0x3a723d1(%rip)        # 7e7b960 <runtime.writeBarrier@@Base>
 440958f:	75 0e                	jne    440959f <github.com/lasselj/timebeat/beater/logging.(*HostClockLogEntry).Log@@Base+0x1ff>
 4409591:	48 8b 94 24 90 00 00 	mov    0x90(%rsp),%rdx
 4409598:	00 
 4409599:	48 89 50 08          	mov    %rdx,0x8(%rax)
 440959d:	eb 11                	jmp    44095b0 <github.com/lasselj/timebeat/beater/logging.(*HostClockLogEntry).Log@@Base+0x210>
 440959f:	48 8d 78 08          	lea    0x8(%rax),%rdi
 44095a3:	48 8b 94 24 90 00 00 	mov    0x90(%rsp),%rdx
 44095aa:	00 
 44095ab:	e8 70 d1 b4 fd       	call   1f56720 <runtime.gcWriteBarrierDX@@Base>
 44095b0:	48 8b 8c 24 08 01 00 	mov    0x108(%rsp),%rcx
 44095b7:	00 
 44095b8:	48 8b 41 58          	mov    0x58(%rcx),%rax
 44095bc:	48 8b 59 60          	mov    0x60(%rcx),%rbx
 44095c0:	e8 9b 47 ae fd       	call   1eedd60 <runtime.convTstring@@Base>
 44095c5:	48 89 84 24 90 00 00 	mov    %rax,0x90(%rsp)
 44095cc:	00 
 44095cd:	48 8b 9c 24 98 00 00 	mov    0x98(%rsp),%rbx
 44095d4:	00 
 44095d5:	48 8d 0d df 04 8d 00 	lea    0x8d04df(%rip),%rcx        # 4cd9abb <_IO_stdin_used@@Base+0xa6abb>
 44095dc:	bf 0f 00 00 00       	mov    $0xf,%edi
 44095e1:	48 8d 05 38 54 9b 01 	lea    0x19b5438(%rip),%rax        # 5dbea20 <type:HuWgEDJW@@Base>
 44095e8:	e8 f3 cb ae fd       	call   1ef61e0 <runtime.mapassign_faststr@@Base>
 44095ed:	48 8d 0d ac 50 3a 01 	lea    0x13a50ac(%rip),%rcx        # 57ae6a0 <type:string@@Base>
 44095f4:	48 89 08             	mov    %rcx,(%rax)
 44095f7:	83 3d 62 23 a7 03 00 	cmpl   $0x0,0x3a72362(%rip)        # 7e7b960 <runtime.writeBarrier@@Base>
 44095fe:	66 90                	xchg   %ax,%ax
 4409600:	75 0e                	jne    4409610 <github.com/lasselj/timebeat/beater/logging.(*HostClockLogEntry).Log@@Base+0x270>
 4409602:	48 8b 94 24 90 00 00 	mov    0x90(%rsp),%rdx
 4409609:	00 
 440960a:	48 89 50 08          	mov    %rdx,0x8(%rax)
 440960e:	eb 15                	jmp    4409625 <github.com/lasselj/timebeat/beater/logging.(*HostClockLogEntry).Log@@Base+0x285>
 4409610:	48 8d 78 08          	lea    0x8(%rax),%rdi
 4409614:	48 8b 94 24 90 00 00 	mov    0x90(%rsp),%rdx
 440961b:	00 
 440961c:	0f 1f 40 00          	nopl   0x0(%rax)
 4409620:	e8 fb d0 b4 fd       	call   1f56720 <runtime.gcWriteBarrierDX@@Base>
 4409625:	48 8b 94 24 08 01 00 	mov    0x108(%rsp),%rdx
 440962c:	00 
 440962d:	0f b6 72 68          	movzbl 0x68(%rdx),%esi
 4409631:	48 89 74 24 60       	mov    %rsi,0x60(%rsp)
 4409636:	48 8d 05 e3 53 9b 01 	lea    0x19b53e3(%rip),%rax        # 5dbea20 <type:HuWgEDJW@@Base>
 440963d:	48 8b 9c 24 98 00 00 	mov    0x98(%rsp),%rbx
 4409644:	00 
 4409645:	48 8d 0d 99 9c 85 00 	lea    0x859c99(%rip),%rcx        # 4c632e5 <_IO_stdin_used@@Base+0x302e5>
 440964c:	bf 08 00 00 00       	mov    $0x8,%edi
 4409651:	e8 8a cb ae fd       	call   1ef61e0 <runtime.mapassign_faststr@@Base>
 4409656:	48 8d 15 83 50 35 01 	lea    0x1355083(%rip),%rdx        # 575e6e0 <type:bool@@Base>
 440965d:	48 89 10             	mov    %rdx,(%rax)
 4409660:	48 8b 54 24 60       	mov    0x60(%rsp),%rdx
 4409665:	48 8d 35 b4 2a 86 03 	lea    0x3862ab4(%rip),%rsi        # 7c6c120 <runtime.staticuint64s@@Base>
 440966c:	48 8d 14 d6          	lea    (%rsi,%rdx,8),%rdx
 4409670:	83 3d e9 22 a7 03 00 	cmpl   $0x0,0x3a722e9(%rip)        # 7e7b960 <runtime.writeBarrier@@Base>
 4409677:	75 06                	jne    440967f <github.com/lasselj/timebeat/beater/logging.(*HostClockLogEntry).Log@@Base+0x2df>
 4409679:	48 89 50 08          	mov    %rdx,0x8(%rax)
 440967d:	eb 09                	jmp    4409688 <github.com/lasselj/timebeat/beater/logging.(*HostClockLogEntry).Log@@Base+0x2e8>
 440967f:	48 8d 78 08          	lea    0x8(%rax),%rdi
 4409683:	e8 98 d0 b4 fd       	call   1f56720 <runtime.gcWriteBarrierDX@@Base>
 4409688:	e8 b3 7b ae fd       	call   1ef1240 <runtime.makemap_small@@Base>
 440968d:	48 89 84 24 88 00 00 	mov    %rax,0x88(%rsp)
 4409694:	00 
 4409695:	48 8b 8c 24 08 01 00 	mov    0x108(%rsp),%rcx
 440969c:	00 
 440969d:	48 8b 91 88 00 00 00 	mov    0x88(%rcx),%rdx
 44096a4:	48 89 d0             	mov    %rdx,%rax
 44096a7:	e8 34 46 ae fd       	call   1eedce0 <runtime.convT64@@Base>
 44096ac:	48 89 84 24 90 00 00 	mov    %rax,0x90(%rsp)
 44096b3:	00 
 44096b4:	48 8b 9c 24 88 00 00 	mov    0x88(%rsp),%rbx
 44096bb:	00 
 44096bc:	48 8d 0d d2 95 85 00 	lea    0x8595d2(%rip),%rcx        # 4c62c95 <_IO_stdin_used@@Base+0x2fc95>
 44096c3:	bf 08 00 00 00       	mov    $0x8,%edi
 44096c8:	48 8d 05 51 53 9b 01 	lea    0x19b5351(%rip),%rax        # 5dbea20 <type:HuWgEDJW@@Base>
 44096cf:	e8 0c cb ae fd       	call   1ef61e0 <runtime.mapassign_faststr@@Base>
 44096d4:	48 8d 0d 45 10 3a 01 	lea    0x13a1045(%rip),%rcx        # 57aa720 <type:int64@@Base>
 44096db:	48 89 08             	mov    %rcx,(%rax)
 44096de:	83 3d 7b 22 a7 03 00 	cmpl   $0x0,0x3a7227b(%rip)        # 7e7b960 <runtime.writeBarrier@@Base>
 44096e5:	75 0e                	jne    44096f5 <github.com/lasselj/timebeat/beater/logging.(*HostClockLogEntry).Log@@Base+0x355>
 44096e7:	48 8b 94 24 90 00 00 	mov    0x90(%rsp),%rdx
 44096ee:	00 
 44096ef:	48 89 50 08          	mov    %rdx,0x8(%rax)
 44096f3:	eb 11                	jmp    4409706 <github.com/lasselj/timebeat/beater/logging.(*HostClockLogEntry).Log@@Base+0x366>
 44096f5:	48 8d 78 08          	lea    0x8(%rax),%rdi
 44096f9:	48 8b 94 24 90 00 00 	mov    0x90(%rsp),%rdx
 4409700:	00 
 4409701:	e8 1a d0 b4 fd       	call   1f56720 <runtime.gcWriteBarrierDX@@Base>
 4409706:	48 8b 8c 24 08 01 00 	mov    0x108(%rsp),%rcx
 440970d:	00 
 440970e:	48 8b 81 98 00 00 00 	mov    0x98(%rcx),%rax
 4409715:	e8 c6 45 ae fd       	call   1eedce0 <runtime.convT64@@Base>
 440971a:	48 89 84 24 90 00 00 	mov    %rax,0x90(%rsp)
 4409721:	00 
 4409722:	48 8b 9c 24 88 00 00 	mov    0x88(%rsp),%rbx
 4409729:	00 
 440972a:	48 8d 0d c1 1f 86 00 	lea    0x861fc1(%rip),%rcx        # 4c6b6f2 <_IO_stdin_used@@Base+0x386f2>
 4409731:	bf 0b 00 00 00       	mov    $0xb,%edi
 4409736:	48 8d 05 e3 52 9b 01 	lea    0x19b52e3(%rip),%rax        # 5dbea20 <type:HuWgEDJW@@Base>
 440973d:	0f 1f 00             	nopl   (%rax)
 4409740:	e8 9b ca ae fd       	call   1ef61e0 <runtime.mapassign_faststr@@Base>
 4409745:	48 8d 0d d4 0f 3a 01 	lea    0x13a0fd4(%rip),%rcx        # 57aa720 <type:int64@@Base>
 440974c:	48 89 08             	mov    %rcx,(%rax)
 440974f:	83 3d 0a 22 a7 03 00 	cmpl   $0x0,0x3a7220a(%rip)        # 7e7b960 <runtime.writeBarrier@@Base>
 4409756:	75 0e                	jne    4409766 <github.com/lasselj/timebeat/beater/logging.(*HostClockLogEntry).Log@@Base+0x3c6>
 4409758:	48 8b 94 24 90 00 00 	mov    0x90(%rsp),%rdx
 440975f:	00 
 4409760:	48 89 50 08          	mov    %rdx,0x8(%rax)
 4409764:	eb 11                	jmp    4409777 <github.com/lasselj/timebeat/beater/logging.(*HostClockLogEntry).Log@@Base+0x3d7>
 4409766:	48 8d 78 08          	lea    0x8(%rax),%rdi
 440976a:	48 8b 94 24 90 00 00 	mov    0x90(%rsp),%rdx
 4409771:	00 
 4409772:	e8 a9 cf b4 fd       	call   1f56720 <runtime.gcWriteBarrierDX@@Base>
 4409777:	48 8b 8c 24 08 01 00 	mov    0x108(%rsp),%rcx
 440977e:	00 
 440977f:	48 8b 41 78          	mov    0x78(%rcx),%rax
 4409783:	e8 58 45 ae fd       	call   1eedce0 <runtime.convT64@@Base>
 4409788:	48 89 84 24 90 00 00 	mov    %rax,0x90(%rsp)
 440978f:	00 
 4409790:	48 8b 9c 24 88 00 00 	mov    0x88(%rsp),%rbx
 4409797:	00 
 4409798:	48 8d 0d 03 2b 86 00 	lea    0x862b03(%rip),%rcx        # 4c6c2a2 <_IO_stdin_used@@Base+0x392a2>
 440979f:	bf 0b 00 00 00       	mov    $0xb,%edi
 44097a4:	48 8d 05 75 52 9b 01 	lea    0x19b5275(%rip),%rax        # 5dbea20 <type:HuWgEDJW@@Base>
 44097ab:	e8 30 ca ae fd       	call   1ef61e0 <runtime.mapassign_faststr@@Base>
 44097b0:	48 8d 0d 69 0f 3a 01 	lea    0x13a0f69(%rip),%rcx        # 57aa720 <type:int64@@Base>
 44097b7:	48 89 08             	mov    %rcx,(%rax)
 44097ba:	83 3d 9f 21 a7 03 00 	cmpl   $0x0,0x3a7219f(%rip)        # 7e7b960 <runtime.writeBarrier@@Base>
 44097c1:	75 0e                	jne    44097d1 <github.com/lasselj/timebeat/beater/logging.(*HostClockLogEntry).Log@@Base+0x431>
 44097c3:	48 8b 94 24 90 00 00 	mov    0x90(%rsp),%rdx
 44097ca:	00 
 44097cb:	48 89 50 08          	mov    %rdx,0x8(%rax)
 44097cf:	eb 14                	jmp    44097e5 <github.com/lasselj/timebeat/beater/logging.(*HostClockLogEntry).Log@@Base+0x445>
 44097d1:	48 8d 78 08          	lea    0x8(%rax),%rdi
 44097d5:	48 8b 94 24 90 00 00 	mov    0x90(%rsp),%rdx
 44097dc:	00 
 44097dd:	0f 1f 00             	nopl   (%rax)
 44097e0:	e8 3b cf b4 fd       	call   1f56720 <runtime.gcWriteBarrierDX@@Base>
 44097e5:	48 8b 8c 24 08 01 00 	mov    0x108(%rsp),%rcx
 44097ec:	00 
 44097ed:	48 8b 81 80 00 00 00 	mov    0x80(%rcx),%rax
 44097f4:	e8 e7 44 ae fd       	call   1eedce0 <runtime.convT64@@Base>
 44097f9:	48 89 84 24 90 00 00 	mov    %rax,0x90(%rsp)
 4409800:	00 
 4409801:	48 8b 9c 24 88 00 00 	mov    0x88(%rsp),%rbx
 4409808:	00 
 4409809:	48 8d 0d db 7c 86 00 	lea    0x867cdb(%rip),%rcx        # 4c714eb <_IO_stdin_used@@Base+0x3e4eb>
 4409810:	bf 0c 00 00 00       	mov    $0xc,%edi
 4409815:	48 8d 05 04 52 9b 01 	lea    0x19b5204(%rip),%rax        # 5dbea20 <type:HuWgEDJW@@Base>
 440981c:	0f 1f 40 00          	nopl   0x0(%rax)
 4409820:	e8 bb c9 ae fd       	call   1ef61e0 <runtime.mapassign_faststr@@Base>
 4409825:	48 8d 0d f4 0e 3a 01 	lea    0x13a0ef4(%rip),%rcx        # 57aa720 <type:int64@@Base>
 440982c:	48 89 08             	mov    %rcx,(%rax)
 440982f:	83 3d 2a 21 a7 03 00 	cmpl   $0x0,0x3a7212a(%rip)        # 7e7b960 <runtime.writeBarrier@@Base>
 4409836:	75 0e                	jne    4409846 <github.com/lasselj/timebeat/beater/logging.(*HostClockLogEntry).Log@@Base+0x4a6>
 4409838:	48 8b 94 24 90 00 00 	mov    0x90(%rsp),%rdx
 440983f:	00 
 4409840:	48 89 50 08          	mov    %rdx,0x8(%rax)
 4409844:	eb 11                	jmp    4409857 <github.com/lasselj/timebeat/beater/logging.(*HostClockLogEntry).Log@@Base+0x4b7>
 4409846:	48 8d 78 08          	lea    0x8(%rax),%rdi
 440984a:	48 8b 94 24 90 00 00 	mov    0x90(%rsp),%rdx
 4409851:	00 
 4409852:	e8 c9 ce b4 fd       	call   1f56720 <runtime.gcWriteBarrierDX@@Base>
 4409857:	48 8b 94 24 08 01 00 	mov    0x108(%rsp),%rdx
 440985e:	00 
 440985f:	4c 8b 52 10          	mov    0x10(%rdx),%r10
 4409863:	48 83 7a 18 05       	cmpq   $0x5,0x18(%rdx)
 4409868:	75 43                	jne    44098ad <github.com/lasselj/timebeat/beater/logging.(*HostClockLogEntry).Log@@Base+0x50d>
 440986a:	41 81 3a 73 6c 61 76 	cmpl   $0x76616c73,(%r10)
 4409871:	75 34                	jne    44098a7 <github.com/lasselj/timebeat/beater/logging.(*HostClockLogEntry).Log@@Base+0x507>
 4409873:	41 80 7a 04 65       	cmpb   $0x65,0x4(%r10)
 4409878:	74 08                	je     4409882 <github.com/lasselj/timebeat/beater/logging.(*HostClockLogEntry).Log@@Base+0x4e2>
 440987a:	31 db                	xor    %ebx,%ebx
 440987c:	31 c0                	xor    %eax,%eax
 440987e:	66 90                	xchg   %ax,%ax
 4409880:	eb 2f                	jmp    44098b1 <github.com/lasselj/timebeat/beater/logging.(*HostClockLogEntry).Log@@Base+0x511>
 4409882:	48 8b 1a             	mov    (%rdx),%rbx
 4409885:	48 8b 4a 08          	mov    0x8(%rdx),%rcx
 4409889:	4c 8b 42 20          	mov    0x20(%rdx),%r8
 440988d:	4c 8b 4a 28          	mov    0x28(%rdx),%r9
 4409891:	31 c0                	xor    %eax,%eax
 4409893:	48 8d 3d 1f 80 86 00 	lea    0x86801f(%rip),%rdi        # 4c718b9 <_IO_stdin_used@@Base+0x3e8b9>
 440989a:	be 0d 00 00 00       	mov    $0xd,%esi
 440989f:	90                   	nop
 44098a0:	e8 1b 0b b3 fd       	call   1f3a3c0 <runtime.concatstring3@@Base>
 44098a5:	eb 0a                	jmp    44098b1 <github.com/lasselj/timebeat/beater/logging.(*HostClockLogEntry).Log@@Base+0x511>
 44098a7:	31 db                	xor    %ebx,%ebx
 44098a9:	31 c0                	xor    %eax,%eax
 44098ab:	eb 04                	jmp    44098b1 <github.com/lasselj/timebeat/beater/logging.(*HostClockLogEntry).Log@@Base+0x511>
 44098ad:	31 db                	xor    %ebx,%ebx
 44098af:	31 c0                	xor    %eax,%eax
 44098b1:	48 89 5c 24 48       	mov    %rbx,0x48(%rsp)
 44098b6:	48 89 44 24 68       	mov    %rax,0x68(%rsp)
 44098bb:	0f 1f 44 00 00       	nopl   0x0(%rax,%rax,1)
 44098c0:	e8 5b 24 bc fd       	call   1fcbd20 <time.Now@@Base>
 44098c5:	48 89 84 24 a0 00 00 	mov    %rax,0xa0(%rsp)
 44098cc:	00 
 44098cd:	48 89 9c 24 a8 00 00 	mov    %rbx,0xa8(%rsp)
 44098d4:	00 
 44098d5:	48 89 8c 24 b0 00 00 	mov    %rcx,0xb0(%rsp)
 44098dc:	00 
 44098dd:	90                   	nop
 44098de:	90                   	nop
 44098df:	48 8b 84 24 a0 00 00 	mov    0xa0(%rsp),%rax
 44098e6:	00 
 44098e7:	48 0f ba e0 3f       	bt     $0x3f,%rax
 44098ec:	73 28                	jae    4409916 <github.com/lasselj/timebeat/beater/logging.(*HostClockLogEntry).Log@@Base+0x576>
 44098ee:	48 d1 e0             	shl    $1,%rax
 44098f1:	48 c1 e8 1f          	shr    $0x1f,%rax
 44098f5:	48 b9 80 7f b1 d7 0d 	movabs $0xdd7b17f80,%rcx
 44098fc:	00 00 00 
 44098ff:	48 01 c8             	add    %rcx,%rax
 4409902:	48 89 84 24 a8 00 00 	mov    %rax,0xa8(%rsp)
 4409909:	00 
 440990a:	48 81 a4 24 a0 00 00 	andq   $0x3fffffff,0xa0(%rsp)
 4409911:	00 ff ff ff 3f 
 4409916:	48 c7 84 24 b0 00 00 	movq   $0x0,0xb0(%rsp)
 440991d:	00 00 00 00 00 
 4409922:	48 8b 84 24 a0 00 00 	mov    0xa0(%rsp),%rax
 4409929:	00 
 440992a:	48 89 44 24 58       	mov    %rax,0x58(%rsp)
 440992f:	48 8b 8c 24 a8 00 00 	mov    0xa8(%rsp),%rcx
 4409936:	00 
 4409937:	48 89 4c 24 50       	mov    %rcx,0x50(%rsp)
 440993c:	0f 1f 40 00          	nopl   0x0(%rax)
 4409940:	e8 fb 78 ae fd       	call   1ef1240 <runtime.makemap_small@@Base>
 4409945:	48 89 84 24 80 00 00 	mov    %rax,0x80(%rsp)
 440994c:	00 
 440994d:	e8 ee 78 ae fd       	call   1ef1240 <runtime.makemap_small@@Base>
 4409952:	48 89 44 24 78       	mov    %rax,0x78(%rsp)
 4409957:	e8 e4 78 ae fd       	call   1ef1240 <runtime.makemap_small@@Base>
 440995c:	48 89 44 24 70       	mov    %rax,0x70(%rsp)
 4409961:	48 8b 8c 24 08 01 00 	mov    0x108(%rsp),%rcx
 4409968:	00 
 4409969:	48 8b 11             	mov    (%rcx),%rdx
 440996c:	48 8b 59 08          	mov    0x8(%rcx),%rbx
 4409970:	48 89 d0             	mov    %rdx,%rax
 4409973:	e8 48 f8 bf fd       	call   20091c0 <strings.Title@@Base>
 4409978:	e8 e3 43 ae fd       	call   1eedd60 <runtime.convTstring@@Base>
 440997d:	48 89 84 24 90 00 00 	mov    %rax,0x90(%rsp)
 4409984:	00 
 4409985:	48 8b 5c 24 70       	mov    0x70(%rsp),%rbx
 440998a:	48 8d 0d ef a5 82 00 	lea    0x82a5ef(%rip),%rcx        # 4c33f80 <_IO_stdin_used@@Base+0xf80>
 4409991:	bf 03 00 00 00       	mov    $0x3,%edi
 4409996:	48 8d 05 83 50 9b 01 	lea    0x19b5083(%rip),%rax        # 5dbea20 <type:HuWgEDJW@@Base>
 440999d:	0f 1f 00             	nopl   (%rax)
 44099a0:	e8 3b c8 ae fd       	call   1ef61e0 <runtime.mapassign_faststr@@Base>
 44099a5:	48 8d 0d f4 4c 3a 01 	lea    0x13a4cf4(%rip),%rcx        # 57ae6a0 <type:string@@Base>
 44099ac:	48 89 08             	mov    %rcx,(%rax)
 44099af:	83 3d aa 1f a7 03 00 	cmpl   $0x0,0x3a71faa(%rip)        # 7e7b960 <runtime.writeBarrier@@Base>
 44099b6:	75 0e                	jne    44099c6 <github.com/lasselj/timebeat/beater/logging.(*HostClockLogEntry).Log@@Base+0x626>
 44099b8:	48 8b 94 24 90 00 00 	mov    0x90(%rsp),%rdx
 44099bf:	00 
 44099c0:	48 89 50 08          	mov    %rdx,0x8(%rax)
 44099c4:	eb 11                	jmp    44099d7 <github.com/lasselj/timebeat/beater/logging.(*HostClockLogEntry).Log@@Base+0x637>
 44099c6:	48 8d 78 08          	lea    0x8(%rax),%rdi
 44099ca:	48 8b 94 24 90 00 00 	mov    0x90(%rsp),%rdx
 44099d1:	00 
 44099d2:	e8 49 cd b4 fd       	call   1f56720 <runtime.gcWriteBarrierDX@@Base>
 44099d7:	48 8b 8c 24 08 01 00 	mov    0x108(%rsp),%rcx
 44099de:	00 
 44099df:	48 8b 41 10          	mov    0x10(%rcx),%rax
 44099e3:	48 8b 59 18          	mov    0x18(%rcx),%rbx
 44099e7:	e8 74 43 ae fd       	call   1eedd60 <runtime.convTstring@@Base>
 44099ec:	48 89 84 24 90 00 00 	mov    %rax,0x90(%rsp)
 44099f3:	00 
 44099f4:	48 8b 5c 24 70       	mov    0x70(%rsp),%rbx
 44099f9:	48 8d 0d 40 cc 82 00 	lea    0x82cc40(%rip),%rcx        # 4c36640 <_IO_stdin_used@@Base+0x3640>
 4409a00:	bf 04 00 00 00       	mov    $0x4,%edi
 4409a05:	48 8d 05 14 50 9b 01 	lea    0x19b5014(%rip),%rax        # 5dbea20 <type:HuWgEDJW@@Base>
 4409a0c:	e8 cf c7 ae fd       	call   1ef61e0 <runtime.mapassign_faststr@@Base>
 4409a11:	48 8d 0d 88 4c 3a 01 	lea    0x13a4c88(%rip),%rcx        # 57ae6a0 <type:string@@Base>
 4409a18:	48 89 08             	mov    %rcx,(%rax)
 4409a1b:	83 3d 3e 1f a7 03 00 	cmpl   $0x0,0x3a71f3e(%rip)        # 7e7b960 <runtime.writeBarrier@@Base>
 4409a22:	75 0e                	jne    4409a32 <github.com/lasselj/timebeat/beater/logging.(*HostClockLogEntry).Log@@Base+0x692>
 4409a24:	48 8b 94 24 90 00 00 	mov    0x90(%rsp),%rdx
 4409a2b:	00 
 4409a2c:	48 89 50 08          	mov    %rdx,0x8(%rax)
 4409a30:	eb 13                	jmp    4409a45 <github.com/lasselj/timebeat/beater/logging.(*HostClockLogEntry).Log@@Base+0x6a5>
 4409a32:	48 8d 78 08          	lea    0x8(%rax),%rdi
 4409a36:	48 8b 94 24 90 00 00 	mov    0x90(%rsp),%rdx
 4409a3d:	00 
 4409a3e:	66 90                	xchg   %ax,%ax
 4409a40:	e8 db cc b4 fd       	call   1f56720 <runtime.gcWriteBarrierDX@@Base>
 4409a45:	48 8b 44 24 68       	mov    0x68(%rsp),%rax
 4409a4a:	48 8b 5c 24 48       	mov    0x48(%rsp),%rbx
 4409a4f:	e8 0c 43 ae fd       	call   1eedd60 <runtime.convTstring@@Base>
 4409a54:	48 89 84 24 90 00 00 	mov    %rax,0x90(%rsp)
 4409a5b:	00 
 4409a5c:	48 8b 5c 24 70       	mov    0x70(%rsp),%rbx
 4409a61:	48 8d 0d a9 04 86 00 	lea    0x8604a9(%rip),%rcx        # 4c69f11 <_IO_stdin_used@@Base+0x36f11>
 4409a68:	bf 0a 00 00 00       	mov    $0xa,%edi
 4409a6d:	48 8d 05 ac 4f 9b 01 	lea    0x19b4fac(%rip),%rax        # 5dbea20 <type:HuWgEDJW@@Base>
 4409a74:	e8 67 c7 ae fd       	call   1ef61e0 <runtime.mapassign_faststr@@Base>
 4409a79:	48 8d 0d 20 4c 3a 01 	lea    0x13a4c20(%rip),%rcx        # 57ae6a0 <type:string@@Base>
 4409a80:	48 89 08             	mov    %rcx,(%rax)
 4409a83:	83 3d d6 1e a7 03 00 	cmpl   $0x0,0x3a71ed6(%rip)        # 7e7b960 <runtime.writeBarrier@@Base>
 4409a8a:	75 0e                	jne    4409a9a <github.com/lasselj/timebeat/beater/logging.(*HostClockLogEntry).Log@@Base+0x6fa>
 4409a8c:	48 8b 94 24 90 00 00 	mov    0x90(%rsp),%rdx
 4409a93:	00 
 4409a94:	48 89 50 08          	mov    %rdx,0x8(%rax)
 4409a98:	eb 11                	jmp    4409aab <github.com/lasselj/timebeat/beater/logging.(*HostClockLogEntry).Log@@Base+0x70b>
 4409a9a:	48 8d 78 08          	lea    0x8(%rax),%rdi
 4409a9e:	48 8b 94 24 90 00 00 	mov    0x90(%rsp),%rdx
 4409aa5:	00 
 4409aa6:	e8 75 cc b4 fd       	call   1f56720 <runtime.gcWriteBarrierDX@@Base>
 4409aab:	48 8d 05 6e 4f 9b 01 	lea    0x19b4f6e(%rip),%rax        # 5dbea20 <type:HuWgEDJW@@Base>
 4409ab2:	48 8b 5c 24 70       	mov    0x70(%rsp),%rbx
 4409ab7:	48 8d 0d de a3 82 00 	lea    0x82a3de(%rip),%rcx        # 4c33e9c <_IO_stdin_used@@Base+0xe9c>
 4409abe:	bf 03 00 00 00       	mov    $0x3,%edi
 4409ac3:	e8 18 c7 ae fd       	call   1ef61e0 <runtime.mapassign_faststr@@Base>
 4409ac8:	48 8d 15 51 4f 9b 01 	lea    0x19b4f51(%rip),%rdx        # 5dbea20 <type:HuWgEDJW@@Base>
 4409acf:	48 89 10             	mov    %rdx,(%rax)
 4409ad2:	83 3d 87 1e a7 03 00 	cmpl   $0x0,0x3a71e87(%rip)        # 7e7b960 <runtime.writeBarrier@@Base>
 4409ad9:	75 0e                	jne    4409ae9 <github.com/lasselj/timebeat/beater/logging.(*HostClockLogEntry).Log@@Base+0x749>
 4409adb:	48 8b b4 24 98 00 00 	mov    0x98(%rsp),%rsi
 4409ae2:	00 
 4409ae3:	48 89 70 08          	mov    %rsi,0x8(%rax)
 4409ae7:	eb 11                	jmp    4409afa <github.com/lasselj/timebeat/beater/logging.(*HostClockLogEntry).Log@@Base+0x75a>
 4409ae9:	48 8d 78 08          	lea    0x8(%rax),%rdi
 4409aed:	48 8b b4 24 98 00 00 	mov    0x98(%rsp),%rsi
 4409af4:	00 
 4409af5:	e8 66 cc b4 fd       	call   1f56760 <runtime.gcWriteBarrierSI@@Base>
 4409afa:	48 89 d0             	mov    %rdx,%rax
 4409afd:	48 8b 5c 24 70       	mov    0x70(%rsp),%rbx
 4409b02:	48 8d 0d 77 a1 82 00 	lea    0x82a177(%rip),%rcx        # 4c33c80 <_IO_stdin_used@@Base+0xc80>
 4409b09:	bf 03 00 00 00       	mov    $0x3,%edi
 4409b0e:	e8 cd c6 ae fd       	call   1ef61e0 <runtime.mapassign_faststr@@Base>
 4409b13:	48 8d 15 06 4f 9b 01 	lea    0x19b4f06(%rip),%rdx        # 5dbea20 <type:HuWgEDJW@@Base>
 4409b1a:	48 89 10             	mov    %rdx,(%rax)
 4409b1d:	83 3d 3c 1e a7 03 00 	cmpl   $0x0,0x3a71e3c(%rip)        # 7e7b960 <runtime.writeBarrier@@Base>
 4409b24:	75 0e                	jne    4409b34 <github.com/lasselj/timebeat/beater/logging.(*HostClockLogEntry).Log@@Base+0x794>
 4409b26:	48 8b b4 24 88 00 00 	mov    0x88(%rsp),%rsi
 4409b2d:	00 
 4409b2e:	48 89 70 08          	mov    %rsi,0x8(%rax)
 4409b32:	eb 11                	jmp    4409b45 <github.com/lasselj/timebeat/beater/logging.(*HostClockLogEntry).Log@@Base+0x7a5>
 4409b34:	48 8d 78 08          	lea    0x8(%rax),%rdi
 4409b38:	48 8b b4 24 88 00 00 	mov    0x88(%rsp),%rsi
 4409b3f:	00 
 4409b40:	e8 1b cc b4 fd       	call   1f56760 <runtime.gcWriteBarrierSI@@Base>
 4409b45:	48 89 d0             	mov    %rdx,%rax
 4409b48:	48 8b 5c 24 78       	mov    0x78(%rsp),%rbx
 4409b4d:	48 8d 0d c4 c7 82 00 	lea    0x82c7c4(%rip),%rcx        # 4c36318 <_IO_stdin_used@@Base+0x3318>
 4409b54:	bf 04 00 00 00       	mov    $0x4,%edi
 4409b59:	e8 82 c6 ae fd       	call   1ef61e0 <runtime.mapassign_faststr@@Base>
 4409b5e:	48 8d 15 bb 4e 9b 01 	lea    0x19b4ebb(%rip),%rdx        # 5dbea20 <type:HuWgEDJW@@Base>
 4409b65:	48 89 10             	mov    %rdx,(%rax)
 4409b68:	83 3d f1 1d a7 03 00 	cmpl   $0x0,0x3a71df1(%rip)        # 7e7b960 <runtime.writeBarrier@@Base>
 4409b6f:	75 0b                	jne    4409b7c <github.com/lasselj/timebeat/beater/logging.(*HostClockLogEntry).Log@@Base+0x7dc>
 4409b71:	48 8b 74 24 70       	mov    0x70(%rsp),%rsi
 4409b76:	48 89 70 08          	mov    %rsi,0x8(%rax)
 4409b7a:	eb 0e                	jmp    4409b8a <github.com/lasselj/timebeat/beater/logging.(*HostClockLogEntry).Log@@Base+0x7ea>
 4409b7c:	48 8d 78 08          	lea    0x8(%rax),%rdi
 4409b80:	48 8b 74 24 70       	mov    0x70(%rsp),%rsi
 4409b85:	e8 d6 cb b4 fd       	call   1f56760 <runtime.gcWriteBarrierSI@@Base>
 4409b8a:	48 89 d0             	mov    %rdx,%rax
 4409b8d:	48 8b 9c 24 80 00 00 	mov    0x80(%rsp),%rbx
 4409b94:	00 
 4409b95:	48 8d 0d e9 ee 85 00 	lea    0x85eee9(%rip),%rcx        # 4c68a85 <_IO_stdin_used@@Base+0x35a85>
 4409b9c:	bf 0a 00 00 00       	mov    $0xa,%edi
 4409ba1:	e8 3a c6 ae fd       	call   1ef61e0 <runtime.mapassign_faststr@@Base>
 4409ba6:	48 8d 15 73 4e 9b 01 	lea    0x19b4e73(%rip),%rdx        # 5dbea20 <type:HuWgEDJW@@Base>
 4409bad:	48 89 10             	mov    %rdx,(%rax)
 4409bb0:	83 3d a9 1d a7 03 00 	cmpl   $0x0,0x3a71da9(%rip)        # 7e7b960 <runtime.writeBarrier@@Base>
 4409bb7:	75 0b                	jne    4409bc4 <github.com/lasselj/timebeat/beater/logging.(*HostClockLogEntry).Log@@Base+0x824>
 4409bb9:	48 8b 4c 24 78       	mov    0x78(%rsp),%rcx
 4409bbe:	48 89 48 08          	mov    %rcx,0x8(%rax)
 4409bc2:	eb 0e                	jmp    4409bd2 <github.com/lasselj/timebeat/beater/logging.(*HostClockLogEntry).Log@@Base+0x832>
 4409bc4:	48 8d 78 08          	lea    0x8(%rax),%rdi
 4409bc8:	48 8b 44 24 78       	mov    0x78(%rsp),%rax
 4409bcd:	e8 2e ca b4 fd       	call   1f56600 <runtime.gcWriteBarrier@@Base>
 4409bd2:	44 0f 11 bc 24 b8 00 	movups %xmm15,0xb8(%rsp)
 4409bd9:	00 00 
 4409bdb:	44 0f 11 bc 24 c8 00 	movups %xmm15,0xc8(%rsp)
 4409be2:	00 00 
 4409be4:	44 0f 11 bc 24 d8 00 	movups %xmm15,0xd8(%rsp)
 4409beb:	00 00 
 4409bed:	44 0f 11 bc 24 e8 00 	movups %xmm15,0xe8(%rsp)
 4409bf4:	00 00 
 4409bf6:	48 8b 44 24 58       	mov    0x58(%rsp),%rax
 4409bfb:	48 89 84 24 b8 00 00 	mov    %rax,0xb8(%rsp)
 4409c02:	00 
 4409c03:	48 8b 44 24 50       	mov    0x50(%rsp),%rax
 4409c08:	48 89 84 24 c0 00 00 	mov    %rax,0xc0(%rsp)
 4409c0f:	00 
 4409c10:	48 8b 84 24 80 00 00 	mov    0x80(%rsp),%rax
 4409c17:	00 
 4409c18:	48 89 84 24 d8 00 00 	mov    %rax,0xd8(%rsp)
 4409c1f:	00 
 4409c20:	e8 1b c3 ff ff       	call   4405f40 <github.com/lasselj/timebeat/beater/logging.GetBeatLogger@@Base>
 4409c25:	48 8b 9c 24 b8 00 00 	mov    0xb8(%rsp),%rbx
 4409c2c:	00 
 4409c2d:	48 8b 8c 24 c0 00 00 	mov    0xc0(%rsp),%rcx
 4409c34:	00 
 4409c35:	48 8b bc 24 c8 00 00 	mov    0xc8(%rsp),%rdi
 4409c3c:	00 
 4409c3d:	48 8b b4 24 d0 00 00 	mov    0xd0(%rsp),%rsi
 4409c44:	00 
 4409c45:	4c 8b 84 24 d8 00 00 	mov    0xd8(%rsp),%r8
 4409c4c:	00 
 4409c4d:	4c 8b 8c 24 e0 00 00 	mov    0xe0(%rsp),%r9
 4409c54:	00 
 4409c55:	4c 8b 94 24 e8 00 00 	mov    0xe8(%rsp),%r10
 4409c5c:	00 
 4409c5d:	44 0f b6 9c 24 f0 00 	movzbl 0xf0(%rsp),%r11d
 4409c64:	00 00 
 4409c66:	e8 35 c3 ff ff       	call   4405fa0 <github.com/lasselj/timebeat/beater/logging.(*BeatLogger).LogEvent@@Base>
 4409c6b:	80 3d f7 b2 a3 03 00 	cmpb   $0x0,0x3a3b2f7(%rip)        # 7e44f69 <github.com/lasselj/timebeat/config.appConfig@@Base+0x389>
 4409c72:	74 28                	je     4409c9c <github.com/lasselj/timebeat/beater/logging.(*HostClockLogEntry).Log@@Base+0x8fc>
 4409c74:	48 8b 84 24 08 01 00 	mov    0x108(%rsp),%rax
 4409c7b:	00 
 4409c7c:	48 8b 48 10          	mov    0x10(%rax),%rcx
 4409c80:	48 83 78 18 06       	cmpq   $0x6,0x18(%rax)
 4409c85:	75 15                	jne    4409c9c <github.com/lasselj/timebeat/beater/logging.(*HostClockLogEntry).Log@@Base+0x8fc>
 4409c87:	81 39 6d 61 73 74    	cmpl   $0x7473616d,(%rcx)
 4409c8d:	75 0d                	jne    4409c9c <github.com/lasselj/timebeat/beater/logging.(*HostClockLogEntry).Log@@Base+0x8fc>
 4409c8f:	66 81 79 04 65 72    	cmpw   $0x7265,0x4(%rcx)
 4409c95:	75 05                	jne    4409c9c <github.com/lasselj/timebeat/beater/logging.(*HostClockLogEntry).Log@@Base+0x8fc>
 4409c97:	e8 44 00 00 00       	call   4409ce0 <github.com/lasselj/timebeat/beater/logging.(*HostClockLogEntry).LogStdout@@Base>
 4409c9c:	48 8b ac 24 f8 00 00 	mov    0xf8(%rsp),%rbp
 4409ca3:	00 
 4409ca4:	48 81 c4 00 01 00 00 	add    $0x100,%rsp
 4409cab:	c3                   	ret
 4409cac:	48 8b ac 24 f8 00 00 	mov    0xf8(%rsp),%rbp
 4409cb3:	00 
 4409cb4:	48 81 c4 00 01 00 00 	add    $0x100,%rsp
 4409cbb:	c3                   	ret
 4409cbc:	48 89 44 24 08       	mov    %rax,0x8(%rsp)
 4409cc1:	e8 9a a7 b4 fd       	call   1f54460 <runtime.morestack_noctxt.abi0@@Base>
 4409cc6:	48 8b 44 24 08       	mov    0x8(%rsp),%rax
 4409ccb:	e9 d0 f6 ff ff       	jmp    44093a0 <github.com/lasselj/timebeat/beater/logging.(*HostClockLogEntry).Log@@Base>
 4409cd0:	cc                   	int3
 4409cd1:	cc                   	int3
 4409cd2:	cc                   	int3
 4409cd3:	cc                   	int3
 4409cd4:	cc                   	int3
 4409cd5:	cc                   	int3
 4409cd6:	cc                   	int3
 4409cd7:	cc                   	int3
 4409cd8:	cc                   	int3
 4409cd9:	cc                   	int3
 4409cda:	cc                   	int3
 4409cdb:	cc                   	int3
 4409cdc:	cc                   	int3
 4409cdd:	cc                   	int3
 4409cde:	cc                   	int3
 4409cdf:	cc                   	int3
