# github.com/lasselj/timebeat/beater/clocksync/sources.(*TimeSourceStore).setPTPTransmissionLayerInformation
# addr 0x4417cc0 size 768 (0x300)


/mnt/c/Users/SHIWA/GitHub/TimeCard-Mini/timebeat-extracted/usr/share/timebeat/bin/timebeat:     file format elf64-x86-64


Disassembly of section .text:

0000000004417cc0 <github.com/lasselj/timebeat/beater/clocksync/sources.(*TimeSourceStore).setPTPTransmissionLayerInformation@@Base>:
 4417cc0:	4c 8d 64 24 e8       	lea    -0x18(%rsp),%r12
 4417cc5:	4d 3b 66 10          	cmp    0x10(%r14),%r12
 4417cc9:	0f 86 c3 02 00 00    	jbe    4417f92 <github.com/lasselj/timebeat/beater/clocksync/sources.(*TimeSourceStore).setPTPTransmissionLayerInformation@@Base+0x2d2>
 4417ccf:	48 81 ec 98 00 00 00 	sub    $0x98,%rsp
 4417cd6:	48 89 ac 24 90 00 00 	mov    %rbp,0x90(%rsp)
 4417cdd:	00 
 4417cde:	48 8d ac 24 90 00 00 	lea    0x90(%rsp),%rbp
 4417ce5:	00 
 4417ce6:	48 8b 9c 24 20 01 00 	mov    0x120(%rsp),%rbx
 4417ced:	00 
 4417cee:	48 8b 8c 24 18 01 00 	mov    0x118(%rsp),%rcx
 4417cf5:	00 
 4417cf6:	48 85 db             	test   %rbx,%rbx
 4417cf9:	0f 84 73 02 00 00    	je     4417f72 <github.com/lasselj/timebeat/beater/clocksync/sources.(*TimeSourceStore).setPTPTransmissionLayerInformation@@Base+0x2b2>
 4417cff:	48 89 84 24 c8 02 00 	mov    %rax,0x2c8(%rsp)
 4417d06:	00 
 4417d07:	48 89 c8             	mov    %rcx,%rax
 4417d0a:	e8 b1 85 c2 fd       	call   20402c0 <net.InterfaceByName@@Base>
 4417d0f:	48 85 db             	test   %rbx,%rbx
 4417d12:	0f 84 dd 00 00 00    	je     4417df5 <github.com/lasselj/timebeat/beater/clocksync/sources.(*TimeSourceStore).setPTPTransmissionLayerInformation@@Base+0x135>
 4417d18:	48 8b 53 18          	mov    0x18(%rbx),%rdx
 4417d1c:	48 89 c8             	mov    %rcx,%rax
 4417d1f:	90                   	nop
 4417d20:	ff d2                	call   *%rdx
 4417d22:	48 89 44 24 58       	mov    %rax,0x58(%rsp)
 4417d27:	48 89 5c 24 40       	mov    %rbx,0x40(%rsp)
 4417d2c:	44 0f 11 7c 24 70    	movups %xmm15,0x70(%rsp)
 4417d32:	44 0f 11 bc 24 80 00 	movups %xmm15,0x80(%rsp)
 4417d39:	00 00 
 4417d3b:	48 8b 8c 24 18 01 00 	mov    0x118(%rsp),%rcx
 4417d42:	00 
 4417d43:	48 8b 94 24 20 01 00 	mov    0x120(%rsp),%rdx
 4417d4a:	00 
 4417d4b:	48 89 c8             	mov    %rcx,%rax
 4417d4e:	48 89 d3             	mov    %rdx,%rbx
 4417d51:	e8 0a 60 ad fd       	call   1eedd60 <runtime.convTstring@@Base>
 4417d56:	48 8d 0d 43 69 39 01 	lea    0x1396943(%rip),%rcx        # 57ae6a0 <type:string@@Base>
 4417d5d:	48 89 4c 24 70       	mov    %rcx,0x70(%rsp)
 4417d62:	48 89 44 24 78       	mov    %rax,0x78(%rsp)
 4417d67:	48 8b 44 24 58       	mov    0x58(%rsp),%rax
 4417d6c:	48 8b 5c 24 40       	mov    0x40(%rsp),%rbx
 4417d71:	e8 ea 5f ad fd       	call   1eedd60 <runtime.convTstring@@Base>
 4417d76:	48 8d 0d 23 69 39 01 	lea    0x1396923(%rip),%rcx        # 57ae6a0 <type:string@@Base>
 4417d7d:	48 89 8c 24 80 00 00 	mov    %rcx,0x80(%rsp)
 4417d84:	00 
 4417d85:	48 89 84 24 88 00 00 	mov    %rax,0x88(%rsp)
 4417d8c:	00 
 4417d8d:	48 8d 05 cd c3 9c 00 	lea    0x9cc3cd(%rip),%rax        # 4de4161 <_IO_stdin_used@@Base+0x1b1161>
 4417d94:	bb 1b 00 00 00       	mov    $0x1b,%ebx
 4417d99:	bf 02 00 00 00       	mov    $0x2,%edi
 4417d9e:	48 89 fe             	mov    %rdi,%rsi
 4417da1:	48 8d 4c 24 70       	lea    0x70(%rsp),%rcx
 4417da6:	e8 55 cb bd fd       	call   1ff4900 <fmt.Sprintf@@Base>
 4417dab:	48 89 44 24 48       	mov    %rax,0x48(%rsp)
 4417db0:	48 89 5c 24 38       	mov    %rbx,0x38(%rsp)
 4417db5:	90                   	nop
 4417db6:	48 8b 0d 83 74 a1 03 	mov    0x3a17483(%rip),%rcx        # 7e2f240 <os.Stdout@@Base>
 4417dbd:	48 89 df             	mov    %rbx,%rdi
 4417dc0:	31 f6                	xor    %esi,%esi
 4417dc2:	45 31 c0             	xor    %r8d,%r8d
 4417dc5:	4d 89 c1             	mov    %r8,%r9
 4417dc8:	48 89 cb             	mov    %rcx,%rbx
 4417dcb:	48 89 c1             	mov    %rax,%rcx
 4417dce:	48 8d 05 4b d4 ae 01 	lea    0x1aed44b(%rip),%rax        # 5f05220 <go:itab.*os.File,io.Writer@@Base>
 4417dd5:	e8 06 ca bd fd       	call   1ff47e0 <fmt.Fprintf@@Base>
 4417dda:	48 8b 8c 24 c8 02 00 	mov    0x2c8(%rsp),%rcx
 4417de1:	00 
 4417de2:	48 8b 41 78          	mov    0x78(%rcx),%rax
 4417de6:	48 8b 5c 24 48       	mov    0x48(%rsp),%rbx
 4417deb:	48 8b 4c 24 38       	mov    0x38(%rsp),%rcx
 4417df0:	e8 8b f0 fe ff       	call   4406e80 <github.com/lasselj/timebeat/beater/logging.(*Logger).Critical@@Base>
 4417df5:	48 8b 94 24 18 01 00 	mov    0x118(%rsp),%rdx
 4417dfc:	00 
 4417dfd:	48 8b b4 24 20 01 00 	mov    0x120(%rsp),%rsi
 4417e04:	00 
 4417e05:	48 89 54 24 60       	mov    %rdx,0x60(%rsp)
 4417e0a:	48 89 74 24 68       	mov    %rsi,0x68(%rsp)
 4417e0f:	48 8b 84 24 c8 02 00 	mov    0x2c8(%rsp),%rax
 4417e16:	00 
 4417e17:	84 00                	test   %al,(%rax)
 4417e19:	48 83 c0 48          	add    $0x48,%rax
 4417e1d:	48 89 44 24 50       	mov    %rax,0x50(%rsp)
 4417e22:	48 8d 1d 77 68 39 01 	lea    0x1396877(%rip),%rbx        # 57ae6a0 <type:string@@Base>
 4417e29:	48 8d 4c 24 60       	lea    0x60(%rsp),%rcx
 4417e2e:	e8 ed ea b5 fd       	call   1f76920 <sync.(*Map).Load@@Base>
 4417e33:	84 c9                	test   %cl,%cl
 4417e35:	0f 84 bb 00 00 00    	je     4417ef6 <github.com/lasselj/timebeat/beater/clocksync/sources.(*TimeSourceStore).setPTPTransmissionLayerInformation@@Base+0x236>
 4417e3b:	48 8d 15 1e 28 39 01 	lea    0x139281e(%rip),%rdx        # 57aa660 <type:int@@Base>
 4417e42:	48 39 d0             	cmp    %rdx,%rax
 4417e45:	0f 85 37 01 00 00    	jne    4417f82 <github.com/lasselj/timebeat/beater/clocksync/sources.(*TimeSourceStore).setPTPTransmissionLayerInformation@@Base+0x2c2>
 4417e4b:	48 8b 0b             	mov    (%rbx),%rcx
 4417e4e:	48 83 f9 01          	cmp    $0x1,%rcx
 4417e52:	75 51                	jne    4417ea5 <github.com/lasselj/timebeat/beater/clocksync/sources.(*TimeSourceStore).setPTPTransmissionLayerInformation@@Base+0x1e5>
 4417e54:	80 bc 24 b0 00 00 00 	cmpb   $0x0,0xb0(%rsp)
 4417e5b:	00 
 4417e5c:	0f 1f 40 00          	nopl   0x0(%rax)
 4417e60:	0f 85 0c 01 00 00    	jne    4417f72 <github.com/lasselj/timebeat/beater/clocksync/sources.(*TimeSourceStore).setPTPTransmissionLayerInformation@@Base+0x2b2>
 4417e66:	48 8b 84 24 18 01 00 	mov    0x118(%rsp),%rax
 4417e6d:	00 
 4417e6e:	48 8b 9c 24 20 01 00 	mov    0x120(%rsp),%rbx
 4417e75:	00 
 4417e76:	e8 e5 5e ad fd       	call   1eedd60 <runtime.convTstring@@Base>
 4417e7b:	48 8d 1d 1e 68 39 01 	lea    0x139681e(%rip),%rbx        # 57ae6a0 <type:string@@Base>
 4417e82:	48 89 c1             	mov    %rax,%rcx
 4417e85:	48 8d 3d d4 27 39 01 	lea    0x13927d4(%rip),%rdi        # 57aa660 <type:int@@Base>
 4417e8c:	48 8d 35 9d 9c 0c 01 	lea    0x10c9c9d(%rip),%rsi        # 54e1b30 <go:link.pkghashbytes.vendor/golang.org/x/text/unicode/norm@@Base+0xb0>
 4417e93:	48 8b 44 24 50       	mov    0x50(%rsp),%rax
 4417e98:	e8 c3 f7 b5 fd       	call   1f77660 <sync.(*Map).Swap@@Base>
 4417e9d:	0f 1f 00             	nopl   (%rax)
 4417ea0:	e9 cd 00 00 00       	jmp    4417f72 <github.com/lasselj/timebeat/beater/clocksync/sources.(*TimeSourceStore).setPTPTransmissionLayerInformation@@Base+0x2b2>
 4417ea5:	48 83 f9 02          	cmp    $0x2,%rcx
 4417ea9:	0f 85 c3 00 00 00    	jne    4417f72 <github.com/lasselj/timebeat/beater/clocksync/sources.(*TimeSourceStore).setPTPTransmissionLayerInformation@@Base+0x2b2>
 4417eaf:	80 bc 24 b0 00 00 00 	cmpb   $0x0,0xb0(%rsp)
 4417eb6:	00 
 4417eb7:	0f 84 b5 00 00 00    	je     4417f72 <github.com/lasselj/timebeat/beater/clocksync/sources.(*TimeSourceStore).setPTPTransmissionLayerInformation@@Base+0x2b2>
 4417ebd:	48 8b 84 24 18 01 00 	mov    0x118(%rsp),%rax
 4417ec4:	00 
 4417ec5:	48 8b 9c 24 20 01 00 	mov    0x120(%rsp),%rbx
 4417ecc:	00 
 4417ecd:	e8 8e 5e ad fd       	call   1eedd60 <runtime.convTstring@@Base>
 4417ed2:	48 8d 1d c7 67 39 01 	lea    0x13967c7(%rip),%rbx        # 57ae6a0 <type:string@@Base>
 4417ed9:	48 89 c1             	mov    %rax,%rcx
 4417edc:	48 8d 3d 7d 27 39 01 	lea    0x139277d(%rip),%rdi        # 57aa660 <type:int@@Base>
 4417ee3:	48 8d 35 46 9c 0c 01 	lea    0x10c9c46(%rip),%rsi        # 54e1b30 <go:link.pkghashbytes.vendor/golang.org/x/text/unicode/norm@@Base+0xb0>
 4417eea:	48 8b 44 24 50       	mov    0x50(%rsp),%rax
 4417eef:	e8 6c f7 b5 fd       	call   1f77660 <sync.(*Map).Swap@@Base>
 4417ef4:	eb 7c                	jmp    4417f72 <github.com/lasselj/timebeat/beater/clocksync/sources.(*TimeSourceStore).setPTPTransmissionLayerInformation@@Base+0x2b2>
 4417ef6:	80 bc 24 b0 00 00 00 	cmpb   $0x0,0xb0(%rsp)
 4417efd:	00 
 4417efe:	66 90                	xchg   %ax,%ax
 4417f00:	74 39                	je     4417f3b <github.com/lasselj/timebeat/beater/clocksync/sources.(*TimeSourceStore).setPTPTransmissionLayerInformation@@Base+0x27b>
 4417f02:	48 8b 84 24 18 01 00 	mov    0x118(%rsp),%rax
 4417f09:	00 
 4417f0a:	48 8b 9c 24 20 01 00 	mov    0x120(%rsp),%rbx
 4417f11:	00 
 4417f12:	e8 49 5e ad fd       	call   1eedd60 <runtime.convTstring@@Base>
 4417f17:	48 8d 1d 82 67 39 01 	lea    0x1396782(%rip),%rbx        # 57ae6a0 <type:string@@Base>
 4417f1e:	48 89 c1             	mov    %rax,%rcx
 4417f21:	48 8d 3d 38 27 39 01 	lea    0x1392738(%rip),%rdi        # 57aa660 <type:int@@Base>
 4417f28:	48 8d 35 59 e4 0b 01 	lea    0x10be459(%rip),%rsi        # 54d6388 <_IO_stdin_used@@Base+0x8a3388>
 4417f2f:	48 8b 44 24 50       	mov    0x50(%rsp),%rax
 4417f34:	e8 27 f7 b5 fd       	call   1f77660 <sync.(*Map).Swap@@Base>
 4417f39:	eb 37                	jmp    4417f72 <github.com/lasselj/timebeat/beater/clocksync/sources.(*TimeSourceStore).setPTPTransmissionLayerInformation@@Base+0x2b2>
 4417f3b:	48 8b 84 24 18 01 00 	mov    0x118(%rsp),%rax
 4417f42:	00 
 4417f43:	48 8b 9c 24 20 01 00 	mov    0x120(%rsp),%rbx
 4417f4a:	00 
 4417f4b:	e8 10 5e ad fd       	call   1eedd60 <runtime.convTstring@@Base>
 4417f50:	48 8d 1d 49 67 39 01 	lea    0x1396749(%rip),%rbx        # 57ae6a0 <type:string@@Base>
 4417f57:	48 89 c1             	mov    %rax,%rcx
 4417f5a:	48 8d 3d ff 26 39 01 	lea    0x13926ff(%rip),%rdi        # 57aa660 <type:int@@Base>
 4417f61:	48 8d 35 90 e4 0b 01 	lea    0x10be490(%rip),%rsi        # 54d63f8 <_IO_stdin_used@@Base+0x8a33f8>
 4417f68:	48 8b 44 24 50       	mov    0x50(%rsp),%rax
 4417f6d:	e8 ee f6 b5 fd       	call   1f77660 <sync.(*Map).Swap@@Base>
 4417f72:	48 8b ac 24 90 00 00 	mov    0x90(%rsp),%rbp
 4417f79:	00 
 4417f7a:	48 81 c4 98 00 00 00 	add    $0x98,%rsp
 4417f81:	c3                   	ret
 4417f82:	48 89 d3             	mov    %rdx,%rbx
 4417f85:	48 8d 0d b4 c3 49 01 	lea    0x149c3b4(%rip),%rcx        # 58b4340 <type:tpDRQG8O@@Base>
 4417f8c:	e8 0f 59 ad fd       	call   1eed8a0 <runtime.panicdottypeE@@Base>
 4417f91:	90                   	nop
 4417f92:	48 89 84 24 30 02 00 	mov    %rax,0x230(%rsp)
 4417f99:	00 
 4417f9a:	e8 c1 c4 b3 fd       	call   1f54460 <runtime.morestack_noctxt.abi0@@Base>
 4417f9f:	48 8b 84 24 30 02 00 	mov    0x230(%rsp),%rax
 4417fa6:	00 
 4417fa7:	e9 14 fd ff ff       	jmp    4417cc0 <github.com/lasselj/timebeat/beater/clocksync/sources.(*TimeSourceStore).setPTPTransmissionLayerInformation@@Base>
 4417fac:	cc                   	int3
 4417fad:	cc                   	int3
 4417fae:	cc                   	int3
 4417faf:	cc                   	int3
 4417fb0:	cc                   	int3
 4417fb1:	cc                   	int3
 4417fb2:	cc                   	int3
 4417fb3:	cc                   	int3
 4417fb4:	cc                   	int3
 4417fb5:	cc                   	int3
 4417fb6:	cc                   	int3
 4417fb7:	cc                   	int3
 4417fb8:	cc                   	int3
 4417fb9:	cc                   	int3
 4417fba:	cc                   	int3
 4417fbb:	cc                   	int3
 4417fbc:	cc                   	int3
 4417fbd:	cc                   	int3
 4417fbe:	cc                   	int3
 4417fbf:	cc                   	int3
