# github.com/lasselj/timebeat/beater/clocksync/clients/vendors/timebeat/modules/source_watchdog.CardConfigPartsToWatchdogConfig
# addr 0x4b705a0 size 12288 (0x3000)


/mnt/c/Users/SHIWA/GitHub/TimeCard-Mini/timebeat-extracted/usr/share/timebeat/bin/timebeat:     file format elf64-x86-64


Disassembly of section .text:

0000000004b705a0 <github.com/lasselj/timebeat/beater/clocksync/clients/vendors/timebeat/modules/source_watchdog.CardConfigPartsToWatchdogConfig@@Base>:
 4b705a0:	4c 8d 64 24 d0       	lea    -0x30(%rsp),%r12
 4b705a5:	4d 3b 66 10          	cmp    0x10(%r14),%r12
 4b705a9:	0f 86 a6 04 00 00    	jbe    4b70a55 <github.com/lasselj/timebeat/beater/clocksync/clients/vendors/timebeat/modules/source_watchdog.CardConfigPartsToWatchdogConfig@@Base+0x4b5>
 4b705af:	48 81 ec b0 00 00 00 	sub    $0xb0,%rsp
 4b705b6:	48 89 ac 24 a8 00 00 	mov    %rbp,0xa8(%rsp)
 4b705bd:	00 
 4b705be:	48 8d ac 24 a8 00 00 	lea    0xa8(%rsp),%rbp
 4b705c5:	00 
 4b705c6:	48 89 84 24 b8 00 00 	mov    %rax,0xb8(%rsp)
 4b705cd:	00 
 4b705ce:	48 83 fb 04          	cmp    $0x4,%rbx
 4b705d2:	0f 8c 17 04 00 00    	jl     4b709ef <github.com/lasselj/timebeat/beater/clocksync/clients/vendors/timebeat/modules/source_watchdog.CardConfigPartsToWatchdogConfig@@Base+0x44f>
 4b705d8:	48 89 bc 24 d0 00 00 	mov    %rdi,0xd0(%rsp)
 4b705df:	00 
 4b705e0:	48 89 44 24 70       	mov    %rax,0x70(%rsp)
 4b705e5:	48 89 9c 24 c0 00 00 	mov    %rbx,0xc0(%rsp)
 4b705ec:	00 
 4b705ed:	48 89 8c 24 c8 00 00 	mov    %rcx,0xc8(%rsp)
 4b705f4:	00 
 4b705f5:	48 8b 50 20          	mov    0x20(%rax),%rdx
 4b705f9:	48 8b 70 28          	mov    0x28(%rax),%rsi
 4b705fd:	0f 1f 00             	nopl   (%rax)
 4b70600:	48 83 fe 0a          	cmp    $0xa,%rsi
 4b70604:	0f 85 2b 01 00 00    	jne    4b70735 <github.com/lasselj/timebeat/beater/clocksync/clients/vendors/timebeat/modules/source_watchdog.CardConfigPartsToWatchdogConfig@@Base+0x195>
 4b7060a:	48 be 6d 69 6e 5f 61 	movabs $0x697463615f6e696d,%rsi
 4b70611:	63 74 69 
 4b70614:	48 39 32             	cmp    %rsi,(%rdx)
 4b70617:	0f 85 be 03 00 00    	jne    4b709db <github.com/lasselj/timebeat/beater/clocksync/clients/vendors/timebeat/modules/source_watchdog.CardConfigPartsToWatchdogConfig@@Base+0x43b>
 4b7061d:	66 81 7a 08 76 65    	cmpw   $0x6576,0x8(%rdx)
 4b70623:	0f 85 b2 03 00 00    	jne    4b709db <github.com/lasselj/timebeat/beater/clocksync/clients/vendors/timebeat/modules/source_watchdog.CardConfigPartsToWatchdogConfig@@Base+0x43b>
 4b70629:	48 8b 48 30          	mov    0x30(%rax),%rcx
 4b7062d:	48 8b 58 38          	mov    0x38(%rax),%rbx
 4b70631:	48 89 c8             	mov    %rcx,%rax
 4b70634:	e8 c7 ea 3f fd       	call   1f6f100 <strconv.Atoi@@Base>
 4b70639:	48 85 db             	test   %rbx,%rbx
 4b7063c:	75 11                	jne    4b7064f <github.com/lasselj/timebeat/beater/clocksync/clients/vendors/timebeat/modules/source_watchdog.CardConfigPartsToWatchdogConfig@@Base+0xaf>
 4b7063e:	48 8b 8c 24 d0 00 00 	mov    0xd0(%rsp),%rcx
 4b70645:	00 
 4b70646:	48 89 41 08          	mov    %rax,0x8(%rcx)
 4b7064a:	e9 8c 03 00 00       	jmp    4b709db <github.com/lasselj/timebeat/beater/clocksync/clients/vendors/timebeat/modules/source_watchdog.CardConfigPartsToWatchdogConfig@@Base+0x43b>
 4b7064f:	48 89 4c 24 60       	mov    %rcx,0x60(%rsp)
 4b70654:	48 89 5c 24 38       	mov    %rbx,0x38(%rsp)
 4b70659:	48 8b 44 24 70       	mov    0x70(%rsp),%rax
 4b7065e:	48 8b 9c 24 c0 00 00 	mov    0xc0(%rsp),%rbx
 4b70665:	00 
 4b70666:	48 8b 8c 24 c8 00 00 	mov    0xc8(%rsp),%rcx
 4b7066d:	00 
 4b7066e:	48 8d 3d 43 6a 96 00 	lea    0x966a43(%rip),%rdi        # 54d70b8 <_IO_stdin_used@@Base+0x8a40b8>
 4b70675:	be 01 00 00 00       	mov    $0x1,%esi
 4b7067a:	e8 a1 6f 49 fd       	call   2007620 <strings.Join@@Base>
 4b7067f:	48 89 44 24 70       	mov    %rax,0x70(%rsp)
 4b70684:	48 89 5c 24 48       	mov    %rbx,0x48(%rsp)
 4b70689:	48 8b 54 24 38       	mov    0x38(%rsp),%rdx
 4b7068e:	48 8b 52 18          	mov    0x18(%rdx),%rdx
 4b70692:	48 8b 44 24 60       	mov    0x60(%rsp),%rax
 4b70697:	ff d2                	call   *%rdx
 4b70699:	48 89 44 24 68       	mov    %rax,0x68(%rsp)
 4b7069e:	48 89 5c 24 40       	mov    %rbx,0x40(%rsp)
 4b706a3:	44 0f 11 bc 24 88 00 	movups %xmm15,0x88(%rsp)
 4b706aa:	00 00 
 4b706ac:	44 0f 11 bc 24 98 00 	movups %xmm15,0x98(%rsp)
 4b706b3:	00 00 
 4b706b5:	48 8b 44 24 70       	mov    0x70(%rsp),%rax
 4b706ba:	48 8b 5c 24 48       	mov    0x48(%rsp),%rbx
 4b706bf:	90                   	nop
 4b706c0:	e8 9b d6 37 fd       	call   1eedd60 <runtime.convTstring@@Base>
 4b706c5:	48 8d 15 d4 df c3 00 	lea    0xc3dfd4(%rip),%rdx        # 57ae6a0 <type:string@@Base>
 4b706cc:	48 89 94 24 88 00 00 	mov    %rdx,0x88(%rsp)
 4b706d3:	00 
 4b706d4:	48 89 84 24 90 00 00 	mov    %rax,0x90(%rsp)
 4b706db:	00 
 4b706dc:	48 8b 44 24 68       	mov    0x68(%rsp),%rax
 4b706e1:	48 8b 5c 24 40       	mov    0x40(%rsp),%rbx
 4b706e6:	e8 75 d6 37 fd       	call   1eedd60 <runtime.convTstring@@Base>
 4b706eb:	48 8d 15 ae df c3 00 	lea    0xc3dfae(%rip),%rdx        # 57ae6a0 <type:string@@Base>
 4b706f2:	48 89 94 24 98 00 00 	mov    %rdx,0x98(%rsp)
 4b706f9:	00 
 4b706fa:	48 89 84 24 a0 00 00 	mov    %rax,0xa0(%rsp)
 4b70701:	00 
 4b70702:	48 8d 05 2e 22 26 00 	lea    0x26222e(%rip),%rax        # 4dd2937 <_IO_stdin_used@@Base+0x19f937>
 4b70709:	bb 16 00 00 00       	mov    $0x16,%ebx
 4b7070e:	48 8d 8c 24 88 00 00 	lea    0x88(%rsp),%rcx
 4b70715:	00 
 4b70716:	bf 02 00 00 00       	mov    $0x2,%edi
 4b7071b:	48 89 fe             	mov    %rdi,%rsi
 4b7071e:	66 90                	xchg   %ax,%ax
 4b70720:	e8 3b 0b 48 fd       	call   1ff1260 <fmt.Errorf@@Base>
 4b70725:	48 8b ac 24 a8 00 00 	mov    0xa8(%rsp),%rbp
 4b7072c:	00 
 4b7072d:	48 81 c4 b0 00 00 00 	add    $0xb0,%rsp
 4b70734:	c3                   	ret
 4b70735:	48 83 fe 0f          	cmp    $0xf,%rsi
 4b70739:	0f 85 56 01 00 00    	jne    4b70895 <github.com/lasselj/timebeat/beater/clocksync/clients/vendors/timebeat/modules/source_watchdog.CardConfigPartsToWatchdogConfig@@Base+0x2f5>
 4b7073f:	48 be 72 61 6e 67 65 	movabs $0x68745f65676e6172,%rsi
 4b70746:	5f 74 68 
 4b70749:	48 39 32             	cmp    %rsi,(%rdx)
 4b7074c:	0f 85 89 02 00 00    	jne    4b709db <github.com/lasselj/timebeat/beater/clocksync/clients/vendors/timebeat/modules/source_watchdog.CardConfigPartsToWatchdogConfig@@Base+0x43b>
 4b70752:	81 7a 08 72 65 73 68 	cmpl   $0x68736572,0x8(%rdx)
 4b70759:	0f 85 7c 02 00 00    	jne    4b709db <github.com/lasselj/timebeat/beater/clocksync/clients/vendors/timebeat/modules/source_watchdog.CardConfigPartsToWatchdogConfig@@Base+0x43b>
 4b7075f:	66 81 7a 0c 6f 6c    	cmpw   $0x6c6f,0xc(%rdx)
 4b70765:	0f 85 70 02 00 00    	jne    4b709db <github.com/lasselj/timebeat/beater/clocksync/clients/vendors/timebeat/modules/source_watchdog.CardConfigPartsToWatchdogConfig@@Base+0x43b>
 4b7076b:	80 7a 0e 64          	cmpb   $0x64,0xe(%rdx)
 4b7076f:	0f 85 66 02 00 00    	jne    4b709db <github.com/lasselj/timebeat/beater/clocksync/clients/vendors/timebeat/modules/source_watchdog.CardConfigPartsToWatchdogConfig@@Base+0x43b>
 4b70775:	48 8b 48 30          	mov    0x30(%rax),%rcx
 4b70779:	48 8b 58 38          	mov    0x38(%rax),%rbx
 4b7077d:	48 89 c8             	mov    %rcx,%rax
 4b70780:	e8 9b 44 89 ff       	call   4404c20 <github.com/lasselj/timebeat/beater/utility.ParseTimeString@@Base>
 4b70785:	48 85 db             	test   %rbx,%rbx
 4b70788:	75 21                	jne    4b707ab <github.com/lasselj/timebeat/beater/clocksync/clients/vendors/timebeat/modules/source_watchdog.CardConfigPartsToWatchdogConfig@@Base+0x20b>
 4b7078a:	48 8b 8c 24 d0 00 00 	mov    0xd0(%rsp),%rcx
 4b70791:	00 
 4b70792:	48 89 41 40          	mov    %rax,0x40(%rcx)
 4b70796:	48 c7 41 30 e8 03 00 	movq   $0x3e8,0x30(%rcx)
 4b7079d:	00 
 4b7079e:	48 c7 41 28 78 00 00 	movq   $0x78,0x28(%rcx)
 4b707a5:	00 
 4b707a6:	e9 30 02 00 00       	jmp    4b709db <github.com/lasselj/timebeat/beater/clocksync/clients/vendors/timebeat/modules/source_watchdog.CardConfigPartsToWatchdogConfig@@Base+0x43b>
 4b707ab:	48 89 4c 24 58       	mov    %rcx,0x58(%rsp)
 4b707b0:	48 89 5c 24 30       	mov    %rbx,0x30(%rsp)
 4b707b5:	48 8b 44 24 70       	mov    0x70(%rsp),%rax
 4b707ba:	48 8b 9c 24 c0 00 00 	mov    0xc0(%rsp),%rbx
 4b707c1:	00 
 4b707c2:	48 8b 8c 24 c8 00 00 	mov    0xc8(%rsp),%rcx
 4b707c9:	00 
 4b707ca:	48 8d 3d e7 68 96 00 	lea    0x9668e7(%rip),%rdi        # 54d70b8 <_IO_stdin_used@@Base+0x8a40b8>
 4b707d1:	be 01 00 00 00       	mov    $0x1,%esi
 4b707d6:	e8 45 6e 49 fd       	call   2007620 <strings.Join@@Base>
 4b707db:	48 89 44 24 70       	mov    %rax,0x70(%rsp)
 4b707e0:	48 89 5c 24 48       	mov    %rbx,0x48(%rsp)
 4b707e5:	48 8b 54 24 30       	mov    0x30(%rsp),%rdx
 4b707ea:	48 8b 52 18          	mov    0x18(%rdx),%rdx
 4b707ee:	48 8b 44 24 58       	mov    0x58(%rsp),%rax
 4b707f3:	ff d2                	call   *%rdx
 4b707f5:	48 89 44 24 68       	mov    %rax,0x68(%rsp)
 4b707fa:	48 89 5c 24 40       	mov    %rbx,0x40(%rsp)
 4b707ff:	44 0f 11 bc 24 88 00 	movups %xmm15,0x88(%rsp)
 4b70806:	00 00 
 4b70808:	44 0f 11 bc 24 98 00 	movups %xmm15,0x98(%rsp)
 4b7080f:	00 00 
 4b70811:	48 8b 44 24 70       	mov    0x70(%rsp),%rax
 4b70816:	48 8b 5c 24 48       	mov    0x48(%rsp),%rbx
 4b7081b:	0f 1f 44 00 00       	nopl   0x0(%rax,%rax,1)
 4b70820:	e8 3b d5 37 fd       	call   1eedd60 <runtime.convTstring@@Base>
 4b70825:	48 8d 15 74 de c3 00 	lea    0xc3de74(%rip),%rdx        # 57ae6a0 <type:string@@Base>
 4b7082c:	48 89 94 24 88 00 00 	mov    %rdx,0x88(%rsp)
 4b70833:	00 
 4b70834:	48 89 84 24 90 00 00 	mov    %rax,0x90(%rsp)
 4b7083b:	00 
 4b7083c:	48 8b 44 24 68       	mov    0x68(%rsp),%rax
 4b70841:	48 8b 5c 24 40       	mov    0x40(%rsp),%rbx
 4b70846:	e8 15 d5 37 fd       	call   1eedd60 <runtime.convTstring@@Base>
 4b7084b:	48 8d 15 4e de c3 00 	lea    0xc3de4e(%rip),%rdx        # 57ae6a0 <type:string@@Base>
 4b70852:	48 89 94 24 98 00 00 	mov    %rdx,0x98(%rsp)
 4b70859:	00 
 4b7085a:	48 89 84 24 a0 00 00 	mov    %rax,0xa0(%rsp)
 4b70861:	00 
 4b70862:	48 8d 05 ce 20 26 00 	lea    0x2620ce(%rip),%rax        # 4dd2937 <_IO_stdin_used@@Base+0x19f937>
 4b70869:	bb 16 00 00 00       	mov    $0x16,%ebx
 4b7086e:	48 8d 8c 24 88 00 00 	lea    0x88(%rsp),%rcx
 4b70875:	00 
 4b70876:	bf 02 00 00 00       	mov    $0x2,%edi
 4b7087b:	48 89 fe             	mov    %rdi,%rsi
 4b7087e:	66 90                	xchg   %ax,%ax
 4b70880:	e8 db 09 48 fd       	call   1ff1260 <fmt.Errorf@@Base>
 4b70885:	48 8b ac 24 a8 00 00 	mov    0xa8(%rsp),%rbp
 4b7088c:	00 
 4b7088d:	48 81 c4 b0 00 00 00 	add    $0xb0,%rsp
 4b70894:	c3                   	ret
 4b70895:	48 83 fe 10          	cmp    $0x10,%rsi
 4b70899:	0f 85 3c 01 00 00    	jne    4b709db <github.com/lasselj/timebeat/beater/clocksync/clients/vendors/timebeat/modules/source_watchdog.CardConfigPartsToWatchdogConfig@@Base+0x43b>
 4b7089f:	48 be 61 72 6d 69 6e 	movabs $0x745f676e696d7261,%rsi
 4b708a6:	67 5f 74 
 4b708a9:	48 39 32             	cmp    %rsi,(%rdx)
 4b708ac:	0f 85 29 01 00 00    	jne    4b709db <github.com/lasselj/timebeat/beater/clocksync/clients/vendors/timebeat/modules/source_watchdog.CardConfigPartsToWatchdogConfig@@Base+0x43b>
 4b708b2:	48 be 68 72 65 73 68 	movabs $0x646c6f6873657268,%rsi
 4b708b9:	6f 6c 64 
 4b708bc:	0f 1f 40 00          	nopl   0x0(%rax)
 4b708c0:	48 39 72 08          	cmp    %rsi,0x8(%rdx)
 4b708c4:	0f 85 11 01 00 00    	jne    4b709db <github.com/lasselj/timebeat/beater/clocksync/clients/vendors/timebeat/modules/source_watchdog.CardConfigPartsToWatchdogConfig@@Base+0x43b>
 4b708ca:	48 8b 48 30          	mov    0x30(%rax),%rcx
 4b708ce:	48 8b 58 38          	mov    0x38(%rax),%rbx
 4b708d2:	48 89 c8             	mov    %rcx,%rax
 4b708d5:	e8 46 43 89 ff       	call   4404c20 <github.com/lasselj/timebeat/beater/utility.ParseTimeString@@Base>
 4b708da:	48 85 db             	test   %rbx,%rbx
 4b708dd:	75 19                	jne    4b708f8 <github.com/lasselj/timebeat/beater/clocksync/clients/vendors/timebeat/modules/source_watchdog.CardConfigPartsToWatchdogConfig@@Base+0x358>
 4b708df:	48 8b 8c 24 d0 00 00 	mov    0xd0(%rsp),%rcx
 4b708e6:	00 
 4b708e7:	48 89 41 48          	mov    %rax,0x48(%rcx)
 4b708eb:	48 c7 41 38 64 00 00 	movq   $0x64,0x38(%rcx)
 4b708f2:	00 
 4b708f3:	e9 e3 00 00 00       	jmp    4b709db <github.com/lasselj/timebeat/beater/clocksync/clients/vendors/timebeat/modules/source_watchdog.CardConfigPartsToWatchdogConfig@@Base+0x43b>
 4b708f8:	48 89 5c 24 28       	mov    %rbx,0x28(%rsp)
 4b708fd:	48 89 4c 24 50       	mov    %rcx,0x50(%rsp)
 4b70902:	48 8b 44 24 70       	mov    0x70(%rsp),%rax
 4b70907:	48 8b 9c 24 c0 00 00 	mov    0xc0(%rsp),%rbx
 4b7090e:	00 
 4b7090f:	48 8b 8c 24 c8 00 00 	mov    0xc8(%rsp),%rcx
 4b70916:	00 
 4b70917:	48 8d 3d 9a 67 96 00 	lea    0x96679a(%rip),%rdi        # 54d70b8 <_IO_stdin_used@@Base+0x8a40b8>
 4b7091e:	be 01 00 00 00       	mov    $0x1,%esi
 4b70923:	e8 f8 6c 49 fd       	call   2007620 <strings.Join@@Base>
 4b70928:	48 89 44 24 70       	mov    %rax,0x70(%rsp)
 4b7092d:	48 89 5c 24 48       	mov    %rbx,0x48(%rsp)
 4b70932:	48 8b 54 24 28       	mov    0x28(%rsp),%rdx
 4b70937:	48 8b 52 18          	mov    0x18(%rdx),%rdx
 4b7093b:	48 8b 44 24 50       	mov    0x50(%rsp),%rax
 4b70940:	ff d2                	call   *%rdx
 4b70942:	48 89 44 24 68       	mov    %rax,0x68(%rsp)
 4b70947:	48 89 5c 24 40       	mov    %rbx,0x40(%rsp)
 4b7094c:	44 0f 11 bc 24 88 00 	movups %xmm15,0x88(%rsp)
 4b70953:	00 00 
 4b70955:	44 0f 11 bc 24 98 00 	movups %xmm15,0x98(%rsp)
 4b7095c:	00 00 
 4b7095e:	48 8b 44 24 70       	mov    0x70(%rsp),%rax
 4b70963:	48 8b 5c 24 48       	mov    0x48(%rsp),%rbx
 4b70968:	e8 f3 d3 37 fd       	call   1eedd60 <runtime.convTstring@@Base>
 4b7096d:	48 8d 15 2c dd c3 00 	lea    0xc3dd2c(%rip),%rdx        # 57ae6a0 <type:string@@Base>
 4b70974:	48 89 94 24 88 00 00 	mov    %rdx,0x88(%rsp)
 4b7097b:	00 
 4b7097c:	48 89 84 24 90 00 00 	mov    %rax,0x90(%rsp)
 4b70983:	00 
 4b70984:	48 8b 44 24 68       	mov    0x68(%rsp),%rax
 4b70989:	48 8b 5c 24 40       	mov    0x40(%rsp),%rbx
 4b7098e:	e8 cd d3 37 fd       	call   1eedd60 <runtime.convTstring@@Base>
 4b70993:	48 8d 15 06 dd c3 00 	lea    0xc3dd06(%rip),%rdx        # 57ae6a0 <type:string@@Base>
 4b7099a:	48 89 94 24 98 00 00 	mov    %rdx,0x98(%rsp)
 4b709a1:	00 
 4b709a2:	48 89 84 24 a0 00 00 	mov    %rax,0xa0(%rsp)
 4b709a9:	00 
 4b709aa:	48 8d 05 86 1f 26 00 	lea    0x261f86(%rip),%rax        # 4dd2937 <_IO_stdin_used@@Base+0x19f937>
 4b709b1:	bb 16 00 00 00       	mov    $0x16,%ebx
 4b709b6:	48 8d 8c 24 88 00 00 	lea    0x88(%rsp),%rcx
 4b709bd:	00 
 4b709be:	bf 02 00 00 00       	mov    $0x2,%edi
 4b709c3:	48 89 fe             	mov    %rdi,%rsi
 4b709c6:	e8 95 08 48 fd       	call   1ff1260 <fmt.Errorf@@Base>
 4b709cb:	48 8b ac 24 a8 00 00 	mov    0xa8(%rsp),%rbp
 4b709d2:	00 
 4b709d3:	48 81 c4 b0 00 00 00 	add    $0xb0,%rsp
 4b709da:	c3                   	ret
 4b709db:	31 c0                	xor    %eax,%eax
 4b709dd:	31 db                	xor    %ebx,%ebx
 4b709df:	48 8b ac 24 a8 00 00 	mov    0xa8(%rsp),%rbp
 4b709e6:	00 
 4b709e7:	48 81 c4 b0 00 00 00 	add    $0xb0,%rsp
 4b709ee:	c3                   	ret
 4b709ef:	48 8d 3d c2 66 96 00 	lea    0x9666c2(%rip),%rdi        # 54d70b8 <_IO_stdin_used@@Base+0x8a40b8>
 4b709f6:	be 01 00 00 00       	mov    $0x1,%esi
 4b709fb:	0f 1f 44 00 00       	nopl   0x0(%rax,%rax,1)
 4b70a00:	e8 1b 6c 49 fd       	call   2007620 <strings.Join@@Base>
 4b70a05:	44 0f 11 7c 24 78    	movups %xmm15,0x78(%rsp)
 4b70a0b:	e8 50 d3 37 fd       	call   1eedd60 <runtime.convTstring@@Base>
 4b70a10:	48 8d 15 89 dc c3 00 	lea    0xc3dc89(%rip),%rdx        # 57ae6a0 <type:string@@Base>
 4b70a17:	48 89 54 24 78       	mov    %rdx,0x78(%rsp)
 4b70a1c:	48 89 84 24 80 00 00 	mov    %rax,0x80(%rsp)
 4b70a23:	00 
 4b70a24:	48 8d 05 b0 a2 29 00 	lea    0x29a2b0(%rip),%rax        # 4e0acdb <_IO_stdin_used@@Base+0x1d7cdb>
 4b70a2b:	bb 24 00 00 00       	mov    $0x24,%ebx
 4b70a30:	48 8d 4c 24 78       	lea    0x78(%rsp),%rcx
 4b70a35:	bf 01 00 00 00       	mov    $0x1,%edi
 4b70a3a:	48 89 fe             	mov    %rdi,%rsi
 4b70a3d:	0f 1f 00             	nopl   (%rax)
 4b70a40:	e8 1b 08 48 fd       	call   1ff1260 <fmt.Errorf@@Base>
 4b70a45:	48 8b ac 24 a8 00 00 	mov    0xa8(%rsp),%rbp
 4b70a4c:	00 
 4b70a4d:	48 81 c4 b0 00 00 00 	add    $0xb0,%rsp
 4b70a54:	c3                   	ret
 4b70a55:	48 89 44 24 08       	mov    %rax,0x8(%rsp)
 4b70a5a:	48 89 5c 24 10       	mov    %rbx,0x10(%rsp)
 4b70a5f:	48 89 4c 24 18       	mov    %rcx,0x18(%rsp)
 4b70a64:	48 89 7c 24 20       	mov    %rdi,0x20(%rsp)
 4b70a69:	e8 f2 39 3e fd       	call   1f54460 <runtime.morestack_noctxt.abi0@@Base>
 4b70a6e:	48 8b 44 24 08       	mov    0x8(%rsp),%rax
 4b70a73:	48 8b 5c 24 10       	mov    0x10(%rsp),%rbx
 4b70a78:	48 8b 4c 24 18       	mov    0x18(%rsp),%rcx
 4b70a7d:	48 8b 7c 24 20       	mov    0x20(%rsp),%rdi
 4b70a82:	e9 19 fb ff ff       	jmp    4b705a0 <github.com/lasselj/timebeat/beater/clocksync/clients/vendors/timebeat/modules/source_watchdog.CardConfigPartsToWatchdogConfig@@Base>
 4b70a87:	cc                   	int3
 4b70a88:	cc                   	int3
 4b70a89:	cc                   	int3
 4b70a8a:	cc                   	int3
 4b70a8b:	cc                   	int3
 4b70a8c:	cc                   	int3
 4b70a8d:	cc                   	int3
 4b70a8e:	cc                   	int3
 4b70a8f:	cc                   	int3
 4b70a90:	cc                   	int3
 4b70a91:	cc                   	int3
 4b70a92:	cc                   	int3
 4b70a93:	cc                   	int3
 4b70a94:	cc                   	int3
 4b70a95:	cc                   	int3
 4b70a96:	cc                   	int3
 4b70a97:	cc                   	int3
 4b70a98:	cc                   	int3
 4b70a99:	cc                   	int3
 4b70a9a:	cc                   	int3
 4b70a9b:	cc                   	int3
 4b70a9c:	cc                   	int3
 4b70a9d:	cc                   	int3
 4b70a9e:	cc                   	int3
 4b70a9f:	cc                   	int3

0000000004b70aa0 <type:.GyDt3KMh@@Base>:
 4b70aa0:	49 3b 66 10          	cmp    0x10(%r14),%rsp
 4b70aa4:	76 3e                	jbe    4b70ae4 <type:.GyDt3KMh@@Base+0x44>
 4b70aa6:	48 83 ec 20          	sub    $0x20,%rsp
 4b70aaa:	48 89 6c 24 18       	mov    %rbp,0x18(%rsp)
 4b70aaf:	48 8d 6c 24 18       	lea    0x18(%rsp),%rbp
 4b70ab4:	48 8b 10             	mov    (%rax),%rdx
 4b70ab7:	48 39 13             	cmp    %rdx,(%rbx)
 4b70aba:	75 1c                	jne    4b70ad8 <type:.GyDt3KMh@@Base+0x38>
 4b70abc:	48 8b 48 10          	mov    0x10(%rax),%rcx
 4b70ac0:	48 8b 53 08          	mov    0x8(%rbx),%rdx
 4b70ac4:	48 8b 40 08          	mov    0x8(%rax),%rax
 4b70ac8:	48 39 4b 10          	cmp    %rcx,0x10(%rbx)
 4b70acc:	75 0a                	jne    4b70ad8 <type:.GyDt3KMh@@Base+0x38>
 4b70ace:	48 89 d3             	mov    %rdx,%rbx
 4b70ad1:	e8 4a 30 37 fd       	call   1ee3b20 <runtime.memequal@@Base>
 4b70ad6:	eb 02                	jmp    4b70ada <type:.GyDt3KMh@@Base+0x3a>
 4b70ad8:	31 c0                	xor    %eax,%eax
 4b70ada:	48 8b 6c 24 18       	mov    0x18(%rsp),%rbp
 4b70adf:	48 83 c4 20          	add    $0x20,%rsp
 4b70ae3:	c3                   	ret
 4b70ae4:	48 89 44 24 08       	mov    %rax,0x8(%rsp)
 4b70ae9:	48 89 5c 24 10       	mov    %rbx,0x10(%rsp)
 4b70aee:	e8 6d 39 3e fd       	call   1f54460 <runtime.morestack_noctxt.abi0@@Base>
 4b70af3:	48 8b 44 24 08       	mov    0x8(%rsp),%rax
 4b70af8:	48 8b 5c 24 10       	mov    0x10(%rsp),%rbx
 4b70afd:	eb a1                	jmp    4b70aa0 <type:.GyDt3KMh@@Base>
 4b70aff:	cc                   	int3

0000000004b70b00 <type:.iboS2mmv@@Base>:
 4b70b00:	49 3b 66 10          	cmp    0x10(%r14),%rsp
 4b70b04:	76 6d                	jbe    4b70b73 <type:.iboS2mmv@@Base+0x73>
 4b70b06:	48 83 ec 20          	sub    $0x20,%rsp
 4b70b0a:	48 89 6c 24 18       	mov    %rbp,0x18(%rsp)
 4b70b0f:	48 8d 6c 24 18       	lea    0x18(%rsp),%rbp
 4b70b14:	48 8b 10             	mov    (%rax),%rdx
 4b70b17:	48 39 13             	cmp    %rdx,(%rbx)
 4b70b1a:	75 4b                	jne    4b70b67 <type:.iboS2mmv@@Base+0x67>
 4b70b1c:	0f b6 50 08          	movzbl 0x8(%rax),%edx
 4b70b20:	38 53 08             	cmp    %dl,0x8(%rbx)
 4b70b23:	75 42                	jne    4b70b67 <type:.iboS2mmv@@Base+0x67>
 4b70b25:	48 8b 50 10          	mov    0x10(%rax),%rdx
 4b70b29:	48 39 53 10          	cmp    %rdx,0x10(%rbx)
 4b70b2d:	75 38                	jne    4b70b67 <type:.iboS2mmv@@Base+0x67>
 4b70b2f:	48 8b 50 18          	mov    0x18(%rax),%rdx
 4b70b33:	48 39 53 18          	cmp    %rdx,0x18(%rbx)
 4b70b37:	75 2e                	jne    4b70b67 <type:.iboS2mmv@@Base+0x67>
 4b70b39:	48 8b 50 20          	mov    0x20(%rax),%rdx
 4b70b3d:	0f 1f 00             	nopl   (%rax)
 4b70b40:	48 39 53 20          	cmp    %rdx,0x20(%rbx)
 4b70b44:	75 21                	jne    4b70b67 <type:.iboS2mmv@@Base+0x67>
 4b70b46:	0f b6 50 28          	movzbl 0x28(%rax),%edx
 4b70b4a:	38 53 28             	cmp    %dl,0x28(%rbx)
 4b70b4d:	75 18                	jne    4b70b67 <type:.iboS2mmv@@Base+0x67>
 4b70b4f:	48 83 c0 30          	add    $0x30,%rax
 4b70b53:	48 83 c3 30          	add    $0x30,%rbx
 4b70b57:	b9 28 00 00 00       	mov    $0x28,%ecx
 4b70b5c:	0f 1f 40 00          	nopl   0x0(%rax)
 4b70b60:	e8 bb 2f 37 fd       	call   1ee3b20 <runtime.memequal@@Base>
 4b70b65:	eb 02                	jmp    4b70b69 <type:.iboS2mmv@@Base+0x69>
 4b70b67:	31 c0                	xor    %eax,%eax
 4b70b69:	48 8b 6c 24 18       	mov    0x18(%rsp),%rbp
 4b70b6e:	48 83 c4 20          	add    $0x20,%rsp
 4b70b72:	c3                   	ret
 4b70b73:	48 89 44 24 08       	mov    %rax,0x8(%rsp)
 4b70b78:	48 89 5c 24 10       	mov    %rbx,0x10(%rsp)
 4b70b7d:	0f 1f 00             	nopl   (%rax)
 4b70b80:	e8 db 38 3e fd       	call   1f54460 <runtime.morestack_noctxt.abi0@@Base>
 4b70b85:	48 8b 44 24 08       	mov    0x8(%rsp),%rax
 4b70b8a:	48 8b 5c 24 10       	mov    0x10(%rsp),%rbx
 4b70b8f:	e9 6c ff ff ff       	jmp    4b70b00 <type:.iboS2mmv@@Base>
 4b70b94:	cc                   	int3
 4b70b95:	cc                   	int3
 4b70b96:	cc                   	int3
 4b70b97:	cc                   	int3
 4b70b98:	cc                   	int3
 4b70b99:	cc                   	int3
 4b70b9a:	cc                   	int3
 4b70b9b:	cc                   	int3
 4b70b9c:	cc                   	int3
 4b70b9d:	cc                   	int3
 4b70b9e:	cc                   	int3
 4b70b9f:	cc                   	int3

0000000004b70ba0 <periph.io/x/conn/v3.Duplex.String@@Base>:
 4b70ba0:	49 3b 66 10          	cmp    0x10(%r14),%rsp
 4b70ba4:	0f 86 a6 00 00 00    	jbe    4b70c50 <periph.io/x/conn/v3.Duplex.String@@Base+0xb0>
 4b70baa:	48 83 ec 40          	sub    $0x40,%rsp
 4b70bae:	48 89 6c 24 38       	mov    %rbp,0x38(%rsp)
 4b70bb3:	48 8d 6c 24 38       	lea    0x38(%rsp),%rbp
 4b70bb8:	48 83 f8 03          	cmp    $0x3,%rax
 4b70bbc:	73 40                	jae    4b70bfe <periph.io/x/conn/v3.Duplex.String@@Base+0x5e>
 4b70bbe:	48 8d 35 17 67 0a 03 	lea    0x30a6717(%rip),%rsi        # 7c172dc <periph.io/x/conn/v3.duplexIndex@@Base>
 4b70bc5:	0f b6 3c 06          	movzbl (%rsi,%rax,1),%edi
 4b70bc9:	0f b6 4c 30 01       	movzbl 0x1(%rax,%rsi,1),%ecx
 4b70bce:	48 83 f9 15          	cmp    $0x15,%rcx
 4b70bd2:	77 71                	ja     4b70c45 <periph.io/x/conn/v3.Duplex.String@@Base+0xa5>
 4b70bd4:	48 39 cf             	cmp    %rcx,%rdi
 4b70bd7:	77 5f                	ja     4b70c38 <periph.io/x/conn/v3.Duplex.String@@Base+0x98>
 4b70bd9:	48 29 f9             	sub    %rdi,%rcx
 4b70bdc:	48 89 cb             	mov    %rcx,%rbx
 4b70bdf:	48 f7 d9             	neg    %rcx
 4b70be2:	48 c1 f9 3f          	sar    $0x3f,%rcx
 4b70be6:	48 21 cf             	and    %rcx,%rdi
 4b70be9:	48 8d 0d 05 b2 25 00 	lea    0x25b205(%rip),%rcx        # 4dcbdf5 <_IO_stdin_used@@Base+0x198df5>
 4b70bf0:	48 8d 04 39          	lea    (%rcx,%rdi,1),%rax
 4b70bf4:	48 8b 6c 24 38       	mov    0x38(%rsp),%rbp
 4b70bf9:	48 83 c4 40          	add    $0x40,%rsp
 4b70bfd:	c3                   	ret
 4b70bfe:	bb 0a 00 00 00       	mov    $0xa,%ebx
 4b70c03:	e8 d8 2e 40 fd       	call   1f73ae0 <strconv.FormatInt@@Base>
 4b70c08:	b9 07 00 00 00       	mov    $0x7,%ecx
 4b70c0d:	48 89 c7             	mov    %rax,%rdi
 4b70c10:	48 89 de             	mov    %rbx,%rsi
 4b70c13:	4c 8d 05 ce 61 96 00 	lea    0x9661ce(%rip),%r8        # 54d6de8 <_IO_stdin_used@@Base+0x8a3de8>
 4b70c1a:	41 b9 01 00 00 00    	mov    $0x1,%r9d
 4b70c20:	31 c0                	xor    %eax,%eax
 4b70c22:	48 8d 1d 3b ec 0e 00 	lea    0xeec3b(%rip),%rbx        # 4c5f864 <_IO_stdin_used@@Base+0x2c864>
 4b70c29:	e8 92 97 3c fd       	call   1f3a3c0 <runtime.concatstring3@@Base>
 4b70c2e:	48 8b 6c 24 38       	mov    0x38(%rsp),%rbp
 4b70c33:	48 83 c4 40          	add    $0x40,%rsp
 4b70c37:	c3                   	ret
 4b70c38:	48 89 f8             	mov    %rdi,%rax
 4b70c3b:	0f 1f 44 00 00       	nopl   0x0(%rax,%rax,1)
 4b70c40:	e8 1b 5f 3e fd       	call   1f56b60 <runtime.panicSliceB@@Base>
 4b70c45:	ba 15 00 00 00       	mov    $0x15,%edx
 4b70c4a:	e8 91 5e 3e fd       	call   1f56ae0 <runtime.panicSliceAlen@@Base>
 4b70c4f:	90                   	nop
 4b70c50:	48 89 44 24 08       	mov    %rax,0x8(%rsp)
 4b70c55:	e8 06 38 3e fd       	call   1f54460 <runtime.morestack_noctxt.abi0@@Base>
 4b70c5a:	48 8b 44 24 08       	mov    0x8(%rsp),%rax
 4b70c5f:	90                   	nop
 4b70c60:	e9 3b ff ff ff       	jmp    4b70ba0 <periph.io/x/conn/v3.Duplex.String@@Base>
 4b70c65:	cc                   	int3
 4b70c66:	cc                   	int3
 4b70c67:	cc                   	int3
 4b70c68:	cc                   	int3
 4b70c69:	cc                   	int3
 4b70c6a:	cc                   	int3
 4b70c6b:	cc                   	int3
 4b70c6c:	cc                   	int3
 4b70c6d:	cc                   	int3
 4b70c6e:	cc                   	int3
 4b70c6f:	cc                   	int3
 4b70c70:	cc                   	int3
 4b70c71:	cc                   	int3
 4b70c72:	cc                   	int3
 4b70c73:	cc                   	int3
 4b70c74:	cc                   	int3
 4b70c75:	cc                   	int3
 4b70c76:	cc                   	int3
 4b70c77:	cc                   	int3
 4b70c78:	cc                   	int3
 4b70c79:	cc                   	int3
 4b70c7a:	cc                   	int3
 4b70c7b:	cc                   	int3
 4b70c7c:	cc                   	int3
 4b70c7d:	cc                   	int3
 4b70c7e:	cc                   	int3
 4b70c7f:	cc                   	int3

0000000004b70c80 <periph.io/x/conn/v3.(*Duplex).String@@Base>:
 4b70c80:	49 3b 66 10          	cmp    0x10(%r14),%rsp
 4b70c84:	76 37                	jbe    4b70cbd <periph.io/x/conn/v3.(*Duplex).String@@Base+0x3d>
 4b70c86:	48 83 ec 10          	sub    $0x10,%rsp
 4b70c8a:	48 89 6c 24 08       	mov    %rbp,0x8(%rsp)
 4b70c8f:	48 8d 6c 24 08       	lea    0x8(%rsp),%rbp
 4b70c94:	4d 8b 66 20          	mov    0x20(%r14),%r12
 4b70c98:	4d 85 e4             	test   %r12,%r12
 4b70c9b:	75 31                	jne    4b70cce <periph.io/x/conn/v3.(*Duplex).String@@Base+0x4e>
 4b70c9d:	0f 1f 00             	nopl   (%rax)
 4b70ca0:	48 85 c0             	test   %rax,%rax
 4b70ca3:	74 12                	je     4b70cb7 <periph.io/x/conn/v3.(*Duplex).String@@Base+0x37>
 4b70ca5:	48 8b 00             	mov    (%rax),%rax
 4b70ca8:	e8 f3 fe ff ff       	call   4b70ba0 <periph.io/x/conn/v3.Duplex.String@@Base>
 4b70cad:	48 8b 6c 24 08       	mov    0x8(%rsp),%rbp
 4b70cb2:	48 83 c4 10          	add    $0x10,%rsp
 4b70cb6:	c3                   	ret
 4b70cb7:	e8 04 b6 37 fd       	call   1eec2c0 <runtime.panicwrap@@Base>
 4b70cbc:	90                   	nop
 4b70cbd:	48 89 44 24 08       	mov    %rax,0x8(%rsp)
 4b70cc2:	e8 99 37 3e fd       	call   1f54460 <runtime.morestack_noctxt.abi0@@Base>
 4b70cc7:	48 8b 44 24 08       	mov    0x8(%rsp),%rax
 4b70ccc:	eb b2                	jmp    4b70c80 <periph.io/x/conn/v3.(*Duplex).String@@Base>
 4b70cce:	4c 8d 6c 24 18       	lea    0x18(%rsp),%r13
 4b70cd3:	4d 39 2c 24          	cmp    %r13,(%r12)
 4b70cd7:	75 c4                	jne    4b70c9d <periph.io/x/conn/v3.(*Duplex).String@@Base+0x1d>
 4b70cd9:	49 89 24 24          	mov    %rsp,(%r12)
 4b70cdd:	eb be                	jmp    4b70c9d <periph.io/x/conn/v3.(*Duplex).String@@Base+0x1d>
 4b70cdf:	cc                   	int3

0000000004b70ce0 <periph.io/x/conn/v3/pin.Func.Specialize@@Base>:
 4b70ce0:	49 3b 66 10          	cmp    0x10(%r14),%rsp
 4b70ce4:	0f 86 48 01 00 00    	jbe    4b70e32 <periph.io/x/conn/v3/pin.Func.Specialize@@Base+0x152>
 4b70cea:	48 83 ec 70          	sub    $0x70,%rsp
 4b70cee:	48 89 6c 24 68       	mov    %rbp,0x68(%rsp)
 4b70cf3:	48 8d 6c 24 68       	lea    0x68(%rsp),%rbp
 4b70cf8:	48 89 44 24 78       	mov    %rax,0x78(%rsp)
 4b70cfd:	0f 1f 00             	nopl   (%rax)
 4b70d00:	48 85 db             	test   %rbx,%rbx
 4b70d03:	0f 84 03 01 00 00    	je     4b70e0c <periph.io/x/conn/v3/pin.Func.Specialize@@Base+0x12c>
 4b70d09:	48 83 f9 ff          	cmp    $0xffffffffffffffff,%rcx
 4b70d0d:	0f 84 a7 00 00 00    	je     4b70dba <periph.io/x/conn/v3/pin.Func.Specialize@@Base+0xda>
 4b70d13:	48 89 bc 24 90 00 00 	mov    %rdi,0x90(%rsp)
 4b70d1a:	00 
 4b70d1b:	48 89 8c 24 88 00 00 	mov    %rcx,0x88(%rsp)
 4b70d22:	00 
 4b70d23:	90                   	nop
 4b70d24:	48 8d 0d 5d 0e 97 00 	lea    0x970e5d(%rip),%rcx        # 54e1b88 <go:link.pkghashbytes.vendor/golang.org/x/text/unicode/norm@@Base+0x108>
 4b70d2b:	bf 01 00 00 00       	mov    $0x1,%edi
 4b70d30:	31 f6                	xor    %esi,%esi
 4b70d32:	41 b8 02 00 00 00    	mov    $0x2,%r8d
 4b70d38:	e8 43 61 49 fd       	call   2006e80 <strings.genSplit@@Base>
 4b70d3d:	0f 1f 00             	nopl   (%rax)
 4b70d40:	48 83 fb 01          	cmp    $0x1,%rbx
 4b70d44:	0f 84 b4 00 00 00    	je     4b70dfe <periph.io/x/conn/v3/pin.Func.Specialize@@Base+0x11e>
 4b70d4a:	48 89 44 24 58       	mov    %rax,0x58(%rsp)
 4b70d4f:	48 89 5c 24 48       	mov    %rbx,0x48(%rsp)
 4b70d54:	48 8b 84 24 88 00 00 	mov    0x88(%rsp),%rax
 4b70d5b:	00 
 4b70d5c:	bb 0a 00 00 00       	mov    $0xa,%ebx
 4b70d61:	e8 7a 2d 40 fd       	call   1f73ae0 <strconv.FormatInt@@Base>
 4b70d66:	48 8b 4c 24 48       	mov    0x48(%rsp),%rcx
 4b70d6b:	48 85 c9             	test   %rcx,%rcx
 4b70d6e:	0f 86 b3 00 00 00    	jbe    4b70e27 <periph.io/x/conn/v3/pin.Func.Specialize@@Base+0x147>
 4b70d74:	48 8b 54 24 58       	mov    0x58(%rsp),%rdx
 4b70d79:	4c 8b 22             	mov    (%rdx),%r12
 4b70d7c:	4c 8b 6a 08          	mov    0x8(%rdx),%r13
 4b70d80:	48 83 f9 01          	cmp    $0x1,%rcx
 4b70d84:	0f 86 90 00 00 00    	jbe    4b70e1a <periph.io/x/conn/v3/pin.Func.Specialize@@Base+0x13a>
 4b70d8a:	4c 8b 52 10          	mov    0x10(%rdx),%r10
 4b70d8e:	4c 8b 5a 18          	mov    0x18(%rdx),%r11
 4b70d92:	4c 89 e9             	mov    %r13,%rcx
 4b70d95:	48 89 c7             	mov    %rax,%rdi
 4b70d98:	48 89 de             	mov    %rbx,%rsi
 4b70d9b:	4c 8d 05 e6 0d 97 00 	lea    0x970de6(%rip),%r8        # 54e1b88 <go:link.pkghashbytes.vendor/golang.org/x/text/unicode/norm@@Base+0x108>
 4b70da2:	41 b9 01 00 00 00    	mov    $0x1,%r9d
 4b70da8:	31 c0                	xor    %eax,%eax
 4b70daa:	4c 89 e3             	mov    %r12,%rbx
 4b70dad:	e8 ee 96 3c fd       	call   1f3a4a0 <runtime.concatstring4@@Base>
 4b70db2:	48 8b bc 24 90 00 00 	mov    0x90(%rsp),%rdi
 4b70db9:	00 
 4b70dba:	66 0f 1f 44 00 00    	nopw   0x0(%rax,%rax,1)
 4b70dc0:	48 83 ff ff          	cmp    $0xffffffffffffffff,%rdi
 4b70dc4:	74 2e                	je     4b70df4 <periph.io/x/conn/v3/pin.Func.Specialize@@Base+0x114>
 4b70dc6:	48 89 5c 24 50       	mov    %rbx,0x50(%rsp)
 4b70dcb:	48 89 44 24 60       	mov    %rax,0x60(%rsp)
 4b70dd0:	48 89 f8             	mov    %rdi,%rax
 4b70dd3:	bb 0a 00 00 00       	mov    $0xa,%ebx
 4b70dd8:	e8 03 2d 40 fd       	call   1f73ae0 <strconv.FormatInt@@Base>
 4b70ddd:	48 8b 4c 24 50       	mov    0x50(%rsp),%rcx
 4b70de2:	48 89 c7             	mov    %rax,%rdi
 4b70de5:	48 89 de             	mov    %rbx,%rsi
 4b70de8:	31 c0                	xor    %eax,%eax
 4b70dea:	48 8b 5c 24 60       	mov    0x60(%rsp),%rbx
 4b70def:	e8 2c 95 3c fd       	call   1f3a320 <runtime.concatstring2@@Base>
 4b70df4:	48 8b 6c 24 68       	mov    0x68(%rsp),%rbp
 4b70df9:	48 83 c4 70          	add    $0x70,%rsp
 4b70dfd:	c3                   	ret
 4b70dfe:	31 c0                	xor    %eax,%eax
 4b70e00:	31 db                	xor    %ebx,%ebx
 4b70e02:	48 8b 6c 24 68       	mov    0x68(%rsp),%rbp
 4b70e07:	48 83 c4 70          	add    $0x70,%rsp
 4b70e0b:	c3                   	ret
 4b70e0c:	31 c0                	xor    %eax,%eax
 4b70e0e:	31 db                	xor    %ebx,%ebx
 4b70e10:	48 8b 6c 24 68       	mov    0x68(%rsp),%rbp
 4b70e15:	48 83 c4 70          	add    $0x70,%rsp
 4b70e19:	c3                   	ret
 4b70e1a:	b8 01 00 00 00       	mov    $0x1,%eax
 4b70e1f:	48 89 c1             	mov    %rax,%rcx
 4b70e22:	e8 79 5c 3e fd       	call   1f56aa0 <runtime.panicIndex@@Base>
 4b70e27:	31 c0                	xor    %eax,%eax
 4b70e29:	48 89 c1             	mov    %rax,%rcx
 4b70e2c:	e8 6f 5c 3e fd       	call   1f56aa0 <runtime.panicIndex@@Base>
 4b70e31:	90                   	nop
 4b70e32:	48 89 44 24 08       	mov    %rax,0x8(%rsp)
 4b70e37:	48 89 5c 24 10       	mov    %rbx,0x10(%rsp)
 4b70e3c:	48 89 4c 24 18       	mov    %rcx,0x18(%rsp)
 4b70e41:	48 89 7c 24 20       	mov    %rdi,0x20(%rsp)
 4b70e46:	e8 15 36 3e fd       	call   1f54460 <runtime.morestack_noctxt.abi0@@Base>
 4b70e4b:	48 8b 44 24 08       	mov    0x8(%rsp),%rax
 4b70e50:	48 8b 5c 24 10       	mov    0x10(%rsp),%rbx
 4b70e55:	48 8b 4c 24 18       	mov    0x18(%rsp),%rcx
 4b70e5a:	48 8b 7c 24 20       	mov    0x20(%rsp),%rdi
 4b70e5f:	90                   	nop
 4b70e60:	e9 7b fe ff ff       	jmp    4b70ce0 <periph.io/x/conn/v3/pin.Func.Specialize@@Base>
 4b70e65:	cc                   	int3
 4b70e66:	cc                   	int3
 4b70e67:	cc                   	int3
 4b70e68:	cc                   	int3
 4b70e69:	cc                   	int3
 4b70e6a:	cc                   	int3
 4b70e6b:	cc                   	int3
 4b70e6c:	cc                   	int3
 4b70e6d:	cc                   	int3
 4b70e6e:	cc                   	int3
 4b70e6f:	cc                   	int3
 4b70e70:	cc                   	int3
 4b70e71:	cc                   	int3
 4b70e72:	cc                   	int3
 4b70e73:	cc                   	int3
 4b70e74:	cc                   	int3
 4b70e75:	cc                   	int3
 4b70e76:	cc                   	int3
 4b70e77:	cc                   	int3
 4b70e78:	cc                   	int3
 4b70e79:	cc                   	int3
 4b70e7a:	cc                   	int3
 4b70e7b:	cc                   	int3
 4b70e7c:	cc                   	int3
 4b70e7d:	cc                   	int3
 4b70e7e:	cc                   	int3
 4b70e7f:	cc                   	int3

0000000004b70e80 <periph.io/x/conn/v3/pin.Func.Generalize@@Base>:
 4b70e80:	49 3b 66 10          	cmp    0x10(%r14),%rsp
 4b70e84:	0f 86 d0 00 00 00    	jbe    4b70f5a <periph.io/x/conn/v3/pin.Func.Generalize@@Base+0xda>
 4b70e8a:	48 83 ec 58          	sub    $0x58,%rsp
 4b70e8e:	48 89 6c 24 50       	mov    %rbp,0x50(%rsp)
 4b70e93:	48 8d 6c 24 50       	lea    0x50(%rsp),%rbp
 4b70e98:	48 89 44 24 60       	mov    %rax,0x60(%rsp)
 4b70e9d:	48 8d 0d e4 0c 97 00 	lea    0x970ce4(%rip),%rcx        # 54e1b88 <go:link.pkghashbytes.vendor/golang.org/x/text/unicode/norm@@Base+0x108>
 4b70ea4:	bf 01 00 00 00       	mov    $0x1,%edi
 4b70ea9:	31 f6                	xor    %esi,%esi
 4b70eab:	41 b8 02 00 00 00    	mov    $0x2,%r8d
 4b70eb1:	e8 ca 5f 49 fd       	call   2006e80 <strings.genSplit@@Base>
 4b70eb6:	48 85 db             	test   %rbx,%rbx
 4b70eb9:	0f 86 90 00 00 00    	jbe    4b70f4f <periph.io/x/conn/v3/pin.Func.Generalize@@Base+0xcf>
 4b70ebf:	48 89 5c 24 30       	mov    %rbx,0x30(%rsp)
 4b70ec4:	48 89 44 24 40       	mov    %rax,0x40(%rsp)
 4b70ec9:	48 8b 10             	mov    (%rax),%rdx
 4b70ecc:	48 8b 58 08          	mov    0x8(%rax),%rbx
 4b70ed0:	48 8d 0d 29 e8 37 01 	lea    0x137e829(%rip),%rcx        # 5eef700 <periph.io/x/conn/v3/pin.isNum·f@@Base>
 4b70ed7:	48 89 d0             	mov    %rdx,%rax
 4b70eda:	e8 01 85 49 fd       	call   20093e0 <strings.TrimRightFunc@@Base>
 4b70edf:	48 8b 54 24 30       	mov    0x30(%rsp),%rdx
 4b70ee4:	48 83 fa 02          	cmp    $0x2,%rdx
 4b70ee8:	75 5b                	jne    4b70f45 <periph.io/x/conn/v3/pin.Func.Generalize@@Base+0xc5>
 4b70eea:	48 89 d9             	mov    %rbx,%rcx
 4b70eed:	48 8d 3d 94 0c 97 00 	lea    0x970c94(%rip),%rdi        # 54e1b88 <go:link.pkghashbytes.vendor/golang.org/x/text/unicode/norm@@Base+0x108>
 4b70ef4:	be 01 00 00 00       	mov    $0x1,%esi
 4b70ef9:	48 89 c3             	mov    %rax,%rbx
 4b70efc:	31 c0                	xor    %eax,%eax
 4b70efe:	66 90                	xchg   %ax,%ax
 4b70f00:	e8 1b 94 3c fd       	call   1f3a320 <runtime.concatstring2@@Base>
 4b70f05:	48 89 44 24 48       	mov    %rax,0x48(%rsp)
 4b70f0a:	48 89 5c 24 38       	mov    %rbx,0x38(%rsp)
 4b70f0f:	48 8b 54 24 40       	mov    0x40(%rsp),%rdx
 4b70f14:	4c 8b 42 10          	mov    0x10(%rdx),%r8
 4b70f18:	48 8b 52 18          	mov    0x18(%rdx),%rdx
 4b70f1c:	48 8d 0d dd e7 37 01 	lea    0x137e7dd(%rip),%rcx        # 5eef700 <periph.io/x/conn/v3/pin.isNum·f@@Base>
 4b70f23:	4c 89 c0             	mov    %r8,%rax
 4b70f26:	48 89 d3             	mov    %rdx,%rbx
 4b70f29:	e8 b2 84 49 fd       	call   20093e0 <strings.TrimRightFunc@@Base>
 4b70f2e:	48 8b 4c 24 38       	mov    0x38(%rsp),%rcx
 4b70f33:	48 89 c7             	mov    %rax,%rdi
 4b70f36:	48 89 de             	mov    %rbx,%rsi
 4b70f39:	31 c0                	xor    %eax,%eax
 4b70f3b:	48 8b 5c 24 48       	mov    0x48(%rsp),%rbx
 4b70f40:	e8 db 93 3c fd       	call   1f3a320 <runtime.concatstring2@@Base>
 4b70f45:	48 8b 6c 24 50       	mov    0x50(%rsp),%rbp
 4b70f4a:	48 83 c4 58          	add    $0x58,%rsp
 4b70f4e:	c3                   	ret
 4b70f4f:	31 c0                	xor    %eax,%eax
 4b70f51:	48 89 c1             	mov    %rax,%rcx
 4b70f54:	e8 47 5b 3e fd       	call   1f56aa0 <runtime.panicIndex@@Base>
 4b70f59:	90                   	nop
 4b70f5a:	48 89 44 24 08       	mov    %rax,0x8(%rsp)
 4b70f5f:	48 89 5c 24 10       	mov    %rbx,0x10(%rsp)
 4b70f64:	e8 f7 34 3e fd       	call   1f54460 <runtime.morestack_noctxt.abi0@@Base>
 4b70f69:	48 8b 44 24 08       	mov    0x8(%rsp),%rax
 4b70f6e:	48 8b 5c 24 10       	mov    0x10(%rsp),%rbx
 4b70f73:	e9 08 ff ff ff       	jmp    4b70e80 <periph.io/x/conn/v3/pin.Func.Generalize@@Base>
 4b70f78:	cc                   	int3
 4b70f79:	cc                   	int3
 4b70f7a:	cc                   	int3
 4b70f7b:	cc                   	int3
 4b70f7c:	cc                   	int3
 4b70f7d:	cc                   	int3
 4b70f7e:	cc                   	int3
 4b70f7f:	cc                   	int3

0000000004b70f80 <periph.io/x/conn/v3/pin.isNum@@Base>:
 4b70f80:	83 f8 30             	cmp    $0x30,%eax
 4b70f83:	7c 08                	jl     4b70f8d <periph.io/x/conn/v3/pin.isNum@@Base+0xd>
 4b70f85:	83 f8 39             	cmp    $0x39,%eax
 4b70f88:	0f 9e c1             	setle  %cl
 4b70f8b:	eb 02                	jmp    4b70f8f <periph.io/x/conn/v3/pin.isNum@@Base+0xf>
 4b70f8d:	31 c9                	xor    %ecx,%ecx
 4b70f8f:	89 c8                	mov    %ecx,%eax
 4b70f91:	c3                   	ret
 4b70f92:	cc                   	int3
 4b70f93:	cc                   	int3
 4b70f94:	cc                   	int3
 4b70f95:	cc                   	int3
 4b70f96:	cc                   	int3
 4b70f97:	cc                   	int3
 4b70f98:	cc                   	int3
 4b70f99:	cc                   	int3
 4b70f9a:	cc                   	int3
 4b70f9b:	cc                   	int3
 4b70f9c:	cc                   	int3
 4b70f9d:	cc                   	int3
 4b70f9e:	cc                   	int3
 4b70f9f:	cc                   	int3

0000000004b70fa0 <periph.io/x/conn/v3/pin.(*BasicPin).String@@Base>:
 4b70fa0:	48 8b 08             	mov    (%rax),%rcx
 4b70fa3:	48 8b 58 08          	mov    0x8(%rax),%rbx
 4b70fa7:	48 89 c8             	mov    %rcx,%rax
 4b70faa:	c3                   	ret
 4b70fab:	cc                   	int3
 4b70fac:	cc                   	int3
 4b70fad:	cc                   	int3
 4b70fae:	cc                   	int3
 4b70faf:	cc                   	int3
 4b70fb0:	cc                   	int3
 4b70fb1:	cc                   	int3
 4b70fb2:	cc                   	int3
 4b70fb3:	cc                   	int3
 4b70fb4:	cc                   	int3
 4b70fb5:	cc                   	int3
 4b70fb6:	cc                   	int3
 4b70fb7:	cc                   	int3
 4b70fb8:	cc                   	int3
 4b70fb9:	cc                   	int3
 4b70fba:	cc                   	int3
 4b70fbb:	cc                   	int3
 4b70fbc:	cc                   	int3
 4b70fbd:	cc                   	int3
 4b70fbe:	cc                   	int3
 4b70fbf:	cc                   	int3

0000000004b70fc0 <periph.io/x/conn/v3/pin.(*BasicPin).Halt@@Base>:
 4b70fc0:	31 c0                	xor    %eax,%eax
 4b70fc2:	31 db                	xor    %ebx,%ebx
 4b70fc4:	c3                   	ret
 4b70fc5:	cc                   	int3
 4b70fc6:	cc                   	int3
 4b70fc7:	cc                   	int3
 4b70fc8:	cc                   	int3
 4b70fc9:	cc                   	int3
 4b70fca:	cc                   	int3
 4b70fcb:	cc                   	int3
 4b70fcc:	cc                   	int3
 4b70fcd:	cc                   	int3
 4b70fce:	cc                   	int3
 4b70fcf:	cc                   	int3
 4b70fd0:	cc                   	int3
 4b70fd1:	cc                   	int3
 4b70fd2:	cc                   	int3
 4b70fd3:	cc                   	int3
 4b70fd4:	cc                   	int3
 4b70fd5:	cc                   	int3
 4b70fd6:	cc                   	int3
 4b70fd7:	cc                   	int3
 4b70fd8:	cc                   	int3
 4b70fd9:	cc                   	int3
 4b70fda:	cc                   	int3
 4b70fdb:	cc                   	int3
 4b70fdc:	cc                   	int3
 4b70fdd:	cc                   	int3
 4b70fde:	cc                   	int3
 4b70fdf:	cc                   	int3

0000000004b70fe0 <periph.io/x/conn/v3/pin.(*BasicPin).Name@@Base>:
 4b70fe0:	48 8b 08             	mov    (%rax),%rcx
 4b70fe3:	48 8b 58 08          	mov    0x8(%rax),%rbx
 4b70fe7:	48 89 c8             	mov    %rcx,%rax
 4b70fea:	c3                   	ret
 4b70feb:	cc                   	int3
 4b70fec:	cc                   	int3
 4b70fed:	cc                   	int3
 4b70fee:	cc                   	int3
 4b70fef:	cc                   	int3
 4b70ff0:	cc                   	int3
 4b70ff1:	cc                   	int3
 4b70ff2:	cc                   	int3
 4b70ff3:	cc                   	int3
 4b70ff4:	cc                   	int3
 4b70ff5:	cc                   	int3
 4b70ff6:	cc                   	int3
 4b70ff7:	cc                   	int3
 4b70ff8:	cc                   	int3
 4b70ff9:	cc                   	int3
 4b70ffa:	cc                   	int3
 4b70ffb:	cc                   	int3
 4b70ffc:	cc                   	int3
 4b70ffd:	cc                   	int3
 4b70ffe:	cc                   	int3
 4b70fff:	cc                   	int3

0000000004b71000 <periph.io/x/conn/v3/pin.(*BasicPin).Number@@Base>:
 4b71000:	48 c7 c0 ff ff ff ff 	mov    $0xffffffffffffffff,%rax
 4b71007:	c3                   	ret
 4b71008:	cc                   	int3
 4b71009:	cc                   	int3
 4b7100a:	cc                   	int3
 4b7100b:	cc                   	int3
 4b7100c:	cc                   	int3
 4b7100d:	cc                   	int3
 4b7100e:	cc                   	int3
 4b7100f:	cc                   	int3
 4b71010:	cc                   	int3
 4b71011:	cc                   	int3
 4b71012:	cc                   	int3
 4b71013:	cc                   	int3
 4b71014:	cc                   	int3
 4b71015:	cc                   	int3
 4b71016:	cc                   	int3
 4b71017:	cc                   	int3
 4b71018:	cc                   	int3
 4b71019:	cc                   	int3
 4b7101a:	cc                   	int3
 4b7101b:	cc                   	int3
 4b7101c:	cc                   	int3
 4b7101d:	cc                   	int3
 4b7101e:	cc                   	int3
 4b7101f:	cc                   	int3

0000000004b71020 <periph.io/x/conn/v3/pin.(*BasicPin).Function@@Base>:
 4b71020:	31 c0                	xor    %eax,%eax
 4b71022:	31 db                	xor    %ebx,%ebx
 4b71024:	c3                   	ret
 4b71025:	cc                   	int3
 4b71026:	cc                   	int3
 4b71027:	cc                   	int3
 4b71028:	cc                   	int3
 4b71029:	cc                   	int3
 4b7102a:	cc                   	int3
 4b7102b:	cc                   	int3
 4b7102c:	cc                   	int3
 4b7102d:	cc                   	int3
 4b7102e:	cc                   	int3
 4b7102f:	cc                   	int3
 4b71030:	cc                   	int3
 4b71031:	cc                   	int3
 4b71032:	cc                   	int3
 4b71033:	cc                   	int3
 4b71034:	cc                   	int3
 4b71035:	cc                   	int3
 4b71036:	cc                   	int3
 4b71037:	cc                   	int3
 4b71038:	cc                   	int3
 4b71039:	cc                   	int3
 4b7103a:	cc                   	int3
 4b7103b:	cc                   	int3
 4b7103c:	cc                   	int3
 4b7103d:	cc                   	int3
 4b7103e:	cc                   	int3
 4b7103f:	cc                   	int3

0000000004b71040 <periph.io/x/conn/v3/pin.(*BasicPin).Func@@Base>:
 4b71040:	31 c0                	xor    %eax,%eax
 4b71042:	31 db                	xor    %ebx,%ebx
 4b71044:	c3                   	ret
 4b71045:	cc                   	int3
 4b71046:	cc                   	int3
 4b71047:	cc                   	int3
 4b71048:	cc                   	int3
 4b71049:	cc                   	int3
 4b7104a:	cc                   	int3
 4b7104b:	cc                   	int3
 4b7104c:	cc                   	int3
 4b7104d:	cc                   	int3
 4b7104e:	cc                   	int3
 4b7104f:	cc                   	int3
 4b71050:	cc                   	int3
 4b71051:	cc                   	int3
 4b71052:	cc                   	int3
 4b71053:	cc                   	int3
 4b71054:	cc                   	int3
 4b71055:	cc                   	int3
 4b71056:	cc                   	int3
 4b71057:	cc                   	int3
 4b71058:	cc                   	int3
 4b71059:	cc                   	int3
 4b7105a:	cc                   	int3
 4b7105b:	cc                   	int3
 4b7105c:	cc                   	int3
 4b7105d:	cc                   	int3
 4b7105e:	cc                   	int3
 4b7105f:	cc                   	int3

0000000004b71060 <periph.io/x/conn/v3/pin.(*BasicPin).SupportedFuncs@@Base>:
 4b71060:	31 c0                	xor    %eax,%eax
 4b71062:	31 db                	xor    %ebx,%ebx
 4b71064:	48 89 d9             	mov    %rbx,%rcx
 4b71067:	c3                   	ret
 4b71068:	cc                   	int3
 4b71069:	cc                   	int3
 4b7106a:	cc                   	int3
 4b7106b:	cc                   	int3
 4b7106c:	cc                   	int3
 4b7106d:	cc                   	int3
 4b7106e:	cc                   	int3
 4b7106f:	cc                   	int3
 4b71070:	cc                   	int3
 4b71071:	cc                   	int3
 4b71072:	cc                   	int3
 4b71073:	cc                   	int3
 4b71074:	cc                   	int3
 4b71075:	cc                   	int3
 4b71076:	cc                   	int3
 4b71077:	cc                   	int3
 4b71078:	cc                   	int3
 4b71079:	cc                   	int3
 4b7107a:	cc                   	int3
 4b7107b:	cc                   	int3
 4b7107c:	cc                   	int3
 4b7107d:	cc                   	int3
 4b7107e:	cc                   	int3
 4b7107f:	cc                   	int3

0000000004b71080 <periph.io/x/conn/v3/pin.(*BasicPin).SetFunc@@Base>:
 4b71080:	49 3b 66 10          	cmp    0x10(%r14),%rsp
 4b71084:	76 45                	jbe    4b710cb <periph.io/x/conn/v3/pin.(*BasicPin).SetFunc@@Base+0x4b>
 4b71086:	48 83 ec 18          	sub    $0x18,%rsp
 4b7108a:	48 89 6c 24 10       	mov    %rbp,0x10(%rsp)
 4b7108f:	48 8d 6c 24 10       	lea    0x10(%rsp),%rbp
 4b71094:	48 8d 05 65 32 f0 00 	lea    0xf03265(%rip),%rax        # 5a74300 <type:hE5I1The@@Base>
 4b7109b:	0f 1f 44 00 00       	nopl   0x0(%rax,%rax,1)
 4b710a0:	e8 3b f4 37 fd       	call   1ef04e0 <runtime.newobject@@Base>
 4b710a5:	48 c7 40 08 25 00 00 	movq   $0x25,0x8(%rax)
 4b710ac:	00 
 4b710ad:	48 8d 0d 62 d6 29 00 	lea    0x29d662(%rip),%rcx        # 4e0e716 <_IO_stdin_used@@Base+0x1db716>
 4b710b4:	48 89 08             	mov    %rcx,(%rax)
 4b710b7:	48 89 c3             	mov    %rax,%rbx
 4b710ba:	48 8d 05 ff cd 38 01 	lea    0x138cdff(%rip),%rax        # 5efdec0 <go:itab.*errors.errorString,error@@Base>
 4b710c1:	48 8b 6c 24 10       	mov    0x10(%rsp),%rbp
 4b710c6:	48 83 c4 18          	add    $0x18,%rsp
 4b710ca:	c3                   	ret
 4b710cb:	e8 90 33 3e fd       	call   1f54460 <runtime.morestack_noctxt.abi0@@Base>
 4b710d0:	eb ae                	jmp    4b71080 <periph.io/x/conn/v3/pin.(*BasicPin).SetFunc@@Base>
 4b710d2:	cc                   	int3
 4b710d3:	cc                   	int3
 4b710d4:	cc                   	int3
 4b710d5:	cc                   	int3
 4b710d6:	cc                   	int3
 4b710d7:	cc                   	int3
 4b710d8:	cc                   	int3
 4b710d9:	cc                   	int3
 4b710da:	cc                   	int3
 4b710db:	cc                   	int3
 4b710dc:	cc                   	int3
 4b710dd:	cc                   	int3
 4b710de:	cc                   	int3
 4b710df:	cc                   	int3

0000000004b710e0 <periph.io/x/conn/v3/pin.init.0@@Base>:
 4b710e0:	49 3b 66 10          	cmp    0x10(%r14),%rsp
 4b710e4:	0f 86 17 02 00 00    	jbe    4b71301 <periph.io/x/conn/v3/pin.init.0@@Base+0x221>
 4b710ea:	48 83 ec 18          	sub    $0x18,%rsp
 4b710ee:	48 89 6c 24 10       	mov    %rbp,0x10(%rsp)
 4b710f3:	48 8d 6c 24 10       	lea    0x10(%rsp),%rbp
 4b710f8:	48 8d 05 01 f6 f2 00 	lea    0xf2f601(%rip),%rax        # 5aa0700 <type:kre3laJm@@Base>
 4b710ff:	90                   	nop
 4b71100:	e8 db f3 37 fd       	call   1ef04e0 <runtime.newobject@@Base>
 4b71105:	48 c7 40 08 07 00 00 	movq   $0x7,0x8(%rax)
 4b7110c:	00 
 4b7110d:	48 8d 0d a3 e9 0e 00 	lea    0xee9a3(%rip),%rcx        # 4c5fab7 <_IO_stdin_used@@Base+0x2cab7>
 4b71114:	48 89 08             	mov    %rcx,(%rax)
 4b71117:	83 3d 42 a8 30 03 00 	cmpl   $0x0,0x330a842(%rip)        # 7e7b960 <runtime.writeBarrier@@Base>
 4b7111e:	66 90                	xchg   %ax,%ax
 4b71120:	75 09                	jne    4b7112b <periph.io/x/conn/v3/pin.init.0@@Base+0x4b>
 4b71122:	48 89 05 87 e1 2b 03 	mov    %rax,0x32be187(%rip)        # 7e2f2b0 <periph.io/x/conn/v3/pin.INVALID@@Base>
 4b71129:	eb 0c                	jmp    4b71137 <periph.io/x/conn/v3/pin.init.0@@Base+0x57>
 4b7112b:	48 8d 3d 7e e1 2b 03 	lea    0x32be17e(%rip),%rdi        # 7e2f2b0 <periph.io/x/conn/v3/pin.INVALID@@Base>
 4b71132:	e8 c9 54 3e fd       	call   1f56600 <runtime.gcWriteBarrier@@Base>
 4b71137:	48 8d 05 c2 f5 f2 00 	lea    0xf2f5c2(%rip),%rax        # 5aa0700 <type:kre3laJm@@Base>
 4b7113e:	66 90                	xchg   %ax,%ax
 4b71140:	e8 9b f3 37 fd       	call   1ef04e0 <runtime.newobject@@Base>
 4b71145:	48 c7 40 08 06 00 00 	movq   $0x6,0x8(%rax)
 4b7114c:	00 
 4b7114d:	48 8d 0d 81 c4 0e 00 	lea    0xec481(%rip),%rcx        # 4c5d5d5 <_IO_stdin_used@@Base+0x2a5d5>
 4b71154:	48 89 08             	mov    %rcx,(%rax)
 4b71157:	83 3d 02 a8 30 03 00 	cmpl   $0x0,0x330a802(%rip)        # 7e7b960 <runtime.writeBarrier@@Base>
 4b7115e:	66 90                	xchg   %ax,%ax
 4b71160:	75 09                	jne    4b7116b <periph.io/x/conn/v3/pin.init.0@@Base+0x8b>
 4b71162:	48 89 05 3f e1 2b 03 	mov    %rax,0x32be13f(%rip)        # 7e2f2a8 <periph.io/x/conn/v3/pin.GROUND@@Base>
 4b71169:	eb 0c                	jmp    4b71177 <periph.io/x/conn/v3/pin.init.0@@Base+0x97>
 4b7116b:	48 8d 3d 36 e1 2b 03 	lea    0x32be136(%rip),%rdi        # 7e2f2a8 <periph.io/x/conn/v3/pin.GROUND@@Base>
 4b71172:	e8 89 54 3e fd       	call   1f56600 <runtime.gcWriteBarrier@@Base>
 4b71177:	48 8d 05 82 f5 f2 00 	lea    0xf2f582(%rip),%rax        # 5aa0700 <type:kre3laJm@@Base>
 4b7117e:	66 90                	xchg   %ax,%ax
 4b71180:	e8 5b f3 37 fd       	call   1ef04e0 <runtime.newobject@@Base>
 4b71185:	48 c7 40 08 04 00 00 	movq   $0x4,0x8(%rax)
 4b7118c:	00 
 4b7118d:	48 8d 0d 7c 31 0c 00 	lea    0xc317c(%rip),%rcx        # 4c34310 <_IO_stdin_used@@Base+0x1310>
 4b71194:	48 89 08             	mov    %rcx,(%rax)
 4b71197:	83 3d c2 a7 30 03 00 	cmpl   $0x0,0x330a7c2(%rip)        # 7e7b960 <runtime.writeBarrier@@Base>
 4b7119e:	66 90                	xchg   %ax,%ax
 4b711a0:	75 09                	jne    4b711ab <periph.io/x/conn/v3/pin.init.0@@Base+0xcb>
 4b711a2:	48 89 05 0f e1 2b 03 	mov    %rax,0x32be10f(%rip)        # 7e2f2b8 <periph.io/x/conn/v3/pin.V1_8@@Base>
 4b711a9:	eb 0c                	jmp    4b711b7 <periph.io/x/conn/v3/pin.init.0@@Base+0xd7>
 4b711ab:	48 8d 3d 06 e1 2b 03 	lea    0x32be106(%rip),%rdi        # 7e2f2b8 <periph.io/x/conn/v3/pin.V1_8@@Base>
 4b711b2:	e8 49 54 3e fd       	call   1f56600 <runtime.gcWriteBarrier@@Base>
 4b711b7:	48 8d 05 42 f5 f2 00 	lea    0xf2f542(%rip),%rax        # 5aa0700 <type:kre3laJm@@Base>
 4b711be:	66 90                	xchg   %ax,%ax
 4b711c0:	e8 1b f3 37 fd       	call   1ef04e0 <runtime.newobject@@Base>
 4b711c5:	48 c7 40 08 04 00 00 	movq   $0x4,0x8(%rax)
 4b711cc:	00 
 4b711cd:	48 8d 0d cc 32 0c 00 	lea    0xc32cc(%rip),%rcx        # 4c344a0 <_IO_stdin_used@@Base+0x14a0>
 4b711d4:	48 89 08             	mov    %rcx,(%rax)
 4b711d7:	83 3d 82 a7 30 03 00 	cmpl   $0x0,0x330a782(%rip)        # 7e7b960 <runtime.writeBarrier@@Base>
 4b711de:	66 90                	xchg   %ax,%ax
 4b711e0:	75 09                	jne    4b711eb <periph.io/x/conn/v3/pin.init.0@@Base+0x10b>
 4b711e2:	48 89 05 d7 e0 2b 03 	mov    %rax,0x32be0d7(%rip)        # 7e2f2c0 <periph.io/x/conn/v3/pin.V2_8@@Base>
 4b711e9:	eb 0c                	jmp    4b711f7 <periph.io/x/conn/v3/pin.init.0@@Base+0x117>
 4b711eb:	48 8d 3d ce e0 2b 03 	lea    0x32be0ce(%rip),%rdi        # 7e2f2c0 <periph.io/x/conn/v3/pin.V2_8@@Base>
 4b711f2:	e8 09 54 3e fd       	call   1f56600 <runtime.gcWriteBarrier@@Base>
 4b711f7:	48 8d 05 02 f5 f2 00 	lea    0xf2f502(%rip),%rax        # 5aa0700 <type:kre3laJm@@Base>
 4b711fe:	66 90                	xchg   %ax,%ax
 4b71200:	e8 db f2 37 fd       	call   1ef04e0 <runtime.newobject@@Base>
 4b71205:	48 c7 40 08 04 00 00 	movq   $0x4,0x8(%rax)
 4b7120c:	00 
 4b7120d:	48 8d 0d 88 34 0c 00 	lea    0xc3488(%rip),%rcx        # 4c3469c <_IO_stdin_used@@Base+0x169c>
 4b71214:	48 89 08             	mov    %rcx,(%rax)
 4b71217:	83 3d 42 a7 30 03 00 	cmpl   $0x0,0x330a742(%rip)        # 7e7b960 <runtime.writeBarrier@@Base>
 4b7121e:	66 90                	xchg   %ax,%ax
 4b71220:	75 09                	jne    4b7122b <periph.io/x/conn/v3/pin.init.0@@Base+0x14b>
 4b71222:	48 89 05 9f e0 2b 03 	mov    %rax,0x32be09f(%rip)        # 7e2f2c8 <periph.io/x/conn/v3/pin.V3_3@@Base>
 4b71229:	eb 0c                	jmp    4b71237 <periph.io/x/conn/v3/pin.init.0@@Base+0x157>
 4b7122b:	48 8d 3d 96 e0 2b 03 	lea    0x32be096(%rip),%rdi        # 7e2f2c8 <periph.io/x/conn/v3/pin.V3_3@@Base>
 4b71232:	e8 c9 53 3e fd       	call   1f56600 <runtime.gcWriteBarrier@@Base>
 4b71237:	48 8d 05 c2 f4 f2 00 	lea    0xf2f4c2(%rip),%rax        # 5aa0700 <type:kre3laJm@@Base>
 4b7123e:	66 90                	xchg   %ax,%ax
 4b71240:	e8 9b f2 37 fd       	call   1ef04e0 <runtime.newobject@@Base>
 4b71245:	48 c7 40 08 02 00 00 	movq   $0x2,0x8(%rax)
 4b7124c:	00 
 4b7124d:	48 8d 0d de 1e 0c 00 	lea    0xc1ede(%rip),%rcx        # 4c33132 <_IO_stdin_used@@Base+0x132>
 4b71254:	48 89 08             	mov    %rcx,(%rax)
 4b71257:	83 3d 02 a7 30 03 00 	cmpl   $0x0,0x330a702(%rip)        # 7e7b960 <runtime.writeBarrier@@Base>
 4b7125e:	66 90                	xchg   %ax,%ax
 4b71260:	75 09                	jne    4b7126b <periph.io/x/conn/v3/pin.init.0@@Base+0x18b>
 4b71262:	48 89 05 67 e0 2b 03 	mov    %rax,0x32be067(%rip)        # 7e2f2d0 <periph.io/x/conn/v3/pin.V5@@Base>
 4b71269:	eb 0c                	jmp    4b71277 <periph.io/x/conn/v3/pin.init.0@@Base+0x197>
 4b7126b:	48 8d 3d 5e e0 2b 03 	lea    0x32be05e(%rip),%rdi        # 7e2f2d0 <periph.io/x/conn/v3/pin.V5@@Base>
 4b71272:	e8 89 53 3e fd       	call   1f56600 <runtime.gcWriteBarrier@@Base>
 4b71277:	48 8d 05 82 f4 f2 00 	lea    0xf2f482(%rip),%rax        # 5aa0700 <type:kre3laJm@@Base>
 4b7127e:	66 90                	xchg   %ax,%ax
 4b71280:	e8 5b f2 37 fd       	call   1ef04e0 <runtime.newobject@@Base>
 4b71285:	48 c7 40 08 05 00 00 	movq   $0x5,0x8(%rax)
 4b7128c:	00 
 4b7128d:	48 8d 0d c1 27 0d 00 	lea    0xd27c1(%rip),%rcx        # 4c43a55 <_IO_stdin_used@@Base+0x10a55>
 4b71294:	48 89 08             	mov    %rcx,(%rax)
 4b71297:	83 3d c2 a6 30 03 00 	cmpl   $0x0,0x330a6c2(%rip)        # 7e7b960 <runtime.writeBarrier@@Base>
 4b7129e:	66 90                	xchg   %ax,%ax
 4b712a0:	75 09                	jne    4b712ab <periph.io/x/conn/v3/pin.init.0@@Base+0x1cb>
 4b712a2:	48 89 05 f7 df 2b 03 	mov    %rax,0x32bdff7(%rip)        # 7e2f2a0 <periph.io/x/conn/v3/pin.DC_IN@@Base>
 4b712a9:	eb 0c                	jmp    4b712b7 <periph.io/x/conn/v3/pin.init.0@@Base+0x1d7>
 4b712ab:	48 8d 3d ee df 2b 03 	lea    0x32bdfee(%rip),%rdi        # 7e2f2a0 <periph.io/x/conn/v3/pin.DC_IN@@Base>
 4b712b2:	e8 49 53 3e fd       	call   1f56600 <runtime.gcWriteBarrier@@Base>
 4b712b7:	48 8d 05 42 f4 f2 00 	lea    0xf2f442(%rip),%rax        # 5aa0700 <type:kre3laJm@@Base>
 4b712be:	66 90                	xchg   %ax,%ax
 4b712c0:	e8 1b f2 37 fd       	call   1ef04e0 <runtime.newobject@@Base>
 4b712c5:	48 c7 40 08 04 00 00 	movq   $0x4,0x8(%rax)
 4b712cc:	00 
 4b712cd:	48 8d 0d 74 48 0c 00 	lea    0xc4874(%rip),%rcx        # 4c35b48 <_IO_stdin_used@@Base+0x2b48>
 4b712d4:	48 89 08             	mov    %rcx,(%rax)
 4b712d7:	83 3d 82 a6 30 03 00 	cmpl   $0x0,0x330a682(%rip)        # 7e7b960 <runtime.writeBarrier@@Base>
 4b712de:	66 90                	xchg   %ax,%ax
 4b712e0:	75 09                	jne    4b712eb <periph.io/x/conn/v3/pin.init.0@@Base+0x20b>
 4b712e2:	48 89 05 af df 2b 03 	mov    %rax,0x32bdfaf(%rip)        # 7e2f298 <periph.io/x/conn/v3/pin.BAT_PLUS@@Base>
 4b712e9:	eb 0c                	jmp    4b712f7 <periph.io/x/conn/v3/pin.init.0@@Base+0x217>
 4b712eb:	48 8d 3d a6 df 2b 03 	lea    0x32bdfa6(%rip),%rdi        # 7e2f298 <periph.io/x/conn/v3/pin.BAT_PLUS@@Base>
 4b712f2:	e8 09 53 3e fd       	call   1f56600 <runtime.gcWriteBarrier@@Base>
 4b712f7:	48 8b 6c 24 10       	mov    0x10(%rsp),%rbp
 4b712fc:	48 83 c4 18          	add    $0x18,%rsp
 4b71300:	c3                   	ret
 4b71301:	e8 5a 31 3e fd       	call   1f54460 <runtime.morestack_noctxt.abi0@@Base>
 4b71306:	e9 d5 fd ff ff       	jmp    4b710e0 <periph.io/x/conn/v3/pin.init.0@@Base>
 4b7130b:	cc                   	int3
 4b7130c:	cc                   	int3
 4b7130d:	cc                   	int3
 4b7130e:	cc                   	int3
 4b7130f:	cc                   	int3
 4b71310:	cc                   	int3
 4b71311:	cc                   	int3
 4b71312:	cc                   	int3
 4b71313:	cc                   	int3
 4b71314:	cc                   	int3
 4b71315:	cc                   	int3
 4b71316:	cc                   	int3
 4b71317:	cc                   	int3
 4b71318:	cc                   	int3
 4b71319:	cc                   	int3
 4b7131a:	cc                   	int3
 4b7131b:	cc                   	int3
 4b7131c:	cc                   	int3
 4b7131d:	cc                   	int3
 4b7131e:	cc                   	int3
 4b7131f:	cc                   	int3

0000000004b71320 <periph.io/x/conn/v3/pin.(*Func).Generalize@@Base>:
 4b71320:	49 3b 66 10          	cmp    0x10(%r14),%rsp
 4b71324:	76 40                	jbe    4b71366 <periph.io/x/conn/v3/pin.(*Func).Generalize@@Base+0x46>
 4b71326:	48 83 ec 18          	sub    $0x18,%rsp
 4b7132a:	48 89 6c 24 10       	mov    %rbp,0x10(%rsp)
 4b7132f:	48 8d 6c 24 10       	lea    0x10(%rsp),%rbp
 4b71334:	4d 8b 66 20          	mov    0x20(%r14),%r12
 4b71338:	4d 85 e4             	test   %r12,%r12
 4b7133b:	75 3a                	jne    4b71377 <periph.io/x/conn/v3/pin.(*Func).Generalize@@Base+0x57>
 4b7133d:	0f 1f 00             	nopl   (%rax)
 4b71340:	48 85 c0             	test   %rax,%rax
 4b71343:	74 1b                	je     4b71360 <periph.io/x/conn/v3/pin.(*Func).Generalize@@Base+0x40>
 4b71345:	48 8b 08             	mov    (%rax),%rcx
 4b71348:	48 8b 58 08          	mov    0x8(%rax),%rbx
 4b7134c:	48 89 c8             	mov    %rcx,%rax
 4b7134f:	e8 2c fb ff ff       	call   4b70e80 <periph.io/x/conn/v3/pin.Func.Generalize@@Base>
 4b71354:	48 8b 6c 24 10       	mov    0x10(%rsp),%rbp
 4b71359:	48 83 c4 18          	add    $0x18,%rsp
 4b7135d:	c3                   	ret
 4b7135e:	66 90                	xchg   %ax,%ax
 4b71360:	e8 5b af 37 fd       	call   1eec2c0 <runtime.panicwrap@@Base>
 4b71365:	90                   	nop
 4b71366:	48 89 44 24 08       	mov    %rax,0x8(%rsp)
 4b7136b:	e8 f0 30 3e fd       	call   1f54460 <runtime.morestack_noctxt.abi0@@Base>
 4b71370:	48 8b 44 24 08       	mov    0x8(%rsp),%rax
 4b71375:	eb a9                	jmp    4b71320 <periph.io/x/conn/v3/pin.(*Func).Generalize@@Base>
 4b71377:	4c 8d 6c 24 20       	lea    0x20(%rsp),%r13
 4b7137c:	0f 1f 40 00          	nopl   0x0(%rax)
 4b71380:	4d 39 2c 24          	cmp    %r13,(%r12)
 4b71384:	75 b7                	jne    4b7133d <periph.io/x/conn/v3/pin.(*Func).Generalize@@Base+0x1d>
 4b71386:	49 89 24 24          	mov    %rsp,(%r12)
 4b7138a:	eb b1                	jmp    4b7133d <periph.io/x/conn/v3/pin.(*Func).Generalize@@Base+0x1d>
 4b7138c:	cc                   	int3
 4b7138d:	cc                   	int3
 4b7138e:	cc                   	int3
 4b7138f:	cc                   	int3
 4b71390:	cc                   	int3
 4b71391:	cc                   	int3
 4b71392:	cc                   	int3
 4b71393:	cc                   	int3
 4b71394:	cc                   	int3
 4b71395:	cc                   	int3
 4b71396:	cc                   	int3
 4b71397:	cc                   	int3
 4b71398:	cc                   	int3
 4b71399:	cc                   	int3
 4b7139a:	cc                   	int3
 4b7139b:	cc                   	int3
 4b7139c:	cc                   	int3
 4b7139d:	cc                   	int3
 4b7139e:	cc                   	int3
 4b7139f:	cc                   	int3

0000000004b713a0 <periph.io/x/conn/v3/pin.(*Func).Specialize@@Base>:
 4b713a0:	49 3b 66 10          	cmp    0x10(%r14),%rsp
 4b713a4:	76 47                	jbe    4b713ed <periph.io/x/conn/v3/pin.(*Func).Specialize@@Base+0x4d>
 4b713a6:	48 83 ec 28          	sub    $0x28,%rsp
 4b713aa:	48 89 6c 24 20       	mov    %rbp,0x20(%rsp)
 4b713af:	48 8d 6c 24 20       	lea    0x20(%rsp),%rbp
 4b713b4:	4d 8b 66 20          	mov    0x20(%r14),%r12
 4b713b8:	4d 85 e4             	test   %r12,%r12
 4b713bb:	75 59                	jne    4b71416 <periph.io/x/conn/v3/pin.(*Func).Specialize@@Base+0x76>
 4b713bd:	0f 1f 00             	nopl   (%rax)
 4b713c0:	48 85 c0             	test   %rax,%rax
 4b713c3:	74 22                	je     4b713e7 <periph.io/x/conn/v3/pin.(*Func).Specialize@@Base+0x47>
 4b713c5:	48 8b 10             	mov    (%rax),%rdx
 4b713c8:	48 8b 70 08          	mov    0x8(%rax),%rsi
 4b713cc:	48 89 d0             	mov    %rdx,%rax
 4b713cf:	48 89 cf             	mov    %rcx,%rdi
 4b713d2:	48 89 d9             	mov    %rbx,%rcx
 4b713d5:	48 89 f3             	mov    %rsi,%rbx
 4b713d8:	e8 03 f9 ff ff       	call   4b70ce0 <periph.io/x/conn/v3/pin.Func.Specialize@@Base>
 4b713dd:	48 8b 6c 24 20       	mov    0x20(%rsp),%rbp
 4b713e2:	48 83 c4 28          	add    $0x28,%rsp
 4b713e6:	c3                   	ret
 4b713e7:	e8 d4 ae 37 fd       	call   1eec2c0 <runtime.panicwrap@@Base>
 4b713ec:	90                   	nop
 4b713ed:	48 89 44 24 08       	mov    %rax,0x8(%rsp)
 4b713f2:	48 89 5c 24 10       	mov    %rbx,0x10(%rsp)
 4b713f7:	48 89 4c 24 18       	mov    %rcx,0x18(%rsp)
 4b713fc:	0f 1f 40 00          	nopl   0x0(%rax)
 4b71400:	e8 5b 30 3e fd       	call   1f54460 <runtime.morestack_noctxt.abi0@@Base>
 4b71405:	48 8b 44 24 08       	mov    0x8(%rsp),%rax
 4b7140a:	48 8b 5c 24 10       	mov    0x10(%rsp),%rbx
 4b7140f:	48 8b 4c 24 18       	mov    0x18(%rsp),%rcx
 4b71414:	eb 8a                	jmp    4b713a0 <periph.io/x/conn/v3/pin.(*Func).Specialize@@Base>
 4b71416:	4c 8d 6c 24 30       	lea    0x30(%rsp),%r13
 4b7141b:	0f 1f 44 00 00       	nopl   0x0(%rax,%rax,1)
 4b71420:	4d 39 2c 24          	cmp    %r13,(%r12)
 4b71424:	75 97                	jne    4b713bd <periph.io/x/conn/v3/pin.(*Func).Specialize@@Base+0x1d>
 4b71426:	49 89 24 24          	mov    %rsp,(%r12)
 4b7142a:	eb 91                	jmp    4b713bd <periph.io/x/conn/v3/pin.(*Func).Specialize@@Base+0x1d>
 4b7142c:	cc                   	int3
 4b7142d:	cc                   	int3
 4b7142e:	cc                   	int3
 4b7142f:	cc                   	int3
 4b71430:	cc                   	int3
 4b71431:	cc                   	int3
 4b71432:	cc                   	int3
 4b71433:	cc                   	int3
 4b71434:	cc                   	int3
 4b71435:	cc                   	int3
 4b71436:	cc                   	int3
 4b71437:	cc                   	int3
 4b71438:	cc                   	int3
 4b71439:	cc                   	int3
 4b7143a:	cc                   	int3
 4b7143b:	cc                   	int3
 4b7143c:	cc                   	int3
 4b7143d:	cc                   	int3
 4b7143e:	cc                   	int3
 4b7143f:	cc                   	int3

0000000004b71440 <periph.io/x/conn/v3/physic.Frequency.String@@Base>:
 4b71440:	49 3b 66 10          	cmp    0x10(%r14),%rsp
 4b71444:	76 36                	jbe    4b7147c <periph.io/x/conn/v3/physic.Frequency.String@@Base+0x3c>
 4b71446:	48 83 ec 30          	sub    $0x30,%rsp
 4b7144a:	48 89 6c 24 28       	mov    %rbp,0x28(%rsp)
 4b7144f:	48 8d 6c 24 28       	lea    0x28(%rsp),%rbp
 4b71454:	e8 87 34 00 00       	call   4b748e0 <periph.io/x/conn/v3/physic.microAsString@@Base>
 4b71459:	48 89 d9             	mov    %rbx,%rcx
 4b7145c:	48 8d 3d 63 1d 0c 00 	lea    0xc1d63(%rip),%rdi        # 4c331c6 <_IO_stdin_used@@Base+0x1c6>
 4b71463:	be 02 00 00 00       	mov    $0x2,%esi
 4b71468:	48 89 c3             	mov    %rax,%rbx
 4b7146b:	31 c0                	xor    %eax,%eax
 4b7146d:	e8 ae 8e 3c fd       	call   1f3a320 <runtime.concatstring2@@Base>
 4b71472:	48 8b 6c 24 28       	mov    0x28(%rsp),%rbp
 4b71477:	48 83 c4 30          	add    $0x30,%rsp
 4b7147b:	c3                   	ret
 4b7147c:	48 89 44 24 08       	mov    %rax,0x8(%rsp)
 4b71481:	e8 da 2f 3e fd       	call   1f54460 <runtime.morestack_noctxt.abi0@@Base>
 4b71486:	48 8b 44 24 08       	mov    0x8(%rsp),%rax
 4b7148b:	eb b3                	jmp    4b71440 <periph.io/x/conn/v3/physic.Frequency.String@@Base>
 4b7148d:	cc                   	int3
 4b7148e:	cc                   	int3
 4b7148f:	cc                   	int3
 4b71490:	cc                   	int3
 4b71491:	cc                   	int3
 4b71492:	cc                   	int3
 4b71493:	cc                   	int3
 4b71494:	cc                   	int3
 4b71495:	cc                   	int3
 4b71496:	cc                   	int3
 4b71497:	cc                   	int3
 4b71498:	cc                   	int3
 4b71499:	cc                   	int3
 4b7149a:	cc                   	int3
 4b7149b:	cc                   	int3
 4b7149c:	cc                   	int3
 4b7149d:	cc                   	int3
 4b7149e:	cc                   	int3
 4b7149f:	cc                   	int3

0000000004b714a0 <periph.io/x/conn/v3/physic.(*Frequency).Set@@Base>:
 4b714a0:	4c 8d a4 24 10 ff ff 	lea    -0xf0(%rsp),%r12
 4b714a7:	ff 
 4b714a8:	4d 3b 66 10          	cmp    0x10(%r14),%r12
 4b714ac:	0f 86 5c 07 00 00    	jbe    4b71c0e <periph.io/x/conn/v3/physic.(*Frequency).Set@@Base+0x76e>
 4b714b2:	48 81 ec 70 01 00 00 	sub    $0x170,%rsp
 4b714b9:	48 89 ac 24 68 01 00 	mov    %rbp,0x168(%rsp)
 4b714c0:	00 
 4b714c1:	48 8d ac 24 68 01 00 	lea    0x168(%rsp),%rbp
 4b714c8:	00 
 4b714c9:	48 89 84 24 78 01 00 	mov    %rax,0x178(%rsp)
 4b714d0:	00 
 4b714d1:	48 89 8c 24 88 01 00 	mov    %rcx,0x188(%rsp)
 4b714d8:	00 
 4b714d9:	48 89 9c 24 80 01 00 	mov    %rbx,0x180(%rsp)
 4b714e0:	00 
 4b714e1:	48 89 d8             	mov    %rbx,%rax
 4b714e4:	48 89 cb             	mov    %rcx,%rbx
 4b714e7:	48 c7 c1 fa ff ff ff 	mov    $0xfffffffffffffffa,%rcx
 4b714ee:	e8 cd 3f 00 00       	call   4b754c0 <periph.io/x/conn/v3/physic.valueOfUnitString@@Base>
 4b714f3:	48 85 c9             	test   %rcx,%rcx
 4b714f6:	0f 85 da 00 00 00    	jne    4b715d6 <periph.io/x/conn/v3/physic.(*Frequency).Set@@Base+0x136>
 4b714fc:	48 8b 8c 24 88 01 00 	mov    0x188(%rsp),%rcx
 4b71503:	00 
 4b71504:	48 39 cb             	cmp    %rcx,%rbx
 4b71507:	0f 87 f8 06 00 00    	ja     4b71c05 <periph.io/x/conn/v3/physic.(*Frequency).Set@@Base+0x765>
 4b7150d:	48 29 d9             	sub    %rbx,%rcx
 4b71510:	48 89 ca             	mov    %rcx,%rdx
 4b71513:	48 f7 d9             	neg    %rcx
 4b71516:	48 c1 f9 3f          	sar    $0x3f,%rcx
 4b7151a:	48 21 d9             	and    %rbx,%rcx
 4b7151d:	4c 8b a4 24 80 01 00 	mov    0x180(%rsp),%r12
 4b71524:	00 
 4b71525:	4d 8d 2c 0c          	lea    (%r12,%rcx,1),%r13
 4b71529:	48 85 d2             	test   %rdx,%rdx
 4b7152c:	0f 84 85 00 00 00    	je     4b715b7 <periph.io/x/conn/v3/physic.(*Frequency).Set@@Base+0x117>
 4b71532:	48 83 fa 02          	cmp    $0x2,%rdx
 4b71536:	75 18                	jne    4b71550 <periph.io/x/conn/v3/physic.(*Frequency).Set@@Base+0xb0>
 4b71538:	45 0f b7 24 0c       	movzwl (%r12,%rcx,1),%r12d
 4b7153d:	0f 1f 00             	nopl   (%rax)
 4b71540:	66 41 81 fc 48 7a    	cmp    $0x7a48,%r12w
 4b71546:	74 6f                	je     4b715b7 <periph.io/x/conn/v3/physic.(*Frequency).Set@@Base+0x117>
 4b71548:	66 41 81 fc 68 7a    	cmp    $0x7a68,%r12w
 4b7154e:	74 67                	je     4b715b7 <periph.io/x/conn/v3/physic.(*Frequency).Set@@Base+0x117>
 4b71550:	48 89 94 24 98 00 00 	mov    %rdx,0x98(%rsp)
 4b71557:	00 
 4b71558:	4c 89 ac 24 20 01 00 	mov    %r13,0x120(%rsp)
 4b7155f:	00 
 4b71560:	44 0f 11 bc 24 28 01 	movups %xmm15,0x128(%rsp)
 4b71567:	00 00 
 4b71569:	44 0f 11 bc 24 38 01 	movups %xmm15,0x138(%rsp)
 4b71570:	00 00 
 4b71572:	48 8d 3d 4d 1c 0c 00 	lea    0xc1c4d(%rip),%rdi        # 4c331c6 <_IO_stdin_used@@Base+0x1c6>
 4b71579:	48 89 bc 24 28 01 00 	mov    %rdi,0x128(%rsp)
 4b71580:	00 
 4b71581:	48 c7 84 24 30 01 00 	movq   $0x2,0x130(%rsp)
 4b71588:	00 02 00 00 00 
 4b7158d:	4c 8d 25 9c 1d 0c 00 	lea    0xc1d9c(%rip),%r12        # 4c33330 <_IO_stdin_used@@Base+0x330>
 4b71594:	4c 89 a4 24 38 01 00 	mov    %r12,0x138(%rsp)
 4b7159b:	00 
 4b7159c:	48 c7 84 24 40 01 00 	movq   $0x2,0x140(%rsp)
 4b715a3:	00 02 00 00 00 
 4b715a8:	4c 8d a4 24 28 01 00 	lea    0x128(%rsp),%r12
 4b715af:	00 
 4b715b0:	31 c0                	xor    %eax,%eax
 4b715b2:	e9 6a 04 00 00       	jmp    4b71a21 <periph.io/x/conn/v3/physic.(*Frequency).Set@@Base+0x581>
 4b715b7:	48 8b 8c 24 78 01 00 	mov    0x178(%rsp),%rcx
 4b715be:	00 
 4b715bf:	48 89 01             	mov    %rax,(%rcx)
 4b715c2:	31 c0                	xor    %eax,%eax
 4b715c4:	31 db                	xor    %ebx,%ebx
 4b715c6:	48 8b ac 24 68 01 00 	mov    0x168(%rsp),%rbp
 4b715cd:	00 
 4b715ce:	48 81 c4 70 01 00 00 	add    $0x170,%rsp
 4b715d5:	c3                   	ret
 4b715d6:	48 8d 15 03 3d 39 01 	lea    0x1393d03(%rip),%rdx        # 5f052e0 <go:itab.*periph.io/x/conn/v3/physic.parseError,error@@Base>
 4b715dd:	0f 1f 00             	nopl   (%rax)
 4b715e0:	48 39 d1             	cmp    %rdx,%rcx
 4b715e3:	75 05                	jne    4b715ea <periph.io/x/conn/v3/physic.(*Frequency).Set@@Base+0x14a>
 4b715e5:	48 89 f8             	mov    %rdi,%rax
 4b715e8:	eb 08                	jmp    4b715f2 <periph.io/x/conn/v3/physic.(*Frequency).Set@@Base+0x152>
 4b715ea:	48 89 f8             	mov    %rdi,%rax
 4b715ed:	bf 00 00 00 00       	mov    $0x0,%edi
 4b715f2:	0f 85 b6 02 00 00    	jne    4b718ae <periph.io/x/conn/v3/physic.(*Frequency).Set@@Base+0x40e>
 4b715f8:	48 89 84 24 18 01 00 	mov    %rax,0x118(%rsp)
 4b715ff:	00 
 4b71600:	48 89 8c 24 80 00 00 	mov    %rcx,0x80(%rsp)
 4b71607:	00 
 4b71608:	48 8b 17             	mov    (%rdi),%rdx
 4b7160b:	48 89 94 24 90 00 00 	mov    %rdx,0x90(%rsp)
 4b71612:	00 
 4b71613:	48 8b 5f 08          	mov    0x8(%rdi),%rbx
 4b71617:	48 89 9c 24 20 01 00 	mov    %rbx,0x120(%rsp)
 4b7161e:	00 
 4b7161f:	48 8b 35 32 42 2c 03 	mov    0x32c4232(%rip),%rsi        # 7e35858 <periph.io/x/conn/v3/physic.errNotANumber@@Base+0x8>
 4b71626:	48 39 15 23 42 2c 03 	cmp    %rdx,0x32c4223(%rip)        # 7e35850 <periph.io/x/conn/v3/physic.errNotANumber@@Base>
 4b7162d:	0f 85 98 00 00 00    	jne    4b716cb <periph.io/x/conn/v3/physic.(*Frequency).Set@@Base+0x22b>
 4b71633:	48 89 d0             	mov    %rdx,%rax
 4b71636:	48 89 f1             	mov    %rsi,%rcx
 4b71639:	e8 a2 38 37 fd       	call   1ee4ee0 <runtime.ifaceeq@@Base>
 4b7163e:	66 90                	xchg   %ax,%ax
 4b71640:	84 c0                	test   %al,%al
 4b71642:	74 67                	je     4b716ab <periph.io/x/conn/v3/physic.(*Frequency).Set@@Base+0x20b>
 4b71644:	44 0f 11 bc 24 48 01 	movups %xmm15,0x148(%rsp)
 4b7164b:	00 00 
 4b7164d:	44 0f 11 bc 24 58 01 	movups %xmm15,0x158(%rsp)
 4b71654:	00 00 
 4b71656:	48 8d 3d 69 1b 0c 00 	lea    0xc1b69(%rip),%rdi        # 4c331c6 <_IO_stdin_used@@Base+0x1c6>
 4b7165d:	48 89 bc 24 48 01 00 	mov    %rdi,0x148(%rsp)
 4b71664:	00 
 4b71665:	48 c7 84 24 50 01 00 	movq   $0x2,0x150(%rsp)
 4b7166c:	00 02 00 00 00 
 4b71671:	48 8d 15 b8 1c 0c 00 	lea    0xc1cb8(%rip),%rdx        # 4c33330 <_IO_stdin_used@@Base+0x330>
 4b71678:	48 89 94 24 58 01 00 	mov    %rdx,0x158(%rsp)
 4b7167f:	00 
 4b71680:	48 c7 84 24 60 01 00 	movq   $0x2,0x160(%rsp)
 4b71687:	00 02 00 00 00 
 4b7168c:	48 8d 94 24 48 01 00 	lea    0x148(%rsp),%rdx
 4b71693:	00 
 4b71694:	4c 8b 84 24 80 01 00 	mov    0x180(%rsp),%r8
 4b7169b:	00 
 4b7169c:	48 8b 84 24 88 01 00 	mov    0x188(%rsp),%rax
 4b716a3:	00 
 4b716a4:	31 c9                	xor    %ecx,%ecx
 4b716a6:	e9 23 02 00 00       	jmp    4b718ce <periph.io/x/conn/v3/physic.(*Frequency).Set@@Base+0x42e>
 4b716ab:	48 8b 84 24 18 01 00 	mov    0x118(%rsp),%rax
 4b716b2:	00 
 4b716b3:	48 8b 8c 24 80 00 00 	mov    0x80(%rsp),%rcx
 4b716ba:	00 
 4b716bb:	48 8b 94 24 90 00 00 	mov    0x90(%rsp),%rdx
 4b716c2:	00 
 4b716c3:	48 8b 9c 24 20 01 00 	mov    0x120(%rsp),%rbx
 4b716ca:	00 
 4b716cb:	48 8b 35 96 41 2c 03 	mov    0x32c4196(%rip),%rsi        # 7e35868 <periph.io/x/conn/v3/physic.errOverflowsInt64@@Base+0x8>
 4b716d2:	48 39 15 87 41 2c 03 	cmp    %rdx,0x32c4187(%rip)        # 7e35860 <periph.io/x/conn/v3/physic.errOverflowsInt64@@Base>
 4b716d9:	75 33                	jne    4b7170e <periph.io/x/conn/v3/physic.(*Frequency).Set@@Base+0x26e>
 4b716db:	48 89 d0             	mov    %rdx,%rax
 4b716de:	48 89 f1             	mov    %rsi,%rcx
 4b716e1:	e8 fa 37 37 fd       	call   1ee4ee0 <runtime.ifaceeq@@Base>
 4b716e6:	84 c0                	test   %al,%al
 4b716e8:	0f 85 13 01 00 00    	jne    4b71801 <periph.io/x/conn/v3/physic.(*Frequency).Set@@Base+0x361>
 4b716ee:	48 8b 84 24 18 01 00 	mov    0x118(%rsp),%rax
 4b716f5:	00 
 4b716f6:	48 8b 8c 24 80 00 00 	mov    0x80(%rsp),%rcx
 4b716fd:	00 
 4b716fe:	48 8b 94 24 90 00 00 	mov    0x90(%rsp),%rdx
 4b71705:	00 
 4b71706:	48 8b 9c 24 20 01 00 	mov    0x120(%rsp),%rbx
 4b7170d:	00 
 4b7170e:	48 8b 35 63 41 2c 03 	mov    0x32c4163(%rip),%rsi        # 7e35878 <periph.io/x/conn/v3/physic.errOverflowsInt64Negative@@Base+0x8>
 4b71715:	66 0f 1f 84 00 00 00 	nopw   0x0(%rax,%rax,1)
 4b7171c:	00 00 
 4b7171e:	66 90                	xchg   %ax,%ax
 4b71720:	48 39 15 49 41 2c 03 	cmp    %rdx,0x32c4149(%rip)        # 7e35870 <periph.io/x/conn/v3/physic.errOverflowsInt64Negative@@Base>
 4b71727:	0f 85 81 01 00 00    	jne    4b718ae <periph.io/x/conn/v3/physic.(*Frequency).Set@@Base+0x40e>
 4b7172d:	48 89 d0             	mov    %rdx,%rax
 4b71730:	48 89 f1             	mov    %rsi,%rcx
 4b71733:	e8 a8 37 37 fd       	call   1ee4ee0 <runtime.ifaceeq@@Base>
 4b71738:	84 c0                	test   %al,%al
 4b7173a:	75 15                	jne    4b71751 <periph.io/x/conn/v3/physic.(*Frequency).Set@@Base+0x2b1>
 4b7173c:	48 8b 84 24 18 01 00 	mov    0x118(%rsp),%rax
 4b71743:	00 
 4b71744:	48 8b 8c 24 80 00 00 	mov    0x80(%rsp),%rcx
 4b7174b:	00 
 4b7174c:	e9 5d 01 00 00       	jmp    4b718ae <periph.io/x/conn/v3/physic.(*Frequency).Set@@Base+0x40e>
 4b71751:	48 b8 01 00 00 00 00 	movabs $0x8000000000000001,%rax
 4b71758:	00 00 80 
 4b7175b:	0f 1f 44 00 00       	nopl   0x0(%rax,%rax,1)
 4b71760:	e8 7b 31 00 00       	call   4b748e0 <periph.io/x/conn/v3/physic.microAsString@@Base>
 4b71765:	48 89 d9             	mov    %rbx,%rcx
 4b71768:	48 8d 3d 57 1a 0c 00 	lea    0xc1a57(%rip),%rdi        # 4c331c6 <_IO_stdin_used@@Base+0x1c6>
 4b7176f:	be 02 00 00 00       	mov    $0x2,%esi
 4b71774:	48 89 c3             	mov    %rax,%rbx
 4b71777:	48 8d 84 24 a0 00 00 	lea    0xa0(%rsp),%rax
 4b7177e:	00 
 4b7177f:	90                   	nop
 4b71780:	e8 9b 8b 3c fd       	call   1f3a320 <runtime.concatstring2@@Base>
 4b71785:	b9 11 00 00 00       	mov    $0x11,%ecx
 4b7178a:	48 89 c7             	mov    %rax,%rdi
 4b7178d:	48 89 de             	mov    %rbx,%rsi
 4b71790:	31 c0                	xor    %eax,%eax
 4b71792:	48 8d 1d 7b f0 19 00 	lea    0x19f07b(%rip),%rbx        # 4d10814 <_IO_stdin_used@@Base+0xdd814>
 4b71799:	e8 82 8b 3c fd       	call   1f3a320 <runtime.concatstring2@@Base>
 4b7179e:	48 89 84 24 f8 00 00 	mov    %rax,0xf8(%rsp)
 4b717a5:	00 
 4b717a6:	48 89 5c 24 68       	mov    %rbx,0x68(%rsp)
 4b717ab:	48 8d 05 4e 2b f0 00 	lea    0xf02b4e(%rip),%rax        # 5a74300 <type:hE5I1The@@Base>
 4b717b2:	e8 29 ed 37 fd       	call   1ef04e0 <runtime.newobject@@Base>
 4b717b7:	48 8b 4c 24 68       	mov    0x68(%rsp),%rcx
 4b717bc:	48 89 48 08          	mov    %rcx,0x8(%rax)
 4b717c0:	83 3d 99 a1 30 03 00 	cmpl   $0x0,0x330a199(%rip)        # 7e7b960 <runtime.writeBarrier@@Base>
 4b717c7:	75 0d                	jne    4b717d6 <periph.io/x/conn/v3/physic.(*Frequency).Set@@Base+0x336>
 4b717c9:	48 8b 8c 24 f8 00 00 	mov    0xf8(%rsp),%rcx
 4b717d0:	00 
 4b717d1:	48 89 08             	mov    %rcx,(%rax)
 4b717d4:	eb 10                	jmp    4b717e6 <periph.io/x/conn/v3/physic.(*Frequency).Set@@Base+0x346>
 4b717d6:	48 89 c7             	mov    %rax,%rdi
 4b717d9:	48 8b 8c 24 f8 00 00 	mov    0xf8(%rsp),%rcx
 4b717e0:	00 
 4b717e1:	e8 1a 4f 3e fd       	call   1f56700 <runtime.gcWriteBarrierCX@@Base>
 4b717e6:	48 89 c3             	mov    %rax,%rbx
 4b717e9:	48 8d 05 d0 c6 38 01 	lea    0x138c6d0(%rip),%rax        # 5efdec0 <go:itab.*errors.errorString,error@@Base>
 4b717f0:	48 8b ac 24 68 01 00 	mov    0x168(%rsp),%rbp
 4b717f7:	00 
 4b717f8:	48 81 c4 70 01 00 00 	add    $0x170,%rsp
 4b717ff:	90                   	nop
 4b71800:	c3                   	ret
 4b71801:	48 b8 ff ff ff ff ff 	movabs $0x7fffffffffffffff,%rax
 4b71808:	ff ff 7f 
 4b7180b:	e8 d0 30 00 00       	call   4b748e0 <periph.io/x/conn/v3/physic.microAsString@@Base>
 4b71810:	48 89 d9             	mov    %rbx,%rcx
 4b71813:	48 8d 3d ac 19 0c 00 	lea    0xc19ac(%rip),%rdi        # 4c331c6 <_IO_stdin_used@@Base+0x1c6>
 4b7181a:	be 02 00 00 00       	mov    $0x2,%esi
 4b7181f:	48 89 c3             	mov    %rax,%rbx
 4b71822:	48 8d 84 24 c0 00 00 	lea    0xc0(%rsp),%rax
 4b71829:	00 
 4b7182a:	e8 f1 8a 3c fd       	call   1f3a320 <runtime.concatstring2@@Base>
 4b7182f:	b9 11 00 00 00       	mov    $0x11,%ecx
 4b71834:	48 89 c7             	mov    %rax,%rdi
 4b71837:	48 89 de             	mov    %rbx,%rsi
 4b7183a:	31 c0                	xor    %eax,%eax
 4b7183c:	48 8d 1d 7c ef 19 00 	lea    0x19ef7c(%rip),%rbx        # 4d107bf <_IO_stdin_used@@Base+0xdd7bf>
 4b71843:	e8 d8 8a 3c fd       	call   1f3a320 <runtime.concatstring2@@Base>
 4b71848:	48 89 84 24 00 01 00 	mov    %rax,0x100(%rsp)
 4b7184f:	00 
 4b71850:	48 89 5c 24 70       	mov    %rbx,0x70(%rsp)
 4b71855:	48 8d 05 a4 2a f0 00 	lea    0xf02aa4(%rip),%rax        # 5a74300 <type:hE5I1The@@Base>
 4b7185c:	0f 1f 40 00          	nopl   0x0(%rax)
 4b71860:	e8 7b ec 37 fd       	call   1ef04e0 <runtime.newobject@@Base>
 4b71865:	48 8b 4c 24 70       	mov    0x70(%rsp),%rcx
 4b7186a:	48 89 48 08          	mov    %rcx,0x8(%rax)
 4b7186e:	83 3d eb a0 30 03 00 	cmpl   $0x0,0x330a0eb(%rip)        # 7e7b960 <runtime.writeBarrier@@Base>
 4b71875:	75 0d                	jne    4b71884 <periph.io/x/conn/v3/physic.(*Frequency).Set@@Base+0x3e4>
 4b71877:	48 8b 8c 24 00 01 00 	mov    0x100(%rsp),%rcx
 4b7187e:	00 
 4b7187f:	48 89 08             	mov    %rcx,(%rax)
 4b71882:	eb 10                	jmp    4b71894 <periph.io/x/conn/v3/physic.(*Frequency).Set@@Base+0x3f4>
 4b71884:	48 89 c7             	mov    %rax,%rdi
 4b71887:	48 8b 8c 24 00 01 00 	mov    0x100(%rsp),%rcx
 4b7188e:	00 
 4b7188f:	e8 6c 4e 3e fd       	call   1f56700 <runtime.gcWriteBarrierCX@@Base>
 4b71894:	48 89 c3             	mov    %rax,%rbx
 4b71897:	48 8d 05 22 c6 38 01 	lea    0x138c622(%rip),%rax        # 5efdec0 <go:itab.*errors.errorString,error@@Base>
 4b7189e:	48 8b ac 24 68 01 00 	mov    0x168(%rsp),%rbp
 4b718a5:	00 
 4b718a6:	48 81 c4 70 01 00 00 	add    $0x170,%rsp
 4b718ad:	c3                   	ret
 4b718ae:	48 89 c3             	mov    %rax,%rbx
 4b718b1:	48 89 c8             	mov    %rcx,%rax
 4b718b4:	48 8b ac 24 68 01 00 	mov    0x168(%rsp),%rbp
 4b718bb:	00 
 4b718bc:	48 81 c4 70 01 00 00 	add    $0x170,%rsp
 4b718c3:	c3                   	ret
 4b718c4:	48 83 c2 10          	add    $0x10,%rdx
 4b718c8:	48 ff c1             	inc    %rcx
 4b718cb:	4c 89 d8             	mov    %r11,%rax
 4b718ce:	48 83 f9 02          	cmp    $0x2,%rcx
 4b718d2:	0f 8d 95 00 00 00    	jge    4b7196d <periph.io/x/conn/v3/physic.(*Frequency).Set@@Base+0x4cd>
 4b718d8:	4c 8b 4a 08          	mov    0x8(%rdx),%r9
 4b718dc:	48 8b 1a             	mov    (%rdx),%rbx
 4b718df:	90                   	nop
 4b718e0:	4c 39 c8             	cmp    %r9,%rax
 4b718e3:	7c 79                	jl     4b7195e <periph.io/x/conn/v3/physic.(*Frequency).Set@@Base+0x4be>
 4b718e5:	49 89 c2             	mov    %rax,%r10
 4b718e8:	4c 29 c8             	sub    %r9,%rax
 4b718eb:	49 39 c2             	cmp    %rax,%r10
 4b718ee:	0f 82 1b 01 00 00    	jb     4b71a0f <periph.io/x/conn/v3/physic.(*Frequency).Set@@Base+0x56f>
 4b718f4:	4d 89 d3             	mov    %r10,%r11
 4b718f7:	49 29 c2             	sub    %rax,%r10
 4b718fa:	4d 89 d4             	mov    %r10,%r12
 4b718fd:	49 f7 da             	neg    %r10
 4b71900:	49 c1 fa 3f          	sar    $0x3f,%r10
 4b71904:	4c 21 d0             	and    %r10,%rax
 4b71907:	4c 01 c0             	add    %r8,%rax
 4b7190a:	4d 39 e1             	cmp    %r12,%r9
 4b7190d:	74 04                	je     4b71913 <periph.io/x/conn/v3/physic.(*Frequency).Set@@Base+0x473>
 4b7190f:	31 c0                	xor    %eax,%eax
 4b71911:	eb 50                	jmp    4b71963 <periph.io/x/conn/v3/physic.(*Frequency).Set@@Base+0x4c3>
 4b71913:	48 89 8c 24 98 00 00 	mov    %rcx,0x98(%rsp)
 4b7191a:	00 
 4b7191b:	48 89 94 24 10 01 00 	mov    %rdx,0x110(%rsp)
 4b71922:	00 
 4b71923:	4c 89 4c 24 50       	mov    %r9,0x50(%rsp)
 4b71928:	4c 89 e1             	mov    %r12,%rcx
 4b7192b:	e8 f0 21 37 fd       	call   1ee3b20 <runtime.memequal@@Base>
 4b71930:	48 8b 8c 24 98 00 00 	mov    0x98(%rsp),%rcx
 4b71937:	00 
 4b71938:	48 8b 94 24 10 01 00 	mov    0x110(%rsp),%rdx
 4b7193f:	00 
 4b71940:	48 8d 3d 7f 18 0c 00 	lea    0xc187f(%rip),%rdi        # 4c331c6 <_IO_stdin_used@@Base+0x1c6>
 4b71947:	4c 8b 84 24 80 01 00 	mov    0x180(%rsp),%r8
 4b7194e:	00 
 4b7194f:	4c 8b 4c 24 50       	mov    0x50(%rsp),%r9
 4b71954:	4c 8b 9c 24 88 01 00 	mov    0x188(%rsp),%r11
 4b7195b:	00 
 4b7195c:	eb 05                	jmp    4b71963 <periph.io/x/conn/v3/physic.(*Frequency).Set@@Base+0x4c3>
 4b7195e:	49 89 c3             	mov    %rax,%r11
 4b71961:	31 c0                	xor    %eax,%eax
 4b71963:	84 c0                	test   %al,%al
 4b71965:	0f 84 59 ff ff ff    	je     4b718c4 <periph.io/x/conn/v3/physic.(*Frequency).Set@@Base+0x424>
 4b7196b:	eb 03                	jmp    4b71970 <periph.io/x/conn/v3/physic.(*Frequency).Set@@Base+0x4d0>
 4b7196d:	45 31 c9             	xor    %r9d,%r9d
 4b71970:	4d 85 c9             	test   %r9,%r9
 4b71973:	75 7a                	jne    4b719ef <periph.io/x/conn/v3/physic.(*Frequency).Set@@Base+0x54f>
 4b71975:	31 c0                	xor    %eax,%eax
 4b71977:	48 8d 1d 4b 73 28 00 	lea    0x28734b(%rip),%rbx        # 4df8cc9 <_IO_stdin_used@@Base+0x1c5cc9>
 4b7197e:	b9 20 00 00 00       	mov    $0x20,%ecx
 4b71983:	be 02 00 00 00       	mov    $0x2,%esi
 4b71988:	e8 93 89 3c fd       	call   1f3a320 <runtime.concatstring2@@Base>
 4b7198d:	48 89 84 24 08 01 00 	mov    %rax,0x108(%rsp)
 4b71994:	00 
 4b71995:	48 89 5c 24 78       	mov    %rbx,0x78(%rsp)
 4b7199a:	48 8d 05 5f 29 f0 00 	lea    0xf0295f(%rip),%rax        # 5a74300 <type:hE5I1The@@Base>
 4b719a1:	e8 3a eb 37 fd       	call   1ef04e0 <runtime.newobject@@Base>
 4b719a6:	48 8b 54 24 78       	mov    0x78(%rsp),%rdx
 4b719ab:	48 89 50 08          	mov    %rdx,0x8(%rax)
 4b719af:	83 3d aa 9f 30 03 00 	cmpl   $0x0,0x3309faa(%rip)        # 7e7b960 <runtime.writeBarrier@@Base>
 4b719b6:	75 0d                	jne    4b719c5 <periph.io/x/conn/v3/physic.(*Frequency).Set@@Base+0x525>
 4b719b8:	48 8b 8c 24 08 01 00 	mov    0x108(%rsp),%rcx
 4b719bf:	00 
 4b719c0:	48 89 08             	mov    %rcx,(%rax)
 4b719c3:	eb 10                	jmp    4b719d5 <periph.io/x/conn/v3/physic.(*Frequency).Set@@Base+0x535>
 4b719c5:	48 89 c7             	mov    %rax,%rdi
 4b719c8:	48 8b 8c 24 08 01 00 	mov    0x108(%rsp),%rcx
 4b719cf:	00 
 4b719d0:	e8 2b 4d 3e fd       	call   1f56700 <runtime.gcWriteBarrierCX@@Base>
 4b719d5:	48 89 c3             	mov    %rax,%rbx
 4b719d8:	48 8d 05 e1 c4 38 01 	lea    0x138c4e1(%rip),%rax        # 5efdec0 <go:itab.*errors.errorString,error@@Base>
 4b719df:	48 8b ac 24 68 01 00 	mov    0x168(%rsp),%rbp
 4b719e6:	00 
 4b719e7:	48 81 c4 70 01 00 00 	add    $0x170,%rsp
 4b719ee:	c3                   	ret
 4b719ef:	48 8b 84 24 80 00 00 	mov    0x80(%rsp),%rax
 4b719f6:	00 
 4b719f7:	48 8b 9c 24 18 01 00 	mov    0x118(%rsp),%rbx
 4b719fe:	00 
 4b719ff:	48 8b ac 24 68 01 00 	mov    0x168(%rsp),%rbp
 4b71a06:	00 
 4b71a07:	48 81 c4 70 01 00 00 	add    $0x170,%rsp
 4b71a0e:	c3                   	ret
 4b71a0f:	4c 89 d1             	mov    %r10,%rcx
 4b71a12:	e8 49 51 3e fd       	call   1f56b60 <runtime.panicSliceB@@Base>
 4b71a17:	49 83 c4 10          	add    $0x10,%r12
 4b71a1b:	48 ff c0             	inc    %rax
 4b71a1e:	48 89 f2             	mov    %rsi,%rdx
 4b71a21:	48 83 f8 02          	cmp    $0x2,%rax
 4b71a25:	0f 8d af 00 00 00    	jge    4b71ada <periph.io/x/conn/v3/physic.(*Frequency).Set@@Base+0x63a>
 4b71a2b:	4d 8b 7c 24 08       	mov    0x8(%r12),%r15
 4b71a30:	49 8b 1c 24          	mov    (%r12),%rbx
 4b71a34:	49 39 d7             	cmp    %rdx,%r15
 4b71a37:	0f 8f 8e 00 00 00    	jg     4b71acb <periph.io/x/conn/v3/physic.(*Frequency).Set@@Base+0x62b>
 4b71a3d:	48 89 d1             	mov    %rdx,%rcx
 4b71a40:	4c 29 fa             	sub    %r15,%rdx
 4b71a43:	48 39 ca             	cmp    %rcx,%rdx
 4b71a46:	0f 87 ad 01 00 00    	ja     4b71bf9 <periph.io/x/conn/v3/physic.(*Frequency).Set@@Base+0x759>
 4b71a4c:	48 89 ce             	mov    %rcx,%rsi
 4b71a4f:	48 29 d1             	sub    %rdx,%rcx
 4b71a52:	49 89 c8             	mov    %rcx,%r8
 4b71a55:	48 f7 d9             	neg    %rcx
 4b71a58:	48 c1 f9 3f          	sar    $0x3f,%rcx
 4b71a5c:	48 21 ca             	and    %rcx,%rdx
 4b71a5f:	4c 01 ea             	add    %r13,%rdx
 4b71a62:	4d 39 c7             	cmp    %r8,%r15
 4b71a65:	74 04                	je     4b71a6b <periph.io/x/conn/v3/physic.(*Frequency).Set@@Base+0x5cb>
 4b71a67:	31 c9                	xor    %ecx,%ecx
 4b71a69:	eb 65                	jmp    4b71ad0 <periph.io/x/conn/v3/physic.(*Frequency).Set@@Base+0x630>
 4b71a6b:	4c 89 7c 24 48       	mov    %r15,0x48(%rsp)
 4b71a70:	48 89 9c 24 e0 00 00 	mov    %rbx,0xe0(%rsp)
 4b71a77:	00 
 4b71a78:	48 89 84 24 88 00 00 	mov    %rax,0x88(%rsp)
 4b71a7f:	00 
 4b71a80:	4c 89 a4 24 10 01 00 	mov    %r12,0x110(%rsp)
 4b71a87:	00 
 4b71a88:	48 89 d0             	mov    %rdx,%rax
 4b71a8b:	4c 89 c1             	mov    %r8,%rcx
 4b71a8e:	e8 8d 20 37 fd       	call   1ee3b20 <runtime.memequal@@Base>
 4b71a93:	48 8b 9c 24 e0 00 00 	mov    0xe0(%rsp),%rbx
 4b71a9a:	00 
 4b71a9b:	48 8b b4 24 98 00 00 	mov    0x98(%rsp),%rsi
 4b71aa2:	00 
 4b71aa3:	48 8d 3d 1c 17 0c 00 	lea    0xc171c(%rip),%rdi        # 4c331c6 <_IO_stdin_used@@Base+0x1c6>
 4b71aaa:	4c 8b a4 24 10 01 00 	mov    0x110(%rsp),%r12
 4b71ab1:	00 
 4b71ab2:	4c 8b ac 24 20 01 00 	mov    0x120(%rsp),%r13
 4b71ab9:	00 
 4b71aba:	4c 8b 7c 24 48       	mov    0x48(%rsp),%r15
 4b71abf:	89 c1                	mov    %eax,%ecx
 4b71ac1:	48 8b 84 24 88 00 00 	mov    0x88(%rsp),%rax
 4b71ac8:	00 
 4b71ac9:	eb 05                	jmp    4b71ad0 <periph.io/x/conn/v3/physic.(*Frequency).Set@@Base+0x630>
 4b71acb:	48 89 d6             	mov    %rdx,%rsi
 4b71ace:	31 c9                	xor    %ecx,%ecx
 4b71ad0:	84 c9                	test   %cl,%cl
 4b71ad2:	0f 84 3f ff ff ff    	je     4b71a17 <periph.io/x/conn/v3/physic.(*Frequency).Set@@Base+0x577>
 4b71ad8:	eb 06                	jmp    4b71ae0 <periph.io/x/conn/v3/physic.(*Frequency).Set@@Base+0x640>
 4b71ada:	45 31 ff             	xor    %r15d,%r15d
 4b71add:	31 db                	xor    %ebx,%ebx
 4b71adf:	90                   	nop
 4b71ae0:	4d 85 ff             	test   %r15,%r15
 4b71ae3:	0f 84 96 00 00 00    	je     4b71b7f <periph.io/x/conn/v3/physic.(*Frequency).Set@@Base+0x6df>
 4b71ae9:	31 c0                	xor    %eax,%eax
 4b71aeb:	b9 29 00 00 00       	mov    $0x29,%ecx
 4b71af0:	48 89 df             	mov    %rbx,%rdi
 4b71af3:	4c 89 fe             	mov    %r15,%rsi
 4b71af6:	4c 8d 05 42 c0 0e 00 	lea    0xec042(%rip),%r8        # 4c5db3f <_IO_stdin_used@@Base+0x2ab3f>
 4b71afd:	41 b9 06 00 00 00    	mov    $0x6,%r9d
 4b71b03:	4c 8d 15 e6 c8 25 00 	lea    0x25c8e6(%rip),%r10        # 4dce3f0 <_IO_stdin_used@@Base+0x19b3f0>
 4b71b0a:	41 bb 15 00 00 00    	mov    $0x15,%r11d
 4b71b10:	48 8d 1d 1e c2 2a 00 	lea    0x2ac21e(%rip),%rbx        # 4e1dd35 <_IO_stdin_used@@Base+0x1ead35>
 4b71b17:	e8 84 89 3c fd       	call   1f3a4a0 <runtime.concatstring4@@Base>
 4b71b1c:	48 89 84 24 f0 00 00 	mov    %rax,0xf0(%rsp)
 4b71b23:	00 
 4b71b24:	48 89 5c 24 60       	mov    %rbx,0x60(%rsp)
 4b71b29:	48 8d 05 d0 27 f0 00 	lea    0xf027d0(%rip),%rax        # 5a74300 <type:hE5I1The@@Base>
 4b71b30:	e8 ab e9 37 fd       	call   1ef04e0 <runtime.newobject@@Base>
 4b71b35:	48 8b 54 24 60       	mov    0x60(%rsp),%rdx
 4b71b3a:	48 89 50 08          	mov    %rdx,0x8(%rax)
 4b71b3e:	83 3d 1b 9e 30 03 00 	cmpl   $0x0,0x3309e1b(%rip)        # 7e7b960 <runtime.writeBarrier@@Base>
 4b71b45:	75 0d                	jne    4b71b54 <periph.io/x/conn/v3/physic.(*Frequency).Set@@Base+0x6b4>
 4b71b47:	48 8b 8c 24 f0 00 00 	mov    0xf0(%rsp),%rcx
 4b71b4e:	00 
 4b71b4f:	48 89 08             	mov    %rcx,(%rax)
 4b71b52:	eb 11                	jmp    4b71b65 <periph.io/x/conn/v3/physic.(*Frequency).Set@@Base+0x6c5>
 4b71b54:	48 89 c7             	mov    %rax,%rdi
 4b71b57:	48 8b 8c 24 f0 00 00 	mov    0xf0(%rsp),%rcx
 4b71b5e:	00 
 4b71b5f:	90                   	nop
 4b71b60:	e8 9b 4b 3e fd       	call   1f56700 <runtime.gcWriteBarrierCX@@Base>
 4b71b65:	48 89 c3             	mov    %rax,%rbx
 4b71b68:	48 8d 05 51 c3 38 01 	lea    0x138c351(%rip),%rax        # 5efdec0 <go:itab.*errors.errorString,error@@Base>
 4b71b6f:	48 8b ac 24 68 01 00 	mov    0x168(%rsp),%rbp
 4b71b76:	00 
 4b71b77:	48 81 c4 70 01 00 00 	add    $0x170,%rsp
 4b71b7e:	c3                   	ret
 4b71b7f:	31 c0                	xor    %eax,%eax
 4b71b81:	48 8d 1d f0 8c 27 00 	lea    0x278cf0(%rip),%rbx        # 4dea878 <_IO_stdin_used@@Base+0x1b7878>
 4b71b88:	b9 1c 00 00 00       	mov    $0x1c,%ecx
 4b71b8d:	be 02 00 00 00       	mov    $0x2,%esi
 4b71b92:	e8 89 87 3c fd       	call   1f3a320 <runtime.concatstring2@@Base>
 4b71b97:	48 89 84 24 e8 00 00 	mov    %rax,0xe8(%rsp)
 4b71b9e:	00 
 4b71b9f:	48 89 5c 24 58       	mov    %rbx,0x58(%rsp)
 4b71ba4:	48 8d 05 55 27 f0 00 	lea    0xf02755(%rip),%rax        # 5a74300 <type:hE5I1The@@Base>
 4b71bab:	e8 30 e9 37 fd       	call   1ef04e0 <runtime.newobject@@Base>
 4b71bb0:	48 8b 54 24 58       	mov    0x58(%rsp),%rdx
 4b71bb5:	48 89 50 08          	mov    %rdx,0x8(%rax)
 4b71bb9:	83 3d a0 9d 30 03 00 	cmpl   $0x0,0x3309da0(%rip)        # 7e7b960 <runtime.writeBarrier@@Base>
 4b71bc0:	75 0d                	jne    4b71bcf <periph.io/x/conn/v3/physic.(*Frequency).Set@@Base+0x72f>
 4b71bc2:	48 8b 8c 24 e8 00 00 	mov    0xe8(%rsp),%rcx
 4b71bc9:	00 
 4b71bca:	48 89 08             	mov    %rcx,(%rax)
 4b71bcd:	eb 10                	jmp    4b71bdf <periph.io/x/conn/v3/physic.(*Frequency).Set@@Base+0x73f>
 4b71bcf:	48 89 c7             	mov    %rax,%rdi
 4b71bd2:	48 8b 8c 24 e8 00 00 	mov    0xe8(%rsp),%rcx
 4b71bd9:	00 
 4b71bda:	e8 21 4b 3e fd       	call   1f56700 <runtime.gcWriteBarrierCX@@Base>
 4b71bdf:	48 89 c3             	mov    %rax,%rbx
 4b71be2:	48 8d 05 d7 c2 38 01 	lea    0x138c2d7(%rip),%rax        # 5efdec0 <go:itab.*errors.errorString,error@@Base>
 4b71be9:	48 8b ac 24 68 01 00 	mov    0x168(%rsp),%rbp
 4b71bf0:	00 
 4b71bf1:	48 81 c4 70 01 00 00 	add    $0x170,%rsp
 4b71bf8:	c3                   	ret
 4b71bf9:	48 89 d0             	mov    %rdx,%rax
 4b71bfc:	0f 1f 40 00          	nopl   0x0(%rax)
 4b71c00:	e8 5b 4f 3e fd       	call   1f56b60 <runtime.panicSliceB@@Base>
 4b71c05:	48 89 d8             	mov    %rbx,%rax
 4b71c08:	e8 53 4f 3e fd       	call   1f56b60 <runtime.panicSliceB@@Base>
 4b71c0d:	90                   	nop
 4b71c0e:	48 89 44 24 08       	mov    %rax,0x8(%rsp)
 4b71c13:	48 89 5c 24 10       	mov    %rbx,0x10(%rsp)
 4b71c18:	48 89 4c 24 18       	mov    %rcx,0x18(%rsp)
 4b71c1d:	0f 1f 00             	nopl   (%rax)
 4b71c20:	e8 3b 28 3e fd       	call   1f54460 <runtime.morestack_noctxt.abi0@@Base>
 4b71c25:	48 8b 44 24 08       	mov    0x8(%rsp),%rax
 4b71c2a:	48 8b 5c 24 10       	mov    0x10(%rsp),%rbx
 4b71c2f:	48 8b 4c 24 18       	mov    0x18(%rsp),%rcx
 4b71c34:	e9 67 f8 ff ff       	jmp    4b714a0 <periph.io/x/conn/v3/physic.(*Frequency).Set@@Base>
 4b71c39:	cc                   	int3
 4b71c3a:	cc                   	int3
 4b71c3b:	cc                   	int3
 4b71c3c:	cc                   	int3
 4b71c3d:	cc                   	int3
 4b71c3e:	cc                   	int3
 4b71c3f:	cc                   	int3

0000000004b71c40 <periph.io/x/conn/v3/physic.Frequency.Period@@Base>:
 4b71c40:	48 85 c0             	test   %rax,%rax
 4b71c43:	74 52                	je     4b71c97 <periph.io/x/conn/v3/physic.Frequency.Period@@Base+0x57>
 4b71c45:	7d 2e                	jge    4b71c75 <periph.io/x/conn/v3/physic.Frequency.Period@@Base+0x35>
 4b71c47:	48 89 c1             	mov    %rax,%rcx
 4b71c4a:	48 c1 e8 3f          	shr    $0x3f,%rax
 4b71c4e:	48 8d 14 01          	lea    (%rcx,%rax,1),%rdx
 4b71c52:	48 d1 fa             	sar    $1,%rdx
 4b71c55:	48 b8 00 80 c6 a4 7e 	movabs $0x38d7ea4c68000,%rax
 4b71c5c:	8d 03 00 
 4b71c5f:	48 29 d0             	sub    %rdx,%rax
 4b71c62:	48 83 f9 ff          	cmp    $0xffffffffffffffff,%rcx
 4b71c66:	74 07                	je     4b71c6f <periph.io/x/conn/v3/physic.Frequency.Period@@Base+0x2f>
 4b71c68:	48 99                	cqto
 4b71c6a:	48 f7 f9             	idiv   %rcx
 4b71c6d:	eb 05                	jmp    4b71c74 <periph.io/x/conn/v3/physic.Frequency.Period@@Base+0x34>
 4b71c6f:	48 f7 d8             	neg    %rax
 4b71c72:	31 d2                	xor    %edx,%edx
 4b71c74:	c3                   	ret
 4b71c75:	48 89 c1             	mov    %rax,%rcx
 4b71c78:	48 c1 e8 3f          	shr    $0x3f,%rax
 4b71c7c:	48 8d 14 01          	lea    (%rcx,%rax,1),%rdx
 4b71c80:	48 d1 fa             	sar    $1,%rdx
 4b71c83:	48 bb 00 80 c6 a4 7e 	movabs $0x38d7ea4c68000,%rbx
 4b71c8a:	8d 03 00 
 4b71c8d:	48 8d 04 13          	lea    (%rbx,%rdx,1),%rax
 4b71c91:	48 99                	cqto
 4b71c93:	48 f7 f9             	idiv   %rcx
 4b71c96:	c3                   	ret
 4b71c97:	31 c0                	xor    %eax,%eax
 4b71c99:	c3                   	ret
 4b71c9a:	cc                   	int3
 4b71c9b:	cc                   	int3
 4b71c9c:	cc                   	int3
 4b71c9d:	cc                   	int3
 4b71c9e:	cc                   	int3
 4b71c9f:	cc                   	int3

0000000004b71ca0 <periph.io/x/conn/v3/physic.Frequency.Duration@@Base>:
 4b71ca0:	48 85 c0             	test   %rax,%rax
 4b71ca3:	75 04                	jne    4b71ca9 <periph.io/x/conn/v3/physic.Frequency.Duration@@Base+0x9>
 4b71ca5:	31 c0                	xor    %eax,%eax
 4b71ca7:	eb 52                	jmp    4b71cfb <periph.io/x/conn/v3/physic.Frequency.Duration@@Base+0x5b>
 4b71ca9:	7d 2f                	jge    4b71cda <periph.io/x/conn/v3/physic.Frequency.Duration@@Base+0x3a>
 4b71cab:	48 89 c1             	mov    %rax,%rcx
 4b71cae:	48 c1 e8 3f          	shr    $0x3f,%rax
 4b71cb2:	48 8d 14 01          	lea    (%rcx,%rax,1),%rdx
 4b71cb6:	48 d1 fa             	sar    $1,%rdx
 4b71cb9:	48 b8 00 80 c6 a4 7e 	movabs $0x38d7ea4c68000,%rax
 4b71cc0:	8d 03 00 
 4b71cc3:	48 29 d0             	sub    %rdx,%rax
 4b71cc6:	48 83 f9 ff          	cmp    $0xffffffffffffffff,%rcx
 4b71cca:	74 07                	je     4b71cd3 <periph.io/x/conn/v3/physic.Frequency.Duration@@Base+0x33>
 4b71ccc:	48 99                	cqto
 4b71cce:	48 f7 f9             	idiv   %rcx
 4b71cd1:	eb 28                	jmp    4b71cfb <periph.io/x/conn/v3/physic.Frequency.Duration@@Base+0x5b>
 4b71cd3:	48 f7 d8             	neg    %rax
 4b71cd6:	31 d2                	xor    %edx,%edx
 4b71cd8:	eb 21                	jmp    4b71cfb <periph.io/x/conn/v3/physic.Frequency.Duration@@Base+0x5b>
 4b71cda:	48 89 c1             	mov    %rax,%rcx
 4b71cdd:	48 c1 e8 3f          	shr    $0x3f,%rax
 4b71ce1:	48 8d 14 01          	lea    (%rcx,%rax,1),%rdx
 4b71ce5:	48 d1 fa             	sar    $1,%rdx
 4b71ce8:	48 bb 00 80 c6 a4 7e 	movabs $0x38d7ea4c68000,%rbx
 4b71cef:	8d 03 00 
 4b71cf2:	48 8d 04 13          	lea    (%rbx,%rdx,1),%rax
 4b71cf6:	48 99                	cqto
 4b71cf8:	48 f7 f9             	idiv   %rcx
 4b71cfb:	c3                   	ret
 4b71cfc:	cc                   	int3
 4b71cfd:	cc                   	int3
 4b71cfe:	cc                   	int3
 4b71cff:	cc                   	int3

0000000004b71d00 <periph.io/x/conn/v3/physic.Pressure.String@@Base>:
 4b71d00:	49 3b 66 10          	cmp    0x10(%r14),%rsp
 4b71d04:	76 36                	jbe    4b71d3c <periph.io/x/conn/v3/physic.Pressure.String@@Base+0x3c>
 4b71d06:	48 83 ec 30          	sub    $0x30,%rsp
 4b71d0a:	48 89 6c 24 28       	mov    %rbp,0x28(%rsp)
 4b71d0f:	48 8d 6c 24 28       	lea    0x28(%rsp),%rbp
 4b71d14:	e8 67 27 00 00       	call   4b74480 <periph.io/x/conn/v3/physic.nanoAsString@@Base>
 4b71d19:	48 89 d9             	mov    %rbx,%rcx
 4b71d1c:	48 8d 3d fb 14 0c 00 	lea    0xc14fb(%rip),%rdi        # 4c3321e <_IO_stdin_used@@Base+0x21e>
 4b71d23:	be 02 00 00 00       	mov    $0x2,%esi
 4b71d28:	48 89 c3             	mov    %rax,%rbx
 4b71d2b:	31 c0                	xor    %eax,%eax
 4b71d2d:	e8 ee 85 3c fd       	call   1f3a320 <runtime.concatstring2@@Base>
 4b71d32:	48 8b 6c 24 28       	mov    0x28(%rsp),%rbp
 4b71d37:	48 83 c4 30          	add    $0x30,%rsp
 4b71d3b:	c3                   	ret
 4b71d3c:	48 89 44 24 08       	mov    %rax,0x8(%rsp)
 4b71d41:	e8 1a 27 3e fd       	call   1f54460 <runtime.morestack_noctxt.abi0@@Base>
 4b71d46:	48 8b 44 24 08       	mov    0x8(%rsp),%rax
 4b71d4b:	eb b3                	jmp    4b71d00 <periph.io/x/conn/v3/physic.Pressure.String@@Base>
 4b71d4d:	cc                   	int3
 4b71d4e:	cc                   	int3
 4b71d4f:	cc                   	int3
 4b71d50:	cc                   	int3
 4b71d51:	cc                   	int3
 4b71d52:	cc                   	int3
 4b71d53:	cc                   	int3
 4b71d54:	cc                   	int3
 4b71d55:	cc                   	int3
 4b71d56:	cc                   	int3
 4b71d57:	cc                   	int3
 4b71d58:	cc                   	int3
 4b71d59:	cc                   	int3
 4b71d5a:	cc                   	int3
 4b71d5b:	cc                   	int3
 4b71d5c:	cc                   	int3
 4b71d5d:	cc                   	int3
 4b71d5e:	cc                   	int3
 4b71d5f:	cc                   	int3

0000000004b71d60 <periph.io/x/conn/v3/physic.(*Pressure).Set@@Base>:
 4b71d60:	4c 8d a4 24 28 ff ff 	lea    -0xd8(%rsp),%r12
 4b71d67:	ff 
 4b71d68:	4d 3b 66 10          	cmp    0x10(%r14),%r12
 4b71d6c:	0f 86 60 07 00 00    	jbe    4b724d2 <periph.io/x/conn/v3/physic.(*Pressure).Set@@Base+0x772>
 4b71d72:	48 81 ec 58 01 00 00 	sub    $0x158,%rsp
 4b71d79:	48 89 ac 24 50 01 00 	mov    %rbp,0x150(%rsp)
 4b71d80:	00 
 4b71d81:	48 8d ac 24 50 01 00 	lea    0x150(%rsp),%rbp
 4b71d88:	00 
 4b71d89:	48 89 84 24 60 01 00 	mov    %rax,0x160(%rsp)
 4b71d90:	00 
 4b71d91:	48 89 8c 24 70 01 00 	mov    %rcx,0x170(%rsp)
 4b71d98:	00 
 4b71d99:	48 89 9c 24 68 01 00 	mov    %rbx,0x168(%rsp)
 4b71da0:	00 
 4b71da1:	48 89 d8             	mov    %rbx,%rax
 4b71da4:	48 89 cb             	mov    %rcx,%rbx
 4b71da7:	48 c7 c1 f7 ff ff ff 	mov    $0xfffffffffffffff7,%rcx
 4b71dae:	e8 0d 37 00 00       	call   4b754c0 <periph.io/x/conn/v3/physic.valueOfUnitString@@Base>
 4b71db3:	48 85 c9             	test   %rcx,%rcx
 4b71db6:	0f 85 32 01 00 00    	jne    4b71eee <periph.io/x/conn/v3/physic.(*Pressure).Set@@Base+0x18e>
 4b71dbc:	48 8b 8c 24 70 01 00 	mov    0x170(%rsp),%rcx
 4b71dc3:	00 
 4b71dc4:	48 39 cb             	cmp    %rcx,%rbx
 4b71dc7:	0f 87 fc 06 00 00    	ja     4b724c9 <periph.io/x/conn/v3/physic.(*Pressure).Set@@Base+0x769>
 4b71dcd:	48 29 d9             	sub    %rbx,%rcx
 4b71dd0:	48 89 ca             	mov    %rcx,%rdx
 4b71dd3:	48 f7 d9             	neg    %rcx
 4b71dd6:	48 c1 f9 3f          	sar    $0x3f,%rcx
 4b71dda:	48 21 d9             	and    %rbx,%rcx
 4b71ddd:	4c 8b a4 24 68 01 00 	mov    0x168(%rsp),%r12
 4b71de4:	00 
 4b71de5:	4d 8d 2c 0c          	lea    (%r12,%rcx,1),%r13
 4b71de9:	48 85 d2             	test   %rdx,%rdx
 4b71dec:	74 7c                	je     4b71e6a <periph.io/x/conn/v3/physic.(*Pressure).Set@@Base+0x10a>
 4b71dee:	48 83 fa 02          	cmp    $0x2,%rdx
 4b71df2:	75 33                	jne    4b71e27 <periph.io/x/conn/v3/physic.(*Pressure).Set@@Base+0xc7>
 4b71df4:	45 0f b7 24 0c       	movzwl (%r12,%rcx,1),%r12d
 4b71df9:	0f 1f 80 00 00 00 00 	nopl   0x0(%rax)
 4b71e00:	66 41 81 fc 50 61    	cmp    $0x6150,%r12w
 4b71e06:	75 1f                	jne    4b71e27 <periph.io/x/conn/v3/physic.(*Pressure).Set@@Base+0xc7>
 4b71e08:	48 8b 8c 24 60 01 00 	mov    0x160(%rsp),%rcx
 4b71e0f:	00 
 4b71e10:	48 89 01             	mov    %rax,(%rcx)
 4b71e13:	31 c0                	xor    %eax,%eax
 4b71e15:	31 db                	xor    %ebx,%ebx
 4b71e17:	48 8b ac 24 50 01 00 	mov    0x150(%rsp),%rbp
 4b71e1e:	00 
 4b71e1f:	48 81 c4 58 01 00 00 	add    $0x158,%rsp
 4b71e26:	c3                   	ret
 4b71e27:	48 89 94 24 98 00 00 	mov    %rdx,0x98(%rsp)
 4b71e2e:	00 
 4b71e2f:	4c 89 ac 24 28 01 00 	mov    %r13,0x128(%rsp)
 4b71e36:	00 
 4b71e37:	44 0f 11 bc 24 30 01 	movups %xmm15,0x130(%rsp)
 4b71e3e:	00 00 
 4b71e40:	48 8d 3d d7 13 0c 00 	lea    0xc13d7(%rip),%rdi        # 4c3321e <_IO_stdin_used@@Base+0x21e>
 4b71e47:	48 89 bc 24 30 01 00 	mov    %rdi,0x130(%rsp)
 4b71e4e:	00 
 4b71e4f:	48 c7 84 24 38 01 00 	movq   $0x2,0x138(%rsp)
 4b71e56:	00 02 00 00 00 
 4b71e5b:	4c 8d a4 24 30 01 00 	lea    0x130(%rsp),%r12
 4b71e62:	00 
 4b71e63:	31 c0                	xor    %eax,%eax
 4b71e65:	e9 96 04 00 00       	jmp    4b72300 <periph.io/x/conn/v3/physic.(*Pressure).Set@@Base+0x5a0>
 4b71e6a:	31 c0                	xor    %eax,%eax
 4b71e6c:	48 8d 1d d9 42 26 00 	lea    0x2642d9(%rip),%rbx        # 4dd614c <_IO_stdin_used@@Base+0x1a314c>
 4b71e73:	b9 17 00 00 00       	mov    $0x17,%ecx
 4b71e78:	48 8d 3d 9f 13 0c 00 	lea    0xc139f(%rip),%rdi        # 4c3321e <_IO_stdin_used@@Base+0x21e>
 4b71e7f:	be 02 00 00 00       	mov    $0x2,%esi
 4b71e84:	e8 97 84 3c fd       	call   1f3a320 <runtime.concatstring2@@Base>
 4b71e89:	48 89 84 24 f8 00 00 	mov    %rax,0xf8(%rsp)
 4b71e90:	00 
 4b71e91:	48 89 5c 24 68       	mov    %rbx,0x68(%rsp)
 4b71e96:	48 8d 05 63 24 f0 00 	lea    0xf02463(%rip),%rax        # 5a74300 <type:hE5I1The@@Base>
 4b71e9d:	0f 1f 00             	nopl   (%rax)
 4b71ea0:	e8 3b e6 37 fd       	call   1ef04e0 <runtime.newobject@@Base>
 4b71ea5:	48 8b 54 24 68       	mov    0x68(%rsp),%rdx
 4b71eaa:	48 89 50 08          	mov    %rdx,0x8(%rax)
 4b71eae:	83 3d ab 9a 30 03 00 	cmpl   $0x0,0x3309aab(%rip)        # 7e7b960 <runtime.writeBarrier@@Base>
 4b71eb5:	75 0d                	jne    4b71ec4 <periph.io/x/conn/v3/physic.(*Pressure).Set@@Base+0x164>
 4b71eb7:	48 8b 8c 24 f8 00 00 	mov    0xf8(%rsp),%rcx
 4b71ebe:	00 
 4b71ebf:	48 89 08             	mov    %rcx,(%rax)
 4b71ec2:	eb 10                	jmp    4b71ed4 <periph.io/x/conn/v3/physic.(*Pressure).Set@@Base+0x174>
 4b71ec4:	48 89 c7             	mov    %rax,%rdi
 4b71ec7:	48 8b 8c 24 f8 00 00 	mov    0xf8(%rsp),%rcx
 4b71ece:	00 
 4b71ecf:	e8 2c 48 3e fd       	call   1f56700 <runtime.gcWriteBarrierCX@@Base>
 4b71ed4:	48 89 c3             	mov    %rax,%rbx
 4b71ed7:	48 8d 05 e2 bf 38 01 	lea    0x138bfe2(%rip),%rax        # 5efdec0 <go:itab.*errors.errorString,error@@Base>
 4b71ede:	48 8b ac 24 50 01 00 	mov    0x150(%rsp),%rbp
 4b71ee5:	00 
 4b71ee6:	48 81 c4 58 01 00 00 	add    $0x158,%rsp
 4b71eed:	c3                   	ret
 4b71eee:	48 8d 15 eb 33 39 01 	lea    0x13933eb(%rip),%rdx        # 5f052e0 <go:itab.*periph.io/x/conn/v3/physic.parseError,error@@Base>
 4b71ef5:	48 39 d1             	cmp    %rdx,%rcx
 4b71ef8:	75 05                	jne    4b71eff <periph.io/x/conn/v3/physic.(*Pressure).Set@@Base+0x19f>
 4b71efa:	48 89 f8             	mov    %rdi,%rax
 4b71efd:	eb 08                	jmp    4b71f07 <periph.io/x/conn/v3/physic.(*Pressure).Set@@Base+0x1a7>
 4b71eff:	48 89 f8             	mov    %rdi,%rax
 4b71f02:	bf 00 00 00 00       	mov    $0x0,%edi
 4b71f07:	0f 85 83 02 00 00    	jne    4b72190 <periph.io/x/conn/v3/physic.(*Pressure).Set@@Base+0x430>
 4b71f0d:	48 89 84 24 20 01 00 	mov    %rax,0x120(%rsp)
 4b71f14:	00 
 4b71f15:	48 89 8c 24 88 00 00 	mov    %rcx,0x88(%rsp)
 4b71f1c:	00 
 4b71f1d:	48 8b 17             	mov    (%rdi),%rdx
 4b71f20:	48 89 94 24 90 00 00 	mov    %rdx,0x90(%rsp)
 4b71f27:	00 
 4b71f28:	48 8b 5f 08          	mov    0x8(%rdi),%rbx
 4b71f2c:	48 89 9c 24 28 01 00 	mov    %rbx,0x128(%rsp)
 4b71f33:	00 
 4b71f34:	48 8b 35 1d 39 2c 03 	mov    0x32c391d(%rip),%rsi        # 7e35858 <periph.io/x/conn/v3/physic.errNotANumber@@Base+0x8>
 4b71f3b:	0f 1f 44 00 00       	nopl   0x0(%rax,%rax,1)
 4b71f40:	48 39 15 09 39 2c 03 	cmp    %rdx,0x32c3909(%rip)        # 7e35850 <periph.io/x/conn/v3/physic.errNotANumber@@Base>
 4b71f47:	75 72                	jne    4b71fbb <periph.io/x/conn/v3/physic.(*Pressure).Set@@Base+0x25b>
 4b71f49:	48 89 d0             	mov    %rdx,%rax
 4b71f4c:	48 89 f1             	mov    %rsi,%rcx
 4b71f4f:	e8 8c 2f 37 fd       	call   1ee4ee0 <runtime.ifaceeq@@Base>
 4b71f54:	84 c0                	test   %al,%al
 4b71f56:	74 43                	je     4b71f9b <periph.io/x/conn/v3/physic.(*Pressure).Set@@Base+0x23b>
 4b71f58:	44 0f 11 bc 24 40 01 	movups %xmm15,0x140(%rsp)
 4b71f5f:	00 00 
 4b71f61:	48 8d 3d b6 12 0c 00 	lea    0xc12b6(%rip),%rdi        # 4c3321e <_IO_stdin_used@@Base+0x21e>
 4b71f68:	48 89 bc 24 40 01 00 	mov    %rdi,0x140(%rsp)
 4b71f6f:	00 
 4b71f70:	48 c7 84 24 48 01 00 	movq   $0x2,0x148(%rsp)
 4b71f77:	00 02 00 00 00 
 4b71f7c:	48 8d 94 24 40 01 00 	lea    0x140(%rsp),%rdx
 4b71f83:	00 
 4b71f84:	4c 8b 84 24 68 01 00 	mov    0x168(%rsp),%r8
 4b71f8b:	00 
 4b71f8c:	48 8b 84 24 70 01 00 	mov    0x170(%rsp),%rax
 4b71f93:	00 
 4b71f94:	31 c9                	xor    %ecx,%ecx
 4b71f96:	e9 17 02 00 00       	jmp    4b721b2 <periph.io/x/conn/v3/physic.(*Pressure).Set@@Base+0x452>
 4b71f9b:	48 8b 84 24 20 01 00 	mov    0x120(%rsp),%rax
 4b71fa2:	00 
 4b71fa3:	48 8b 8c 24 88 00 00 	mov    0x88(%rsp),%rcx
 4b71faa:	00 
 4b71fab:	48 8b 94 24 90 00 00 	mov    0x90(%rsp),%rdx
 4b71fb2:	00 
 4b71fb3:	48 8b 9c 24 28 01 00 	mov    0x128(%rsp),%rbx
 4b71fba:	00 
 4b71fbb:	48 8b 35 a6 38 2c 03 	mov    0x32c38a6(%rip),%rsi        # 7e35868 <periph.io/x/conn/v3/physic.errOverflowsInt64@@Base+0x8>
 4b71fc2:	48 39 15 97 38 2c 03 	cmp    %rdx,0x32c3897(%rip)        # 7e35860 <periph.io/x/conn/v3/physic.errOverflowsInt64@@Base>
 4b71fc9:	75 33                	jne    4b71ffe <periph.io/x/conn/v3/physic.(*Pressure).Set@@Base+0x29e>
 4b71fcb:	48 89 d0             	mov    %rdx,%rax
 4b71fce:	48 89 f1             	mov    %rsi,%rcx
 4b71fd1:	e8 0a 2f 37 fd       	call   1ee4ee0 <runtime.ifaceeq@@Base>
 4b71fd6:	84 c0                	test   %al,%al
 4b71fd8:	0f 85 09 01 00 00    	jne    4b720e7 <periph.io/x/conn/v3/physic.(*Pressure).Set@@Base+0x387>
 4b71fde:	48 8b 84 24 20 01 00 	mov    0x120(%rsp),%rax
 4b71fe5:	00 
 4b71fe6:	48 8b 8c 24 88 00 00 	mov    0x88(%rsp),%rcx
 4b71fed:	00 
 4b71fee:	48 8b 94 24 90 00 00 	mov    0x90(%rsp),%rdx
 4b71ff5:	00 
 4b71ff6:	48 8b 9c 24 28 01 00 	mov    0x128(%rsp),%rbx
 4b71ffd:	00 
 4b71ffe:	48 8b 35 73 38 2c 03 	mov    0x32c3873(%rip),%rsi        # 7e35878 <periph.io/x/conn/v3/physic.errOverflowsInt64Negative@@Base+0x8>
 4b72005:	48 39 15 64 38 2c 03 	cmp    %rdx,0x32c3864(%rip)        # 7e35870 <periph.io/x/conn/v3/physic.errOverflowsInt64Negative@@Base>
 4b7200c:	0f 85 7e 01 00 00    	jne    4b72190 <periph.io/x/conn/v3/physic.(*Pressure).Set@@Base+0x430>
 4b72012:	48 89 d0             	mov    %rdx,%rax
 4b72015:	48 89 f1             	mov    %rsi,%rcx
 4b72018:	e8 c3 2e 37 fd       	call   1ee4ee0 <runtime.ifaceeq@@Base>
 4b7201d:	0f 1f 00             	nopl   (%rax)
 4b72020:	84 c0                	test   %al,%al
 4b72022:	75 15                	jne    4b72039 <periph.io/x/conn/v3/physic.(*Pressure).Set@@Base+0x2d9>
 4b72024:	48 8b 84 24 20 01 00 	mov    0x120(%rsp),%rax
 4b7202b:	00 
 4b7202c:	48 8b 8c 24 88 00 00 	mov    0x88(%rsp),%rcx
 4b72033:	00 
 4b72034:	e9 57 01 00 00       	jmp    4b72190 <periph.io/x/conn/v3/physic.(*Pressure).Set@@Base+0x430>
 4b72039:	48 b8 01 00 00 00 00 	movabs $0x8000000000000001,%rax
 4b72040:	00 00 80 
 4b72043:	e8 38 24 00 00       	call   4b74480 <periph.io/x/conn/v3/physic.nanoAsString@@Base>
 4b72048:	48 89 d9             	mov    %rbx,%rcx
 4b7204b:	48 8d 3d cc 11 0c 00 	lea    0xc11cc(%rip),%rdi        # 4c3321e <_IO_stdin_used@@Base+0x21e>
 4b72052:	be 02 00 00 00       	mov    $0x2,%esi
 4b72057:	48 89 c3             	mov    %rax,%rbx
 4b7205a:	48 8d 84 24 a0 00 00 	lea    0xa0(%rsp),%rax
 4b72061:	00 
 4b72062:	e8 b9 82 3c fd       	call   1f3a320 <runtime.concatstring2@@Base>
 4b72067:	b9 11 00 00 00       	mov    $0x11,%ecx
 4b7206c:	48 89 c7             	mov    %rax,%rdi
 4b7206f:	48 89 de             	mov    %rbx,%rsi
 4b72072:	31 c0                	xor    %eax,%eax
 4b72074:	48 8d 1d 99 e7 19 00 	lea    0x19e799(%rip),%rbx        # 4d10814 <_IO_stdin_used@@Base+0xdd814>
 4b7207b:	0f 1f 44 00 00       	nopl   0x0(%rax,%rax,1)
 4b72080:	e8 9b 82 3c fd       	call   1f3a320 <runtime.concatstring2@@Base>
 4b72085:	48 89 84 24 00 01 00 	mov    %rax,0x100(%rsp)
 4b7208c:	00 
 4b7208d:	48 89 5c 24 70       	mov    %rbx,0x70(%rsp)
 4b72092:	48 8d 05 67 22 f0 00 	lea    0xf02267(%rip),%rax        # 5a74300 <type:hE5I1The@@Base>
 4b72099:	e8 42 e4 37 fd       	call   1ef04e0 <runtime.newobject@@Base>
 4b7209e:	48 8b 4c 24 70       	mov    0x70(%rsp),%rcx
 4b720a3:	48 89 48 08          	mov    %rcx,0x8(%rax)
 4b720a7:	83 3d b2 98 30 03 00 	cmpl   $0x0,0x33098b2(%rip)        # 7e7b960 <runtime.writeBarrier@@Base>
 4b720ae:	75 0d                	jne    4b720bd <periph.io/x/conn/v3/physic.(*Pressure).Set@@Base+0x35d>
 4b720b0:	48 8b 8c 24 00 01 00 	mov    0x100(%rsp),%rcx
 4b720b7:	00 
 4b720b8:	48 89 08             	mov    %rcx,(%rax)
 4b720bb:	eb 10                	jmp    4b720cd <periph.io/x/conn/v3/physic.(*Pressure).Set@@Base+0x36d>
 4b720bd:	48 89 c7             	mov    %rax,%rdi
 4b720c0:	48 8b 8c 24 00 01 00 	mov    0x100(%rsp),%rcx
 4b720c7:	00 
 4b720c8:	e8 33 46 3e fd       	call   1f56700 <runtime.gcWriteBarrierCX@@Base>
 4b720cd:	48 89 c3             	mov    %rax,%rbx
 4b720d0:	48 8d 05 e9 bd 38 01 	lea    0x138bde9(%rip),%rax        # 5efdec0 <go:itab.*errors.errorString,error@@Base>
 4b720d7:	48 8b ac 24 50 01 00 	mov    0x150(%rsp),%rbp
 4b720de:	00 
 4b720df:	48 81 c4 58 01 00 00 	add    $0x158,%rsp
 4b720e6:	c3                   	ret
 4b720e7:	48 b8 ff ff ff ff ff 	movabs $0x7fffffffffffffff,%rax
 4b720ee:	ff ff 7f 
 4b720f1:	e8 8a 23 00 00       	call   4b74480 <periph.io/x/conn/v3/physic.nanoAsString@@Base>
 4b720f6:	48 89 d9             	mov    %rbx,%rcx
 4b720f9:	48 8d 3d 1e 11 0c 00 	lea    0xc111e(%rip),%rdi        # 4c3321e <_IO_stdin_used@@Base+0x21e>
 4b72100:	be 02 00 00 00       	mov    $0x2,%esi
 4b72105:	48 89 c3             	mov    %rax,%rbx
 4b72108:	48 8d 84 24 c0 00 00 	lea    0xc0(%rsp),%rax
 4b7210f:	00 
 4b72110:	e8 0b 82 3c fd       	call   1f3a320 <runtime.concatstring2@@Base>
 4b72115:	b9 11 00 00 00       	mov    $0x11,%ecx
 4b7211a:	48 89 c7             	mov    %rax,%rdi
 4b7211d:	48 89 de             	mov    %rbx,%rsi
 4b72120:	31 c0                	xor    %eax,%eax
 4b72122:	48 8d 1d 96 e6 19 00 	lea    0x19e696(%rip),%rbx        # 4d107bf <_IO_stdin_used@@Base+0xdd7bf>
 4b72129:	e8 f2 81 3c fd       	call   1f3a320 <runtime.concatstring2@@Base>
 4b7212e:	48 89 84 24 08 01 00 	mov    %rax,0x108(%rsp)
 4b72135:	00 
 4b72136:	48 89 5c 24 78       	mov    %rbx,0x78(%rsp)
 4b7213b:	48 8d 05 be 21 f0 00 	lea    0xf021be(%rip),%rax        # 5a74300 <type:hE5I1The@@Base>
 4b72142:	e8 99 e3 37 fd       	call   1ef04e0 <runtime.newobject@@Base>
 4b72147:	48 8b 4c 24 78       	mov    0x78(%rsp),%rcx
 4b7214c:	48 89 48 08          	mov    %rcx,0x8(%rax)
 4b72150:	83 3d 09 98 30 03 00 	cmpl   $0x0,0x3309809(%rip)        # 7e7b960 <runtime.writeBarrier@@Base>
 4b72157:	75 0d                	jne    4b72166 <periph.io/x/conn/v3/physic.(*Pressure).Set@@Base+0x406>
 4b72159:	48 8b 8c 24 08 01 00 	mov    0x108(%rsp),%rcx
 4b72160:	00 
 4b72161:	48 89 08             	mov    %rcx,(%rax)
 4b72164:	eb 10                	jmp    4b72176 <periph.io/x/conn/v3/physic.(*Pressure).Set@@Base+0x416>
 4b72166:	48 89 c7             	mov    %rax,%rdi
 4b72169:	48 8b 8c 24 08 01 00 	mov    0x108(%rsp),%rcx
 4b72170:	00 
 4b72171:	e8 8a 45 3e fd       	call   1f56700 <runtime.gcWriteBarrierCX@@Base>
 4b72176:	48 89 c3             	mov    %rax,%rbx
 4b72179:	48 8d 05 40 bd 38 01 	lea    0x138bd40(%rip),%rax        # 5efdec0 <go:itab.*errors.errorString,error@@Base>
 4b72180:	48 8b ac 24 50 01 00 	mov    0x150(%rsp),%rbp
 4b72187:	00 
 4b72188:	48 81 c4 58 01 00 00 	add    $0x158,%rsp
 4b7218f:	c3                   	ret
 4b72190:	48 89 c3             	mov    %rax,%rbx
 4b72193:	48 89 c8             	mov    %rcx,%rax
 4b72196:	48 8b ac 24 50 01 00 	mov    0x150(%rsp),%rbp
 4b7219d:	00 
 4b7219e:	48 81 c4 58 01 00 00 	add    $0x158,%rsp
 4b721a5:	c3                   	ret
 4b721a6:	48 83 c2 10          	add    $0x10,%rdx
 4b721aa:	4c 89 d0             	mov    %r10,%rax
 4b721ad:	b9 01 00 00 00       	mov    $0x1,%ecx
 4b721b2:	48 83 f9 01          	cmp    $0x1,%rcx
 4b721b6:	0f 8d 86 00 00 00    	jge    4b72242 <periph.io/x/conn/v3/physic.(*Pressure).Set@@Base+0x4e2>
 4b721bc:	4c 8b 4a 08          	mov    0x8(%rdx),%r9
 4b721c0:	48 8b 1a             	mov    (%rdx),%rbx
 4b721c3:	4c 39 c8             	cmp    %r9,%rax
 4b721c6:	7c 69                	jl     4b72231 <periph.io/x/conn/v3/physic.(*Pressure).Set@@Base+0x4d1>
 4b721c8:	48 89 c1             	mov    %rax,%rcx
 4b721cb:	4c 29 c8             	sub    %r9,%rax
 4b721ce:	48 39 c1             	cmp    %rax,%rcx
 4b721d1:	0f 82 1a 01 00 00    	jb     4b722f1 <periph.io/x/conn/v3/physic.(*Pressure).Set@@Base+0x591>
 4b721d7:	49 89 ca             	mov    %rcx,%r10
 4b721da:	48 29 c1             	sub    %rax,%rcx
 4b721dd:	49 89 cb             	mov    %rcx,%r11
 4b721e0:	48 f7 d9             	neg    %rcx
 4b721e3:	48 c1 f9 3f          	sar    $0x3f,%rcx
 4b721e7:	48 21 c8             	and    %rcx,%rax
 4b721ea:	4c 01 c0             	add    %r8,%rax
 4b721ed:	4d 39 d9             	cmp    %r11,%r9
 4b721f0:	74 04                	je     4b721f6 <periph.io/x/conn/v3/physic.(*Pressure).Set@@Base+0x496>
 4b721f2:	31 c0                	xor    %eax,%eax
 4b721f4:	eb 40                	jmp    4b72236 <periph.io/x/conn/v3/physic.(*Pressure).Set@@Base+0x4d6>
 4b721f6:	48 89 94 24 18 01 00 	mov    %rdx,0x118(%rsp)
 4b721fd:	00 
 4b721fe:	4c 89 4c 24 50       	mov    %r9,0x50(%rsp)
 4b72203:	4c 89 d9             	mov    %r11,%rcx
 4b72206:	e8 15 19 37 fd       	call   1ee3b20 <runtime.memequal@@Base>
 4b7220b:	48 8b 94 24 18 01 00 	mov    0x118(%rsp),%rdx
 4b72212:	00 
 4b72213:	48 8d 3d 04 10 0c 00 	lea    0xc1004(%rip),%rdi        # 4c3321e <_IO_stdin_used@@Base+0x21e>
 4b7221a:	4c 8b 84 24 68 01 00 	mov    0x168(%rsp),%r8
 4b72221:	00 
 4b72222:	4c 8b 4c 24 50       	mov    0x50(%rsp),%r9
 4b72227:	4c 8b 94 24 70 01 00 	mov    0x170(%rsp),%r10
 4b7222e:	00 
 4b7222f:	eb 05                	jmp    4b72236 <periph.io/x/conn/v3/physic.(*Pressure).Set@@Base+0x4d6>
 4b72231:	49 89 c2             	mov    %rax,%r10
 4b72234:	31 c0                	xor    %eax,%eax
 4b72236:	84 c0                	test   %al,%al
 4b72238:	0f 84 68 ff ff ff    	je     4b721a6 <periph.io/x/conn/v3/physic.(*Pressure).Set@@Base+0x446>
 4b7223e:	66 90                	xchg   %ax,%ax
 4b72240:	eb 03                	jmp    4b72245 <periph.io/x/conn/v3/physic.(*Pressure).Set@@Base+0x4e5>
 4b72242:	45 31 c9             	xor    %r9d,%r9d
 4b72245:	4d 85 c9             	test   %r9,%r9
 4b72248:	0f 85 83 00 00 00    	jne    4b722d1 <periph.io/x/conn/v3/physic.(*Pressure).Set@@Base+0x571>
 4b7224e:	31 c0                	xor    %eax,%eax
 4b72250:	48 8d 1d 72 6a 28 00 	lea    0x286a72(%rip),%rbx        # 4df8cc9 <_IO_stdin_used@@Base+0x1c5cc9>
 4b72257:	b9 20 00 00 00       	mov    $0x20,%ecx
 4b7225c:	be 02 00 00 00       	mov    $0x2,%esi
 4b72261:	e8 ba 80 3c fd       	call   1f3a320 <runtime.concatstring2@@Base>
 4b72266:	48 89 84 24 10 01 00 	mov    %rax,0x110(%rsp)
 4b7226d:	00 
 4b7226e:	48 89 9c 24 80 00 00 	mov    %rbx,0x80(%rsp)
 4b72275:	00 
 4b72276:	48 8d 05 83 20 f0 00 	lea    0xf02083(%rip),%rax        # 5a74300 <type:hE5I1The@@Base>
 4b7227d:	0f 1f 00             	nopl   (%rax)
 4b72280:	e8 5b e2 37 fd       	call   1ef04e0 <runtime.newobject@@Base>
 4b72285:	48 8b 94 24 80 00 00 	mov    0x80(%rsp),%rdx
 4b7228c:	00 
 4b7228d:	48 89 50 08          	mov    %rdx,0x8(%rax)
 4b72291:	83 3d c8 96 30 03 00 	cmpl   $0x0,0x33096c8(%rip)        # 7e7b960 <runtime.writeBarrier@@Base>
 4b72298:	75 0d                	jne    4b722a7 <periph.io/x/conn/v3/physic.(*Pressure).Set@@Base+0x547>
 4b7229a:	48 8b 8c 24 10 01 00 	mov    0x110(%rsp),%rcx
 4b722a1:	00 
 4b722a2:	48 89 08             	mov    %rcx,(%rax)
 4b722a5:	eb 10                	jmp    4b722b7 <periph.io/x/conn/v3/physic.(*Pressure).Set@@Base+0x557>
 4b722a7:	48 89 c7             	mov    %rax,%rdi
 4b722aa:	48 8b 8c 24 10 01 00 	mov    0x110(%rsp),%rcx
 4b722b1:	00 
 4b722b2:	e8 49 44 3e fd       	call   1f56700 <runtime.gcWriteBarrierCX@@Base>
 4b722b7:	48 89 c3             	mov    %rax,%rbx
 4b722ba:	48 8d 05 ff bb 38 01 	lea    0x138bbff(%rip),%rax        # 5efdec0 <go:itab.*errors.errorString,error@@Base>
 4b722c1:	48 8b ac 24 50 01 00 	mov    0x150(%rsp),%rbp
 4b722c8:	00 
 4b722c9:	48 81 c4 58 01 00 00 	add    $0x158,%rsp
 4b722d0:	c3                   	ret
 4b722d1:	48 8b 84 24 88 00 00 	mov    0x88(%rsp),%rax
 4b722d8:	00 
 4b722d9:	48 8b 9c 24 20 01 00 	mov    0x120(%rsp),%rbx
 4b722e0:	00 
 4b722e1:	48 8b ac 24 50 01 00 	mov    0x150(%rsp),%rbp
 4b722e8:	00 
 4b722e9:	48 81 c4 58 01 00 00 	add    $0x158,%rsp
 4b722f0:	c3                   	ret
 4b722f1:	e8 6a 48 3e fd       	call   1f56b60 <runtime.panicSliceB@@Base>
 4b722f6:	49 83 c4 10          	add    $0x10,%r12
 4b722fa:	b8 01 00 00 00       	mov    $0x1,%eax
 4b722ff:	90                   	nop
 4b72300:	48 83 f8 01          	cmp    $0x1,%rax
 4b72304:	0f 8d 98 00 00 00    	jge    4b723a2 <periph.io/x/conn/v3/physic.(*Pressure).Set@@Base+0x642>
 4b7230a:	4d 8b 7c 24 08       	mov    0x8(%r12),%r15
 4b7230f:	49 8b 1c 24          	mov    (%r12),%rbx
 4b72313:	49 39 d7             	cmp    %rdx,%r15
 4b72316:	7f 7c                	jg     4b72394 <periph.io/x/conn/v3/physic.(*Pressure).Set@@Base+0x634>
 4b72318:	48 89 d0             	mov    %rdx,%rax
 4b7231b:	4c 29 f8             	sub    %r15,%rax
 4b7231e:	66 90                	xchg   %ax,%ax
 4b72320:	48 39 d0             	cmp    %rdx,%rax
 4b72323:	0f 87 98 01 00 00    	ja     4b724c1 <periph.io/x/conn/v3/physic.(*Pressure).Set@@Base+0x761>
 4b72329:	48 89 d1             	mov    %rdx,%rcx
 4b7232c:	48 29 c1             	sub    %rax,%rcx
 4b7232f:	48 89 ce             	mov    %rcx,%rsi
 4b72332:	48 f7 d9             	neg    %rcx
 4b72335:	48 c1 f9 3f          	sar    $0x3f,%rcx
 4b72339:	48 21 c8             	and    %rcx,%rax
 4b7233c:	4c 01 e8             	add    %r13,%rax
 4b7233f:	90                   	nop
 4b72340:	49 39 f7             	cmp    %rsi,%r15
 4b72343:	74 04                	je     4b72349 <periph.io/x/conn/v3/physic.(*Pressure).Set@@Base+0x5e9>
 4b72345:	31 c0                	xor    %eax,%eax
 4b72347:	eb 4d                	jmp    4b72396 <periph.io/x/conn/v3/physic.(*Pressure).Set@@Base+0x636>
 4b72349:	4c 89 7c 24 48       	mov    %r15,0x48(%rsp)
 4b7234e:	48 89 9c 24 e0 00 00 	mov    %rbx,0xe0(%rsp)
 4b72355:	00 
 4b72356:	4c 89 a4 24 18 01 00 	mov    %r12,0x118(%rsp)
 4b7235d:	00 
 4b7235e:	48 89 f1             	mov    %rsi,%rcx
 4b72361:	e8 ba 17 37 fd       	call   1ee3b20 <runtime.memequal@@Base>
 4b72366:	48 8b 94 24 98 00 00 	mov    0x98(%rsp),%rdx
 4b7236d:	00 
 4b7236e:	48 8b 9c 24 e0 00 00 	mov    0xe0(%rsp),%rbx
 4b72375:	00 
 4b72376:	48 8d 3d a1 0e 0c 00 	lea    0xc0ea1(%rip),%rdi        # 4c3321e <_IO_stdin_used@@Base+0x21e>
 4b7237d:	4c 8b a4 24 18 01 00 	mov    0x118(%rsp),%r12
 4b72384:	00 
 4b72385:	4c 8b ac 24 28 01 00 	mov    0x128(%rsp),%r13
 4b7238c:	00 
 4b7238d:	4c 8b 7c 24 48       	mov    0x48(%rsp),%r15
 4b72392:	eb 02                	jmp    4b72396 <periph.io/x/conn/v3/physic.(*Pressure).Set@@Base+0x636>
 4b72394:	31 c0                	xor    %eax,%eax
 4b72396:	84 c0                	test   %al,%al
 4b72398:	0f 84 58 ff ff ff    	je     4b722f6 <periph.io/x/conn/v3/physic.(*Pressure).Set@@Base+0x596>
 4b7239e:	66 90                	xchg   %ax,%ax
 4b723a0:	eb 05                	jmp    4b723a7 <periph.io/x/conn/v3/physic.(*Pressure).Set@@Base+0x647>
 4b723a2:	45 31 ff             	xor    %r15d,%r15d
 4b723a5:	31 db                	xor    %ebx,%ebx
 4b723a7:	4d 85 ff             	test   %r15,%r15
 4b723aa:	0f 84 97 00 00 00    	je     4b72447 <periph.io/x/conn/v3/physic.(*Pressure).Set@@Base+0x6e7>
 4b723b0:	31 c0                	xor    %eax,%eax
 4b723b2:	b9 29 00 00 00       	mov    $0x29,%ecx
 4b723b7:	48 89 df             	mov    %rbx,%rdi
 4b723ba:	4c 89 fe             	mov    %r15,%rsi
 4b723bd:	4c 8d 05 7b b7 0e 00 	lea    0xeb77b(%rip),%r8        # 4c5db3f <_IO_stdin_used@@Base+0x2ab3f>
 4b723c4:	41 b9 06 00 00 00    	mov    $0x6,%r9d
 4b723ca:	4c 8d 15 1f c0 25 00 	lea    0x25c01f(%rip),%r10        # 4dce3f0 <_IO_stdin_used@@Base+0x19b3f0>
 4b723d1:	41 bb 15 00 00 00    	mov    $0x15,%r11d
 4b723d7:	48 8d 1d 57 b9 2a 00 	lea    0x2ab957(%rip),%rbx        # 4e1dd35 <_IO_stdin_used@@Base+0x1ead35>
 4b723de:	66 90                	xchg   %ax,%ax
 4b723e0:	e8 bb 80 3c fd       	call   1f3a4a0 <runtime.concatstring4@@Base>
 4b723e5:	48 89 84 24 f0 00 00 	mov    %rax,0xf0(%rsp)
 4b723ec:	00 
 4b723ed:	48 89 5c 24 60       	mov    %rbx,0x60(%rsp)
 4b723f2:	48 8d 05 07 1f f0 00 	lea    0xf01f07(%rip),%rax        # 5a74300 <type:hE5I1The@@Base>
 4b723f9:	e8 e2 e0 37 fd       	call   1ef04e0 <runtime.newobject@@Base>
 4b723fe:	48 8b 54 24 60       	mov    0x60(%rsp),%rdx
 4b72403:	48 89 50 08          	mov    %rdx,0x8(%rax)
 4b72407:	83 3d 52 95 30 03 00 	cmpl   $0x0,0x3309552(%rip)        # 7e7b960 <runtime.writeBarrier@@Base>
 4b7240e:	75 0d                	jne    4b7241d <periph.io/x/conn/v3/physic.(*Pressure).Set@@Base+0x6bd>
 4b72410:	48 8b 8c 24 f0 00 00 	mov    0xf0(%rsp),%rcx
 4b72417:	00 
 4b72418:	48 89 08             	mov    %rcx,(%rax)
 4b7241b:	eb 10                	jmp    4b7242d <periph.io/x/conn/v3/physic.(*Pressure).Set@@Base+0x6cd>
 4b7241d:	48 89 c7             	mov    %rax,%rdi
 4b72420:	48 8b 8c 24 f0 00 00 	mov    0xf0(%rsp),%rcx
 4b72427:	00 
 4b72428:	e8 d3 42 3e fd       	call   1f56700 <runtime.gcWriteBarrierCX@@Base>
 4b7242d:	48 89 c3             	mov    %rax,%rbx
 4b72430:	48 8d 05 89 ba 38 01 	lea    0x138ba89(%rip),%rax        # 5efdec0 <go:itab.*errors.errorString,error@@Base>
 4b72437:	48 8b ac 24 50 01 00 	mov    0x150(%rsp),%rbp
 4b7243e:	00 
 4b7243f:	48 81 c4 58 01 00 00 	add    $0x158,%rsp
 4b72446:	c3                   	ret
 4b72447:	31 c0                	xor    %eax,%eax
 4b72449:	48 8d 1d 28 84 27 00 	lea    0x278428(%rip),%rbx        # 4dea878 <_IO_stdin_used@@Base+0x1b7878>
 4b72450:	b9 1c 00 00 00       	mov    $0x1c,%ecx
 4b72455:	be 02 00 00 00       	mov    $0x2,%esi
 4b7245a:	e8 c1 7e 3c fd       	call   1f3a320 <runtime.concatstring2@@Base>
 4b7245f:	48 89 84 24 e8 00 00 	mov    %rax,0xe8(%rsp)
 4b72466:	00 
 4b72467:	48 89 5c 24 58       	mov    %rbx,0x58(%rsp)
 4b7246c:	48 8d 05 8d 1e f0 00 	lea    0xf01e8d(%rip),%rax        # 5a74300 <type:hE5I1The@@Base>
 4b72473:	e8 68 e0 37 fd       	call   1ef04e0 <runtime.newobject@@Base>
 4b72478:	48 8b 54 24 58       	mov    0x58(%rsp),%rdx
 4b7247d:	48 89 50 08          	mov    %rdx,0x8(%rax)
 4b72481:	83 3d d8 94 30 03 00 	cmpl   $0x0,0x33094d8(%rip)        # 7e7b960 <runtime.writeBarrier@@Base>
 4b72488:	75 0d                	jne    4b72497 <periph.io/x/conn/v3/physic.(*Pressure).Set@@Base+0x737>
 4b7248a:	48 8b 8c 24 e8 00 00 	mov    0xe8(%rsp),%rcx
 4b72491:	00 
 4b72492:	48 89 08             	mov    %rcx,(%rax)
 4b72495:	eb 10                	jmp    4b724a7 <periph.io/x/conn/v3/physic.(*Pressure).Set@@Base+0x747>
 4b72497:	48 89 c7             	mov    %rax,%rdi
 4b7249a:	48 8b 8c 24 e8 00 00 	mov    0xe8(%rsp),%rcx
 4b724a1:	00 
 4b724a2:	e8 59 42 3e fd       	call   1f56700 <runtime.gcWriteBarrierCX@@Base>
 4b724a7:	48 89 c3             	mov    %rax,%rbx
 4b724aa:	48 8d 05 0f ba 38 01 	lea    0x138ba0f(%rip),%rax        # 5efdec0 <go:itab.*errors.errorString,error@@Base>
 4b724b1:	48 8b ac 24 50 01 00 	mov    0x150(%rsp),%rbp
 4b724b8:	00 
 4b724b9:	48 81 c4 58 01 00 00 	add    $0x158,%rsp
 4b724c0:	c3                   	ret
 4b724c1:	48 89 d1             	mov    %rdx,%rcx
 4b724c4:	e8 97 46 3e fd       	call   1f56b60 <runtime.panicSliceB@@Base>
 4b724c9:	48 89 d8             	mov    %rbx,%rax
 4b724cc:	e8 8f 46 3e fd       	call   1f56b60 <runtime.panicSliceB@@Base>
 4b724d1:	90                   	nop
 4b724d2:	48 89 44 24 08       	mov    %rax,0x8(%rsp)
 4b724d7:	48 89 5c 24 10       	mov    %rbx,0x10(%rsp)
 4b724dc:	48 89 4c 24 18       	mov    %rcx,0x18(%rsp)
 4b724e1:	e8 7a 1f 3e fd       	call   1f54460 <runtime.morestack_noctxt.abi0@@Base>
 4b724e6:	48 8b 44 24 08       	mov    0x8(%rsp),%rax
 4b724eb:	48 8b 5c 24 10       	mov    0x10(%rsp),%rbx
 4b724f0:	48 8b 4c 24 18       	mov    0x18(%rsp),%rcx
 4b724f5:	e9 66 f8 ff ff       	jmp    4b71d60 <periph.io/x/conn/v3/physic.(*Pressure).Set@@Base>
 4b724fa:	cc                   	int3
 4b724fb:	cc                   	int3
 4b724fc:	cc                   	int3
 4b724fd:	cc                   	int3
 4b724fe:	cc                   	int3
 4b724ff:	cc                   	int3

0000000004b72500 <periph.io/x/conn/v3/physic.RelativeHumidity.String@@Base>:
 4b72500:	49 3b 66 10          	cmp    0x10(%r14),%rsp
 4b72504:	0f 86 28 01 00 00    	jbe    4b72632 <periph.io/x/conn/v3/physic.RelativeHumidity.String@@Base+0x132>
 4b7250a:	48 83 ec 68          	sub    $0x68,%rsp
 4b7250e:	48 89 6c 24 60       	mov    %rbp,0x60(%rsp)
 4b72513:	48 8d 6c 24 60       	lea    0x60(%rsp),%rbp
 4b72518:	48 63 c8             	movslq %eax,%rcx
 4b7251b:	ba 59 17 b7 d1       	mov    $0xd1b71759,%edx
 4b72520:	48 0f af d1          	imul   %rcx,%rdx
 4b72524:	48 c1 fa 2d          	sar    $0x2d,%rdx
 4b72528:	48 c1 f9 3f          	sar    $0x3f,%rcx
 4b7252c:	29 ca                	sub    %ecx,%edx
 4b7252e:	48 63 ca             	movslq %edx,%rcx
 4b72531:	be cd cc cc cc       	mov    $0xcccccccd,%esi
 4b72536:	48 0f af f1          	imul   %rcx,%rsi
 4b7253a:	48 c1 fe 23          	sar    $0x23,%rsi
 4b7253e:	48 c1 f9 3f          	sar    $0x3f,%rcx
 4b72542:	29 ce                	sub    %ecx,%esi
 4b72544:	8d 0c b6             	lea    (%rsi,%rsi,4),%ecx
 4b72547:	d1 e1                	shl    $1,%ecx
 4b72549:	89 d6                	mov    %edx,%esi
 4b7254b:	29 ca                	sub    %ecx,%edx
 4b7254d:	48 63 ca             	movslq %edx,%rcx
 4b72550:	48 85 c9             	test   %rcx,%rcx
 4b72553:	75 4c                	jne    4b725a1 <periph.io/x/conn/v3/physic.RelativeHumidity.String@@Base+0xa1>
 4b72555:	48 63 ce             	movslq %esi,%rcx
 4b72558:	48 b8 cd cc cc cc cc 	movabs $0xcccccccccccccccd,%rax
 4b7255f:	cc cc cc 
 4b72562:	48 f7 e9             	imul   %rcx
 4b72565:	48 8d 04 0a          	lea    (%rdx,%rcx,1),%rax
 4b72569:	48 c1 f8 03          	sar    $0x3,%rax
 4b7256d:	48 c1 f9 3f          	sar    $0x3f,%rcx
 4b72571:	48 29 c8             	sub    %rcx,%rax
 4b72574:	bb 0a 00 00 00       	mov    $0xa,%ebx
 4b72579:	e8 62 15 40 fd       	call   1f73ae0 <strconv.FormatInt@@Base>
 4b7257e:	48 89 d9             	mov    %rbx,%rcx
 4b72581:	48 8d 3d 3e 10 0c 00 	lea    0xc103e(%rip),%rdi        # 4c335c6 <_IO_stdin_used@@Base+0x5c6>
 4b72588:	be 03 00 00 00       	mov    $0x3,%esi
 4b7258d:	48 89 c3             	mov    %rax,%rbx
 4b72590:	31 c0                	xor    %eax,%eax
 4b72592:	e8 89 7d 3c fd       	call   1f3a320 <runtime.concatstring2@@Base>
 4b72597:	48 8b 6c 24 60       	mov    0x60(%rsp),%rbp
 4b7259c:	48 83 c4 68          	add    $0x68,%rsp
 4b725a0:	c3                   	ret
 4b725a1:	48 89 4c 24 50       	mov    %rcx,0x50(%rsp)
 4b725a6:	48 63 ce             	movslq %esi,%rcx
 4b725a9:	48 b8 cd cc cc cc cc 	movabs $0xcccccccccccccccd,%rax
 4b725b0:	cc cc cc 
 4b725b3:	48 f7 e9             	imul   %rcx
 4b725b6:	48 8d 04 0a          	lea    (%rdx,%rcx,1),%rax
 4b725ba:	48 c1 f8 03          	sar    $0x3,%rax
 4b725be:	48 c1 f9 3f          	sar    $0x3f,%rcx
 4b725c2:	48 29 c8             	sub    %rcx,%rax
 4b725c5:	bb 0a 00 00 00       	mov    $0xa,%ebx
 4b725ca:	e8 11 15 40 fd       	call   1f73ae0 <strconv.FormatInt@@Base>
 4b725cf:	48 89 44 24 58       	mov    %rax,0x58(%rsp)
 4b725d4:	48 89 5c 24 48       	mov    %rbx,0x48(%rsp)
 4b725d9:	48 8b 4c 24 50       	mov    0x50(%rsp),%rcx
 4b725de:	48 89 ca             	mov    %rcx,%rdx
 4b725e1:	48 f7 d9             	neg    %rcx
 4b725e4:	48 85 d2             	test   %rdx,%rdx
 4b725e7:	48 0f 4c d1          	cmovl  %rcx,%rdx
 4b725eb:	48 89 d0             	mov    %rdx,%rax
 4b725ee:	bb 0a 00 00 00       	mov    $0xa,%ebx
 4b725f3:	e8 e8 14 40 fd       	call   1f73ae0 <strconv.FormatInt@@Base>
 4b725f8:	48 8b 4c 24 48       	mov    0x48(%rsp),%rcx
 4b725fd:	48 8d 3d 14 49 96 00 	lea    0x964914(%rip),%rdi        # 54d6f18 <_IO_stdin_used@@Base+0x8a3f18>
 4b72604:	be 01 00 00 00       	mov    $0x1,%esi
 4b72609:	49 89 c0             	mov    %rax,%r8
 4b7260c:	49 89 d9             	mov    %rbx,%r9
 4b7260f:	4c 8d 15 b0 0f 0c 00 	lea    0xc0fb0(%rip),%r10        # 4c335c6 <_IO_stdin_used@@Base+0x5c6>
 4b72616:	41 bb 03 00 00 00    	mov    $0x3,%r11d
 4b7261c:	31 c0                	xor    %eax,%eax
 4b7261e:	48 8b 5c 24 58       	mov    0x58(%rsp),%rbx
 4b72623:	e8 78 7e 3c fd       	call   1f3a4a0 <runtime.concatstring4@@Base>
 4b72628:	48 8b 6c 24 60       	mov    0x60(%rsp),%rbp
 4b7262d:	48 83 c4 68          	add    $0x68,%rsp
 4b72631:	c3                   	ret
 4b72632:	89 44 24 08          	mov    %eax,0x8(%rsp)
 4b72636:	e8 25 1e 3e fd       	call   1f54460 <runtime.morestack_noctxt.abi0@@Base>
 4b7263b:	8b 44 24 08          	mov    0x8(%rsp),%eax
 4b7263f:	90                   	nop
 4b72640:	e9 bb fe ff ff       	jmp    4b72500 <periph.io/x/conn/v3/physic.RelativeHumidity.String@@Base>
 4b72645:	cc                   	int3
 4b72646:	cc                   	int3
 4b72647:	cc                   	int3
 4b72648:	cc                   	int3
 4b72649:	cc                   	int3
 4b7264a:	cc                   	int3
 4b7264b:	cc                   	int3
 4b7264c:	cc                   	int3
 4b7264d:	cc                   	int3
 4b7264e:	cc                   	int3
 4b7264f:	cc                   	int3
 4b72650:	cc                   	int3
 4b72651:	cc                   	int3
 4b72652:	cc                   	int3
 4b72653:	cc                   	int3
 4b72654:	cc                   	int3
 4b72655:	cc                   	int3
 4b72656:	cc                   	int3
 4b72657:	cc                   	int3
 4b72658:	cc                   	int3
 4b72659:	cc                   	int3
 4b7265a:	cc                   	int3
 4b7265b:	cc                   	int3
 4b7265c:	cc                   	int3
 4b7265d:	cc                   	int3
 4b7265e:	cc                   	int3
 4b7265f:	cc                   	int3

0000000004b72660 <periph.io/x/conn/v3/physic.(*RelativeHumidity).Set@@Base>:
 4b72660:	4c 8d a4 24 08 ff ff 	lea    -0xf8(%rsp),%r12
 4b72667:	ff 
 4b72668:	4d 3b 66 10          	cmp    0x10(%r14),%r12
 4b7266c:	0f 86 60 09 00 00    	jbe    4b72fd2 <periph.io/x/conn/v3/physic.(*RelativeHumidity).Set@@Base+0x972>
 4b72672:	48 81 ec 78 01 00 00 	sub    $0x178,%rsp
 4b72679:	48 89 ac 24 70 01 00 	mov    %rbp,0x170(%rsp)
 4b72680:	00 
 4b72681:	48 8d ac 24 70 01 00 	lea    0x170(%rsp),%rbp
 4b72688:	00 
 4b72689:	48 89 84 24 80 01 00 	mov    %rax,0x180(%rsp)
 4b72690:	00 
 4b72691:	48 89 8c 24 90 01 00 	mov    %rcx,0x190(%rsp)
 4b72698:	00 
 4b72699:	48 89 9c 24 88 01 00 	mov    %rbx,0x188(%rsp)
 4b726a0:	00 
 4b726a1:	48 89 d8             	mov    %rbx,%rax
 4b726a4:	48 89 cb             	mov    %rcx,%rbx
 4b726a7:	48 c7 c1 fb ff ff ff 	mov    $0xfffffffffffffffb,%rcx
 4b726ae:	e8 0d 2e 00 00       	call   4b754c0 <periph.io/x/conn/v3/physic.valueOfUnitString@@Base>
 4b726b3:	48 85 c9             	test   %rcx,%rcx
 4b726b6:	0f 85 b2 02 00 00    	jne    4b7296e <periph.io/x/conn/v3/physic.(*RelativeHumidity).Set@@Base+0x30e>
 4b726bc:	48 8b 8c 24 90 01 00 	mov    0x190(%rsp),%rcx
 4b726c3:	00 
 4b726c4:	48 39 cb             	cmp    %rcx,%rbx
 4b726c7:	0f 87 fc 08 00 00    	ja     4b72fc9 <periph.io/x/conn/v3/physic.(*RelativeHumidity).Set@@Base+0x969>
 4b726cd:	48 29 d9             	sub    %rbx,%rcx
 4b726d0:	48 89 ca             	mov    %rcx,%rdx
 4b726d3:	48 f7 d9             	neg    %rcx
 4b726d6:	48 c1 f9 3f          	sar    $0x3f,%rcx
 4b726da:	48 21 cb             	and    %rcx,%rbx
 4b726dd:	4c 8b a4 24 88 01 00 	mov    0x188(%rsp),%r12
 4b726e4:	00 
 4b726e5:	4d 8d 2c 1c          	lea    (%r12,%rbx,1),%r13
 4b726e9:	48 85 d2             	test   %rdx,%rdx
 4b726ec:	0f 84 f6 01 00 00    	je     4b728e8 <periph.io/x/conn/v3/physic.(*RelativeHumidity).Set@@Base+0x288>
 4b726f2:	48 83 fa 01          	cmp    $0x1,%rdx
 4b726f6:	75 14                	jne    4b7270c <periph.io/x/conn/v3/physic.(*RelativeHumidity).Set@@Base+0xac>
 4b726f8:	45 0f b6 24 1c       	movzbl (%r12,%rbx,1),%r12d
 4b726fd:	0f 1f 00             	nopl   (%rax)
 4b72700:	41 80 fc 25          	cmp    $0x25,%r12b
 4b72704:	0f 85 77 01 00 00    	jne    4b72881 <periph.io/x/conn/v3/physic.(*RelativeHumidity).Set@@Base+0x221>
 4b7270a:	eb 30                	jmp    4b7273c <periph.io/x/conn/v3/physic.(*RelativeHumidity).Set@@Base+0xdc>
 4b7270c:	48 83 fa 03          	cmp    $0x3,%rdx
 4b72710:	0f 85 6b 01 00 00    	jne    4b72881 <periph.io/x/conn/v3/physic.(*RelativeHumidity).Set@@Base+0x221>
 4b72716:	45 0f b7 3c 1c       	movzwl (%r12,%rbx,1),%r15d
 4b7271b:	0f 1f 44 00 00       	nopl   0x0(%rax,%rax,1)
 4b72720:	66 41 81 ff 25 72    	cmp    $0x7225,%r15w
 4b72726:	0f 85 55 01 00 00    	jne    4b72881 <periph.io/x/conn/v3/physic.(*RelativeHumidity).Set@@Base+0x221>
 4b7272c:	45 0f b6 64 1c 02    	movzbl 0x2(%r12,%rbx,1),%r12d
 4b72732:	41 80 fc 48          	cmp    $0x48,%r12b
 4b72736:	0f 85 45 01 00 00    	jne    4b72881 <periph.io/x/conn/v3/physic.(*RelativeHumidity).Set@@Base+0x221>
 4b7273c:	0f 1f 40 00          	nopl   0x0(%rax)
 4b72740:	48 3d 80 96 98 00    	cmp    $0x989680,%rax
 4b72746:	0f 8f ab 00 00 00    	jg     4b727f7 <periph.io/x/conn/v3/physic.(*RelativeHumidity).Set@@Base+0x197>
 4b7274c:	48 85 c0             	test   %rax,%rax
 4b7274f:	0f 8d 84 00 00 00    	jge    4b727d9 <periph.io/x/conn/v3/physic.(*RelativeHumidity).Set@@Base+0x179>
 4b72755:	31 c0                	xor    %eax,%eax
 4b72757:	e8 a4 fd ff ff       	call   4b72500 <periph.io/x/conn/v3/physic.RelativeHumidity.String@@Base>
 4b7275c:	b9 11 00 00 00       	mov    $0x11,%ecx
 4b72761:	48 89 c7             	mov    %rax,%rdi
 4b72764:	48 89 de             	mov    %rbx,%rsi
 4b72767:	31 c0                	xor    %eax,%eax
 4b72769:	48 8d 1d a4 e0 19 00 	lea    0x19e0a4(%rip),%rbx        # 4d10814 <_IO_stdin_used@@Base+0xdd814>
 4b72770:	e8 ab 7b 3c fd       	call   1f3a320 <runtime.concatstring2@@Base>
 4b72775:	48 89 84 24 e8 00 00 	mov    %rax,0xe8(%rsp)
 4b7277c:	00 
 4b7277d:	48 89 5c 24 70       	mov    %rbx,0x70(%rsp)
 4b72782:	48 8d 05 77 1b f0 00 	lea    0xf01b77(%rip),%rax        # 5a74300 <type:hE5I1The@@Base>
 4b72789:	e8 52 dd 37 fd       	call   1ef04e0 <runtime.newobject@@Base>
 4b7278e:	48 8b 4c 24 70       	mov    0x70(%rsp),%rcx
 4b72793:	48 89 48 08          	mov    %rcx,0x8(%rax)
 4b72797:	83 3d c2 91 30 03 00 	cmpl   $0x0,0x33091c2(%rip)        # 7e7b960 <runtime.writeBarrier@@Base>
 4b7279e:	66 90                	xchg   %ax,%ax
 4b727a0:	75 0d                	jne    4b727af <periph.io/x/conn/v3/physic.(*RelativeHumidity).Set@@Base+0x14f>
 4b727a2:	48 8b 8c 24 e8 00 00 	mov    0xe8(%rsp),%rcx
 4b727a9:	00 
 4b727aa:	48 89 08             	mov    %rcx,(%rax)
 4b727ad:	eb 10                	jmp    4b727bf <periph.io/x/conn/v3/physic.(*RelativeHumidity).Set@@Base+0x15f>
 4b727af:	48 89 c7             	mov    %rax,%rdi
 4b727b2:	48 8b 8c 24 e8 00 00 	mov    0xe8(%rsp),%rcx
 4b727b9:	00 
 4b727ba:	e8 41 3f 3e fd       	call   1f56700 <runtime.gcWriteBarrierCX@@Base>
 4b727bf:	48 89 c3             	mov    %rax,%rbx
 4b727c2:	48 8d 05 f7 b6 38 01 	lea    0x138b6f7(%rip),%rax        # 5efdec0 <go:itab.*errors.errorString,error@@Base>
 4b727c9:	48 8b ac 24 70 01 00 	mov    0x170(%rsp),%rbp
 4b727d0:	00 
 4b727d1:	48 81 c4 78 01 00 00 	add    $0x178,%rsp
 4b727d8:	c3                   	ret
 4b727d9:	48 8b 8c 24 80 01 00 	mov    0x180(%rsp),%rcx
 4b727e0:	00 
 4b727e1:	89 01                	mov    %eax,(%rcx)
 4b727e3:	31 c0                	xor    %eax,%eax
 4b727e5:	31 db                	xor    %ebx,%ebx
 4b727e7:	48 8b ac 24 70 01 00 	mov    0x170(%rsp),%rbp
 4b727ee:	00 
 4b727ef:	48 81 c4 78 01 00 00 	add    $0x178,%rsp
 4b727f6:	c3                   	ret
 4b727f7:	b8 80 96 98 00       	mov    $0x989680,%eax
 4b727fc:	0f 1f 40 00          	nopl   0x0(%rax)
 4b72800:	e8 fb fc ff ff       	call   4b72500 <periph.io/x/conn/v3/physic.RelativeHumidity.String@@Base>
 4b72805:	b9 11 00 00 00       	mov    $0x11,%ecx
 4b7280a:	48 89 c7             	mov    %rax,%rdi
 4b7280d:	48 89 de             	mov    %rbx,%rsi
 4b72810:	31 c0                	xor    %eax,%eax
 4b72812:	48 8d 1d a6 df 19 00 	lea    0x19dfa6(%rip),%rbx        # 4d107bf <_IO_stdin_used@@Base+0xdd7bf>
 4b72819:	e8 02 7b 3c fd       	call   1f3a320 <runtime.concatstring2@@Base>
 4b7281e:	48 89 84 24 f0 00 00 	mov    %rax,0xf0(%rsp)
 4b72825:	00 
 4b72826:	48 89 5c 24 78       	mov    %rbx,0x78(%rsp)
 4b7282b:	48 8d 05 ce 1a f0 00 	lea    0xf01ace(%rip),%rax        # 5a74300 <type:hE5I1The@@Base>
 4b72832:	e8 a9 dc 37 fd       	call   1ef04e0 <runtime.newobject@@Base>
 4b72837:	48 8b 4c 24 78       	mov    0x78(%rsp),%rcx
 4b7283c:	48 89 48 08          	mov    %rcx,0x8(%rax)
 4b72840:	83 3d 19 91 30 03 00 	cmpl   $0x0,0x3309119(%rip)        # 7e7b960 <runtime.writeBarrier@@Base>
 4b72847:	75 0d                	jne    4b72856 <periph.io/x/conn/v3/physic.(*RelativeHumidity).Set@@Base+0x1f6>
 4b72849:	48 8b 8c 24 f0 00 00 	mov    0xf0(%rsp),%rcx
 4b72850:	00 
 4b72851:	48 89 08             	mov    %rcx,(%rax)
 4b72854:	eb 10                	jmp    4b72866 <periph.io/x/conn/v3/physic.(*RelativeHumidity).Set@@Base+0x206>
 4b72856:	48 89 c7             	mov    %rax,%rdi
 4b72859:	48 8b 8c 24 f0 00 00 	mov    0xf0(%rsp),%rcx
 4b72860:	00 
 4b72861:	e8 9a 3e 3e fd       	call   1f56700 <runtime.gcWriteBarrierCX@@Base>
 4b72866:	48 89 c3             	mov    %rax,%rbx
 4b72869:	48 8d 05 50 b6 38 01 	lea    0x138b650(%rip),%rax        # 5efdec0 <go:itab.*errors.errorString,error@@Base>
 4b72870:	48 8b ac 24 70 01 00 	mov    0x170(%rsp),%rbp
 4b72877:	00 
 4b72878:	48 81 c4 78 01 00 00 	add    $0x178,%rsp
 4b7287f:	90                   	nop
 4b72880:	c3                   	ret
 4b72881:	48 89 94 24 c0 00 00 	mov    %rdx,0xc0(%rsp)
 4b72888:	00 
 4b72889:	4c 89 ac 24 28 01 00 	mov    %r13,0x128(%rsp)
 4b72890:	00 
 4b72891:	44 0f 11 bc 24 30 01 	movups %xmm15,0x130(%rsp)
 4b72898:	00 00 
 4b7289a:	44 0f 11 bc 24 40 01 	movups %xmm15,0x140(%rsp)
 4b728a1:	00 00 
 4b728a3:	4c 8d 25 1c 0d 0c 00 	lea    0xc0d1c(%rip),%r12        # 4c335c6 <_IO_stdin_used@@Base+0x5c6>
 4b728aa:	4c 89 a4 24 30 01 00 	mov    %r12,0x130(%rsp)
 4b728b1:	00 
 4b728b2:	48 c7 84 24 38 01 00 	movq   $0x3,0x138(%rsp)
 4b728b9:	00 03 00 00 00 
 4b728be:	4c 8d 25 9b 42 96 00 	lea    0x96429b(%rip),%r12        # 54d6b60 <_IO_stdin_used@@Base+0x8a3b60>
 4b728c5:	4c 89 a4 24 40 01 00 	mov    %r12,0x140(%rsp)
 4b728cc:	00 
 4b728cd:	48 c7 84 24 48 01 00 	movq   $0x1,0x148(%rsp)
 4b728d4:	00 01 00 00 00 
 4b728d9:	4c 8d a4 24 30 01 00 	lea    0x130(%rsp),%r12
 4b728e0:	00 
 4b728e1:	31 c0                	xor    %eax,%eax
 4b728e3:	e9 f8 04 00 00       	jmp    4b72de0 <periph.io/x/conn/v3/physic.(*RelativeHumidity).Set@@Base+0x780>
 4b728e8:	31 c0                	xor    %eax,%eax
 4b728ea:	48 8d 1d 5b 38 26 00 	lea    0x26385b(%rip),%rbx        # 4dd614c <_IO_stdin_used@@Base+0x1a314c>
 4b728f1:	b9 17 00 00 00       	mov    $0x17,%ecx
 4b728f6:	48 8d 3d 30 f4 0e 00 	lea    0xef430(%rip),%rdi        # 4c61d2d <_IO_stdin_used@@Base+0x2ed2d>
 4b728fd:	be 08 00 00 00       	mov    $0x8,%esi
 4b72902:	e8 19 7a 3c fd       	call   1f3a320 <runtime.concatstring2@@Base>
 4b72907:	48 89 84 24 e0 00 00 	mov    %rax,0xe0(%rsp)
 4b7290e:	00 
 4b7290f:	48 89 5c 24 68       	mov    %rbx,0x68(%rsp)
 4b72914:	48 8d 05 e5 19 f0 00 	lea    0xf019e5(%rip),%rax        # 5a74300 <type:hE5I1The@@Base>
 4b7291b:	0f 1f 44 00 00       	nopl   0x0(%rax,%rax,1)
 4b72920:	e8 bb db 37 fd       	call   1ef04e0 <runtime.newobject@@Base>
 4b72925:	48 8b 54 24 68       	mov    0x68(%rsp),%rdx
 4b7292a:	48 89 50 08          	mov    %rdx,0x8(%rax)
 4b7292e:	83 3d 2b 90 30 03 00 	cmpl   $0x0,0x330902b(%rip)        # 7e7b960 <runtime.writeBarrier@@Base>
 4b72935:	75 0d                	jne    4b72944 <periph.io/x/conn/v3/physic.(*RelativeHumidity).Set@@Base+0x2e4>
 4b72937:	48 8b 8c 24 e0 00 00 	mov    0xe0(%rsp),%rcx
 4b7293e:	00 
 4b7293f:	48 89 08             	mov    %rcx,(%rax)
 4b72942:	eb 10                	jmp    4b72954 <periph.io/x/conn/v3/physic.(*RelativeHumidity).Set@@Base+0x2f4>
 4b72944:	48 89 c7             	mov    %rax,%rdi
 4b72947:	48 8b 8c 24 e0 00 00 	mov    0xe0(%rsp),%rcx
 4b7294e:	00 
 4b7294f:	e8 ac 3d 3e fd       	call   1f56700 <runtime.gcWriteBarrierCX@@Base>
 4b72954:	48 89 c3             	mov    %rax,%rbx
 4b72957:	48 8d 05 62 b5 38 01 	lea    0x138b562(%rip),%rax        # 5efdec0 <go:itab.*errors.errorString,error@@Base>
 4b7295e:	48 8b ac 24 70 01 00 	mov    0x170(%rsp),%rbp
 4b72965:	00 
 4b72966:	48 81 c4 78 01 00 00 	add    $0x178,%rsp
 4b7296d:	c3                   	ret
 4b7296e:	48 8d 15 6b 29 39 01 	lea    0x139296b(%rip),%rdx        # 5f052e0 <go:itab.*periph.io/x/conn/v3/physic.parseError,error@@Base>
 4b72975:	48 39 d1             	cmp    %rdx,%rcx
 4b72978:	75 05                	jne    4b7297f <periph.io/x/conn/v3/physic.(*RelativeHumidity).Set@@Base+0x31f>
 4b7297a:	48 89 f8             	mov    %rdi,%rax
 4b7297d:	eb 08                	jmp    4b72987 <periph.io/x/conn/v3/physic.(*RelativeHumidity).Set@@Base+0x327>
 4b7297f:	48 89 f8             	mov    %rdi,%rax
 4b72982:	bf 00 00 00 00       	mov    $0x0,%edi
 4b72987:	0f 85 c4 02 00 00    	jne    4b72c51 <periph.io/x/conn/v3/physic.(*RelativeHumidity).Set@@Base+0x5f1>
 4b7298d:	48 89 84 24 20 01 00 	mov    %rax,0x120(%rsp)
 4b72994:	00 
 4b72995:	48 89 8c 24 a8 00 00 	mov    %rcx,0xa8(%rsp)
 4b7299c:	00 
 4b7299d:	48 8b 17             	mov    (%rdi),%rdx
 4b729a0:	48 89 94 24 b8 00 00 	mov    %rdx,0xb8(%rsp)
 4b729a7:	00 
 4b729a8:	48 8b 77 08          	mov    0x8(%rdi),%rsi
 4b729ac:	48 89 b4 24 28 01 00 	mov    %rsi,0x128(%rsp)
 4b729b3:	00 
 4b729b4:	48 8b 3d 9d 2e 2c 03 	mov    0x32c2e9d(%rip),%rdi        # 7e35858 <periph.io/x/conn/v3/physic.errNotANumber@@Base+0x8>
 4b729bb:	0f 1f 44 00 00       	nopl   0x0(%rax,%rax,1)
 4b729c0:	48 39 15 89 2e 2c 03 	cmp    %rdx,0x32c2e89(%rip)        # 7e35850 <periph.io/x/conn/v3/physic.errNotANumber@@Base>
 4b729c7:	0f 85 de 00 00 00    	jne    4b72aab <periph.io/x/conn/v3/physic.(*RelativeHumidity).Set@@Base+0x44b>
 4b729cd:	48 89 9c 24 a0 00 00 	mov    %rbx,0xa0(%rsp)
 4b729d4:	00 
 4b729d5:	48 89 d0             	mov    %rdx,%rax
 4b729d8:	48 89 f3             	mov    %rsi,%rbx
 4b729db:	48 89 f9             	mov    %rdi,%rcx
 4b729de:	66 90                	xchg   %ax,%ax
 4b729e0:	e8 fb 24 37 fd       	call   1ee4ee0 <runtime.ifaceeq@@Base>
 4b729e5:	84 c0                	test   %al,%al
 4b729e7:	0f 84 9e 00 00 00    	je     4b72a8b <periph.io/x/conn/v3/physic.(*RelativeHumidity).Set@@Base+0x42b>
 4b729ed:	48 8b 84 24 a0 00 00 	mov    0xa0(%rsp),%rax
 4b729f4:	00 
 4b729f5:	48 8b 8c 24 90 01 00 	mov    0x190(%rsp),%rcx
 4b729fc:	00 
 4b729fd:	0f 1f 00             	nopl   (%rax)
 4b72a00:	48 39 c8             	cmp    %rcx,%rax
 4b72a03:	0f 87 c0 03 00 00    	ja     4b72dc9 <periph.io/x/conn/v3/physic.(*RelativeHumidity).Set@@Base+0x769>
 4b72a09:	44 0f 11 bc 24 50 01 	movups %xmm15,0x150(%rsp)
 4b72a10:	00 00 
 4b72a12:	44 0f 11 bc 24 60 01 	movups %xmm15,0x160(%rsp)
 4b72a19:	00 00 
 4b72a1b:	48 8d 15 a4 0b 0c 00 	lea    0xc0ba4(%rip),%rdx        # 4c335c6 <_IO_stdin_used@@Base+0x5c6>
 4b72a22:	48 89 94 24 50 01 00 	mov    %rdx,0x150(%rsp)
 4b72a29:	00 
 4b72a2a:	48 c7 84 24 58 01 00 	movq   $0x3,0x158(%rsp)
 4b72a31:	00 03 00 00 00 
 4b72a36:	48 8d 15 23 41 96 00 	lea    0x964123(%rip),%rdx        # 54d6b60 <_IO_stdin_used@@Base+0x8a3b60>
 4b72a3d:	48 89 94 24 60 01 00 	mov    %rdx,0x160(%rsp)
 4b72a44:	00 
 4b72a45:	48 c7 84 24 68 01 00 	movq   $0x1,0x168(%rsp)
 4b72a4c:	00 01 00 00 00 
 4b72a51:	48 29 c1             	sub    %rax,%rcx
 4b72a54:	48 89 8c 24 98 00 00 	mov    %rcx,0x98(%rsp)
 4b72a5b:	00 
 4b72a5c:	48 89 ca             	mov    %rcx,%rdx
 4b72a5f:	48 f7 d9             	neg    %rcx
 4b72a62:	48 c1 f9 3f          	sar    $0x3f,%rcx
 4b72a66:	48 21 c8             	and    %rcx,%rax
 4b72a69:	4c 8b 84 24 88 01 00 	mov    0x188(%rsp),%r8
 4b72a70:	00 
 4b72a71:	49 01 c0             	add    %rax,%r8
 4b72a74:	4c 89 84 24 10 01 00 	mov    %r8,0x110(%rsp)
 4b72a7b:	00 
 4b72a7c:	4c 8d 8c 24 50 01 00 	lea    0x150(%rsp),%r9
 4b72a83:	00 
 4b72a84:	31 c0                	xor    %eax,%eax
 4b72a86:	e9 e6 01 00 00       	jmp    4b72c71 <periph.io/x/conn/v3/physic.(*RelativeHumidity).Set@@Base+0x611>
 4b72a8b:	48 8b 84 24 20 01 00 	mov    0x120(%rsp),%rax
 4b72a92:	00 
 4b72a93:	48 8b 8c 24 a8 00 00 	mov    0xa8(%rsp),%rcx
 4b72a9a:	00 
 4b72a9b:	48 8b 94 24 b8 00 00 	mov    0xb8(%rsp),%rdx
 4b72aa2:	00 
 4b72aa3:	48 8b b4 24 28 01 00 	mov    0x128(%rsp),%rsi
 4b72aaa:	00 
 4b72aab:	48 8b 3d b6 2d 2c 03 	mov    0x32c2db6(%rip),%rdi        # 7e35868 <periph.io/x/conn/v3/physic.errOverflowsInt64@@Base+0x8>
 4b72ab2:	48 39 15 a7 2d 2c 03 	cmp    %rdx,0x32c2da7(%rip)        # 7e35860 <periph.io/x/conn/v3/physic.errOverflowsInt64@@Base>
 4b72ab9:	75 36                	jne    4b72af1 <periph.io/x/conn/v3/physic.(*RelativeHumidity).Set@@Base+0x491>
 4b72abb:	48 89 d0             	mov    %rdx,%rax
 4b72abe:	48 89 f3             	mov    %rsi,%rbx
 4b72ac1:	48 89 f9             	mov    %rdi,%rcx
 4b72ac4:	e8 17 24 37 fd       	call   1ee4ee0 <runtime.ifaceeq@@Base>
 4b72ac9:	84 c0                	test   %al,%al
 4b72acb:	0f 85 ee 00 00 00    	jne    4b72bbf <periph.io/x/conn/v3/physic.(*RelativeHumidity).Set@@Base+0x55f>
 4b72ad1:	48 8b 84 24 20 01 00 	mov    0x120(%rsp),%rax
 4b72ad8:	00 
 4b72ad9:	48 8b 8c 24 a8 00 00 	mov    0xa8(%rsp),%rcx
 4b72ae0:	00 
 4b72ae1:	48 8b 94 24 b8 00 00 	mov    0xb8(%rsp),%rdx
 4b72ae8:	00 
 4b72ae9:	48 8b b4 24 28 01 00 	mov    0x128(%rsp),%rsi
 4b72af0:	00 
 4b72af1:	48 8b 3d 80 2d 2c 03 	mov    0x32c2d80(%rip),%rdi        # 7e35878 <periph.io/x/conn/v3/physic.errOverflowsInt64Negative@@Base+0x8>
 4b72af8:	0f 1f 84 00 00 00 00 	nopl   0x0(%rax,%rax,1)
 4b72aff:	00 
 4b72b00:	48 39 15 69 2d 2c 03 	cmp    %rdx,0x32c2d69(%rip)        # 7e35870 <periph.io/x/conn/v3/physic.errOverflowsInt64Negative@@Base>
 4b72b07:	0f 85 44 01 00 00    	jne    4b72c51 <periph.io/x/conn/v3/physic.(*RelativeHumidity).Set@@Base+0x5f1>
 4b72b0d:	48 89 d0             	mov    %rdx,%rax
 4b72b10:	48 89 f3             	mov    %rsi,%rbx
 4b72b13:	48 89 f9             	mov    %rdi,%rcx
 4b72b16:	e8 c5 23 37 fd       	call   1ee4ee0 <runtime.ifaceeq@@Base>
 4b72b1b:	84 c0                	test   %al,%al
 4b72b1d:	75 15                	jne    4b72b34 <periph.io/x/conn/v3/physic.(*RelativeHumidity).Set@@Base+0x4d4>
 4b72b1f:	48 8b 84 24 20 01 00 	mov    0x120(%rsp),%rax
 4b72b26:	00 
 4b72b27:	48 8b 8c 24 a8 00 00 	mov    0xa8(%rsp),%rcx
 4b72b2e:	00 
 4b72b2f:	e9 1d 01 00 00       	jmp    4b72c51 <periph.io/x/conn/v3/physic.(*RelativeHumidity).Set@@Base+0x5f1>
 4b72b34:	31 c0                	xor    %eax,%eax
 4b72b36:	e8 c5 f9 ff ff       	call   4b72500 <periph.io/x/conn/v3/physic.RelativeHumidity.String@@Base>
 4b72b3b:	b9 11 00 00 00       	mov    $0x11,%ecx
 4b72b40:	48 89 c7             	mov    %rax,%rdi
 4b72b43:	48 89 de             	mov    %rbx,%rsi
 4b72b46:	31 c0                	xor    %eax,%eax
 4b72b48:	48 8d 1d c5 dc 19 00 	lea    0x19dcc5(%rip),%rbx        # 4d10814 <_IO_stdin_used@@Base+0xdd814>
 4b72b4f:	e8 cc 77 3c fd       	call   1f3a320 <runtime.concatstring2@@Base>
 4b72b54:	48 89 84 24 f8 00 00 	mov    %rax,0xf8(%rsp)
 4b72b5b:	00 
 4b72b5c:	48 89 9c 24 80 00 00 	mov    %rbx,0x80(%rsp)
 4b72b63:	00 
 4b72b64:	48 8d 05 95 17 f0 00 	lea    0xf01795(%rip),%rax        # 5a74300 <type:hE5I1The@@Base>
 4b72b6b:	e8 70 d9 37 fd       	call   1ef04e0 <runtime.newobject@@Base>
 4b72b70:	48 8b 8c 24 80 00 00 	mov    0x80(%rsp),%rcx
 4b72b77:	00 
 4b72b78:	48 89 48 08          	mov    %rcx,0x8(%rax)
 4b72b7c:	83 3d dd 8d 30 03 00 	cmpl   $0x0,0x3308ddd(%rip)        # 7e7b960 <runtime.writeBarrier@@Base>
 4b72b83:	75 0d                	jne    4b72b92 <periph.io/x/conn/v3/physic.(*RelativeHumidity).Set@@Base+0x532>
 4b72b85:	48 8b 8c 24 f8 00 00 	mov    0xf8(%rsp),%rcx
 4b72b8c:	00 
 4b72b8d:	48 89 08             	mov    %rcx,(%rax)
 4b72b90:	eb 13                	jmp    4b72ba5 <periph.io/x/conn/v3/physic.(*RelativeHumidity).Set@@Base+0x545>
 4b72b92:	48 89 c7             	mov    %rax,%rdi
 4b72b95:	48 8b 8c 24 f8 00 00 	mov    0xf8(%rsp),%rcx
 4b72b9c:	00 
 4b72b9d:	0f 1f 00             	nopl   (%rax)
 4b72ba0:	e8 5b 3b 3e fd       	call   1f56700 <runtime.gcWriteBarrierCX@@Base>
 4b72ba5:	48 89 c3             	mov    %rax,%rbx
 4b72ba8:	48 8d 05 11 b3 38 01 	lea    0x138b311(%rip),%rax        # 5efdec0 <go:itab.*errors.errorString,error@@Base>
 4b72baf:	48 8b ac 24 70 01 00 	mov    0x170(%rsp),%rbp
 4b72bb6:	00 
 4b72bb7:	48 81 c4 78 01 00 00 	add    $0x178,%rsp
 4b72bbe:	c3                   	ret
 4b72bbf:	b8 80 96 98 00       	mov    $0x989680,%eax
 4b72bc4:	e8 37 f9 ff ff       	call   4b72500 <periph.io/x/conn/v3/physic.RelativeHumidity.String@@Base>
 4b72bc9:	b9 11 00 00 00       	mov    $0x11,%ecx
 4b72bce:	48 89 c7             	mov    %rax,%rdi
 4b72bd1:	48 89 de             	mov    %rbx,%rsi
 4b72bd4:	31 c0                	xor    %eax,%eax
 4b72bd6:	48 8d 1d e2 db 19 00 	lea    0x19dbe2(%rip),%rbx        # 4d107bf <_IO_stdin_used@@Base+0xdd7bf>
 4b72bdd:	0f 1f 00             	nopl   (%rax)
 4b72be0:	e8 3b 77 3c fd       	call   1f3a320 <runtime.concatstring2@@Base>
 4b72be5:	48 89 84 24 00 01 00 	mov    %rax,0x100(%rsp)
 4b72bec:	00 
 4b72bed:	48 89 9c 24 88 00 00 	mov    %rbx,0x88(%rsp)
 4b72bf4:	00 
 4b72bf5:	48 8d 05 04 17 f0 00 	lea    0xf01704(%rip),%rax        # 5a74300 <type:hE5I1The@@Base>
 4b72bfc:	0f 1f 40 00          	nopl   0x0(%rax)
 4b72c00:	e8 db d8 37 fd       	call   1ef04e0 <runtime.newobject@@Base>
 4b72c05:	48 8b 8c 24 88 00 00 	mov    0x88(%rsp),%rcx
 4b72c0c:	00 
 4b72c0d:	48 89 48 08          	mov    %rcx,0x8(%rax)
 4b72c11:	83 3d 48 8d 30 03 00 	cmpl   $0x0,0x3308d48(%rip)        # 7e7b960 <runtime.writeBarrier@@Base>
 4b72c18:	75 0d                	jne    4b72c27 <periph.io/x/conn/v3/physic.(*RelativeHumidity).Set@@Base+0x5c7>
 4b72c1a:	48 8b 8c 24 00 01 00 	mov    0x100(%rsp),%rcx
 4b72c21:	00 
 4b72c22:	48 89 08             	mov    %rcx,(%rax)
 4b72c25:	eb 10                	jmp    4b72c37 <periph.io/x/conn/v3/physic.(*RelativeHumidity).Set@@Base+0x5d7>
 4b72c27:	48 89 c7             	mov    %rax,%rdi
 4b72c2a:	48 8b 8c 24 00 01 00 	mov    0x100(%rsp),%rcx
 4b72c31:	00 
 4b72c32:	e8 c9 3a 3e fd       	call   1f56700 <runtime.gcWriteBarrierCX@@Base>
 4b72c37:	48 89 c3             	mov    %rax,%rbx
 4b72c3a:	48 8d 05 7f b2 38 01 	lea    0x138b27f(%rip),%rax        # 5efdec0 <go:itab.*errors.errorString,error@@Base>
 4b72c41:	48 8b ac 24 70 01 00 	mov    0x170(%rsp),%rbp
 4b72c48:	00 
 4b72c49:	48 81 c4 78 01 00 00 	add    $0x178,%rsp
 4b72c50:	c3                   	ret
 4b72c51:	48 89 c3             	mov    %rax,%rbx
 4b72c54:	48 89 c8             	mov    %rcx,%rax
 4b72c57:	48 8b ac 24 70 01 00 	mov    0x170(%rsp),%rbp
 4b72c5e:	00 
 4b72c5f:	48 81 c4 78 01 00 00 	add    $0x178,%rsp
 4b72c66:	c3                   	ret
 4b72c67:	49 83 c1 10          	add    $0x10,%r9
 4b72c6b:	48 ff c0             	inc    %rax
 4b72c6e:	4c 89 da             	mov    %r11,%rdx
 4b72c71:	48 83 f8 02          	cmp    $0x2,%rax
 4b72c75:	0f 8d 92 00 00 00    	jge    4b72d0d <periph.io/x/conn/v3/physic.(*RelativeHumidity).Set@@Base+0x6ad>
 4b72c7b:	4d 8b 51 08          	mov    0x8(%r9),%r10
 4b72c7f:	49 8b 19             	mov    (%r9),%rbx
 4b72c82:	49 39 d2             	cmp    %rdx,%r10
 4b72c85:	7f 77                	jg     4b72cfe <periph.io/x/conn/v3/physic.(*RelativeHumidity).Set@@Base+0x69e>
 4b72c87:	48 89 d1             	mov    %rdx,%rcx
 4b72c8a:	4c 29 d2             	sub    %r10,%rdx
 4b72c8d:	48 39 ca             	cmp    %rcx,%rdx
 4b72c90:	0f 87 2b 01 00 00    	ja     4b72dc1 <periph.io/x/conn/v3/physic.(*RelativeHumidity).Set@@Base+0x761>
 4b72c96:	49 89 cb             	mov    %rcx,%r11
 4b72c99:	48 29 d1             	sub    %rdx,%rcx
 4b72c9c:	49 89 cc             	mov    %rcx,%r12
 4b72c9f:	48 f7 d9             	neg    %rcx
 4b72ca2:	48 c1 f9 3f          	sar    $0x3f,%rcx
 4b72ca6:	48 21 ca             	and    %rcx,%rdx
 4b72ca9:	4c 01 c2             	add    %r8,%rdx
 4b72cac:	4d 39 e2             	cmp    %r12,%r10
 4b72caf:	74 04                	je     4b72cb5 <periph.io/x/conn/v3/physic.(*RelativeHumidity).Set@@Base+0x655>
 4b72cb1:	31 c9                	xor    %ecx,%ecx
 4b72cb3:	eb 4e                	jmp    4b72d03 <periph.io/x/conn/v3/physic.(*RelativeHumidity).Set@@Base+0x6a3>
 4b72cb5:	48 89 84 24 c0 00 00 	mov    %rax,0xc0(%rsp)
 4b72cbc:	00 
 4b72cbd:	4c 89 8c 24 18 01 00 	mov    %r9,0x118(%rsp)
 4b72cc4:	00 
 4b72cc5:	4c 89 54 24 50       	mov    %r10,0x50(%rsp)
 4b72cca:	48 89 d0             	mov    %rdx,%rax
 4b72ccd:	4c 89 e1             	mov    %r12,%rcx
 4b72cd0:	e8 4b 0e 37 fd       	call   1ee3b20 <runtime.memequal@@Base>
 4b72cd5:	4c 8b 84 24 10 01 00 	mov    0x110(%rsp),%r8
 4b72cdc:	00 
 4b72cdd:	4c 8b 8c 24 18 01 00 	mov    0x118(%rsp),%r9
 4b72ce4:	00 
 4b72ce5:	4c 8b 54 24 50       	mov    0x50(%rsp),%r10
 4b72cea:	4c 8b 9c 24 98 00 00 	mov    0x98(%rsp),%r11
 4b72cf1:	00 
 4b72cf2:	89 c1                	mov    %eax,%ecx
 4b72cf4:	48 8b 84 24 c0 00 00 	mov    0xc0(%rsp),%rax
 4b72cfb:	00 
 4b72cfc:	eb 05                	jmp    4b72d03 <periph.io/x/conn/v3/physic.(*RelativeHumidity).Set@@Base+0x6a3>
 4b72cfe:	49 89 d3             	mov    %rdx,%r11
 4b72d01:	31 c9                	xor    %ecx,%ecx
 4b72d03:	84 c9                	test   %cl,%cl
 4b72d05:	0f 84 5c ff ff ff    	je     4b72c67 <periph.io/x/conn/v3/physic.(*RelativeHumidity).Set@@Base+0x607>
 4b72d0b:	eb 03                	jmp    4b72d10 <periph.io/x/conn/v3/physic.(*RelativeHumidity).Set@@Base+0x6b0>
 4b72d0d:	45 31 d2             	xor    %r10d,%r10d
 4b72d10:	4d 85 d2             	test   %r10,%r10
 4b72d13:	0f 85 88 00 00 00    	jne    4b72da1 <periph.io/x/conn/v3/physic.(*RelativeHumidity).Set@@Base+0x741>
 4b72d19:	31 c0                	xor    %eax,%eax
 4b72d1b:	48 8d 1d a7 5f 28 00 	lea    0x285fa7(%rip),%rbx        # 4df8cc9 <_IO_stdin_used@@Base+0x1c5cc9>
 4b72d22:	b9 20 00 00 00       	mov    $0x20,%ecx
 4b72d27:	48 8d 3d ff ef 0e 00 	lea    0xeefff(%rip),%rdi        # 4c61d2d <_IO_stdin_used@@Base+0x2ed2d>
 4b72d2e:	be 08 00 00 00       	mov    $0x8,%esi
 4b72d33:	e8 e8 75 3c fd       	call   1f3a320 <runtime.concatstring2@@Base>
 4b72d38:	48 89 84 24 08 01 00 	mov    %rax,0x108(%rsp)
 4b72d3f:	00 
 4b72d40:	48 89 9c 24 90 00 00 	mov    %rbx,0x90(%rsp)
 4b72d47:	00 
 4b72d48:	48 8d 05 b1 15 f0 00 	lea    0xf015b1(%rip),%rax        # 5a74300 <type:hE5I1The@@Base>
 4b72d4f:	e8 8c d7 37 fd       	call   1ef04e0 <runtime.newobject@@Base>
 4b72d54:	48 8b 94 24 90 00 00 	mov    0x90(%rsp),%rdx
 4b72d5b:	00 
 4b72d5c:	48 89 50 08          	mov    %rdx,0x8(%rax)
 4b72d60:	83 3d f9 8b 30 03 00 	cmpl   $0x0,0x3308bf9(%rip)        # 7e7b960 <runtime.writeBarrier@@Base>
 4b72d67:	75 0d                	jne    4b72d76 <periph.io/x/conn/v3/physic.(*RelativeHumidity).Set@@Base+0x716>
 4b72d69:	48 8b 8c 24 08 01 00 	mov    0x108(%rsp),%rcx
 4b72d70:	00 
 4b72d71:	48 89 08             	mov    %rcx,(%rax)
 4b72d74:	eb 10                	jmp    4b72d86 <periph.io/x/conn/v3/physic.(*RelativeHumidity).Set@@Base+0x726>
 4b72d76:	48 89 c7             	mov    %rax,%rdi
 4b72d79:	48 8b 8c 24 08 01 00 	mov    0x108(%rsp),%rcx
 4b72d80:	00 
 4b72d81:	e8 7a 39 3e fd       	call   1f56700 <runtime.gcWriteBarrierCX@@Base>
 4b72d86:	48 89 c3             	mov    %rax,%rbx
 4b72d89:	48 8d 05 30 b1 38 01 	lea    0x138b130(%rip),%rax        # 5efdec0 <go:itab.*errors.errorString,error@@Base>
 4b72d90:	48 8b ac 24 70 01 00 	mov    0x170(%rsp),%rbp
 4b72d97:	00 
 4b72d98:	48 81 c4 78 01 00 00 	add    $0x178,%rsp
 4b72d9f:	90                   	nop
 4b72da0:	c3                   	ret
 4b72da1:	48 8b 84 24 a8 00 00 	mov    0xa8(%rsp),%rax
 4b72da8:	00 
 4b72da9:	48 8b 9c 24 20 01 00 	mov    0x120(%rsp),%rbx
 4b72db0:	00 
 4b72db1:	48 8b ac 24 70 01 00 	mov    0x170(%rsp),%rbp
 4b72db8:	00 
 4b72db9:	48 81 c4 78 01 00 00 	add    $0x178,%rsp
 4b72dc0:	c3                   	ret
 4b72dc1:	48 89 d0             	mov    %rdx,%rax
 4b72dc4:	e8 97 3d 3e fd       	call   1f56b60 <runtime.panicSliceB@@Base>
 4b72dc9:	e8 92 3d 3e fd       	call   1f56b60 <runtime.panicSliceB@@Base>
 4b72dce:	49 83 c4 10          	add    $0x10,%r12
 4b72dd2:	48 ff c0             	inc    %rax
 4b72dd5:	48 89 f2             	mov    %rsi,%rdx
 4b72dd8:	0f 1f 84 00 00 00 00 	nopl   0x0(%rax,%rax,1)
 4b72ddf:	00 
 4b72de0:	48 83 f8 02          	cmp    $0x2,%rax
 4b72de4:	0f 8d a8 00 00 00    	jge    4b72e92 <periph.io/x/conn/v3/physic.(*RelativeHumidity).Set@@Base+0x832>
 4b72dea:	4d 8b 7c 24 08       	mov    0x8(%r12),%r15
 4b72def:	49 8b 1c 24          	mov    (%r12),%rbx
 4b72df3:	49 39 d7             	cmp    %rdx,%r15
 4b72df6:	0f 8f 87 00 00 00    	jg     4b72e83 <periph.io/x/conn/v3/physic.(*RelativeHumidity).Set@@Base+0x823>
 4b72dfc:	48 89 d1             	mov    %rdx,%rcx
 4b72dff:	4c 29 fa             	sub    %r15,%rdx
 4b72e02:	48 39 ca             	cmp    %rcx,%rdx
 4b72e05:	0f 87 b6 01 00 00    	ja     4b72fc1 <periph.io/x/conn/v3/physic.(*RelativeHumidity).Set@@Base+0x961>
 4b72e0b:	48 89 ce             	mov    %rcx,%rsi
 4b72e0e:	48 29 d1             	sub    %rdx,%rcx
 4b72e11:	48 89 cf             	mov    %rcx,%rdi
 4b72e14:	48 f7 d9             	neg    %rcx
 4b72e17:	48 c1 f9 3f          	sar    $0x3f,%rcx
 4b72e1b:	48 21 ca             	and    %rcx,%rdx
 4b72e1e:	4c 01 ea             	add    %r13,%rdx
 4b72e21:	49 39 ff             	cmp    %rdi,%r15
 4b72e24:	74 04                	je     4b72e2a <periph.io/x/conn/v3/physic.(*RelativeHumidity).Set@@Base+0x7ca>
 4b72e26:	31 c9                	xor    %ecx,%ecx
 4b72e28:	eb 5e                	jmp    4b72e88 <periph.io/x/conn/v3/physic.(*RelativeHumidity).Set@@Base+0x828>
 4b72e2a:	4c 89 7c 24 48       	mov    %r15,0x48(%rsp)
 4b72e2f:	48 89 9c 24 c8 00 00 	mov    %rbx,0xc8(%rsp)
 4b72e36:	00 
 4b72e37:	48 89 84 24 b0 00 00 	mov    %rax,0xb0(%rsp)
 4b72e3e:	00 
 4b72e3f:	4c 89 a4 24 18 01 00 	mov    %r12,0x118(%rsp)
 4b72e46:	00 
 4b72e47:	48 89 d0             	mov    %rdx,%rax
 4b72e4a:	48 89 f9             	mov    %rdi,%rcx
 4b72e4d:	e8 ce 0c 37 fd       	call   1ee3b20 <runtime.memequal@@Base>
 4b72e52:	48 8b 9c 24 c8 00 00 	mov    0xc8(%rsp),%rbx
 4b72e59:	00 
 4b72e5a:	48 8b b4 24 c0 00 00 	mov    0xc0(%rsp),%rsi
 4b72e61:	00 
 4b72e62:	4c 8b a4 24 18 01 00 	mov    0x118(%rsp),%r12
 4b72e69:	00 
 4b72e6a:	4c 8b ac 24 28 01 00 	mov    0x128(%rsp),%r13
 4b72e71:	00 
 4b72e72:	4c 8b 7c 24 48       	mov    0x48(%rsp),%r15
 4b72e77:	89 c1                	mov    %eax,%ecx
 4b72e79:	48 8b 84 24 b0 00 00 	mov    0xb0(%rsp),%rax
 4b72e80:	00 
 4b72e81:	eb 05                	jmp    4b72e88 <periph.io/x/conn/v3/physic.(*RelativeHumidity).Set@@Base+0x828>
 4b72e83:	48 89 d6             	mov    %rdx,%rsi
 4b72e86:	31 c9                	xor    %ecx,%ecx
 4b72e88:	84 c9                	test   %cl,%cl
 4b72e8a:	0f 84 3e ff ff ff    	je     4b72dce <periph.io/x/conn/v3/physic.(*RelativeHumidity).Set@@Base+0x76e>
 4b72e90:	eb 0e                	jmp    4b72ea0 <periph.io/x/conn/v3/physic.(*RelativeHumidity).Set@@Base+0x840>
 4b72e92:	45 31 ff             	xor    %r15d,%r15d
 4b72e95:	31 db                	xor    %ebx,%ebx
 4b72e97:	66 0f 1f 84 00 00 00 	nopw   0x0(%rax,%rax,1)
 4b72e9e:	00 00 
 4b72ea0:	4d 85 ff             	test   %r15,%r15
 4b72ea3:	0f 84 96 00 00 00    	je     4b72f3f <periph.io/x/conn/v3/physic.(*RelativeHumidity).Set@@Base+0x8df>
 4b72ea9:	31 c0                	xor    %eax,%eax
 4b72eab:	b9 29 00 00 00       	mov    $0x29,%ecx
 4b72eb0:	48 89 df             	mov    %rbx,%rdi
 4b72eb3:	4c 89 fe             	mov    %r15,%rsi
 4b72eb6:	4c 8d 05 82 ac 0e 00 	lea    0xeac82(%rip),%r8        # 4c5db3f <_IO_stdin_used@@Base+0x2ab3f>
 4b72ebd:	41 b9 06 00 00 00    	mov    $0x6,%r9d
 4b72ec3:	4c 8d 15 26 b5 25 00 	lea    0x25b526(%rip),%r10        # 4dce3f0 <_IO_stdin_used@@Base+0x19b3f0>
 4b72eca:	41 bb 15 00 00 00    	mov    $0x15,%r11d
 4b72ed0:	48 8d 1d 5e ae 2a 00 	lea    0x2aae5e(%rip),%rbx        # 4e1dd35 <_IO_stdin_used@@Base+0x1ead35>
 4b72ed7:	e8 c4 75 3c fd       	call   1f3a4a0 <runtime.concatstring4@@Base>
 4b72edc:	48 89 84 24 d8 00 00 	mov    %rax,0xd8(%rsp)
 4b72ee3:	00 
 4b72ee4:	48 89 5c 24 60       	mov    %rbx,0x60(%rsp)
 4b72ee9:	48 8d 05 10 14 f0 00 	lea    0xf01410(%rip),%rax        # 5a74300 <type:hE5I1The@@Base>
 4b72ef0:	e8 eb d5 37 fd       	call   1ef04e0 <runtime.newobject@@Base>
 4b72ef5:	48 8b 54 24 60       	mov    0x60(%rsp),%rdx
 4b72efa:	48 89 50 08          	mov    %rdx,0x8(%rax)
 4b72efe:	83 3d 5b 8a 30 03 00 	cmpl   $0x0,0x3308a5b(%rip)        # 7e7b960 <runtime.writeBarrier@@Base>
 4b72f05:	75 0d                	jne    4b72f14 <periph.io/x/conn/v3/physic.(*RelativeHumidity).Set@@Base+0x8b4>
 4b72f07:	48 8b 8c 24 d8 00 00 	mov    0xd8(%rsp),%rcx
 4b72f0e:	00 
 4b72f0f:	48 89 08             	mov    %rcx,(%rax)
 4b72f12:	eb 11                	jmp    4b72f25 <periph.io/x/conn/v3/physic.(*RelativeHumidity).Set@@Base+0x8c5>
 4b72f14:	48 89 c7             	mov    %rax,%rdi
 4b72f17:	48 8b 8c 24 d8 00 00 	mov    0xd8(%rsp),%rcx
 4b72f1e:	00 
 4b72f1f:	90                   	nop
 4b72f20:	e8 db 37 3e fd       	call   1f56700 <runtime.gcWriteBarrierCX@@Base>
 4b72f25:	48 89 c3             	mov    %rax,%rbx
 4b72f28:	48 8d 05 91 af 38 01 	lea    0x138af91(%rip),%rax        # 5efdec0 <go:itab.*errors.errorString,error@@Base>
 4b72f2f:	48 8b ac 24 70 01 00 	mov    0x170(%rsp),%rbp
 4b72f36:	00 
 4b72f37:	48 81 c4 78 01 00 00 	add    $0x178,%rsp
 4b72f3e:	c3                   	ret
 4b72f3f:	31 c0                	xor    %eax,%eax
 4b72f41:	48 8d 1d 30 79 27 00 	lea    0x277930(%rip),%rbx        # 4dea878 <_IO_stdin_used@@Base+0x1b7878>
 4b72f48:	b9 1c 00 00 00       	mov    $0x1c,%ecx
 4b72f4d:	48 8d 3d d9 ed 0e 00 	lea    0xeedd9(%rip),%rdi        # 4c61d2d <_IO_stdin_used@@Base+0x2ed2d>
 4b72f54:	be 08 00 00 00       	mov    $0x8,%esi
 4b72f59:	e8 c2 73 3c fd       	call   1f3a320 <runtime.concatstring2@@Base>
 4b72f5e:	48 89 84 24 d0 00 00 	mov    %rax,0xd0(%rsp)
 4b72f65:	00 
 4b72f66:	48 89 5c 24 58       	mov    %rbx,0x58(%rsp)
 4b72f6b:	48 8d 05 8e 13 f0 00 	lea    0xf0138e(%rip),%rax        # 5a74300 <type:hE5I1The@@Base>
 4b72f72:	e8 69 d5 37 fd       	call   1ef04e0 <runtime.newobject@@Base>
 4b72f77:	48 8b 54 24 58       	mov    0x58(%rsp),%rdx
 4b72f7c:	48 89 50 08          	mov    %rdx,0x8(%rax)
 4b72f80:	83 3d d9 89 30 03 00 	cmpl   $0x0,0x33089d9(%rip)        # 7e7b960 <runtime.writeBarrier@@Base>
 4b72f87:	75 0d                	jne    4b72f96 <periph.io/x/conn/v3/physic.(*RelativeHumidity).Set@@Base+0x936>
 4b72f89:	48 8b 8c 24 d0 00 00 	mov    0xd0(%rsp),%rcx
 4b72f90:	00 
 4b72f91:	48 89 08             	mov    %rcx,(%rax)
 4b72f94:	eb 10                	jmp    4b72fa6 <periph.io/x/conn/v3/physic.(*RelativeHumidity).Set@@Base+0x946>
 4b72f96:	48 89 c7             	mov    %rax,%rdi
 4b72f99:	48 8b 8c 24 d0 00 00 	mov    0xd0(%rsp),%rcx
 4b72fa0:	00 
 4b72fa1:	e8 5a 37 3e fd       	call   1f56700 <runtime.gcWriteBarrierCX@@Base>
 4b72fa6:	48 89 c3             	mov    %rax,%rbx
 4b72fa9:	48 8d 05 10 af 38 01 	lea    0x138af10(%rip),%rax        # 5efdec0 <go:itab.*errors.errorString,error@@Base>
 4b72fb0:	48 8b ac 24 70 01 00 	mov    0x170(%rsp),%rbp
 4b72fb7:	00 
 4b72fb8:	48 81 c4 78 01 00 00 	add    $0x178,%rsp
 4b72fbf:	90                   	nop
 4b72fc0:	c3                   	ret
 4b72fc1:	48 89 d0             	mov    %rdx,%rax
 4b72fc4:	e8 97 3b 3e fd       	call   1f56b60 <runtime.panicSliceB@@Base>
 4b72fc9:	48 89 d8             	mov    %rbx,%rax
 4b72fcc:	e8 8f 3b 3e fd       	call   1f56b60 <runtime.panicSliceB@@Base>
 4b72fd1:	90                   	nop
 4b72fd2:	48 89 44 24 08       	mov    %rax,0x8(%rsp)
 4b72fd7:	48 89 5c 24 10       	mov    %rbx,0x10(%rsp)
 4b72fdc:	48 89 4c 24 18       	mov    %rcx,0x18(%rsp)
 4b72fe1:	e8 7a 14 3e fd       	call   1f54460 <runtime.morestack_noctxt.abi0@@Base>
 4b72fe6:	48 8b 44 24 08       	mov    0x8(%rsp),%rax
 4b72feb:	48 8b 5c 24 10       	mov    0x10(%rsp),%rbx
 4b72ff0:	48 8b 4c 24 18       	mov    0x18(%rsp),%rcx
 4b72ff5:	e9 66 f6 ff ff       	jmp    4b72660 <periph.io/x/conn/v3/physic.(*RelativeHumidity).Set@@Base>
 4b72ffa:	cc                   	int3
 4b72ffb:	cc                   	int3
 4b72ffc:	cc                   	int3
 4b72ffd:	cc                   	int3
 4b72ffe:	cc                   	int3
 4b72fff:	cc                   	int3

0000000004b73000 <periph.io/x/conn/v3/physic.Temperature.String@@Base>:
 4b73000:	49 3b 66 10          	cmp    0x10(%r14),%rsp
 4b73004:	0f 86 87 00 00 00    	jbe    4b73091 <periph.io/x/conn/v3/physic.Temperature.String@@Base+0x91>
 4b7300a:	48 83 ec 30          	sub    $0x30,%rsp
 4b7300e:	48 89 6c 24 28       	mov    %rbp,0x28(%rsp)
 4b73013:	48 8d 6c 24 28       	lea    0x28(%rsp),%rbp
 4b73018:	48 b9 80 3b 02 99 3f 	movabs $0x3f99023b80,%rcx
 4b7301f:	00 00 00 
 4b73022:	48 01 c1             	add    %rax,%rcx
 4b73025:	48 ba ff ff ff ff ff 	movabs $0x7fffffffffffffff,%rdx
 4b7302c:	ff ff 7f 
 4b7302f:	48 39 ca             	cmp    %rcx,%rdx
 4b73032:	73 28                	jae    4b7305c <periph.io/x/conn/v3/physic.Temperature.String@@Base+0x5c>
 4b73034:	e8 47 14 00 00       	call   4b74480 <periph.io/x/conn/v3/physic.nanoAsString@@Base>
 4b73039:	48 89 d9             	mov    %rbx,%rcx
 4b7303c:	48 8d 3d 6d ea 96 00 	lea    0x96ea6d(%rip),%rdi        # 54e1ab0 <go:link.pkghashbytes.vendor/golang.org/x/text/unicode/norm@@Base+0x30>
 4b73043:	be 01 00 00 00       	mov    $0x1,%esi
 4b73048:	48 89 c3             	mov    %rax,%rbx
 4b7304b:	31 c0                	xor    %eax,%eax
 4b7304d:	e8 ce 72 3c fd       	call   1f3a320 <runtime.concatstring2@@Base>
 4b73052:	48 8b 6c 24 28       	mov    0x28(%rsp),%rbp
 4b73057:	48 83 c4 30          	add    $0x30,%rsp
 4b7305b:	c3                   	ret
 4b7305c:	48 b9 80 c4 fd 66 c0 	movabs $0xffffffc066fdc480,%rcx
 4b73063:	ff ff ff 
 4b73066:	48 01 c8             	add    %rcx,%rax
 4b73069:	e8 12 14 00 00       	call   4b74480 <periph.io/x/conn/v3/physic.nanoAsString@@Base>
 4b7306e:	48 89 d9             	mov    %rbx,%rcx
 4b73071:	48 8d 3d 71 0f 0c 00 	lea    0xc0f71(%rip),%rdi        # 4c33fe9 <_IO_stdin_used@@Base+0xfe9>
 4b73078:	be 03 00 00 00       	mov    $0x3,%esi
 4b7307d:	48 89 c3             	mov    %rax,%rbx
 4b73080:	31 c0                	xor    %eax,%eax
 4b73082:	e8 99 72 3c fd       	call   1f3a320 <runtime.concatstring2@@Base>
 4b73087:	48 8b 6c 24 28       	mov    0x28(%rsp),%rbp
 4b7308c:	48 83 c4 30          	add    $0x30,%rsp
 4b73090:	c3                   	ret
 4b73091:	48 89 44 24 08       	mov    %rax,0x8(%rsp)
 4b73096:	e8 c5 13 3e fd       	call   1f54460 <runtime.morestack_noctxt.abi0@@Base>
 4b7309b:	48 8b 44 24 08       	mov    0x8(%rsp),%rax
 4b730a0:	e9 5b ff ff ff       	jmp    4b73000 <periph.io/x/conn/v3/physic.Temperature.String@@Base>
 4b730a5:	cc                   	int3
 4b730a6:	cc                   	int3
 4b730a7:	cc                   	int3
 4b730a8:	cc                   	int3
 4b730a9:	cc                   	int3
 4b730aa:	cc                   	int3
 4b730ab:	cc                   	int3
 4b730ac:	cc                   	int3
 4b730ad:	cc                   	int3
 4b730ae:	cc                   	int3
 4b730af:	cc                   	int3
 4b730b0:	cc                   	int3
 4b730b1:	cc                   	int3
 4b730b2:	cc                   	int3
 4b730b3:	cc                   	int3
 4b730b4:	cc                   	int3
 4b730b5:	cc                   	int3
 4b730b6:	cc                   	int3
 4b730b7:	cc                   	int3
 4b730b8:	cc                   	int3
 4b730b9:	cc                   	int3
 4b730ba:	cc                   	int3
 4b730bb:	cc                   	int3
 4b730bc:	cc                   	int3
 4b730bd:	cc                   	int3
 4b730be:	cc                   	int3
 4b730bf:	cc                   	int3

0000000004b730c0 <periph.io/x/conn/v3/physic.(*Temperature).Set@@Base>:
 4b730c0:	4c 8d a4 24 60 fd ff 	lea    -0x2a0(%rsp),%r12
 4b730c7:	ff 
 4b730c8:	4d 3b 66 10          	cmp    0x10(%r14),%r12
 4b730cc:	0f 86 82 12 00 00    	jbe    4b74354 <periph.io/x/conn/v3/physic.(*Temperature).Set@@Base+0x1294>
 4b730d2:	48 81 ec 20 03 00 00 	sub    $0x320,%rsp
 4b730d9:	48 89 ac 24 18 03 00 	mov    %rbp,0x318(%rsp)
 4b730e0:	00 
 4b730e1:	48 8d ac 24 18 03 00 	lea    0x318(%rsp),%rbp
 4b730e8:	00 
 4b730e9:	48 89 84 24 28 03 00 	mov    %rax,0x328(%rsp)
 4b730f0:	00 
 4b730f1:	48 89 8c 24 38 03 00 	mov    %rcx,0x338(%rsp)
 4b730f8:	00 
 4b730f9:	48 89 9c 24 30 03 00 	mov    %rbx,0x330(%rsp)
 4b73100:	00 
 4b73101:	48 89 d8             	mov    %rbx,%rax
 4b73104:	48 89 cb             	mov    %rcx,%rbx
 4b73107:	e8 74 1d 00 00       	call   4b74e80 <periph.io/x/conn/v3/physic.atod@@Base>
 4b7310c:	48 89 bc 24 f8 00 00 	mov    %rdi,0xf8(%rsp)
 4b73113:	00 
 4b73114:	48 85 f6             	test   %rsi,%rsi
 4b73117:	0f 85 8a 0b 00 00    	jne    4b73ca7 <periph.io/x/conn/v3/physic.(*Temperature).Set@@Base+0xbe7>
 4b7311d:	88 4c 24 4f          	mov    %cl,0x4f(%rsp)
 4b73121:	48 8b 94 24 38 03 00 	mov    0x338(%rsp),%rdx
 4b73128:	00 
 4b73129:	48 39 d7             	cmp    %rdx,%rdi
 4b7312c:	75 07                	jne    4b73135 <periph.io/x/conn/v3/physic.(*Temperature).Set@@Base+0x75>
 4b7312e:	31 f6                	xor    %esi,%esi
 4b73130:	e9 4b 01 00 00       	jmp    4b73280 <periph.io/x/conn/v3/physic.(*Temperature).Set@@Base+0x1c0>
 4b73135:	0f 87 0d 12 00 00    	ja     4b74348 <periph.io/x/conn/v3/physic.(*Temperature).Set@@Base+0x1288>
 4b7313b:	48 89 9c 24 20 01 00 	mov    %rbx,0x120(%rsp)
 4b73142:	00 
 4b73143:	48 89 84 24 18 01 00 	mov    %rax,0x118(%rsp)
 4b7314a:	00 
 4b7314b:	48 89 d3             	mov    %rdx,%rbx
 4b7314e:	48 29 fb             	sub    %rdi,%rbx
 4b73151:	48 89 d9             	mov    %rbx,%rcx
 4b73154:	48 f7 db             	neg    %rbx
 4b73157:	48 c1 fb 3f          	sar    $0x3f,%rbx
 4b7315b:	48 21 fb             	and    %rdi,%rbx
 4b7315e:	48 8b b4 24 30 03 00 	mov    0x330(%rsp),%rsi
 4b73165:	00 
 4b73166:	48 8d 04 1e          	lea    (%rsi,%rbx,1),%rax
 4b7316a:	48 89 cb             	mov    %rcx,%rbx
 4b7316d:	e8 0e 7f 3f fd       	call   1f6b080 <unicode/utf8.DecodeRuneInString@@Base>
 4b73172:	83 f8 01             	cmp    $0x1,%eax
 4b73175:	0f 8e f4 0a 00 00    	jle    4b73c6f <periph.io/x/conn/v3/physic.(*Temperature).Set@@Base+0xbaf>
 4b7317b:	0f 1f 44 00 00       	nopl   0x0(%rax,%rax,1)
 4b73180:	48 85 db             	test   %rbx,%rbx
 4b73183:	0f 84 e6 0a 00 00    	je     4b73c6f <periph.io/x/conn/v3/physic.(*Temperature).Set@@Base+0xbaf>
 4b73189:	83 f8 6b             	cmp    $0x6b,%eax
 4b7318c:	7f 54                	jg     4b731e2 <periph.io/x/conn/v3/physic.(*Temperature).Set@@Base+0x122>
 4b7318e:	83 f8 4d             	cmp    $0x4d,%eax
 4b73191:	7f 2d                	jg     4b731c0 <periph.io/x/conn/v3/physic.(*Temperature).Set@@Base+0x100>
 4b73193:	83 f8 47             	cmp    $0x47,%eax
 4b73196:	75 0f                	jne    4b731a7 <periph.io/x/conn/v3/physic.(*Temperature).Set@@Base+0xe7>
 4b73198:	b8 01 00 00 00       	mov    $0x1,%eax
 4b7319d:	b9 09 00 00 00       	mov    $0x9,%ecx
 4b731a2:	e9 a7 00 00 00       	jmp    4b7324e <periph.io/x/conn/v3/physic.(*Temperature).Set@@Base+0x18e>
 4b731a7:	83 f8 4d             	cmp    $0x4d,%eax
 4b731aa:	0f 85 9a 00 00 00    	jne    4b7324a <periph.io/x/conn/v3/physic.(*Temperature).Set@@Base+0x18a>
 4b731b0:	b8 01 00 00 00       	mov    $0x1,%eax
 4b731b5:	b9 06 00 00 00       	mov    $0x6,%ecx
 4b731ba:	e9 8f 00 00 00       	jmp    4b7324e <periph.io/x/conn/v3/physic.(*Temperature).Set@@Base+0x18e>
 4b731bf:	90                   	nop
 4b731c0:	83 f8 54             	cmp    $0x54,%eax
 4b731c3:	75 0c                	jne    4b731d1 <periph.io/x/conn/v3/physic.(*Temperature).Set@@Base+0x111>
 4b731c5:	b8 01 00 00 00       	mov    $0x1,%eax
 4b731ca:	b9 0c 00 00 00       	mov    $0xc,%ecx
 4b731cf:	eb 7d                	jmp    4b7324e <periph.io/x/conn/v3/physic.(*Temperature).Set@@Base+0x18e>
 4b731d1:	83 f8 6b             	cmp    $0x6b,%eax
 4b731d4:	75 74                	jne    4b7324a <periph.io/x/conn/v3/physic.(*Temperature).Set@@Base+0x18a>
 4b731d6:	b8 01 00 00 00       	mov    $0x1,%eax
 4b731db:	b9 03 00 00 00       	mov    $0x3,%ecx
 4b731e0:	eb 6c                	jmp    4b7324e <periph.io/x/conn/v3/physic.(*Temperature).Set@@Base+0x18e>
 4b731e2:	83 f8 6e             	cmp    $0x6e,%eax
 4b731e5:	7f 26                	jg     4b7320d <periph.io/x/conn/v3/physic.(*Temperature).Set@@Base+0x14d>
 4b731e7:	83 f8 6d             	cmp    $0x6d,%eax
 4b731ea:	75 0e                	jne    4b731fa <periph.io/x/conn/v3/physic.(*Temperature).Set@@Base+0x13a>
 4b731ec:	b8 01 00 00 00       	mov    $0x1,%eax
 4b731f1:	48 c7 c1 fd ff ff ff 	mov    $0xfffffffffffffffd,%rcx
 4b731f8:	eb 54                	jmp    4b7324e <periph.io/x/conn/v3/physic.(*Temperature).Set@@Base+0x18e>
 4b731fa:	83 f8 6e             	cmp    $0x6e,%eax
 4b731fd:	75 4b                	jne    4b7324a <periph.io/x/conn/v3/physic.(*Temperature).Set@@Base+0x18a>
 4b731ff:	b8 01 00 00 00       	mov    $0x1,%eax
 4b73204:	48 c7 c1 f7 ff ff ff 	mov    $0xfffffffffffffff7,%rcx
 4b7320b:	eb 41                	jmp    4b7324e <periph.io/x/conn/v3/physic.(*Temperature).Set@@Base+0x18e>
 4b7320d:	83 f8 70             	cmp    $0x70,%eax
 4b73210:	75 10                	jne    4b73222 <periph.io/x/conn/v3/physic.(*Temperature).Set@@Base+0x162>
 4b73212:	b8 01 00 00 00       	mov    $0x1,%eax
 4b73217:	48 c7 c1 f4 ff ff ff 	mov    $0xfffffffffffffff4,%rcx
 4b7321e:	66 90                	xchg   %ax,%ax
 4b73220:	eb 2c                	jmp    4b7324e <periph.io/x/conn/v3/physic.(*Temperature).Set@@Base+0x18e>
 4b73222:	83 f8 75             	cmp    $0x75,%eax
 4b73225:	75 0e                	jne    4b73235 <periph.io/x/conn/v3/physic.(*Temperature).Set@@Base+0x175>
 4b73227:	b8 01 00 00 00       	mov    $0x1,%eax
 4b7322c:	48 c7 c1 fa ff ff ff 	mov    $0xfffffffffffffffa,%rcx
 4b73233:	eb 19                	jmp    4b7324e <periph.io/x/conn/v3/physic.(*Temperature).Set@@Base+0x18e>
 4b73235:	3d b5 00 00 00       	cmp    $0xb5,%eax
 4b7323a:	75 0e                	jne    4b7324a <periph.io/x/conn/v3/physic.(*Temperature).Set@@Base+0x18a>
 4b7323c:	b8 02 00 00 00       	mov    $0x2,%eax
 4b73241:	48 c7 c1 fa ff ff ff 	mov    $0xfffffffffffffffa,%rcx
 4b73248:	eb 04                	jmp    4b7324e <periph.io/x/conn/v3/physic.(*Temperature).Set@@Base+0x18e>
 4b7324a:	31 c0                	xor    %eax,%eax
 4b7324c:	31 c9                	xor    %ecx,%ecx
 4b7324e:	48 8b 94 24 f8 00 00 	mov    0xf8(%rsp),%rdx
 4b73255:	00 
 4b73256:	48 8d 3c 10          	lea    (%rax,%rdx,1),%rdi
 4b7325a:	48 8b 84 24 18 01 00 	mov    0x118(%rsp),%rax
 4b73261:	00 
 4b73262:	48 8b 94 24 38 03 00 	mov    0x338(%rsp),%rdx
 4b73269:	00 
 4b7326a:	48 8b 9c 24 20 01 00 	mov    0x120(%rsp),%rbx
 4b73271:	00 
 4b73272:	48 89 ce             	mov    %rcx,%rsi
 4b73275:	0f b6 4c 24 4f       	movzbl 0x4f(%rsp),%ecx
 4b7327a:	66 0f 1f 44 00 00    	nopw   0x0(%rax,%rax,1)
 4b73280:	48 39 fa             	cmp    %rdi,%rdx
 4b73283:	0f 82 b4 10 00 00    	jb     4b7433d <periph.io/x/conn/v3/physic.(*Temperature).Set@@Base+0x127d>
 4b73289:	48 29 fa             	sub    %rdi,%rdx
 4b7328c:	49 89 d4             	mov    %rdx,%r12
 4b7328f:	48 f7 da             	neg    %rdx
 4b73292:	48 c1 fa 3f          	sar    $0x3f,%rdx
 4b73296:	48 21 d7             	and    %rdx,%rdi
 4b73299:	48 8b 94 24 30 03 00 	mov    0x330(%rsp),%rdx
 4b732a0:	00 
 4b732a1:	4c 8d 2c 3a          	lea    (%rdx,%rdi,1),%r13
 4b732a5:	4d 85 e4             	test   %r12,%r12
 4b732a8:	0f 84 40 09 00 00    	je     4b73bee <periph.io/x/conn/v3/physic.(*Temperature).Set@@Base+0xb2e>
 4b732ae:	48 89 b4 24 e8 00 00 	mov    %rsi,0xe8(%rsp)
 4b732b5:	00 
 4b732b6:	66 0f 1f 84 00 00 00 	nopw   0x0(%rax,%rax,1)
 4b732bd:	00 00 
 4b732bf:	90                   	nop
 4b732c0:	49 83 fc 01          	cmp    $0x1,%r12
 4b732c4:	0f 85 27 02 00 00    	jne    4b734f1 <periph.io/x/conn/v3/physic.(*Temperature).Set@@Base+0x431>
 4b732ca:	0f b6 14 3a          	movzbl (%rdx,%rdi,1),%edx
 4b732ce:	80 fa 43             	cmp    $0x43,%dl
 4b732d1:	0f 84 4f 02 00 00    	je     4b73526 <periph.io/x/conn/v3/physic.(*Temperature).Set@@Base+0x466>
 4b732d7:	66 0f 1f 84 00 00 00 	nopw   0x0(%rax,%rax,1)
 4b732de:	00 00 
 4b732e0:	80 fa 46             	cmp    $0x46,%dl
 4b732e3:	0f 84 2d 05 00 00    	je     4b73816 <periph.io/x/conn/v3/physic.(*Temperature).Set@@Base+0x756>
 4b732e9:	80 fa 4b             	cmp    $0x4b,%dl
 4b732ec:	0f 85 37 08 00 00    	jne    4b73b29 <periph.io/x/conn/v3/physic.(*Temperature).Set@@Base+0xa69>
 4b732f2:	48 8d 7e 09          	lea    0x9(%rsi),%rdi
 4b732f6:	e8 45 1a 00 00       	call   4b74d40 <periph.io/x/conn/v3/physic.dtoi@@Base>
 4b732fb:	0f 1f 44 00 00       	nopl   0x0(%rax,%rax,1)
 4b73300:	84 db                	test   %bl,%bl
 4b73302:	0f 84 4b 01 00 00    	je     4b73453 <periph.io/x/conn/v3/physic.(*Temperature).Set@@Base+0x393>
 4b73308:	0f b6 54 24 4f       	movzbl 0x4f(%rsp),%edx
 4b7330d:	84 d2                	test   %dl,%dl
 4b7330f:	0f 84 8a 00 00 00    	je     4b7339f <periph.io/x/conn/v3/physic.(*Temperature).Set@@Base+0x2df>
 4b73315:	31 c0                	xor    %eax,%eax
 4b73317:	48 8d 1d f6 d4 19 00 	lea    0x19d4f6(%rip),%rbx        # 4d10814 <_IO_stdin_used@@Base+0xdd814>
 4b7331e:	b9 11 00 00 00       	mov    $0x11,%ecx
 4b73323:	48 8d 3d ba fd 0b 00 	lea    0xbfdba(%rip),%rdi        # 4c330e4 <_IO_stdin_used@@Base+0xe4>
 4b7332a:	be 02 00 00 00       	mov    $0x2,%esi
 4b7332f:	e8 ec 6f 3c fd       	call   1f3a320 <runtime.concatstring2@@Base>
 4b73334:	48 89 84 24 18 02 00 	mov    %rax,0x218(%rsp)
 4b7333b:	00 
 4b7333c:	48 89 9c 24 a8 00 00 	mov    %rbx,0xa8(%rsp)
 4b73343:	00 
 4b73344:	48 8d 05 b5 0f f0 00 	lea    0xf00fb5(%rip),%rax        # 5a74300 <type:hE5I1The@@Base>
 4b7334b:	e8 90 d1 37 fd       	call   1ef04e0 <runtime.newobject@@Base>
 4b73350:	48 8b 94 24 a8 00 00 	mov    0xa8(%rsp),%rdx
 4b73357:	00 
 4b73358:	48 89 50 08          	mov    %rdx,0x8(%rax)
 4b7335c:	83 3d fd 85 30 03 00 	cmpl   $0x0,0x33085fd(%rip)        # 7e7b960 <runtime.writeBarrier@@Base>
 4b73363:	75 0d                	jne    4b73372 <periph.io/x/conn/v3/physic.(*Temperature).Set@@Base+0x2b2>
 4b73365:	48 8b 8c 24 18 02 00 	mov    0x218(%rsp),%rcx
 4b7336c:	00 
 4b7336d:	48 89 08             	mov    %rcx,(%rax)
 4b73370:	eb 13                	jmp    4b73385 <periph.io/x/conn/v3/physic.(*Temperature).Set@@Base+0x2c5>
 4b73372:	48 89 c7             	mov    %rax,%rdi
 4b73375:	48 8b 8c 24 18 02 00 	mov    0x218(%rsp),%rcx
 4b7337c:	00 
 4b7337d:	0f 1f 00             	nopl   (%rax)
 4b73380:	e8 7b 33 3e fd       	call   1f56700 <runtime.gcWriteBarrierCX@@Base>
 4b73385:	48 89 c3             	mov    %rax,%rbx
 4b73388:	48 8d 05 31 ab 38 01 	lea    0x138ab31(%rip),%rax        # 5efdec0 <go:itab.*errors.errorString,error@@Base>
 4b7338f:	48 8b ac 24 18 03 00 	mov    0x318(%rsp),%rbp
 4b73396:	00 
 4b73397:	48 81 c4 20 03 00 00 	add    $0x320,%rsp
 4b7339e:	c3                   	ret
 4b7339f:	48 b8 04 7d c1 25 02 	movabs $0x225c17d04,%rax
 4b733a6:	00 00 00 
 4b733a9:	bb 0a 00 00 00       	mov    $0xa,%ebx
 4b733ae:	e8 2d 07 40 fd       	call   1f73ae0 <strconv.FormatInt@@Base>
 4b733b3:	48 89 d9             	mov    %rbx,%rcx
 4b733b6:	48 8d 3d f3 e6 96 00 	lea    0x96e6f3(%rip),%rdi        # 54e1ab0 <go:link.pkghashbytes.vendor/golang.org/x/text/unicode/norm@@Base+0x30>
 4b733bd:	be 01 00 00 00       	mov    $0x1,%esi
 4b733c2:	48 89 c3             	mov    %rax,%rbx
 4b733c5:	48 8d 84 24 68 01 00 	lea    0x168(%rsp),%rax
 4b733cc:	00 
 4b733cd:	e8 4e 6f 3c fd       	call   1f3a320 <runtime.concatstring2@@Base>
 4b733d2:	b9 11 00 00 00       	mov    $0x11,%ecx
 4b733d7:	48 89 c7             	mov    %rax,%rdi
 4b733da:	48 89 de             	mov    %rbx,%rsi
 4b733dd:	31 c0                	xor    %eax,%eax
 4b733df:	48 8d 1d d9 d3 19 00 	lea    0x19d3d9(%rip),%rbx        # 4d107bf <_IO_stdin_used@@Base+0xdd7bf>
 4b733e6:	e8 35 6f 3c fd       	call   1f3a320 <runtime.concatstring2@@Base>
 4b733eb:	48 89 84 24 10 02 00 	mov    %rax,0x210(%rsp)
 4b733f2:	00 
 4b733f3:	48 89 9c 24 a0 00 00 	mov    %rbx,0xa0(%rsp)
 4b733fa:	00 
 4b733fb:	48 8d 05 fe 0e f0 00 	lea    0xf00efe(%rip),%rax        # 5a74300 <type:hE5I1The@@Base>
 4b73402:	e8 d9 d0 37 fd       	call   1ef04e0 <runtime.newobject@@Base>
 4b73407:	48 8b 8c 24 a0 00 00 	mov    0xa0(%rsp),%rcx
 4b7340e:	00 
 4b7340f:	48 89 48 08          	mov    %rcx,0x8(%rax)
 4b73413:	83 3d 46 85 30 03 00 	cmpl   $0x0,0x3308546(%rip)        # 7e7b960 <runtime.writeBarrier@@Base>
 4b7341a:	75 0d                	jne    4b73429 <periph.io/x/conn/v3/physic.(*Temperature).Set@@Base+0x369>
 4b7341c:	48 8b 8c 24 10 02 00 	mov    0x210(%rsp),%rcx
 4b73423:	00 
 4b73424:	48 89 08             	mov    %rcx,(%rax)
 4b73427:	eb 10                	jmp    4b73439 <periph.io/x/conn/v3/physic.(*Temperature).Set@@Base+0x379>
 4b73429:	48 89 c7             	mov    %rax,%rdi
 4b7342c:	48 8b 8c 24 10 02 00 	mov    0x210(%rsp),%rcx
 4b73433:	00 
 4b73434:	e8 c7 32 3e fd       	call   1f56700 <runtime.gcWriteBarrierCX@@Base>
 4b73439:	48 89 c3             	mov    %rax,%rbx
 4b7343c:	48 8d 05 7d aa 38 01 	lea    0x138aa7d(%rip),%rax        # 5efdec0 <go:itab.*errors.errorString,error@@Base>
 4b73443:	48 8b ac 24 18 03 00 	mov    0x318(%rsp),%rbp
 4b7344a:	00 
 4b7344b:	48 81 c4 20 03 00 00 	add    $0x320,%rsp
 4b73452:	c3                   	ret
 4b73453:	48 85 c0             	test   %rax,%rax
 4b73456:	7c 10                	jl     4b73468 <periph.io/x/conn/v3/physic.(*Temperature).Set@@Base+0x3a8>
 4b73458:	48 8b 8c 24 28 03 00 	mov    0x328(%rsp),%rcx
 4b7345f:	00 
 4b73460:	48 89 01             	mov    %rax,(%rcx)
 4b73463:	e9 68 05 00 00       	jmp    4b739d0 <periph.io/x/conn/v3/physic.(*Temperature).Set@@Base+0x910>
 4b73468:	31 c0                	xor    %eax,%eax
 4b7346a:	48 8d 1d a3 d3 19 00 	lea    0x19d3a3(%rip),%rbx        # 4d10814 <_IO_stdin_used@@Base+0xdd814>
 4b73471:	b9 11 00 00 00       	mov    $0x11,%ecx
 4b73476:	48 8d 3d 67 fc 0b 00 	lea    0xbfc67(%rip),%rdi        # 4c330e4 <_IO_stdin_used@@Base+0xe4>
 4b7347d:	be 02 00 00 00       	mov    $0x2,%esi
 4b73482:	e8 99 6e 3c fd       	call   1f3a320 <runtime.concatstring2@@Base>
 4b73487:	48 89 84 24 08 02 00 	mov    %rax,0x208(%rsp)
 4b7348e:	00 
 4b7348f:	48 89 9c 24 98 00 00 	mov    %rbx,0x98(%rsp)
 4b73496:	00 
 4b73497:	48 8d 05 62 0e f0 00 	lea    0xf00e62(%rip),%rax        # 5a74300 <type:hE5I1The@@Base>
 4b7349e:	66 90                	xchg   %ax,%ax
 4b734a0:	e8 3b d0 37 fd       	call   1ef04e0 <runtime.newobject@@Base>
 4b734a5:	48 8b 94 24 98 00 00 	mov    0x98(%rsp),%rdx
 4b734ac:	00 
 4b734ad:	48 89 50 08          	mov    %rdx,0x8(%rax)
 4b734b1:	83 3d a8 84 30 03 00 	cmpl   $0x0,0x33084a8(%rip)        # 7e7b960 <runtime.writeBarrier@@Base>
 4b734b8:	75 0d                	jne    4b734c7 <periph.io/x/conn/v3/physic.(*Temperature).Set@@Base+0x407>
 4b734ba:	48 8b 8c 24 08 02 00 	mov    0x208(%rsp),%rcx
 4b734c1:	00 
 4b734c2:	48 89 08             	mov    %rcx,(%rax)
 4b734c5:	eb 10                	jmp    4b734d7 <periph.io/x/conn/v3/physic.(*Temperature).Set@@Base+0x417>
 4b734c7:	48 89 c7             	mov    %rax,%rdi
 4b734ca:	48 8b 8c 24 08 02 00 	mov    0x208(%rsp),%rcx
 4b734d1:	00 
 4b734d2:	e8 29 32 3e fd       	call   1f56700 <runtime.gcWriteBarrierCX@@Base>
 4b734d7:	48 89 c3             	mov    %rax,%rbx
 4b734da:	48 8d 05 df a9 38 01 	lea    0x138a9df(%rip),%rax        # 5efdec0 <go:itab.*errors.errorString,error@@Base>
 4b734e1:	48 8b ac 24 18 03 00 	mov    0x318(%rsp),%rbp
 4b734e8:	00 
 4b734e9:	48 81 c4 20 03 00 00 	add    $0x320,%rsp
 4b734f0:	c3                   	ret
 4b734f1:	49 83 fc 03          	cmp    $0x3,%r12
 4b734f5:	0f 85 2e 06 00 00    	jne    4b73b29 <periph.io/x/conn/v3/physic.(*Temperature).Set@@Base+0xa69>
 4b734fb:	44 0f b7 3c 3a       	movzwl (%rdx,%rdi,1),%r15d
 4b73500:	66 41 81 ff c2 b0    	cmp    $0xb0c2,%r15w
 4b73506:	0f 85 f3 02 00 00    	jne    4b737ff <periph.io/x/conn/v3/physic.(*Temperature).Set@@Base+0x73f>
 4b7350c:	4d 89 e8             	mov    %r13,%r8
 4b7350f:	44 0f b6 6c 3a 02    	movzbl 0x2(%rdx,%rdi,1),%r13d
 4b73515:	41 80 fd 43          	cmp    $0x43,%r13b
 4b73519:	74 0b                	je     4b73526 <periph.io/x/conn/v3/physic.(*Temperature).Set@@Base+0x466>
 4b7351b:	66 41 81 ff c2 b0    	cmp    $0xb0c2,%r15w
 4b73521:	e9 dc 02 00 00       	jmp    4b73802 <periph.io/x/conn/v3/physic.(*Temperature).Set@@Base+0x742>
 4b73526:	48 8d 7e 09          	lea    0x9(%rsi),%rdi
 4b7352a:	e8 11 18 00 00       	call   4b74d40 <periph.io/x/conn/v3/physic.dtoi@@Base>
 4b7352f:	84 db                	test   %bl,%bl
 4b73531:	0f 84 4f 01 00 00    	je     4b73686 <periph.io/x/conn/v3/physic.(*Temperature).Set@@Base+0x5c6>
 4b73537:	0f b6 54 24 4f       	movzbl 0x4f(%rsp),%edx
 4b7353c:	0f 1f 40 00          	nopl   0x0(%rax)
 4b73540:	84 d2                	test   %dl,%dl
 4b73542:	0f 84 89 00 00 00    	je     4b735d1 <periph.io/x/conn/v3/physic.(*Temperature).Set@@Base+0x511>
 4b73548:	31 c0                	xor    %eax,%eax
 4b7354a:	48 8d 1d c3 d2 19 00 	lea    0x19d2c3(%rip),%rbx        # 4d10814 <_IO_stdin_used@@Base+0xdd814>
 4b73551:	b9 11 00 00 00       	mov    $0x11,%ecx
 4b73556:	48 8d 3d 5c 3f 0f 00 	lea    0xf3f5c(%rip),%rdi        # 4c674b9 <_IO_stdin_used@@Base+0x344b9>
 4b7355d:	be 0a 00 00 00       	mov    $0xa,%esi
 4b73562:	e8 b9 6d 3c fd       	call   1f3a320 <runtime.concatstring2@@Base>
 4b73567:	48 89 84 24 00 02 00 	mov    %rax,0x200(%rsp)
 4b7356e:	00 
 4b7356f:	48 89 9c 24 90 00 00 	mov    %rbx,0x90(%rsp)
 4b73576:	00 
 4b73577:	48 8d 05 82 0d f0 00 	lea    0xf00d82(%rip),%rax        # 5a74300 <type:hE5I1The@@Base>
 4b7357e:	66 90                	xchg   %ax,%ax
 4b73580:	e8 5b cf 37 fd       	call   1ef04e0 <runtime.newobject@@Base>
 4b73585:	48 8b 94 24 90 00 00 	mov    0x90(%rsp),%rdx
 4b7358c:	00 
 4b7358d:	48 89 50 08          	mov    %rdx,0x8(%rax)
 4b73591:	83 3d c8 83 30 03 00 	cmpl   $0x0,0x33083c8(%rip)        # 7e7b960 <runtime.writeBarrier@@Base>
 4b73598:	75 0d                	jne    4b735a7 <periph.io/x/conn/v3/physic.(*Temperature).Set@@Base+0x4e7>
 4b7359a:	48                   	rex.W
 4b7359b:	8b                   	.byte 0x8b
 4b7359c:	8c 24 00             	mov    %fs,(%rax,%rax,1)
 4b7359f:	02                   	.byte 0x2
