# github.com/lasselj/timebeat/beater/clocksync/clients/vendors/timebeat_timecard_mini.(*Controller).ConfigureTimeSource-fm
# addr 0x4ba65e0 size 12288 (0x3000)


/mnt/c/Users/SHIWA/GitHub/TimeCard-Mini/timebeat-extracted/usr/share/timebeat/bin/timebeat:     file format elf64-x86-64


Disassembly of section .text:

0000000004ba65e0 <github.com/lasselj/timebeat/beater/clocksync/clients/vendors/timebeat_timecard_mini.(*Controller).ConfigureTimeSource-fm@@Base>:
 4ba65e0:	49 3b 66 10          	cmp    0x10(%r14),%rsp
 4ba65e4:	76 4d                	jbe    4ba6633 <github.com/lasselj/timebeat/beater/clocksync/clients/vendors/timebeat_timecard_mini.(*Controller).ConfigureTimeSource-fm@@Base+0x53>
 4ba65e6:	48 83 ec 30          	sub    $0x30,%rsp
 4ba65ea:	48 89 6c 24 28       	mov    %rbp,0x28(%rsp)
 4ba65ef:	48 8d 6c 24 28       	lea    0x28(%rsp),%rbp
 4ba65f4:	4d 8b 66 20          	mov    0x20(%r14),%r12
 4ba65f8:	4d 85 e4             	test   %r12,%r12
 4ba65fb:	75 68                	jne    4ba6665 <github.com/lasselj/timebeat/beater/clocksync/clients/vendors/timebeat_timecard_mini.(*Controller).ConfigureTimeSource-fm@@Base+0x85>
 4ba65fd:	48 89 44 24 38       	mov    %rax,0x38(%rsp)
 4ba6602:	48 89 5c 24 40       	mov    %rbx,0x40(%rsp)
 4ba6607:	48 89 4c 24 48       	mov    %rcx,0x48(%rsp)
 4ba660c:	48 89 7c 24 50       	mov    %rdi,0x50(%rsp)
 4ba6611:	48 8b 52 08          	mov    0x8(%rdx),%rdx
 4ba6615:	48 89 fe             	mov    %rdi,%rsi
 4ba6618:	48 89 cf             	mov    %rcx,%rdi
 4ba661b:	48 89 d9             	mov    %rbx,%rcx
 4ba661e:	48 89 c3             	mov    %rax,%rbx
 4ba6621:	48 89 d0             	mov    %rdx,%rax
 4ba6624:	e8 b7 fa ff ff       	call   4ba60e0 <github.com/lasselj/timebeat/beater/clocksync/clients/vendors/timebeat_timecard_mini.(*Controller).ConfigureTimeSource@@Base>
 4ba6629:	48 8b 6c 24 28       	mov    0x28(%rsp),%rbp
 4ba662e:	48 83 c4 30          	add    $0x30,%rsp
 4ba6632:	c3                   	ret
 4ba6633:	48 89 44 24 08       	mov    %rax,0x8(%rsp)
 4ba6638:	48 89 5c 24 10       	mov    %rbx,0x10(%rsp)
 4ba663d:	48 89 4c 24 18       	mov    %rcx,0x18(%rsp)
 4ba6642:	48 89 7c 24 20       	mov    %rdi,0x20(%rsp)
 4ba6647:	e8 74 dd 3a fd       	call   1f543c0 <runtime.morestack.abi0@@Base>
 4ba664c:	48 8b 44 24 08       	mov    0x8(%rsp),%rax
 4ba6651:	48 8b 5c 24 10       	mov    0x10(%rsp),%rbx
 4ba6656:	48 8b 4c 24 18       	mov    0x18(%rsp),%rcx
 4ba665b:	48 8b 7c 24 20       	mov    0x20(%rsp),%rdi
 4ba6660:	e9 7b ff ff ff       	jmp    4ba65e0 <github.com/lasselj/timebeat/beater/clocksync/clients/vendors/timebeat_timecard_mini.(*Controller).ConfigureTimeSource-fm@@Base>
 4ba6665:	4c 8d 6c 24 38       	lea    0x38(%rsp),%r13
 4ba666a:	4d 39 2c 24          	cmp    %r13,(%r12)
 4ba666e:	75 8d                	jne    4ba65fd <github.com/lasselj/timebeat/beater/clocksync/clients/vendors/timebeat_timecard_mini.(*Controller).ConfigureTimeSource-fm@@Base+0x1d>
 4ba6670:	49 89 24 24          	mov    %rsp,(%r12)
 4ba6674:	eb 87                	jmp    4ba65fd <github.com/lasselj/timebeat/beater/clocksync/clients/vendors/timebeat_timecard_mini.(*Controller).ConfigureTimeSource-fm@@Base+0x1d>
 4ba6676:	cc                   	int3
 4ba6677:	cc                   	int3
 4ba6678:	cc                   	int3
 4ba6679:	cc                   	int3
 4ba667a:	cc                   	int3
 4ba667b:	cc                   	int3
 4ba667c:	cc                   	int3
 4ba667d:	cc                   	int3
 4ba667e:	cc                   	int3
 4ba667f:	cc                   	int3

0000000004ba6680 <github.com/vaughan0/go-ini.ErrSyntax.Error@@Base>:
 4ba6680:	49 3b 66 10          	cmp    0x10(%r14),%rsp
 4ba6684:	0f 86 87 00 00 00    	jbe    4ba6711 <github.com/vaughan0/go-ini.ErrSyntax.Error@@Base+0x91>
 4ba668a:	48 83 ec 60          	sub    $0x60,%rsp
 4ba668e:	48 89 6c 24 58       	mov    %rbp,0x58(%rsp)
 4ba6693:	48 8d 6c 24 58       	lea    0x58(%rsp),%rbp
 4ba6698:	48 89 5c 24 70       	mov    %rbx,0x70(%rsp)
 4ba669d:	48 89 5c 24 30       	mov    %rbx,0x30(%rsp)
 4ba66a2:	48 89 4c 24 28       	mov    %rcx,0x28(%rsp)
 4ba66a7:	44 0f 11 7c 24 38    	movups %xmm15,0x38(%rsp)
 4ba66ad:	44 0f 11 7c 24 48    	movups %xmm15,0x48(%rsp)
 4ba66b3:	e8 28 76 34 fd       	call   1eedce0 <runtime.convT64@@Base>
 4ba66b8:	48 8d 0d a1 3f c0 00 	lea    0xc03fa1(%rip),%rcx        # 57aa660 <type:int@@Base>
 4ba66bf:	48 89 4c 24 38       	mov    %rcx,0x38(%rsp)
 4ba66c4:	48 89 44 24 40       	mov    %rax,0x40(%rsp)
 4ba66c9:	48 8b 44 24 30       	mov    0x30(%rsp),%rax
 4ba66ce:	48 8b 5c 24 28       	mov    0x28(%rsp),%rbx
 4ba66d3:	e8 88 76 34 fd       	call   1eedd60 <runtime.convTstring@@Base>
 4ba66d8:	48 8d 0d c1 7f c0 00 	lea    0xc07fc1(%rip),%rcx        # 57ae6a0 <type:string@@Base>
 4ba66df:	48 89 4c 24 48       	mov    %rcx,0x48(%rsp)
 4ba66e4:	48 89 44 24 50       	mov    %rax,0x50(%rsp)
 4ba66e9:	48 8d 05 f3 77 25 00 	lea    0x2577f3(%rip),%rax        # 4dfdee3 <_IO_stdin_used@@Base+0x1caee3>
 4ba66f0:	bb 21 00 00 00       	mov    $0x21,%ebx
 4ba66f5:	48 8d 4c 24 38       	lea    0x38(%rsp),%rcx
 4ba66fa:	bf 02 00 00 00       	mov    $0x2,%edi
 4ba66ff:	48 89 fe             	mov    %rdi,%rsi
 4ba6702:	e8 f9 e1 44 fd       	call   1ff4900 <fmt.Sprintf@@Base>
 4ba6707:	48 8b 6c 24 58       	mov    0x58(%rsp),%rbp
 4ba670c:	48 83 c4 60          	add    $0x60,%rsp
 4ba6710:	c3                   	ret
 4ba6711:	48 89 44 24 08       	mov    %rax,0x8(%rsp)
 4ba6716:	48 89 5c 24 10       	mov    %rbx,0x10(%rsp)
 4ba671b:	48 89 4c 24 18       	mov    %rcx,0x18(%rsp)
 4ba6720:	e8 3b dd 3a fd       	call   1f54460 <runtime.morestack_noctxt.abi0@@Base>
 4ba6725:	48 8b 44 24 08       	mov    0x8(%rsp),%rax
 4ba672a:	48 8b 5c 24 10       	mov    0x10(%rsp),%rbx
 4ba672f:	48 8b 4c 24 18       	mov    0x18(%rsp),%rcx
 4ba6734:	e9 47 ff ff ff       	jmp    4ba6680 <github.com/vaughan0/go-ini.ErrSyntax.Error@@Base>
 4ba6739:	cc                   	int3
 4ba673a:	cc                   	int3
 4ba673b:	cc                   	int3
 4ba673c:	cc                   	int3
 4ba673d:	cc                   	int3
 4ba673e:	cc                   	int3
 4ba673f:	cc                   	int3

0000000004ba6740 <github.com/vaughan0/go-ini.File.Section@@Base>:
 4ba6740:	49 3b 66 10          	cmp    0x10(%r14),%rsp
 4ba6744:	0f 86 92 00 00 00    	jbe    4ba67dc <github.com/vaughan0/go-ini.File.Section@@Base+0x9c>
 4ba674a:	48 83 ec 38          	sub    $0x38,%rsp
 4ba674e:	48 89 6c 24 30       	mov    %rbp,0x30(%rsp)
 4ba6753:	48 8d 6c 24 30       	lea    0x30(%rsp),%rbp
 4ba6758:	48 89 44 24 28       	mov    %rax,0x28(%rsp)
 4ba675d:	48 89 4c 24 50       	mov    %rcx,0x50(%rsp)
 4ba6762:	48 89 5c 24 48       	mov    %rbx,0x48(%rsp)
 4ba6767:	48 89 cf             	mov    %rcx,%rdi
 4ba676a:	48 89 d9             	mov    %rbx,%rcx
 4ba676d:	48 89 c3             	mov    %rax,%rbx
 4ba6770:	48 8d 05 29 57 00 01 	lea    0x1005729(%rip),%rax        # 5babea0 <type:e5cz4hWi@@Base>
 4ba6777:	e8 44 f2 34 fd       	call   1ef59c0 <runtime.mapaccess1_faststr@@Base>
 4ba677c:	48 8b 10             	mov    (%rax),%rdx
 4ba677f:	90                   	nop
 4ba6780:	48 85 d2             	test   %rdx,%rdx
 4ba6783:	75 4a                	jne    4ba67cf <github.com/vaughan0/go-ini.File.Section@@Base+0x8f>
 4ba6785:	e8 b6 aa 34 fd       	call   1ef1240 <runtime.makemap_small@@Base>
 4ba678a:	48 89 44 24 20       	mov    %rax,0x20(%rsp)
 4ba678f:	48 8b 5c 24 28       	mov    0x28(%rsp),%rbx
 4ba6794:	48 8b 4c 24 48       	mov    0x48(%rsp),%rcx
 4ba6799:	48 8b 7c 24 50       	mov    0x50(%rsp),%rdi
 4ba679e:	48 8d 05 fb 56 00 01 	lea    0x10056fb(%rip),%rax        # 5babea0 <type:e5cz4hWi@@Base>
 4ba67a5:	e8 36 fa 34 fd       	call   1ef61e0 <runtime.mapassign_faststr@@Base>
 4ba67aa:	84 00                	test   %al,(%rax)
 4ba67ac:	83 3d ad 51 2d 03 00 	cmpl   $0x0,0x32d51ad(%rip)        # 7e7b960 <runtime.writeBarrier@@Base>
 4ba67b3:	75 0a                	jne    4ba67bf <github.com/vaughan0/go-ini.File.Section@@Base+0x7f>
 4ba67b5:	48 8b 4c 24 20       	mov    0x20(%rsp),%rcx
 4ba67ba:	48 89 08             	mov    %rcx,(%rax)
 4ba67bd:	eb 0d                	jmp    4ba67cc <github.com/vaughan0/go-ini.File.Section@@Base+0x8c>
 4ba67bf:	48 89 c7             	mov    %rax,%rdi
 4ba67c2:	48 8b 4c 24 20       	mov    0x20(%rsp),%rcx
 4ba67c7:	e8 34 ff 3a fd       	call   1f56700 <runtime.gcWriteBarrierCX@@Base>
 4ba67cc:	48 89 ca             	mov    %rcx,%rdx
 4ba67cf:	48 89 d0             	mov    %rdx,%rax
 4ba67d2:	48 8b 6c 24 30       	mov    0x30(%rsp),%rbp
 4ba67d7:	48 83 c4 38          	add    $0x38,%rsp
 4ba67db:	c3                   	ret
 4ba67dc:	48 89 44 24 08       	mov    %rax,0x8(%rsp)
 4ba67e1:	48 89 5c 24 10       	mov    %rbx,0x10(%rsp)
 4ba67e6:	48 89 4c 24 18       	mov    %rcx,0x18(%rsp)
 4ba67eb:	e8 70 dc 3a fd       	call   1f54460 <runtime.morestack_noctxt.abi0@@Base>
 4ba67f0:	48 8b 44 24 08       	mov    0x8(%rsp),%rax
 4ba67f5:	48 8b 5c 24 10       	mov    0x10(%rsp),%rbx
 4ba67fa:	48 8b 4c 24 18       	mov    0x18(%rsp),%rcx
 4ba67ff:	90                   	nop
 4ba6800:	e9 3b ff ff ff       	jmp    4ba6740 <github.com/vaughan0/go-ini.File.Section@@Base>
 4ba6805:	cc                   	int3
 4ba6806:	cc                   	int3
 4ba6807:	cc                   	int3
 4ba6808:	cc                   	int3
 4ba6809:	cc                   	int3
 4ba680a:	cc                   	int3
 4ba680b:	cc                   	int3
 4ba680c:	cc                   	int3
 4ba680d:	cc                   	int3
 4ba680e:	cc                   	int3
 4ba680f:	cc                   	int3
 4ba6810:	cc                   	int3
 4ba6811:	cc                   	int3
 4ba6812:	cc                   	int3
 4ba6813:	cc                   	int3
 4ba6814:	cc                   	int3
 4ba6815:	cc                   	int3
 4ba6816:	cc                   	int3
 4ba6817:	cc                   	int3
 4ba6818:	cc                   	int3
 4ba6819:	cc                   	int3
 4ba681a:	cc                   	int3
 4ba681b:	cc                   	int3
 4ba681c:	cc                   	int3
 4ba681d:	cc                   	int3
 4ba681e:	cc                   	int3
 4ba681f:	cc                   	int3

0000000004ba6820 <github.com/vaughan0/go-ini.File.Get@@Base>:
 4ba6820:	49 3b 66 10          	cmp    0x10(%r14),%rsp
 4ba6824:	76 7e                	jbe    4ba68a4 <github.com/vaughan0/go-ini.File.Get@@Base+0x84>
 4ba6826:	48 83 ec 28          	sub    $0x28,%rsp
 4ba682a:	48 89 6c 24 20       	mov    %rbp,0x20(%rsp)
 4ba682f:	48 8d 6c 24 20       	lea    0x20(%rsp),%rbp
 4ba6834:	48 89 5c 24 38       	mov    %rbx,0x38(%rsp)
 4ba6839:	48 89 7c 24 48       	mov    %rdi,0x48(%rsp)
 4ba683e:	48 89 74 24 50       	mov    %rsi,0x50(%rsp)
 4ba6843:	48 89 c2             	mov    %rax,%rdx
 4ba6846:	48 8d 05 53 56 00 01 	lea    0x1005653(%rip),%rax        # 5babea0 <type:e5cz4hWi@@Base>
 4ba684d:	49 89 d8             	mov    %rbx,%r8
 4ba6850:	48 89 d3             	mov    %rdx,%rbx
 4ba6853:	49 89 c9             	mov    %rcx,%r9
 4ba6856:	4c 89 c1             	mov    %r8,%rcx
 4ba6859:	4c 89 cf             	mov    %r9,%rdi
 4ba685c:	0f 1f 40 00          	nopl   0x0(%rax)
 4ba6860:	e8 5b f1 34 fd       	call   1ef59c0 <runtime.mapaccess1_faststr@@Base>
 4ba6865:	48 8b 18             	mov    (%rax),%rbx
 4ba6868:	48 85 db             	test   %rbx,%rbx
 4ba686b:	75 08                	jne    4ba6875 <github.com/vaughan0/go-ini.File.Get@@Base+0x55>
 4ba686d:	31 f6                	xor    %esi,%esi
 4ba686f:	31 db                	xor    %ebx,%ebx
 4ba6871:	31 d2                	xor    %edx,%edx
 4ba6873:	eb 1d                	jmp    4ba6892 <github.com/vaughan0/go-ini.File.Get@@Base+0x72>
 4ba6875:	48 8d 05 e4 e8 e7 00 	lea    0xe7e8e4(%rip),%rax        # 5a25160 <type:dFVgwnz2@@Base>
 4ba687c:	48 8b 4c 24 48       	mov    0x48(%rsp),%rcx
 4ba6881:	48 8b 7c 24 50       	mov    0x50(%rsp),%rdi
 4ba6886:	e8 35 f5 34 fd       	call   1ef5dc0 <runtime.mapaccess2_faststr@@Base>
 4ba688b:	48 8b 10             	mov    (%rax),%rdx
 4ba688e:	48 8b 70 08          	mov    0x8(%rax),%rsi
 4ba6892:	48 89 d0             	mov    %rdx,%rax
 4ba6895:	89 d9                	mov    %ebx,%ecx
 4ba6897:	48 89 f3             	mov    %rsi,%rbx
 4ba689a:	48 8b 6c 24 20       	mov    0x20(%rsp),%rbp
 4ba689f:	48 83 c4 28          	add    $0x28,%rsp
 4ba68a3:	c3                   	ret
 4ba68a4:	48 89 44 24 08       	mov    %rax,0x8(%rsp)
 4ba68a9:	48 89 5c 24 10       	mov    %rbx,0x10(%rsp)
 4ba68ae:	48 89 4c 24 18       	mov    %rcx,0x18(%rsp)
 4ba68b3:	48 89 7c 24 20       	mov    %rdi,0x20(%rsp)
 4ba68b8:	48 89 74 24 28       	mov    %rsi,0x28(%rsp)
 4ba68bd:	0f 1f 00             	nopl   (%rax)
 4ba68c0:	e8 9b db 3a fd       	call   1f54460 <runtime.morestack_noctxt.abi0@@Base>
 4ba68c5:	48 8b 44 24 08       	mov    0x8(%rsp),%rax
 4ba68ca:	48 8b 5c 24 10       	mov    0x10(%rsp),%rbx
 4ba68cf:	48 8b 4c 24 18       	mov    0x18(%rsp),%rcx
 4ba68d4:	48 8b 7c 24 20       	mov    0x20(%rsp),%rdi
 4ba68d9:	48 8b 74 24 28       	mov    0x28(%rsp),%rsi
 4ba68de:	66 90                	xchg   %ax,%ax
 4ba68e0:	e9 3b ff ff ff       	jmp    4ba6820 <github.com/vaughan0/go-ini.File.Get@@Base>
 4ba68e5:	cc                   	int3
 4ba68e6:	cc                   	int3
 4ba68e7:	cc                   	int3
 4ba68e8:	cc                   	int3
 4ba68e9:	cc                   	int3
 4ba68ea:	cc                   	int3
 4ba68eb:	cc                   	int3
 4ba68ec:	cc                   	int3
 4ba68ed:	cc                   	int3
 4ba68ee:	cc                   	int3
 4ba68ef:	cc                   	int3
 4ba68f0:	cc                   	int3
 4ba68f1:	cc                   	int3
 4ba68f2:	cc                   	int3
 4ba68f3:	cc                   	int3
 4ba68f4:	cc                   	int3
 4ba68f5:	cc                   	int3
 4ba68f6:	cc                   	int3
 4ba68f7:	cc                   	int3
 4ba68f8:	cc                   	int3
 4ba68f9:	cc                   	int3
 4ba68fa:	cc                   	int3
 4ba68fb:	cc                   	int3
 4ba68fc:	cc                   	int3
 4ba68fd:	cc                   	int3
 4ba68fe:	cc                   	int3
 4ba68ff:	cc                   	int3

0000000004ba6900 <github.com/vaughan0/go-ini.File.Load@@Base>:
 4ba6900:	4c 8d 64 24 98       	lea    -0x68(%rsp),%r12
 4ba6905:	4d 3b 66 10          	cmp    0x10(%r14),%r12
 4ba6909:	0f 86 6c 01 00 00    	jbe    4ba6a7b <github.com/vaughan0/go-ini.File.Load@@Base+0x17b>
 4ba690f:	48 81 ec e8 00 00 00 	sub    $0xe8,%rsp
 4ba6916:	48 89 ac 24 e0 00 00 	mov    %rbp,0xe0(%rsp)
 4ba691d:	00 
 4ba691e:	48 8d ac 24 e0 00 00 	lea    0xe0(%rsp),%rbp
 4ba6925:	00 
 4ba6926:	48 89 9c 24 f8 00 00 	mov    %rbx,0xf8(%rsp)
 4ba692d:	00 
 4ba692e:	48 89 8c 24 00 01 00 	mov    %rcx,0x100(%rsp)
 4ba6935:	00 
 4ba6936:	48 8d 15 03 70 35 01 	lea    0x1357003(%rip),%rdx        # 5efd940 <go:itab.*bufio.Reader,io.Reader@@Base>
 4ba693d:	0f 1f 00             	nopl   (%rax)
 4ba6940:	48 39 d3             	cmp    %rdx,%rbx
 4ba6943:	75 05                	jne    4ba694a <github.com/vaughan0/go-ini.File.Load@@Base+0x4a>
 4ba6945:	48 89 ca             	mov    %rcx,%rdx
 4ba6948:	eb 08                	jmp    4ba6952 <github.com/vaughan0/go-ini.File.Load@@Base+0x52>
 4ba694a:	48 89 ca             	mov    %rcx,%rdx
 4ba694d:	b9 00 00 00 00       	mov    $0x0,%ecx
 4ba6952:	0f 84 08 01 00 00    	je     4ba6a60 <github.com/vaughan0/go-ini.File.Load@@Base+0x160>
 4ba6958:	48 89 5c 24 28       	mov    %rbx,0x28(%rsp)
 4ba695d:	48 89 44 24 20       	mov    %rax,0x20(%rsp)
 4ba6962:	48 89 54 24 18       	mov    %rdx,0x18(%rsp)
 4ba6967:	90                   	nop
 4ba6968:	90                   	nop
 4ba6969:	44 0f 11 bc 24 88 00 	movups %xmm15,0x88(%rsp)
 4ba6970:	00 00 
 4ba6972:	48 8d bc 24 90 00 00 	lea    0x90(%rsp),%rdi
 4ba6979:	00 
 4ba697a:	48 8d 7f d0          	lea    -0x30(%rdi),%rdi
 4ba697e:	66 90                	xchg   %ax,%ax
 4ba6980:	48 89 6c 24 f0       	mov    %rbp,-0x10(%rsp)
 4ba6985:	48 8d 6c 24 f0       	lea    -0x10(%rsp),%rbp
 4ba698a:	e8 41 04 3b fd       	call   1f56dd0 <runtime.duffzero@@Base+0x150>
 4ba698f:	48 8b 6d 00          	mov    0x0(%rbp),%rbp
 4ba6993:	48 8d 05 c6 7f c0 00 	lea    0xc07fc6(%rip),%rax        # 57ae960 <type:uint8@@Base>
 4ba699a:	bb 00 10 00 00       	mov    $0x1000,%ebx
 4ba699f:	48 89 d9             	mov    %rbx,%rcx
 4ba69a2:	e8 39 fa 38 fd       	call   1f363e0 <runtime.makeslice@@Base>
 4ba69a7:	44 0f 11 7c 24 30    	movups %xmm15,0x30(%rsp)
 4ba69ad:	48 8d 7c 24 38       	lea    0x38(%rsp),%rdi
 4ba69b2:	48 8d 7f d0          	lea    -0x30(%rdi),%rdi
 4ba69b6:	66 0f 1f 84 00 00 00 	nopw   0x0(%rax,%rax,1)
 4ba69bd:	00 00 
 4ba69bf:	90                   	nop
 4ba69c0:	48 89 6c 24 f0       	mov    %rbp,-0x10(%rsp)
 4ba69c5:	48 8d 6c 24 f0       	lea    -0x10(%rsp),%rbp
 4ba69ca:	e8 01 04 3b fd       	call   1f56dd0 <runtime.duffzero@@Base+0x150>
 4ba69cf:	48 8b 6d 00          	mov    0x0(%rbp),%rbp
 4ba69d3:	48 89 44 24 30       	mov    %rax,0x30(%rsp)
 4ba69d8:	48 c7 44 24 38 00 10 	movq   $0x1000,0x38(%rsp)
 4ba69df:	00 00 
 4ba69e1:	48 c7 44 24 40 00 10 	movq   $0x1000,0x40(%rsp)
 4ba69e8:	00 00 
 4ba69ea:	48 8b 54 24 28       	mov    0x28(%rsp),%rdx
 4ba69ef:	48 89 54 24 48       	mov    %rdx,0x48(%rsp)
 4ba69f4:	48 8b 54 24 18       	mov    0x18(%rsp),%rdx
 4ba69f9:	48 89 54 24 50       	mov    %rdx,0x50(%rsp)
 4ba69fe:	48 c7 44 24 78 ff ff 	movq   $0xffffffffffffffff,0x78(%rsp)
 4ba6a05:	ff ff 
 4ba6a07:	48 c7 84 24 80 00 00 	movq   $0xffffffffffffffff,0x80(%rsp)
 4ba6a0e:	00 ff ff ff ff 
 4ba6a13:	48 8b 54 24 30       	mov    0x30(%rsp),%rdx
 4ba6a18:	48 89 94 24 88 00 00 	mov    %rdx,0x88(%rsp)
 4ba6a1f:	00 
 4ba6a20:	48 8d bc 24 90 00 00 	lea    0x90(%rsp),%rdi
 4ba6a27:	00 
 4ba6a28:	48 8d 74 24 38       	lea    0x38(%rsp),%rsi
 4ba6a2d:	66 0f 1f 84 00 00 00 	nopw   0x0(%rax,%rax,1)
 4ba6a34:	00 00 
 4ba6a36:	66 0f 1f 84 00 00 00 	nopw   0x0(%rax,%rax,1)
 4ba6a3d:	00 00 
 4ba6a3f:	90                   	nop
 4ba6a40:	48 89 6c 24 f0       	mov    %rbp,-0x10(%rsp)
 4ba6a45:	48 8d 6c 24 f0       	lea    -0x10(%rsp),%rbp
 4ba6a4a:	e8 eb 06 3b fd       	call   1f5713a <runtime.duffcopy@@Base+0x33a>
 4ba6a4f:	48 8b 6d 00          	mov    0x0(%rbp),%rbp
 4ba6a53:	48 8b 44 24 20       	mov    0x20(%rsp),%rax
 4ba6a58:	48 8d 8c 24 88 00 00 	lea    0x88(%rsp),%rcx
 4ba6a5f:	00 
 4ba6a60:	48 89 c3             	mov    %rax,%rbx
 4ba6a63:	48 89 c8             	mov    %rcx,%rax
 4ba6a66:	e8 d5 01 00 00       	call   4ba6c40 <github.com/vaughan0/go-ini.parseFile@@Base>
 4ba6a6b:	48 8b ac 24 e0 00 00 	mov    0xe0(%rsp),%rbp
 4ba6a72:	00 
 4ba6a73:	48 81 c4 e8 00 00 00 	add    $0xe8,%rsp
 4ba6a7a:	c3                   	ret
 4ba6a7b:	48 89 44 24 08       	mov    %rax,0x8(%rsp)
 4ba6a80:	48 89 5c 24 10       	mov    %rbx,0x10(%rsp)
 4ba6a85:	48 89 4c 24 18       	mov    %rcx,0x18(%rsp)
 4ba6a8a:	e8 d1 d9 3a fd       	call   1f54460 <runtime.morestack_noctxt.abi0@@Base>
 4ba6a8f:	48 8b 44 24 08       	mov    0x8(%rsp),%rax
 4ba6a94:	48 8b 5c 24 10       	mov    0x10(%rsp),%rbx
 4ba6a99:	48 8b 4c 24 18       	mov    0x18(%rsp),%rcx
 4ba6a9e:	66 90                	xchg   %ax,%ax
 4ba6aa0:	e9 5b fe ff ff       	jmp    4ba6900 <github.com/vaughan0/go-ini.File.Load@@Base>
 4ba6aa5:	cc                   	int3
 4ba6aa6:	cc                   	int3
 4ba6aa7:	cc                   	int3
 4ba6aa8:	cc                   	int3
 4ba6aa9:	cc                   	int3
 4ba6aaa:	cc                   	int3
 4ba6aab:	cc                   	int3
 4ba6aac:	cc                   	int3
 4ba6aad:	cc                   	int3
 4ba6aae:	cc                   	int3
 4ba6aaf:	cc                   	int3
 4ba6ab0:	cc                   	int3
 4ba6ab1:	cc                   	int3
 4ba6ab2:	cc                   	int3
 4ba6ab3:	cc                   	int3
 4ba6ab4:	cc                   	int3
 4ba6ab5:	cc                   	int3
 4ba6ab6:	cc                   	int3
 4ba6ab7:	cc                   	int3
 4ba6ab8:	cc                   	int3
 4ba6ab9:	cc                   	int3
 4ba6aba:	cc                   	int3
 4ba6abb:	cc                   	int3
 4ba6abc:	cc                   	int3
 4ba6abd:	cc                   	int3
 4ba6abe:	cc                   	int3
 4ba6abf:	cc                   	int3

0000000004ba6ac0 <github.com/vaughan0/go-ini.File.LoadFile@@Base>:
 4ba6ac0:	49 3b 66 10          	cmp    0x10(%r14),%rsp
 4ba6ac4:	0f 86 e1 00 00 00    	jbe    4ba6bab <github.com/vaughan0/go-ini.File.LoadFile@@Base+0xeb>
 4ba6aca:	48 83 ec 60          	sub    $0x60,%rsp
 4ba6ace:	48 89 6c 24 58       	mov    %rbp,0x58(%rsp)
 4ba6ad3:	48 8d 6c 24 58       	lea    0x58(%rsp),%rbp
 4ba6ad8:	48 89 5c 24 70       	mov    %rbx,0x70(%rsp)
 4ba6add:	49 c7 c5 00 00 00 00 	mov    $0x0,%r13
 4ba6ae4:	4c 89 6c 24 50       	mov    %r13,0x50(%rsp)
 4ba6ae9:	48 89 44 24 28       	mov    %rax,0x28(%rsp)
 4ba6aee:	c6 44 24 27 00       	movb   $0x0,0x27(%rsp)
 4ba6af3:	44 0f 11 7c 24 30    	movups %xmm15,0x30(%rsp)
 4ba6af9:	31 ff                	xor    %edi,%edi
 4ba6afb:	48 89 d8             	mov    %rbx,%rax
 4ba6afe:	48 89 cb             	mov    %rcx,%rbx
 4ba6b01:	31 c9                	xor    %ecx,%ecx
 4ba6b03:	e8 38 3d 44 fd       	call   1fea840 <os.OpenFile@@Base>
 4ba6b08:	48 89 5c 24 30       	mov    %rbx,0x30(%rsp)
 4ba6b0d:	48 89 4c 24 38       	mov    %rcx,0x38(%rsp)
 4ba6b12:	48 85 db             	test   %rbx,%rbx
 4ba6b15:	74 12                	je     4ba6b29 <github.com/vaughan0/go-ini.File.LoadFile@@Base+0x69>
 4ba6b17:	48 8b 44 24 30       	mov    0x30(%rsp),%rax
 4ba6b1c:	48 89 cb             	mov    %rcx,%rbx
 4ba6b1f:	48 8b 6c 24 58       	mov    0x58(%rsp),%rbp
 4ba6b24:	48 83 c4 60          	add    $0x60,%rsp
 4ba6b28:	c3                   	ret
 4ba6b29:	44 0f 11 7c 24 40    	movups %xmm15,0x40(%rsp)
 4ba6b2f:	48 8d 15 aa 00 00 00 	lea    0xaa(%rip),%rdx        # 4ba6be0 <github.com/vaughan0/go-ini.File.LoadFile.func1@@Base>
 4ba6b36:	48 89 54 24 40       	mov    %rdx,0x40(%rsp)
 4ba6b3b:	48 89 44 24 48       	mov    %rax,0x48(%rsp)
 4ba6b40:	48 8d 54 24 40       	lea    0x40(%rsp),%rdx
 4ba6b45:	48 89 54 24 50       	mov    %rdx,0x50(%rsp)
 4ba6b4a:	c6 44 24 27 01       	movb   $0x1,0x27(%rsp)
 4ba6b4f:	48 8d 1d 6a e6 35 01 	lea    0x135e66a(%rip),%rbx        # 5f051c0 <go:itab.*os.File,io.Reader@@Base>
 4ba6b56:	48 89 c1             	mov    %rax,%rcx
 4ba6b59:	48 8b 44 24 28       	mov    0x28(%rsp),%rax
 4ba6b5e:	66 90                	xchg   %ax,%ax
 4ba6b60:	e8 9b fd ff ff       	call   4ba6900 <github.com/vaughan0/go-ini.File.Load@@Base>
 4ba6b65:	48 89 44 24 30       	mov    %rax,0x30(%rsp)
 4ba6b6a:	48 89 5c 24 38       	mov    %rbx,0x38(%rsp)
 4ba6b6f:	c6 44 24 27 00       	movb   $0x0,0x27(%rsp)
 4ba6b74:	48 8b 54 24 50       	mov    0x50(%rsp),%rdx
 4ba6b79:	48 8b 32             	mov    (%rdx),%rsi
 4ba6b7c:	ff d6                	call   *%rsi
 4ba6b7e:	48 8b 44 24 30       	mov    0x30(%rsp),%rax
 4ba6b83:	48 8b 5c 24 38       	mov    0x38(%rsp),%rbx
 4ba6b88:	48 8b 6c 24 58       	mov    0x58(%rsp),%rbp
 4ba6b8d:	48 83 c4 60          	add    $0x60,%rsp
 4ba6b91:	c3                   	ret
 4ba6b92:	e8 c9 53 37 fd       	call   1f1bf60 <runtime.deferreturn@@Base>
 4ba6b97:	48 8b 44 24 30       	mov    0x30(%rsp),%rax
 4ba6b9c:	48 8b 5c 24 38       	mov    0x38(%rsp),%rbx
 4ba6ba1:	48 8b 6c 24 58       	mov    0x58(%rsp),%rbp
 4ba6ba6:	48 83 c4 60          	add    $0x60,%rsp
 4ba6baa:	c3                   	ret
 4ba6bab:	48 89 44 24 08       	mov    %rax,0x8(%rsp)
 4ba6bb0:	48 89 5c 24 10       	mov    %rbx,0x10(%rsp)
 4ba6bb5:	48 89 4c 24 18       	mov    %rcx,0x18(%rsp)
 4ba6bba:	e8 a1 d8 3a fd       	call   1f54460 <runtime.morestack_noctxt.abi0@@Base>
 4ba6bbf:	48 8b 44 24 08       	mov    0x8(%rsp),%rax
 4ba6bc4:	48 8b 5c 24 10       	mov    0x10(%rsp),%rbx
 4ba6bc9:	48 8b 4c 24 18       	mov    0x18(%rsp),%rcx
 4ba6bce:	e9 ed fe ff ff       	jmp    4ba6ac0 <github.com/vaughan0/go-ini.File.LoadFile@@Base>
 4ba6bd3:	cc                   	int3
 4ba6bd4:	cc                   	int3
 4ba6bd5:	cc                   	int3
 4ba6bd6:	cc                   	int3
 4ba6bd7:	cc                   	int3
 4ba6bd8:	cc                   	int3
 4ba6bd9:	cc                   	int3
 4ba6bda:	cc                   	int3
 4ba6bdb:	cc                   	int3
 4ba6bdc:	cc                   	int3
 4ba6bdd:	cc                   	int3
 4ba6bde:	cc                   	int3
 4ba6bdf:	cc                   	int3

0000000004ba6be0 <github.com/vaughan0/go-ini.File.LoadFile.func1@@Base>:
 4ba6be0:	49 3b 66 10          	cmp    0x10(%r14),%rsp
 4ba6be4:	76 2a                	jbe    4ba6c10 <github.com/vaughan0/go-ini.File.LoadFile.func1@@Base+0x30>
 4ba6be6:	48 83 ec 10          	sub    $0x10,%rsp
 4ba6bea:	48 89 6c 24 08       	mov    %rbp,0x8(%rsp)
 4ba6bef:	48 8d 6c 24 08       	lea    0x8(%rsp),%rbp
 4ba6bf4:	4d 8b 66 20          	mov    0x20(%r14),%r12
 4ba6bf8:	4d 85 e4             	test   %r12,%r12
 4ba6bfb:	75 1a                	jne    4ba6c17 <github.com/vaughan0/go-ini.File.LoadFile.func1@@Base+0x37>
 4ba6bfd:	48 8b 42 08          	mov    0x8(%rdx),%rax
 4ba6c01:	e8 7a 46 44 fd       	call   1feb280 <os.(*File).Close@@Base>
 4ba6c06:	48 8b 6c 24 08       	mov    0x8(%rsp),%rbp
 4ba6c0b:	48 83 c4 10          	add    $0x10,%rsp
 4ba6c0f:	c3                   	ret
 4ba6c10:	e8 ab d7 3a fd       	call   1f543c0 <runtime.morestack.abi0@@Base>
 4ba6c15:	eb c9                	jmp    4ba6be0 <github.com/vaughan0/go-ini.File.LoadFile.func1@@Base>
 4ba6c17:	4c 8d 6c 24 18       	lea    0x18(%rsp),%r13
 4ba6c1c:	0f 1f 40 00          	nopl   0x0(%rax)
 4ba6c20:	4d 39 2c 24          	cmp    %r13,(%r12)
 4ba6c24:	75 d7                	jne    4ba6bfd <github.com/vaughan0/go-ini.File.LoadFile.func1@@Base+0x1d>
 4ba6c26:	49 89 24 24          	mov    %rsp,(%r12)
 4ba6c2a:	eb d1                	jmp    4ba6bfd <github.com/vaughan0/go-ini.File.LoadFile.func1@@Base+0x1d>
 4ba6c2c:	cc                   	int3
 4ba6c2d:	cc                   	int3
 4ba6c2e:	cc                   	int3
 4ba6c2f:	cc                   	int3
 4ba6c30:	cc                   	int3
 4ba6c31:	cc                   	int3
 4ba6c32:	cc                   	int3
 4ba6c33:	cc                   	int3
 4ba6c34:	cc                   	int3
 4ba6c35:	cc                   	int3
 4ba6c36:	cc                   	int3
 4ba6c37:	cc                   	int3
 4ba6c38:	cc                   	int3
 4ba6c39:	cc                   	int3
 4ba6c3a:	cc                   	int3
 4ba6c3b:	cc                   	int3
 4ba6c3c:	cc                   	int3
 4ba6c3d:	cc                   	int3
 4ba6c3e:	cc                   	int3
 4ba6c3f:	cc                   	int3

0000000004ba6c40 <github.com/vaughan0/go-ini.parseFile@@Base>:
 4ba6c40:	4c 8d 64 24 c0       	lea    -0x40(%rsp),%r12
 4ba6c45:	4d 3b 66 10          	cmp    0x10(%r14),%r12
 4ba6c49:	0f 86 24 04 00 00    	jbe    4ba7073 <github.com/vaughan0/go-ini.parseFile@@Base+0x433>
 4ba6c4f:	48 81 ec c0 00 00 00 	sub    $0xc0,%rsp
 4ba6c56:	48 89 ac 24 b8 00 00 	mov    %rbp,0xb8(%rsp)
 4ba6c5d:	00 
 4ba6c5e:	48 8d ac 24 b8 00 00 	lea    0xb8(%rsp),%rbp
 4ba6c65:	00 
 4ba6c66:	48 89 9c 24 98 00 00 	mov    %rbx,0x98(%rsp)
 4ba6c6d:	00 
 4ba6c6e:	48 89 84 24 90 00 00 	mov    %rax,0x90(%rsp)
 4ba6c75:	00 
 4ba6c76:	31 c9                	xor    %ecx,%ecx
 4ba6c78:	31 d2                	xor    %edx,%edx
 4ba6c7a:	31 f6                	xor    %esi,%esi
 4ba6c7c:	31 ff                	xor    %edi,%edi
 4ba6c7e:	66 90                	xchg   %ax,%ax
 4ba6c80:	eb 20                	jmp    4ba6ca2 <github.com/vaughan0/go-ini.parseFile@@Base+0x62>
 4ba6c82:	48 8b 9c 24 98 00 00 	mov    0x98(%rsp),%rbx
 4ba6c89:	00 
 4ba6c8a:	48 8b 54 24 38       	mov    0x38(%rsp),%rdx
 4ba6c8f:	48 89 c6             	mov    %rax,%rsi
 4ba6c92:	48 89 cf             	mov    %rcx,%rdi
 4ba6c95:	48 8b 84 24 90 00 00 	mov    0x90(%rsp),%rax
 4ba6c9c:	00 
 4ba6c9d:	0f b6 4c 24 27       	movzbl 0x27(%rsp),%ecx
 4ba6ca2:	84 c9                	test   %cl,%cl
 4ba6ca4:	0f 85 8c 03 00 00    	jne    4ba7036 <github.com/vaughan0/go-ini.parseFile@@Base+0x3f6>
 4ba6caa:	88 4c 24 27          	mov    %cl,0x27(%rsp)
 4ba6cae:	48 89 7c 24 60       	mov    %rdi,0x60(%rsp)
 4ba6cb3:	48 89 74 24 30       	mov    %rsi,0x30(%rsp)
 4ba6cb8:	48 89 54 24 38       	mov    %rdx,0x38(%rsp)
 4ba6cbd:	bb 0a 00 00 00       	mov    $0xa,%ebx
 4ba6cc2:	e8 59 19 60 fd       	call   21a8620 <bufio.(*Reader).ReadString@@Base>
 4ba6cc7:	48 85 c9             	test   %rcx,%rcx
 4ba6cca:	74 5f                	je     4ba6d2b <github.com/vaughan0/go-ini.parseFile@@Base+0xeb>
 4ba6ccc:	48 8b 15 75 d7 28 03 	mov    0x328d775(%rip),%rdx        # 7e34448 <io.EOF@@Base+0x8>
 4ba6cd3:	66 0f 1f 84 00 00 00 	nopw   0x0(%rax,%rax,1)
 4ba6cda:	00 00 
 4ba6cdc:	0f 1f 40 00          	nopl   0x0(%rax)
 4ba6ce0:	48 39 0d 59 d7 28 03 	cmp    %rcx,0x328d759(%rip)        # 7e34440 <io.EOF@@Base>
 4ba6ce7:	0f 85 c9 02 00 00    	jne    4ba6fb6 <github.com/vaughan0/go-ini.parseFile@@Base+0x376>
 4ba6ced:	48 89 bc 24 88 00 00 	mov    %rdi,0x88(%rsp)
 4ba6cf4:	00 
 4ba6cf5:	48 89 44 24 68       	mov    %rax,0x68(%rsp)
 4ba6cfa:	48 89 5c 24 40       	mov    %rbx,0x40(%rsp)
 4ba6cff:	48 89 4c 24 50       	mov    %rcx,0x50(%rsp)
 4ba6d04:	48 89 c8             	mov    %rcx,%rax
 4ba6d07:	48 89 fb             	mov    %rdi,%rbx
 4ba6d0a:	48 89 d1             	mov    %rdx,%rcx
 4ba6d0d:	e8 ce e1 33 fd       	call   1ee4ee0 <runtime.ifaceeq@@Base>
 4ba6d12:	84 c0                	test   %al,%al
 4ba6d14:	0f 84 8f 02 00 00    	je     4ba6fa9 <github.com/vaughan0/go-ini.parseFile@@Base+0x369>
 4ba6d1a:	48 8b 44 24 68       	mov    0x68(%rsp),%rax
 4ba6d1f:	48 8b 5c 24 40       	mov    0x40(%rsp),%rbx
 4ba6d24:	b9 01 00 00 00       	mov    $0x1,%ecx
 4ba6d29:	eb 05                	jmp    4ba6d30 <github.com/vaughan0/go-ini.parseFile@@Base+0xf0>
 4ba6d2b:	0f b6 4c 24 27       	movzbl 0x27(%rsp),%ecx
 4ba6d30:	88 4c 24 27          	mov    %cl,0x27(%rsp)
 4ba6d34:	e8 27 30 46 fd       	call   2009d60 <strings.TrimSpace@@Base>
 4ba6d39:	48 8b 4c 24 38       	mov    0x38(%rsp),%rcx
 4ba6d3e:	48 ff c1             	inc    %rcx
 4ba6d41:	48 89 4c 24 38       	mov    %rcx,0x38(%rsp)
 4ba6d46:	48 85 db             	test   %rbx,%rbx
 4ba6d49:	75 0f                	jne    4ba6d5a <github.com/vaughan0/go-ini.parseFile@@Base+0x11a>
 4ba6d4b:	48 8b 44 24 30       	mov    0x30(%rsp),%rax
 4ba6d50:	48 8b 4c 24 60       	mov    0x60(%rsp),%rcx
 4ba6d55:	e9 28 ff ff ff       	jmp    4ba6c82 <github.com/vaughan0/go-ini.parseFile@@Base+0x42>
 4ba6d5a:	0f b6 10             	movzbl (%rax),%edx
 4ba6d5d:	0f 1f 00             	nopl   (%rax)
 4ba6d60:	80 fa 3b             	cmp    $0x3b,%dl
 4ba6d63:	74 05                	je     4ba6d6a <github.com/vaughan0/go-ini.parseFile@@Base+0x12a>
 4ba6d65:	80 fa 23             	cmp    $0x23,%dl
 4ba6d68:	75 0f                	jne    4ba6d79 <github.com/vaughan0/go-ini.parseFile@@Base+0x139>
 4ba6d6a:	48 8b 44 24 30       	mov    0x30(%rsp),%rax
 4ba6d6f:	48 8b 4c 24 60       	mov    0x60(%rsp),%rcx
 4ba6d74:	e9 09 ff ff ff       	jmp    4ba6c82 <github.com/vaughan0/go-ini.parseFile@@Base+0x42>
 4ba6d79:	48 89 5c 24 40       	mov    %rbx,0x40(%rsp)
 4ba6d7e:	48 89 44 24 68       	mov    %rax,0x68(%rsp)
 4ba6d83:	48 8b 15 86 5d 28 03 	mov    0x3285d86(%rip),%rdx        # 7e2cb10 <github.com/vaughan0/go-ini.assignRegex@@Base>
 4ba6d8a:	48 89 d9             	mov    %rbx,%rcx
 4ba6d8d:	48 89 c3             	mov    %rax,%rbx
 4ba6d90:	48 89 d0             	mov    %rdx,%rax
 4ba6d93:	e8 e8 7e 6f fd       	call   229ec80 <regexp.(*Regexp).FindStringSubmatch@@Base>
 4ba6d98:	0f 1f 84 00 00 00 00 	nopl   0x0(%rax,%rax,1)
 4ba6d9f:	00 
 4ba6da0:	48 85 c0             	test   %rax,%rax
 4ba6da3:	0f 84 3c 01 00 00    	je     4ba6ee5 <github.com/vaughan0/go-ini.parseFile@@Base+0x2a5>
 4ba6da9:	48 83 fb 01          	cmp    $0x1,%rbx
 4ba6dad:	0f 86 b2 02 00 00    	jbe    4ba7065 <github.com/vaughan0/go-ini.parseFile@@Base+0x425>
 4ba6db3:	48 8b 50 10          	mov    0x10(%rax),%rdx
 4ba6db7:	48 8b 70 18          	mov    0x18(%rax),%rsi
 4ba6dbb:	0f 1f 44 00 00       	nopl   0x0(%rax,%rax,1)
 4ba6dc0:	48 83 fb 02          	cmp    $0x2,%rbx
 4ba6dc4:	0f 86 8d 02 00 00    	jbe    4ba7057 <github.com/vaughan0/go-ini.parseFile@@Base+0x417>
 4ba6dca:	48 8b 48 20          	mov    0x20(%rax),%rcx
 4ba6dce:	48 89 4c 24 58       	mov    %rcx,0x58(%rsp)
 4ba6dd3:	48 8b 78 28          	mov    0x28(%rax),%rdi
 4ba6dd7:	48 89 7c 24 28       	mov    %rdi,0x28(%rsp)
 4ba6ddc:	48 89 d0             	mov    %rdx,%rax
 4ba6ddf:	48 89 f3             	mov    %rsi,%rbx
 4ba6de2:	e8 79 2f 46 fd       	call   2009d60 <strings.TrimSpace@@Base>
 4ba6de7:	48 89 44 24 70       	mov    %rax,0x70(%rsp)
 4ba6dec:	48 89 5c 24 48       	mov    %rbx,0x48(%rsp)
 4ba6df1:	48 8b 44 24 58       	mov    0x58(%rsp),%rax
 4ba6df6:	48 8b 5c 24 28       	mov    0x28(%rsp),%rbx
 4ba6dfb:	0f 1f 44 00 00       	nopl   0x0(%rax,%rax,1)
 4ba6e00:	e8 5b 2f 46 fd       	call   2009d60 <strings.TrimSpace@@Base>
 4ba6e05:	48 89 44 24 58       	mov    %rax,0x58(%rsp)
 4ba6e0a:	48 89 5c 24 28       	mov    %rbx,0x28(%rsp)
 4ba6e0f:	48 8b 4c 24 60       	mov    0x60(%rsp),%rcx
 4ba6e14:	48 8b 7c 24 30       	mov    0x30(%rsp),%rdi
 4ba6e19:	48 8d 05 80 50 00 01 	lea    0x1005080(%rip),%rax        # 5babea0 <type:e5cz4hWi@@Base>
 4ba6e20:	48 8b 9c 24 98 00 00 	mov    0x98(%rsp),%rbx
 4ba6e27:	00 
 4ba6e28:	e8 93 eb 34 fd       	call   1ef59c0 <runtime.mapaccess1_faststr@@Base>
 4ba6e2d:	48 8b 08             	mov    (%rax),%rcx
 4ba6e30:	48 85 c9             	test   %rcx,%rcx
 4ba6e33:	75 5b                	jne    4ba6e90 <github.com/vaughan0/go-ini.parseFile@@Base+0x250>
 4ba6e35:	e8 06 a4 34 fd       	call   1ef1240 <runtime.makemap_small@@Base>
 4ba6e3a:	48 89 84 24 80 00 00 	mov    %rax,0x80(%rsp)
 4ba6e41:	00 
 4ba6e42:	48 8b 9c 24 98 00 00 	mov    0x98(%rsp),%rbx
 4ba6e49:	00 
 4ba6e4a:	48 8b 4c 24 60       	mov    0x60(%rsp),%rcx
 4ba6e4f:	48 8b 7c 24 30       	mov    0x30(%rsp),%rdi
 4ba6e54:	48 8d 05 45 50 00 01 	lea    0x1005045(%rip),%rax        # 5babea0 <type:e5cz4hWi@@Base>
 4ba6e5b:	0f 1f 44 00 00       	nopl   0x0(%rax,%rax,1)
 4ba6e60:	e8 7b f3 34 fd       	call   1ef61e0 <runtime.mapassign_faststr@@Base>
 4ba6e65:	84 00                	test   %al,(%rax)
 4ba6e67:	83 3d f2 4a 2d 03 00 	cmpl   $0x0,0x32d4af2(%rip)        # 7e7b960 <runtime.writeBarrier@@Base>
 4ba6e6e:	75 0d                	jne    4ba6e7d <github.com/vaughan0/go-ini.parseFile@@Base+0x23d>
 4ba6e70:	48 8b 94 24 80 00 00 	mov    0x80(%rsp),%rdx
 4ba6e77:	00 
 4ba6e78:	48 89 10             	mov    %rdx,(%rax)
 4ba6e7b:	eb 10                	jmp    4ba6e8d <github.com/vaughan0/go-ini.parseFile@@Base+0x24d>
 4ba6e7d:	48 89 c7             	mov    %rax,%rdi
 4ba6e80:	48 8b 94 24 80 00 00 	mov    0x80(%rsp),%rdx
 4ba6e87:	00 
 4ba6e88:	e8 93 f8 3a fd       	call   1f56720 <runtime.gcWriteBarrierDX@@Base>
 4ba6e8d:	48 89 d1             	mov    %rdx,%rcx
 4ba6e90:	48 8d 05 c9 e2 e7 00 	lea    0xe7e2c9(%rip),%rax        # 5a25160 <type:dFVgwnz2@@Base>
 4ba6e97:	48 89 cb             	mov    %rcx,%rbx
 4ba6e9a:	48 8b 4c 24 70       	mov    0x70(%rsp),%rcx
 4ba6e9f:	48 8b 7c 24 48       	mov    0x48(%rsp),%rdi
 4ba6ea4:	e8 37 f3 34 fd       	call   1ef61e0 <runtime.mapassign_faststr@@Base>
 4ba6ea9:	48 8b 54 24 28       	mov    0x28(%rsp),%rdx
 4ba6eae:	48 89 50 08          	mov    %rdx,0x8(%rax)
 4ba6eb2:	83 3d a7 4a 2d 03 00 	cmpl   $0x0,0x32d4aa7(%rip)        # 7e7b960 <runtime.writeBarrier@@Base>
 4ba6eb9:	75 0a                	jne    4ba6ec5 <github.com/vaughan0/go-ini.parseFile@@Base+0x285>
 4ba6ebb:	48 8b 4c 24 58       	mov    0x58(%rsp),%rcx
 4ba6ec0:	48 89 08             	mov    %rcx,(%rax)
 4ba6ec3:	eb 0d                	jmp    4ba6ed2 <github.com/vaughan0/go-ini.parseFile@@Base+0x292>
 4ba6ec5:	48 89 c7             	mov    %rax,%rdi
 4ba6ec8:	48 8b 4c 24 58       	mov    0x58(%rsp),%rcx
 4ba6ecd:	e8 2e f8 3a fd       	call   1f56700 <runtime.gcWriteBarrierCX@@Base>
 4ba6ed2:	48 8b 44 24 30       	mov    0x30(%rsp),%rax
 4ba6ed7:	48 8b 4c 24 60       	mov    0x60(%rsp),%rcx
 4ba6edc:	0f 1f 40 00          	nopl   0x0(%rax)
 4ba6ee0:	e9 9d fd ff ff       	jmp    4ba6c82 <github.com/vaughan0/go-ini.parseFile@@Base+0x42>
 4ba6ee5:	48 8b 05 2c 5c 28 03 	mov    0x3285c2c(%rip),%rax        # 7e2cb18 <github.com/vaughan0/go-ini.sectionRegex@@Base>
 4ba6eec:	48 8b 5c 24 68       	mov    0x68(%rsp),%rbx
 4ba6ef1:	48 8b 4c 24 40       	mov    0x40(%rsp),%rcx
 4ba6ef6:	e8 85 7d 6f fd       	call   229ec80 <regexp.(*Regexp).FindStringSubmatch@@Base>
 4ba6efb:	0f 1f 44 00 00       	nopl   0x0(%rax,%rax,1)
 4ba6f00:	48 85 c0             	test   %rax,%rax
 4ba6f03:	0f 84 c3 00 00 00    	je     4ba6fcc <github.com/vaughan0/go-ini.parseFile@@Base+0x38c>
 4ba6f09:	48 83 fb 01          	cmp    $0x1,%rbx
 4ba6f0d:	0f 86 37 01 00 00    	jbe    4ba704a <github.com/vaughan0/go-ini.parseFile@@Base+0x40a>
 4ba6f13:	48 8b 48 10          	mov    0x10(%rax),%rcx
 4ba6f17:	48 8b 58 18          	mov    0x18(%rax),%rbx
 4ba6f1b:	48 89 c8             	mov    %rcx,%rax
 4ba6f1e:	66 90                	xchg   %ax,%ax
 4ba6f20:	e8 3b 2e 46 fd       	call   2009d60 <strings.TrimSpace@@Base>
 4ba6f25:	48 89 44 24 60       	mov    %rax,0x60(%rsp)
 4ba6f2a:	48 89 5c 24 30       	mov    %rbx,0x30(%rsp)
 4ba6f2f:	90                   	nop
 4ba6f30:	48 89 c1             	mov    %rax,%rcx
 4ba6f33:	48 89 df             	mov    %rbx,%rdi
 4ba6f36:	48 8d 05 63 4f 00 01 	lea    0x1004f63(%rip),%rax        # 5babea0 <type:e5cz4hWi@@Base>
 4ba6f3d:	48 8b 9c 24 98 00 00 	mov    0x98(%rsp),%rbx
 4ba6f44:	00 
 4ba6f45:	e8 76 ea 34 fd       	call   1ef59c0 <runtime.mapaccess1_faststr@@Base>
 4ba6f4a:	48 83 38 00          	cmpq   $0x0,(%rax)
 4ba6f4e:	75 4a                	jne    4ba6f9a <github.com/vaughan0/go-ini.parseFile@@Base+0x35a>
 4ba6f50:	e8 eb a2 34 fd       	call   1ef1240 <runtime.makemap_small@@Base>
 4ba6f55:	48 89 44 24 78       	mov    %rax,0x78(%rsp)
 4ba6f5a:	48 8b 9c 24 98 00 00 	mov    0x98(%rsp),%rbx
 4ba6f61:	00 
 4ba6f62:	48 8b 4c 24 60       	mov    0x60(%rsp),%rcx
 4ba6f67:	48 8b 7c 24 30       	mov    0x30(%rsp),%rdi
 4ba6f6c:	48 8d 05 2d 4f 00 01 	lea    0x1004f2d(%rip),%rax        # 5babea0 <type:e5cz4hWi@@Base>
 4ba6f73:	e8 68 f2 34 fd       	call   1ef61e0 <runtime.mapassign_faststr@@Base>
 4ba6f78:	84 00                	test   %al,(%rax)
 4ba6f7a:	83 3d df 49 2d 03 00 	cmpl   $0x0,0x32d49df(%rip)        # 7e7b960 <runtime.writeBarrier@@Base>
 4ba6f81:	75 0a                	jne    4ba6f8d <github.com/vaughan0/go-ini.parseFile@@Base+0x34d>
 4ba6f83:	48 8b 4c 24 78       	mov    0x78(%rsp),%rcx
 4ba6f88:	48 89 08             	mov    %rcx,(%rax)
 4ba6f8b:	eb 0d                	jmp    4ba6f9a <github.com/vaughan0/go-ini.parseFile@@Base+0x35a>
 4ba6f8d:	48 89 c7             	mov    %rax,%rdi
 4ba6f90:	48 8b 4c 24 78       	mov    0x78(%rsp),%rcx
 4ba6f95:	e8 66 f7 3a fd       	call   1f56700 <runtime.gcWriteBarrierCX@@Base>
 4ba6f9a:	48 8b 44 24 30       	mov    0x30(%rsp),%rax
 4ba6f9f:	48 8b 4c 24 60       	mov    0x60(%rsp),%rcx
 4ba6fa4:	e9 d9 fc ff ff       	jmp    4ba6c82 <github.com/vaughan0/go-ini.parseFile@@Base+0x42>
 4ba6fa9:	48 8b 4c 24 50       	mov    0x50(%rsp),%rcx
 4ba6fae:	48 8b bc 24 88 00 00 	mov    0x88(%rsp),%rdi
 4ba6fb5:	00 
 4ba6fb6:	48 89 c8             	mov    %rcx,%rax
 4ba6fb9:	48 89 fb             	mov    %rdi,%rbx
 4ba6fbc:	48 8b ac 24 b8 00 00 	mov    0xb8(%rsp),%rbp
 4ba6fc3:	00 
 4ba6fc4:	48 81 c4 c0 00 00 00 	add    $0xc0,%rsp
 4ba6fcb:	c3                   	ret
 4ba6fcc:	48 c7 84 24 a0 00 00 	movq   $0x0,0xa0(%rsp)
 4ba6fd3:	00 00 00 00 00 
 4ba6fd8:	44 0f 11 bc 24 a8 00 	movups %xmm15,0xa8(%rsp)
 4ba6fdf:	00 00 
 4ba6fe1:	48 8b 4c 24 38       	mov    0x38(%rsp),%rcx
 4ba6fe6:	48 89 8c 24 a0 00 00 	mov    %rcx,0xa0(%rsp)
 4ba6fed:	00 
 4ba6fee:	48 8b 4c 24 68       	mov    0x68(%rsp),%rcx
 4ba6ff3:	48 89 8c 24 a8 00 00 	mov    %rcx,0xa8(%rsp)
 4ba6ffa:	00 
 4ba6ffb:	48 8b 4c 24 40       	mov    0x40(%rsp),%rcx
 4ba7000:	48 89 8c 24 b0 00 00 	mov    %rcx,0xb0(%rsp)
 4ba7007:	00 
 4ba7008:	48 8d 05 11 95 fc 00 	lea    0xfc9511(%rip),%rax        # 5b70520 <type:o0amLmR9@@Base>
 4ba700f:	48 8d 9c 24 a0 00 00 	lea    0xa0(%rsp),%rbx
 4ba7016:	00 
 4ba7017:	e8 c4 6a 34 fd       	call   1eedae0 <runtime.convT@@Base>
 4ba701c:	48 89 c3             	mov    %rax,%rbx
 4ba701f:	48 8d 05 3a 12 36 01 	lea    0x136123a(%rip),%rax        # 5f08260 <go:itab.github.com/vaughan0/go-ini.ErrSyntax,error@@Base>
 4ba7026:	48 8b ac 24 b8 00 00 	mov    0xb8(%rsp),%rbp
 4ba702d:	00 
 4ba702e:	48 81 c4 c0 00 00 00 	add    $0xc0,%rsp
 4ba7035:	c3                   	ret
 4ba7036:	31 c0                	xor    %eax,%eax
 4ba7038:	31 db                	xor    %ebx,%ebx
 4ba703a:	48 8b ac 24 b8 00 00 	mov    0xb8(%rsp),%rbp
 4ba7041:	00 
 4ba7042:	48 81 c4 c0 00 00 00 	add    $0xc0,%rsp
 4ba7049:	c3                   	ret
 4ba704a:	b8 01 00 00 00       	mov    $0x1,%eax
 4ba704f:	48 89 d9             	mov    %rbx,%rcx
 4ba7052:	e8 49 fa 3a fd       	call   1f56aa0 <runtime.panicIndex@@Base>
 4ba7057:	b8 02 00 00 00       	mov    $0x2,%eax
 4ba705c:	48 89 c1             	mov    %rax,%rcx
 4ba705f:	90                   	nop
 4ba7060:	e8 3b fa 3a fd       	call   1f56aa0 <runtime.panicIndex@@Base>
 4ba7065:	b8 01 00 00 00       	mov    $0x1,%eax
 4ba706a:	48 89 d9             	mov    %rbx,%rcx
 4ba706d:	e8 2e fa 3a fd       	call   1f56aa0 <runtime.panicIndex@@Base>
 4ba7072:	90                   	nop
 4ba7073:	48 89 44 24 08       	mov    %rax,0x8(%rsp)
 4ba7078:	48 89 5c 24 10       	mov    %rbx,0x10(%rsp)
 4ba707d:	0f 1f 00             	nopl   (%rax)
 4ba7080:	e8 db d3 3a fd       	call   1f54460 <runtime.morestack_noctxt.abi0@@Base>
 4ba7085:	48 8b 44 24 08       	mov    0x8(%rsp),%rax
 4ba708a:	48 8b 5c 24 10       	mov    0x10(%rsp),%rbx
 4ba708f:	e9 ac fb ff ff       	jmp    4ba6c40 <github.com/vaughan0/go-ini.parseFile@@Base>
 4ba7094:	cc                   	int3
 4ba7095:	cc                   	int3
 4ba7096:	cc                   	int3
 4ba7097:	cc                   	int3
 4ba7098:	cc                   	int3
 4ba7099:	cc                   	int3
 4ba709a:	cc                   	int3
 4ba709b:	cc                   	int3
 4ba709c:	cc                   	int3
 4ba709d:	cc                   	int3
 4ba709e:	cc                   	int3
 4ba709f:	cc                   	int3

0000000004ba70a0 <github.com/vaughan0/go-ini.init@@Base>:
 4ba70a0:	49 3b 66 10          	cmp    0x10(%r14),%rsp
 4ba70a4:	76 78                	jbe    4ba711e <github.com/vaughan0/go-ini.init@@Base+0x7e>
 4ba70a6:	48 83 ec 18          	sub    $0x18,%rsp
 4ba70aa:	48 89 6c 24 10       	mov    %rbp,0x10(%rsp)
 4ba70af:	48 8d 6c 24 10       	lea    0x10(%rsp),%rbp
 4ba70b4:	48 8d 05 56 15 0c 00 	lea    0xc1556(%rip),%rax        # 4c68611 <_IO_stdin_used@@Base+0x35611>
 4ba70bb:	bb 0a 00 00 00       	mov    $0xa,%ebx
 4ba70c0:	e8 bb 3c 6f fd       	call   229ad80 <regexp.MustCompile@@Base>
 4ba70c5:	83 3d 94 48 2d 03 00 	cmpl   $0x0,0x32d4894(%rip)        # 7e7b960 <runtime.writeBarrier@@Base>
 4ba70cc:	75 09                	jne    4ba70d7 <github.com/vaughan0/go-ini.init@@Base+0x37>
 4ba70ce:	48 89 05 43 5a 28 03 	mov    %rax,0x3285a43(%rip)        # 7e2cb18 <github.com/vaughan0/go-ini.sectionRegex@@Base>
 4ba70d5:	eb 0e                	jmp    4ba70e5 <github.com/vaughan0/go-ini.init@@Base+0x45>
 4ba70d7:	48 8d 3d 3a 5a 28 03 	lea    0x3285a3a(%rip),%rdi        # 7e2cb18 <github.com/vaughan0/go-ini.sectionRegex@@Base>
 4ba70de:	66 90                	xchg   %ax,%ax
 4ba70e0:	e8 1b f5 3a fd       	call   1f56600 <runtime.gcWriteBarrier@@Base>
 4ba70e5:	48 8d 05 30 b3 12 00 	lea    0x12b330(%rip),%rax        # 4cd241c <_IO_stdin_used@@Base+0x9f41c>
 4ba70ec:	bb 0e 00 00 00       	mov    $0xe,%ebx
 4ba70f1:	e8 8a 3c 6f fd       	call   229ad80 <regexp.MustCompile@@Base>
 4ba70f6:	83 3d 63 48 2d 03 00 	cmpl   $0x0,0x32d4863(%rip)        # 7e7b960 <runtime.writeBarrier@@Base>
 4ba70fd:	75 09                	jne    4ba7108 <github.com/vaughan0/go-ini.init@@Base+0x68>
 4ba70ff:	48 89 05 0a 5a 28 03 	mov    %rax,0x3285a0a(%rip)        # 7e2cb10 <github.com/vaughan0/go-ini.assignRegex@@Base>
 4ba7106:	eb 0c                	jmp    4ba7114 <github.com/vaughan0/go-ini.init@@Base+0x74>
 4ba7108:	48 8d 3d 01 5a 28 03 	lea    0x3285a01(%rip),%rdi        # 7e2cb10 <github.com/vaughan0/go-ini.assignRegex@@Base>
 4ba710f:	e8 ec f4 3a fd       	call   1f56600 <runtime.gcWriteBarrier@@Base>
 4ba7114:	48 8b 6c 24 10       	mov    0x10(%rsp),%rbp
 4ba7119:	48 83 c4 18          	add    $0x18,%rsp
 4ba711d:	c3                   	ret
 4ba711e:	66 90                	xchg   %ax,%ax
 4ba7120:	e8 3b d3 3a fd       	call   1f54460 <runtime.morestack_noctxt.abi0@@Base>
 4ba7125:	e9 76 ff ff ff       	jmp    4ba70a0 <github.com/vaughan0/go-ini.init@@Base>
 4ba712a:	cc                   	int3
 4ba712b:	cc                   	int3
 4ba712c:	cc                   	int3
 4ba712d:	cc                   	int3
 4ba712e:	cc                   	int3
 4ba712f:	cc                   	int3
 4ba7130:	cc                   	int3
 4ba7131:	cc                   	int3
 4ba7132:	cc                   	int3
 4ba7133:	cc                   	int3
 4ba7134:	cc                   	int3
 4ba7135:	cc                   	int3
 4ba7136:	cc                   	int3
 4ba7137:	cc                   	int3
 4ba7138:	cc                   	int3
 4ba7139:	cc                   	int3
 4ba713a:	cc                   	int3
 4ba713b:	cc                   	int3
 4ba713c:	cc                   	int3
 4ba713d:	cc                   	int3
 4ba713e:	cc                   	int3
 4ba713f:	cc                   	int3

0000000004ba7140 <type:.ch0Bk7Kl@@Base>:
 4ba7140:	49 3b 66 10          	cmp    0x10(%r14),%rsp
 4ba7144:	76 3e                	jbe    4ba7184 <type:.ch0Bk7Kl@@Base+0x44>
 4ba7146:	48 83 ec 20          	sub    $0x20,%rsp
 4ba714a:	48 89 6c 24 18       	mov    %rbp,0x18(%rsp)
 4ba714f:	48 8d 6c 24 18       	lea    0x18(%rsp),%rbp
 4ba7154:	48 8b 10             	mov    (%rax),%rdx
 4ba7157:	48 39 13             	cmp    %rdx,(%rbx)
 4ba715a:	75 1c                	jne    4ba7178 <type:.ch0Bk7Kl@@Base+0x38>
 4ba715c:	48 8b 48 10          	mov    0x10(%rax),%rcx
 4ba7160:	48 8b 53 08          	mov    0x8(%rbx),%rdx
 4ba7164:	48 8b 40 08          	mov    0x8(%rax),%rax
 4ba7168:	48 39 4b 10          	cmp    %rcx,0x10(%rbx)
 4ba716c:	75 0a                	jne    4ba7178 <type:.ch0Bk7Kl@@Base+0x38>
 4ba716e:	48 89 d3             	mov    %rdx,%rbx
 4ba7171:	e8 aa c9 33 fd       	call   1ee3b20 <runtime.memequal@@Base>
 4ba7176:	eb 02                	jmp    4ba717a <type:.ch0Bk7Kl@@Base+0x3a>
 4ba7178:	31 c0                	xor    %eax,%eax
 4ba717a:	48 8b 6c 24 18       	mov    0x18(%rsp),%rbp
 4ba717f:	48 83 c4 20          	add    $0x20,%rsp
 4ba7183:	c3                   	ret
 4ba7184:	48 89 44 24 08       	mov    %rax,0x8(%rsp)
 4ba7189:	48 89 5c 24 10       	mov    %rbx,0x10(%rsp)
 4ba718e:	e8 cd d2 3a fd       	call   1f54460 <runtime.morestack_noctxt.abi0@@Base>
 4ba7193:	48 8b 44 24 08       	mov    0x8(%rsp),%rax
 4ba7198:	48 8b 5c 24 10       	mov    0x10(%rsp),%rbx
 4ba719d:	eb a1                	jmp    4ba7140 <type:.ch0Bk7Kl@@Base>
 4ba719f:	cc                   	int3

0000000004ba71a0 <github.com/vaughan0/go-ini.(*ErrSyntax).Error@@Base>:
 4ba71a0:	49 3b 66 10          	cmp    0x10(%r14),%rsp
 4ba71a4:	0f 86 b0 00 00 00    	jbe    4ba725a <github.com/vaughan0/go-ini.(*ErrSyntax).Error@@Base+0xba>
 4ba71aa:	48 83 ec 60          	sub    $0x60,%rsp
 4ba71ae:	48 89 6c 24 58       	mov    %rbp,0x58(%rsp)
 4ba71b3:	48 8d 6c 24 58       	lea    0x58(%rsp),%rbp
 4ba71b8:	4d 8b 66 20          	mov    0x20(%r14),%r12
 4ba71bc:	0f 1f 40 00          	nopl   0x0(%rax)
 4ba71c0:	4d 85 e4             	test   %r12,%r12
 4ba71c3:	0f 85 a6 00 00 00    	jne    4ba726f <github.com/vaughan0/go-ini.(*ErrSyntax).Error@@Base+0xcf>
 4ba71c9:	48 85 c0             	test   %rax,%rax
 4ba71cc:	0f 84 82 00 00 00    	je     4ba7254 <github.com/vaughan0/go-ini.(*ErrSyntax).Error@@Base+0xb4>
 4ba71d2:	48 8b 08             	mov    (%rax),%rcx
 4ba71d5:	48 8b 50 08          	mov    0x8(%rax),%rdx
 4ba71d9:	48 89 54 24 30       	mov    %rdx,0x30(%rsp)
 4ba71de:	48 8b 58 10          	mov    0x10(%rax),%rbx
 4ba71e2:	48 89 5c 24 28       	mov    %rbx,0x28(%rsp)
 4ba71e7:	44 0f 11 7c 24 38    	movups %xmm15,0x38(%rsp)
 4ba71ed:	44 0f 11 7c 24 48    	movups %xmm15,0x48(%rsp)
 4ba71f3:	48 89 c8             	mov    %rcx,%rax
 4ba71f6:	e8 e5 6a 34 fd       	call   1eedce0 <runtime.convT64@@Base>
 4ba71fb:	48 8d 0d 5e 34 c0 00 	lea    0xc0345e(%rip),%rcx        # 57aa660 <type:int@@Base>
 4ba7202:	48 89 4c 24 38       	mov    %rcx,0x38(%rsp)
 4ba7207:	48 89 44 24 40       	mov    %rax,0x40(%rsp)
 4ba720c:	48 8b 44 24 30       	mov    0x30(%rsp),%rax
 4ba7211:	48 8b 5c 24 28       	mov    0x28(%rsp),%rbx
 4ba7216:	e8 45 6b 34 fd       	call   1eedd60 <runtime.convTstring@@Base>
 4ba721b:	48 8d 0d 7e 74 c0 00 	lea    0xc0747e(%rip),%rcx        # 57ae6a0 <type:string@@Base>
 4ba7222:	48 89 4c 24 48       	mov    %rcx,0x48(%rsp)
 4ba7227:	48 89 44 24 50       	mov    %rax,0x50(%rsp)
 4ba722c:	48 8d 05 b0 6c 25 00 	lea    0x256cb0(%rip),%rax        # 4dfdee3 <_IO_stdin_used@@Base+0x1caee3>
 4ba7233:	bb 21 00 00 00       	mov    $0x21,%ebx
 4ba7238:	48 8d 4c 24 38       	lea    0x38(%rsp),%rcx
 4ba723d:	bf 02 00 00 00       	mov    $0x2,%edi
 4ba7242:	48 89 fe             	mov    %rdi,%rsi
 4ba7245:	e8 b6 d6 44 fd       	call   1ff4900 <fmt.Sprintf@@Base>
 4ba724a:	48 8b 6c 24 58       	mov    0x58(%rsp),%rbp
 4ba724f:	48 83 c4 60          	add    $0x60,%rsp
 4ba7253:	c3                   	ret
 4ba7254:	e8 67 50 34 fd       	call   1eec2c0 <runtime.panicwrap@@Base>
 4ba7259:	90                   	nop
 4ba725a:	48 89 44 24 08       	mov    %rax,0x8(%rsp)
 4ba725f:	90                   	nop
 4ba7260:	e8 fb d1 3a fd       	call   1f54460 <runtime.morestack_noctxt.abi0@@Base>
 4ba7265:	48 8b 44 24 08       	mov    0x8(%rsp),%rax
 4ba726a:	e9 31 ff ff ff       	jmp    4ba71a0 <github.com/vaughan0/go-ini.(*ErrSyntax).Error@@Base>
 4ba726f:	4c 8d 6c 24 68       	lea    0x68(%rsp),%r13
 4ba7274:	4d 39 2c 24          	cmp    %r13,(%r12)
 4ba7278:	0f 85 4b ff ff ff    	jne    4ba71c9 <github.com/vaughan0/go-ini.(*ErrSyntax).Error@@Base+0x29>
 4ba727e:	49 89 24 24          	mov    %rsp,(%r12)
 4ba7282:	e9 42 ff ff ff       	jmp    4ba71c9 <github.com/vaughan0/go-ini.(*ErrSyntax).Error@@Base+0x29>
 4ba7287:	cc                   	int3
 4ba7288:	cc                   	int3
 4ba7289:	cc                   	int3
 4ba728a:	cc                   	int3
 4ba728b:	cc                   	int3
 4ba728c:	cc                   	int3
 4ba728d:	cc                   	int3
 4ba728e:	cc                   	int3
 4ba728f:	cc                   	int3
 4ba7290:	cc                   	int3
 4ba7291:	cc                   	int3
 4ba7292:	cc                   	int3
 4ba7293:	cc                   	int3
 4ba7294:	cc                   	int3
 4ba7295:	cc                   	int3
 4ba7296:	cc                   	int3
 4ba7297:	cc                   	int3
 4ba7298:	cc                   	int3
 4ba7299:	cc                   	int3
 4ba729a:	cc                   	int3
 4ba729b:	cc                   	int3
 4ba729c:	cc                   	int3
 4ba729d:	cc                   	int3
 4ba729e:	cc                   	int3
 4ba729f:	cc                   	int3

0000000004ba72a0 <github.com/vaughan0/go-ini.(*File).Get@@Base>:
 4ba72a0:	49 3b 66 10          	cmp    0x10(%r14),%rsp
 4ba72a4:	0f 86 9c 00 00 00    	jbe    4ba7346 <github.com/vaughan0/go-ini.(*File).Get@@Base+0xa6>
 4ba72aa:	48 83 ec 28          	sub    $0x28,%rsp
 4ba72ae:	48 89 6c 24 20       	mov    %rbp,0x20(%rsp)
 4ba72b3:	48 8d 6c 24 20       	lea    0x20(%rsp),%rbp
 4ba72b8:	4d 8b 66 20          	mov    0x20(%r14),%r12
 4ba72bc:	0f 1f 40 00          	nopl   0x0(%rax)
 4ba72c0:	4d 85 e4             	test   %r12,%r12
 4ba72c3:	0f 85 bc 00 00 00    	jne    4ba7385 <github.com/vaughan0/go-ini.(*File).Get@@Base+0xe5>
 4ba72c9:	48 89 5c 24 38       	mov    %rbx,0x38(%rsp)
 4ba72ce:	48 89 7c 24 48       	mov    %rdi,0x48(%rsp)
 4ba72d3:	48 85 c0             	test   %rax,%rax
 4ba72d6:	74 66                	je     4ba733e <github.com/vaughan0/go-ini.(*File).Get@@Base+0x9e>
 4ba72d8:	48 89 7c 24 48       	mov    %rdi,0x48(%rsp)
 4ba72dd:	48 89 74 24 50       	mov    %rsi,0x50(%rsp)
 4ba72e2:	48 8b 10             	mov    (%rax),%rdx
 4ba72e5:	48 8d 05 b4 4b 00 01 	lea    0x1004bb4(%rip),%rax        # 5babea0 <type:e5cz4hWi@@Base>
 4ba72ec:	48 89 cf             	mov    %rcx,%rdi
 4ba72ef:	48 89 d9             	mov    %rbx,%rcx
 4ba72f2:	48 89 d3             	mov    %rdx,%rbx
 4ba72f5:	e8 c6 e6 34 fd       	call   1ef59c0 <runtime.mapaccess1_faststr@@Base>
 4ba72fa:	48 8b 18             	mov    (%rax),%rbx
 4ba72fd:	0f 1f 00             	nopl   (%rax)
 4ba7300:	48 85 db             	test   %rbx,%rbx
 4ba7303:	75 08                	jne    4ba730d <github.com/vaughan0/go-ini.(*File).Get@@Base+0x6d>
 4ba7305:	31 f6                	xor    %esi,%esi
 4ba7307:	31 db                	xor    %ebx,%ebx
 4ba7309:	31 d2                	xor    %edx,%edx
 4ba730b:	eb 1f                	jmp    4ba732c <github.com/vaughan0/go-ini.(*File).Get@@Base+0x8c>
 4ba730d:	48 8d 05 4c de e7 00 	lea    0xe7de4c(%rip),%rax        # 5a25160 <type:dFVgwnz2@@Base>
 4ba7314:	48 8b 4c 24 48       	mov    0x48(%rsp),%rcx
 4ba7319:	48 8b 7c 24 50       	mov    0x50(%rsp),%rdi
 4ba731e:	66 90                	xchg   %ax,%ax
 4ba7320:	e8 9b ea 34 fd       	call   1ef5dc0 <runtime.mapaccess2_faststr@@Base>
 4ba7325:	48 8b 10             	mov    (%rax),%rdx
 4ba7328:	48 8b 70 08          	mov    0x8(%rax),%rsi
 4ba732c:	48 89 d0             	mov    %rdx,%rax
 4ba732f:	89 d9                	mov    %ebx,%ecx
 4ba7331:	48 89 f3             	mov    %rsi,%rbx
 4ba7334:	48 8b 6c 24 20       	mov    0x20(%rsp),%rbp
 4ba7339:	48 83 c4 28          	add    $0x28,%rsp
 4ba733d:	c3                   	ret
 4ba733e:	66 90                	xchg   %ax,%ax
 4ba7340:	e8 7b 4f 34 fd       	call   1eec2c0 <runtime.panicwrap@@Base>
 4ba7345:	90                   	nop
 4ba7346:	48 89 44 24 08       	mov    %rax,0x8(%rsp)
 4ba734b:	48 89 5c 24 10       	mov    %rbx,0x10(%rsp)
 4ba7350:	48 89 4c 24 18       	mov    %rcx,0x18(%rsp)
 4ba7355:	48 89 7c 24 20       	mov    %rdi,0x20(%rsp)
 4ba735a:	48 89 74 24 28       	mov    %rsi,0x28(%rsp)
 4ba735f:	90                   	nop
 4ba7360:	e8 fb d0 3a fd       	call   1f54460 <runtime.morestack_noctxt.abi0@@Base>
 4ba7365:	48 8b 44 24 08       	mov    0x8(%rsp),%rax
 4ba736a:	48 8b 5c 24 10       	mov    0x10(%rsp),%rbx
 4ba736f:	48 8b 4c 24 18       	mov    0x18(%rsp),%rcx
 4ba7374:	48 8b 7c 24 20       	mov    0x20(%rsp),%rdi
 4ba7379:	48 8b 74 24 28       	mov    0x28(%rsp),%rsi
 4ba737e:	66 90                	xchg   %ax,%ax
 4ba7380:	e9 1b ff ff ff       	jmp    4ba72a0 <github.com/vaughan0/go-ini.(*File).Get@@Base>
 4ba7385:	4c 8d 6c 24 30       	lea    0x30(%rsp),%r13
 4ba738a:	4d 39 2c 24          	cmp    %r13,(%r12)
 4ba738e:	0f 85 35 ff ff ff    	jne    4ba72c9 <github.com/vaughan0/go-ini.(*File).Get@@Base+0x29>
 4ba7394:	49 89 24 24          	mov    %rsp,(%r12)
 4ba7398:	e9 2c ff ff ff       	jmp    4ba72c9 <github.com/vaughan0/go-ini.(*File).Get@@Base+0x29>
 4ba739d:	cc                   	int3
 4ba739e:	cc                   	int3
 4ba739f:	cc                   	int3

0000000004ba73a0 <github.com/vaughan0/go-ini.(*File).Load@@Base>:
 4ba73a0:	49 3b 66 10          	cmp    0x10(%r14),%rsp
 4ba73a4:	76 40                	jbe    4ba73e6 <github.com/vaughan0/go-ini.(*File).Load@@Base+0x46>
 4ba73a6:	48 83 ec 20          	sub    $0x20,%rsp
 4ba73aa:	48 89 6c 24 18       	mov    %rbp,0x18(%rsp)
 4ba73af:	48 8d 6c 24 18       	lea    0x18(%rsp),%rbp
 4ba73b4:	4d 8b 66 20          	mov    0x20(%r14),%r12
 4ba73b8:	4d 85 e4             	test   %r12,%r12
 4ba73bb:	75 4e                	jne    4ba740b <github.com/vaughan0/go-ini.(*File).Load@@Base+0x6b>
 4ba73bd:	48 89 5c 24 30       	mov    %rbx,0x30(%rsp)
 4ba73c2:	48 89 4c 24 38       	mov    %rcx,0x38(%rsp)
 4ba73c7:	48 85 c0             	test   %rax,%rax
 4ba73ca:	74 14                	je     4ba73e0 <github.com/vaughan0/go-ini.(*File).Load@@Base+0x40>
 4ba73cc:	48 8b 00             	mov    (%rax),%rax
 4ba73cf:	e8 2c f5 ff ff       	call   4ba6900 <github.com/vaughan0/go-ini.File.Load@@Base>
 4ba73d4:	48 8b 6c 24 18       	mov    0x18(%rsp),%rbp
 4ba73d9:	48 83 c4 20          	add    $0x20,%rsp
 4ba73dd:	c3                   	ret
 4ba73de:	66 90                	xchg   %ax,%ax
 4ba73e0:	e8 db 4e 34 fd       	call   1eec2c0 <runtime.panicwrap@@Base>
 4ba73e5:	90                   	nop
 4ba73e6:	48 89 44 24 08       	mov    %rax,0x8(%rsp)
 4ba73eb:	48 89 5c 24 10       	mov    %rbx,0x10(%rsp)
 4ba73f0:	48 89 4c 24 18       	mov    %rcx,0x18(%rsp)
 4ba73f5:	e8 66 d0 3a fd       	call   1f54460 <runtime.morestack_noctxt.abi0@@Base>
 4ba73fa:	48 8b 44 24 08       	mov    0x8(%rsp),%rax
 4ba73ff:	48 8b 5c 24 10       	mov    0x10(%rsp),%rbx
 4ba7404:	48 8b 4c 24 18       	mov    0x18(%rsp),%rcx
 4ba7409:	eb 95                	jmp    4ba73a0 <github.com/vaughan0/go-ini.(*File).Load@@Base>
 4ba740b:	4c 8d 6c 24 28       	lea    0x28(%rsp),%r13
 4ba7410:	4d 39 2c 24          	cmp    %r13,(%r12)
 4ba7414:	75 a7                	jne    4ba73bd <github.com/vaughan0/go-ini.(*File).Load@@Base+0x1d>
 4ba7416:	49 89 24 24          	mov    %rsp,(%r12)
 4ba741a:	eb a1                	jmp    4ba73bd <github.com/vaughan0/go-ini.(*File).Load@@Base+0x1d>
 4ba741c:	cc                   	int3
 4ba741d:	cc                   	int3
 4ba741e:	cc                   	int3
 4ba741f:	cc                   	int3

0000000004ba7420 <github.com/vaughan0/go-ini.(*File).LoadFile@@Base>:
 4ba7420:	49 3b 66 10          	cmp    0x10(%r14),%rsp
 4ba7424:	76 39                	jbe    4ba745f <github.com/vaughan0/go-ini.(*File).LoadFile@@Base+0x3f>
 4ba7426:	48 83 ec 20          	sub    $0x20,%rsp
 4ba742a:	48 89 6c 24 18       	mov    %rbp,0x18(%rsp)
 4ba742f:	48 8d 6c 24 18       	lea    0x18(%rsp),%rbp
 4ba7434:	4d 8b 66 20          	mov    0x20(%r14),%r12
 4ba7438:	4d 85 e4             	test   %r12,%r12
 4ba743b:	75 47                	jne    4ba7484 <github.com/vaughan0/go-ini.(*File).LoadFile@@Base+0x64>
 4ba743d:	48 89 5c 24 30       	mov    %rbx,0x30(%rsp)
 4ba7442:	48 85 c0             	test   %rax,%rax
 4ba7445:	74 12                	je     4ba7459 <github.com/vaughan0/go-ini.(*File).LoadFile@@Base+0x39>
 4ba7447:	48 8b 00             	mov    (%rax),%rax
 4ba744a:	e8 71 f6 ff ff       	call   4ba6ac0 <github.com/vaughan0/go-ini.File.LoadFile@@Base>
 4ba744f:	48 8b 6c 24 18       	mov    0x18(%rsp),%rbp
 4ba7454:	48 83 c4 20          	add    $0x20,%rsp
 4ba7458:	c3                   	ret
 4ba7459:	e8 62 4e 34 fd       	call   1eec2c0 <runtime.panicwrap@@Base>
 4ba745e:	90                   	nop
 4ba745f:	48 89 44 24 08       	mov    %rax,0x8(%rsp)
 4ba7464:	48 89 5c 24 10       	mov    %rbx,0x10(%rsp)
 4ba7469:	48 89 4c 24 18       	mov    %rcx,0x18(%rsp)
 4ba746e:	e8 ed cf 3a fd       	call   1f54460 <runtime.morestack_noctxt.abi0@@Base>
 4ba7473:	48 8b 44 24 08       	mov    0x8(%rsp),%rax
 4ba7478:	48 8b 5c 24 10       	mov    0x10(%rsp),%rbx
 4ba747d:	48 8b 4c 24 18       	mov    0x18(%rsp),%rcx
 4ba7482:	eb 9c                	jmp    4ba7420 <github.com/vaughan0/go-ini.(*File).LoadFile@@Base>
 4ba7484:	4c 8d 6c 24 28       	lea    0x28(%rsp),%r13
 4ba7489:	4d 39 2c 24          	cmp    %r13,(%r12)
 4ba748d:	75 ae                	jne    4ba743d <github.com/vaughan0/go-ini.(*File).LoadFile@@Base+0x1d>
 4ba748f:	49 89 24 24          	mov    %rsp,(%r12)
 4ba7493:	eb a8                	jmp    4ba743d <github.com/vaughan0/go-ini.(*File).LoadFile@@Base+0x1d>
 4ba7495:	cc                   	int3
 4ba7496:	cc                   	int3
 4ba7497:	cc                   	int3
 4ba7498:	cc                   	int3
 4ba7499:	cc                   	int3
 4ba749a:	cc                   	int3
 4ba749b:	cc                   	int3
 4ba749c:	cc                   	int3
 4ba749d:	cc                   	int3
 4ba749e:	cc                   	int3
 4ba749f:	cc                   	int3

0000000004ba74a0 <github.com/vaughan0/go-ini.(*File).Section@@Base>:
 4ba74a0:	49 3b 66 10          	cmp    0x10(%r14),%rsp
 4ba74a4:	0f 86 bc 00 00 00    	jbe    4ba7566 <github.com/vaughan0/go-ini.(*File).Section@@Base+0xc6>
 4ba74aa:	48 83 ec 38          	sub    $0x38,%rsp
 4ba74ae:	48 89 6c 24 30       	mov    %rbp,0x30(%rsp)
 4ba74b3:	48 8d 6c 24 30       	lea    0x30(%rsp),%rbp
 4ba74b8:	4d 8b 66 20          	mov    0x20(%r14),%r12
 4ba74bc:	0f 1f 40 00          	nopl   0x0(%rax)
 4ba74c0:	4d 85 e4             	test   %r12,%r12
 4ba74c3:	0f 85 c5 00 00 00    	jne    4ba758e <github.com/vaughan0/go-ini.(*File).Section@@Base+0xee>
 4ba74c9:	48 89 5c 24 48       	mov    %rbx,0x48(%rsp)
 4ba74ce:	48 85 c0             	test   %rax,%rax
 4ba74d1:	0f 84 88 00 00 00    	je     4ba755f <github.com/vaughan0/go-ini.(*File).Section@@Base+0xbf>
 4ba74d7:	48 89 4c 24 50       	mov    %rcx,0x50(%rsp)
 4ba74dc:	48 89 5c 24 48       	mov    %rbx,0x48(%rsp)
 4ba74e1:	48 8b 10             	mov    (%rax),%rdx
 4ba74e4:	48 89 54 24 20       	mov    %rdx,0x20(%rsp)
 4ba74e9:	48 8d 05 b0 49 00 01 	lea    0x10049b0(%rip),%rax        # 5babea0 <type:e5cz4hWi@@Base>
 4ba74f0:	48 89 cf             	mov    %rcx,%rdi
 4ba74f3:	48 89 d9             	mov    %rbx,%rcx
 4ba74f6:	48 89 d3             	mov    %rdx,%rbx
 4ba74f9:	e8 c2 e4 34 fd       	call   1ef59c0 <runtime.mapaccess1_faststr@@Base>
 4ba74fe:	48 8b 10             	mov    (%rax),%rdx
 4ba7501:	48 85 d2             	test   %rdx,%rdx
 4ba7504:	75 4c                	jne    4ba7552 <github.com/vaughan0/go-ini.(*File).Section@@Base+0xb2>
 4ba7506:	e8 35 9d 34 fd       	call   1ef1240 <runtime.makemap_small@@Base>
 4ba750b:	48 89 44 24 28       	mov    %rax,0x28(%rsp)
 4ba7510:	48 8b 5c 24 20       	mov    0x20(%rsp),%rbx
 4ba7515:	48 8b 4c 24 48       	mov    0x48(%rsp),%rcx
 4ba751a:	48 8b 7c 24 50       	mov    0x50(%rsp),%rdi
 4ba751f:	48 8d 05 7a 49 00 01 	lea    0x100497a(%rip),%rax        # 5babea0 <type:e5cz4hWi@@Base>
 4ba7526:	e8 b5 ec 34 fd       	call   1ef61e0 <runtime.mapassign_faststr@@Base>
 4ba752b:	84 00                	test   %al,(%rax)
 4ba752d:	83 3d 2c 44 2d 03 00 	cmpl   $0x0,0x32d442c(%rip)        # 7e7b960 <runtime.writeBarrier@@Base>
 4ba7534:	75 0c                	jne    4ba7542 <github.com/vaughan0/go-ini.(*File).Section@@Base+0xa2>
 4ba7536:	48 8b 4c 24 28       	mov    0x28(%rsp),%rcx
 4ba753b:	48 89 08             	mov    %rcx,(%rax)
 4ba753e:	66 90                	xchg   %ax,%ax
 4ba7540:	eb 0d                	jmp    4ba754f <github.com/vaughan0/go-ini.(*File).Section@@Base+0xaf>
 4ba7542:	48 89 c7             	mov    %rax,%rdi
 4ba7545:	48 8b 4c 24 28       	mov    0x28(%rsp),%rcx
 4ba754a:	e8 b1 f1 3a fd       	call   1f56700 <runtime.gcWriteBarrierCX@@Base>
 4ba754f:	48 89 ca             	mov    %rcx,%rdx
 4ba7552:	48 89 d0             	mov    %rdx,%rax
 4ba7555:	48 8b 6c 24 30       	mov    0x30(%rsp),%rbp
 4ba755a:	48 83 c4 38          	add    $0x38,%rsp
 4ba755e:	c3                   	ret
 4ba755f:	90                   	nop
 4ba7560:	e8 5b 4d 34 fd       	call   1eec2c0 <runtime.panicwrap@@Base>
 4ba7565:	90                   	nop
 4ba7566:	48 89 44 24 08       	mov    %rax,0x8(%rsp)
 4ba756b:	48 89 5c 24 10       	mov    %rbx,0x10(%rsp)
 4ba7570:	48 89 4c 24 18       	mov    %rcx,0x18(%rsp)
 4ba7575:	e8 e6 ce 3a fd       	call   1f54460 <runtime.morestack_noctxt.abi0@@Base>
 4ba757a:	48 8b 44 24 08       	mov    0x8(%rsp),%rax
 4ba757f:	48 8b 5c 24 10       	mov    0x10(%rsp),%rbx
 4ba7584:	48 8b 4c 24 18       	mov    0x18(%rsp),%rcx
 4ba7589:	e9 12 ff ff ff       	jmp    4ba74a0 <github.com/vaughan0/go-ini.(*File).Section@@Base>
 4ba758e:	4c 8d 6c 24 40       	lea    0x40(%rsp),%r13
 4ba7593:	4d 39 2c 24          	cmp    %r13,(%r12)
 4ba7597:	0f 85 2c ff ff ff    	jne    4ba74c9 <github.com/vaughan0/go-ini.(*File).Section@@Base+0x29>
 4ba759d:	49 89 24 24          	mov    %rsp,(%r12)
 4ba75a1:	e9 23 ff ff ff       	jmp    4ba74c9 <github.com/vaughan0/go-ini.(*File).Section@@Base+0x29>
 4ba75a6:	cc                   	int3
 4ba75a7:	cc                   	int3
 4ba75a8:	cc                   	int3
 4ba75a9:	cc                   	int3
 4ba75aa:	cc                   	int3
 4ba75ab:	cc                   	int3
 4ba75ac:	cc                   	int3
 4ba75ad:	cc                   	int3
 4ba75ae:	cc                   	int3
 4ba75af:	cc                   	int3
 4ba75b0:	cc                   	int3
 4ba75b1:	cc                   	int3
 4ba75b2:	cc                   	int3
 4ba75b3:	cc                   	int3
 4ba75b4:	cc                   	int3
 4ba75b5:	cc                   	int3
 4ba75b6:	cc                   	int3
 4ba75b7:	cc                   	int3
 4ba75b8:	cc                   	int3
 4ba75b9:	cc                   	int3
 4ba75ba:	cc                   	int3
 4ba75bb:	cc                   	int3
 4ba75bc:	cc                   	int3
 4ba75bd:	cc                   	int3
 4ba75be:	cc                   	int3
 4ba75bf:	cc                   	int3

0000000004ba75c0 <github.com/mitchellh/mapstructure.typedDecodeHook@@Base>:
 4ba75c0:	4c 8d 64 24 b8       	lea    -0x48(%rsp),%r12
 4ba75c5:	4d 3b 66 10          	cmp    0x10(%r14),%r12
 4ba75c9:	0f 86 bb 02 00 00    	jbe    4ba788a <github.com/mitchellh/mapstructure.typedDecodeHook@@Base+0x2ca>
 4ba75cf:	48 81 ec c8 00 00 00 	sub    $0xc8,%rsp
 4ba75d6:	48 89 ac 24 c0 00 00 	mov    %rbp,0xc0(%rsp)
 4ba75dd:	00 
 4ba75de:	48 8d ac 24 c0 00 00 	lea    0xc0(%rsp),%rbp
 4ba75e5:	00 
 4ba75e6:	48 89 84 24 d0 00 00 	mov    %rax,0xd0(%rsp)
 4ba75ed:	00 
 4ba75ee:	48 89 9c 24 d8 00 00 	mov    %rbx,0xd8(%rsp)
 4ba75f5:	00 
 4ba75f6:	44 0f 11 bc 24 90 00 	movups %xmm15,0x90(%rsp)
 4ba75fd:	00 00 
 4ba75ff:	44 0f 11 bc 24 a0 00 	movups %xmm15,0xa0(%rsp)
 4ba7606:	00 00 
 4ba7608:	44 0f 11 bc 24 b0 00 	movups %xmm15,0xb0(%rsp)
 4ba760f:	00 00 
 4ba7611:	48 8d 15 c8 f3 e9 00 	lea    0xe9f3c8(%rip),%rdx        # 5a469e0 <type:m86+JeRe@@Base>
 4ba7618:	48 89 94 24 90 00 00 	mov    %rdx,0x90(%rsp)
 4ba761f:	00 
 4ba7620:	48 8d 15 39 f3 e9 00 	lea    0xe9f339(%rip),%rdx        # 5a46960 <type:F4LXDf/C@@Base>
 4ba7627:	48 89 94 24 a0 00 00 	mov    %rdx,0xa0(%rsp)
 4ba762e:	00 
 4ba762f:	48 8d 15 aa ca e7 00 	lea    0xe7caaa(%rip),%rdx        # 5a240e0 <type:zDIYHYCh@@Base>
 4ba7636:	48 89 94 24 b0 00 00 	mov    %rdx,0xb0(%rsp)
 4ba763d:	00 
 4ba763e:	66 90                	xchg   %ax,%ax
 4ba7640:	48 85 c0             	test   %rax,%rax
 4ba7643:	74 72                	je     4ba76b7 <github.com/mitchellh/mapstructure.typedDecodeHook@@Base+0xf7>
 4ba7645:	90                   	nop
 4ba7646:	80 3d f3 0c 29 03 00 	cmpb   $0x0,0x3290cf3(%rip)        # 7e38340 <reflect.dummy@@Base>
 4ba764d:	74 25                	je     4ba7674 <github.com/mitchellh/mapstructure.typedDecodeHook@@Base+0xb4>
 4ba764f:	48 89 05 f2 0c 29 03 	mov    %rax,0x3290cf2(%rip)        # 7e38348 <reflect.dummy@@Base+0x8>
 4ba7656:	83 3d 03 43 2d 03 00 	cmpl   $0x0,0x32d4303(%rip)        # 7e7b960 <runtime.writeBarrier@@Base>
 4ba765d:	75 09                	jne    4ba7668 <github.com/mitchellh/mapstructure.typedDecodeHook@@Base+0xa8>
 4ba765f:	48 89 1d ea 0c 29 03 	mov    %rbx,0x3290cea(%rip)        # 7e38350 <reflect.dummy@@Base+0x10>
 4ba7666:	eb 0c                	jmp    4ba7674 <github.com/mitchellh/mapstructure.typedDecodeHook@@Base+0xb4>
 4ba7668:	48 8d 3d e1 0c 29 03 	lea    0x3290ce1(%rip),%rdi        # 7e38350 <reflect.dummy@@Base+0x10>
 4ba766f:	e8 cc f0 3a fd       	call   1f56740 <runtime.gcWriteBarrierBX@@Base>
 4ba7674:	48 89 84 24 80 00 00 	mov    %rax,0x80(%rsp)
 4ba767b:	00 
 4ba767c:	48 89 9c 24 88 00 00 	mov    %rbx,0x88(%rsp)
 4ba7683:	00 
 4ba7684:	48 8b 94 24 80 00 00 	mov    0x80(%rsp),%rdx
 4ba768b:	00 
 4ba768c:	48 85 d2             	test   %rdx,%rdx
 4ba768f:	74 1d                	je     4ba76ae <github.com/mitchellh/mapstructure.typedDecodeHook@@Base+0xee>
 4ba7691:	0f b6 72 17          	movzbl 0x17(%rdx),%esi
 4ba7695:	41 89 f0             	mov    %esi,%r8d
 4ba7698:	83 e6 1f             	and    $0x1f,%esi
 4ba769b:	49 89 f1             	mov    %rsi,%r9
 4ba769e:	48 0f ba ee 07       	bts    $0x7,%rsi
 4ba76a3:	41 f6 c0 20          	test   $0x20,%r8b
 4ba76a7:	4c 0f 44 ce          	cmove  %rsi,%r9
 4ba76ab:	90                   	nop
 4ba76ac:	eb 10                	jmp    4ba76be <github.com/mitchellh/mapstructure.typedDecodeHook@@Base+0xfe>
 4ba76ae:	45 31 c9             	xor    %r9d,%r9d
 4ba76b1:	31 d2                	xor    %edx,%edx
 4ba76b3:	31 db                	xor    %ebx,%ebx
 4ba76b5:	eb 07                	jmp    4ba76be <github.com/mitchellh/mapstructure.typedDecodeHook@@Base+0xfe>
 4ba76b7:	45 31 c9             	xor    %r9d,%r9d
 4ba76ba:	31 d2                	xor    %edx,%edx
 4ba76bc:	31 db                	xor    %ebx,%ebx
 4ba76be:	4c 89 4c 24 28       	mov    %r9,0x28(%rsp)
 4ba76c3:	48 89 5c 24 50       	mov    %rbx,0x50(%rsp)
 4ba76c8:	48 89 54 24 48       	mov    %rdx,0x48(%rsp)
 4ba76cd:	4d 85 c9             	test   %r9,%r9
 4ba76d0:	74 13                	je     4ba76e5 <github.com/mitchellh/mapstructure.typedDecodeHook@@Base+0x125>
 4ba76d2:	41 0f ba e1 09       	bt     $0x9,%r9d
 4ba76d7:	72 0c                	jb     4ba76e5 <github.com/mitchellh/mapstructure.typedDecodeHook@@Base+0x125>
 4ba76d9:	48 89 d0             	mov    %rdx,%rax
 4ba76dc:	48 8d 0d 0d ed 3b 01 	lea    0x13bed0d(%rip),%rcx        # 5f663f0 <go:itab.*reflect.rtype,reflect.Type@@Base>
 4ba76e3:	eb 20                	jmp    4ba7705 <github.com/mitchellh/mapstructure.typedDecodeHook@@Base+0x145>
 4ba76e5:	48 89 d0             	mov    %rdx,%rax
 4ba76e8:	4c 89 c9             	mov    %r9,%rcx
 4ba76eb:	e8 d0 49 3f fd       	call   1f9c0c0 <reflect.Value.typeSlow@@Base>
 4ba76f0:	4c 8b 4c 24 28       	mov    0x28(%rsp),%r9
 4ba76f5:	48 89 c1             	mov    %rax,%rcx
 4ba76f8:	48 89 da             	mov    %rbx,%rdx
 4ba76fb:	48 8b 44 24 48       	mov    0x48(%rsp),%rax
 4ba7700:	48 8b 5c 24 50       	mov    0x50(%rsp),%rbx
 4ba7705:	48 89 54 24 60       	mov    %rdx,0x60(%rsp)
 4ba770a:	48 89 4c 24 38       	mov    %rcx,0x38(%rsp)
 4ba770f:	48 8d b4 24 90 00 00 	lea    0x90(%rsp),%rsi
 4ba7716:	00 
 4ba7717:	31 ff                	xor    %edi,%edi
 4ba7719:	eb 2a                	jmp    4ba7745 <github.com/mitchellh/mapstructure.typedDecodeHook@@Base+0x185>
 4ba771b:	48 8b 74 24 68       	mov    0x68(%rsp),%rsi
 4ba7720:	48 83 c6 10          	add    $0x10,%rsi
 4ba7724:	48 8b 7c 24 40       	mov    0x40(%rsp),%rdi
 4ba7729:	48 ff c7             	inc    %rdi
 4ba772c:	48 8b 44 24 48       	mov    0x48(%rsp),%rax
 4ba7731:	48 8b 4c 24 38       	mov    0x38(%rsp),%rcx
 4ba7736:	48 8b 54 24 60       	mov    0x60(%rsp),%rdx
 4ba773b:	48 8b 5c 24 50       	mov    0x50(%rsp),%rbx
 4ba7740:	4c 8b 4c 24 28       	mov    0x28(%rsp),%r9
 4ba7745:	48 83 ff 03          	cmp    $0x3,%rdi
 4ba7749:	0f 8d 27 01 00 00    	jge    4ba7876 <github.com/mitchellh/mapstructure.typedDecodeHook@@Base+0x2b6>
 4ba774f:	4c 8b 06             	mov    (%rsi),%r8
 4ba7752:	4c 8b 56 08          	mov    0x8(%rsi),%r10
 4ba7756:	4d 85 c0             	test   %r8,%r8
 4ba7759:	74 7c                	je     4ba77d7 <github.com/mitchellh/mapstructure.typedDecodeHook@@Base+0x217>
 4ba775b:	90                   	nop
 4ba775c:	80 3d dd 0b 29 03 00 	cmpb   $0x0,0x3290bdd(%rip)        # 7e38340 <reflect.dummy@@Base>
 4ba7763:	74 34                	je     4ba7799 <github.com/mitchellh/mapstructure.typedDecodeHook@@Base+0x1d9>
 4ba7765:	4c 89 05 dc 0b 29 03 	mov    %r8,0x3290bdc(%rip)        # 7e38348 <reflect.dummy@@Base+0x8>
 4ba776c:	83 3d ed 41 2d 03 00 	cmpl   $0x0,0x32d41ed(%rip)        # 7e7b960 <runtime.writeBarrier@@Base>
 4ba7773:	75 09                	jne    4ba777e <github.com/mitchellh/mapstructure.typedDecodeHook@@Base+0x1be>
 4ba7775:	4c 89 15 d4 0b 29 03 	mov    %r10,0x3290bd4(%rip)        # 7e38350 <reflect.dummy@@Base+0x10>
 4ba777c:	eb 1b                	jmp    4ba7799 <github.com/mitchellh/mapstructure.typedDecodeHook@@Base+0x1d9>
 4ba777e:	49 89 fb             	mov    %rdi,%r11
 4ba7781:	48 8d 3d c8 0b 29 03 	lea    0x3290bc8(%rip),%rdi        # 7e38350 <reflect.dummy@@Base+0x10>
 4ba7788:	4d 89 cc             	mov    %r9,%r12
 4ba778b:	4d 89 d1             	mov    %r10,%r9
 4ba778e:	e8 0d f0 3a fd       	call   1f567a0 <runtime.gcWriteBarrierR9@@Base>
 4ba7793:	4c 89 df             	mov    %r11,%rdi
 4ba7796:	4d 89 e1             	mov    %r12,%r9
 4ba7799:	4c 89 44 24 70       	mov    %r8,0x70(%rsp)
 4ba779e:	4c 89 54 24 78       	mov    %r10,0x78(%rsp)
 4ba77a3:	4c 8b 44 24 70       	mov    0x70(%rsp),%r8
 4ba77a8:	4d 85 c0             	test   %r8,%r8
 4ba77ab:	74 1f                	je     4ba77cc <github.com/mitchellh/mapstructure.typedDecodeHook@@Base+0x20c>
 4ba77ad:	45 0f b6 58 17       	movzbl 0x17(%r8),%r11d
 4ba77b2:	45 89 dc             	mov    %r11d,%r12d
 4ba77b5:	41 83 e3 1f          	and    $0x1f,%r11d
 4ba77b9:	4d 89 dd             	mov    %r11,%r13
 4ba77bc:	49 0f ba eb 07       	bts    $0x7,%r11
 4ba77c1:	41 f6 c4 20          	test   $0x20,%r12b
 4ba77c5:	4d 0f 44 eb          	cmove  %r11,%r13
 4ba77c9:	90                   	nop
 4ba77ca:	eb 14                	jmp    4ba77e0 <github.com/mitchellh/mapstructure.typedDecodeHook@@Base+0x220>
 4ba77cc:	45 31 ed             	xor    %r13d,%r13d
 4ba77cf:	45 31 c0             	xor    %r8d,%r8d
 4ba77d2:	45 31 d2             	xor    %r10d,%r10d
 4ba77d5:	eb 09                	jmp    4ba77e0 <github.com/mitchellh/mapstructure.typedDecodeHook@@Base+0x220>
 4ba77d7:	45 31 ed             	xor    %r13d,%r13d
 4ba77da:	45 31 c0             	xor    %r8d,%r8d
 4ba77dd:	45 31 d2             	xor    %r10d,%r10d
 4ba77e0:	48 89 7c 24 40       	mov    %rdi,0x40(%rsp)
 4ba77e5:	48 89 74 24 68       	mov    %rsi,0x68(%rsp)
 4ba77ea:	4d 85 ed             	test   %r13,%r13
 4ba77ed:	74 10                	je     4ba77ff <github.com/mitchellh/mapstructure.typedDecodeHook@@Base+0x23f>
 4ba77ef:	41 0f ba e5 09       	bt     $0x9,%r13d
 4ba77f4:	72 09                	jb     4ba77ff <github.com/mitchellh/mapstructure.typedDecodeHook@@Base+0x23f>
 4ba77f6:	4c 8d 15 f3 eb 3b 01 	lea    0x13bebf3(%rip),%r10        # 5f663f0 <go:itab.*reflect.rtype,reflect.Type@@Base>
 4ba77fd:	eb 1e                	jmp    4ba781d <github.com/mitchellh/mapstructure.typedDecodeHook@@Base+0x25d>
 4ba77ff:	4c 89 c0             	mov    %r8,%rax
 4ba7802:	4c 89 d3             	mov    %r10,%rbx
 4ba7805:	4c 89 e9             	mov    %r13,%rcx
 4ba7808:	e8 b3 48 3f fd       	call   1f9c0c0 <reflect.Value.typeSlow@@Base>
 4ba780d:	48 8b 4c 24 38       	mov    0x38(%rsp),%rcx
 4ba7812:	48 8b 54 24 60       	mov    0x60(%rsp),%rdx
 4ba7817:	49 89 c2             	mov    %rax,%r10
 4ba781a:	49 89 d8             	mov    %rbx,%r8
 4ba781d:	4c 89 44 24 58       	mov    %r8,0x58(%rsp)
 4ba7822:	4c 89 54 24 30       	mov    %r10,0x30(%rsp)
 4ba7827:	48 8b 71 40          	mov    0x40(%rcx),%rsi
 4ba782b:	48 89 d0             	mov    %rdx,%rax
 4ba782e:	4c 89 d3             	mov    %r10,%rbx
 4ba7831:	4c 89 c1             	mov    %r8,%rcx
 4ba7834:	ff d6                	call   *%rsi
 4ba7836:	84 c0                	test   %al,%al
 4ba7838:	0f 84 dd fe ff ff    	je     4ba771b <github.com/mitchellh/mapstructure.typedDecodeHook@@Base+0x15b>
 4ba783e:	48 8b 44 24 48       	mov    0x48(%rsp),%rax
 4ba7843:	48 8b 5c 24 50       	mov    0x50(%rsp),%rbx
 4ba7848:	48 8b 4c 24 28       	mov    0x28(%rsp),%rcx
 4ba784d:	48 8b 7c 24 30       	mov    0x30(%rsp),%rdi
 4ba7852:	48 8b 74 24 58       	mov    0x58(%rsp),%rsi
 4ba7857:	e8 c4 6b 3f fd       	call   1f9e420 <reflect.Value.Convert@@Base>
 4ba785c:	bf 01 00 00 00       	mov    $0x1,%edi
 4ba7861:	e8 3a fe 3e fd       	call   1f976a0 <reflect.valueInterface@@Base>
 4ba7866:	48 8b ac 24 c0 00 00 	mov    0xc0(%rsp),%rbp
 4ba786d:	00 
 4ba786e:	48 81 c4 c8 00 00 00 	add    $0xc8,%rsp
 4ba7875:	c3                   	ret
 4ba7876:	31 c0                	xor    %eax,%eax
 4ba7878:	31 db                	xor    %ebx,%ebx
 4ba787a:	48 8b ac 24 c0 00 00 	mov    0xc0(%rsp),%rbp
 4ba7881:	00 
 4ba7882:	48 81 c4 c8 00 00 00 	add    $0xc8,%rsp
 4ba7889:	c3                   	ret
 4ba788a:	48 89 44 24 08       	mov    %rax,0x8(%rsp)
 4ba788f:	48 89 5c 24 10       	mov    %rbx,0x10(%rsp)
 4ba7894:	e8 c7 cb 3a fd       	call   1f54460 <runtime.morestack_noctxt.abi0@@Base>
 4ba7899:	48 8b 44 24 08       	mov    0x8(%rsp),%rax
 4ba789e:	48 8b 5c 24 10       	mov    0x10(%rsp),%rbx
 4ba78a3:	e9 18 fd ff ff       	jmp    4ba75c0 <github.com/mitchellh/mapstructure.typedDecodeHook@@Base>
 4ba78a8:	cc                   	int3
 4ba78a9:	cc                   	int3
 4ba78aa:	cc                   	int3
 4ba78ab:	cc                   	int3
 4ba78ac:	cc                   	int3
 4ba78ad:	cc                   	int3
 4ba78ae:	cc                   	int3
 4ba78af:	cc                   	int3
 4ba78b0:	cc                   	int3
 4ba78b1:	cc                   	int3
 4ba78b2:	cc                   	int3
 4ba78b3:	cc                   	int3
 4ba78b4:	cc                   	int3
 4ba78b5:	cc                   	int3
 4ba78b6:	cc                   	int3
 4ba78b7:	cc                   	int3
 4ba78b8:	cc                   	int3
 4ba78b9:	cc                   	int3
 4ba78ba:	cc                   	int3
 4ba78bb:	cc                   	int3
 4ba78bc:	cc                   	int3
 4ba78bd:	cc                   	int3
 4ba78be:	cc                   	int3
 4ba78bf:	cc                   	int3

0000000004ba78c0 <github.com/mitchellh/mapstructure.DecodeHookExec@@Base>:
 4ba78c0:	4c 8d 64 24 f0       	lea    -0x10(%rsp),%r12
 4ba78c5:	4d 3b 66 10          	cmp    0x10(%r14),%r12
 4ba78c9:	0f 86 8e 02 00 00    	jbe    4ba7b5d <github.com/mitchellh/mapstructure.DecodeHookExec@@Base+0x29d>
 4ba78cf:	48 81 ec 90 00 00 00 	sub    $0x90,%rsp
 4ba78d6:	48 89 ac 24 88 00 00 	mov    %rbp,0x88(%rsp)
 4ba78dd:	00 
 4ba78de:	48 8d ac 24 88 00 00 	lea    0x88(%rsp),%rbp
 4ba78e5:	00 
 4ba78e6:	48 89 84 24 98 00 00 	mov    %rax,0x98(%rsp)
 4ba78ed:	00 
 4ba78ee:	48 89 9c 24 a0 00 00 	mov    %rbx,0xa0(%rsp)
 4ba78f5:	00 
 4ba78f6:	48 89 8c 24 a8 00 00 	mov    %rcx,0xa8(%rsp)
 4ba78fd:	00 
 4ba78fe:	48 89 bc 24 b0 00 00 	mov    %rdi,0xb0(%rsp)
 4ba7905:	00 
 4ba7906:	4c 89 84 24 c0 00 00 	mov    %r8,0xc0(%rsp)
 4ba790d:	00 
 4ba790e:	4c 89 8c 24 c8 00 00 	mov    %r9,0xc8(%rsp)
 4ba7915:	00 
 4ba7916:	48 89 8c 24 80 00 00 	mov    %rcx,0x80(%rsp)
 4ba791d:	00 
 4ba791e:	4c 89 54 24 48       	mov    %r10,0x48(%rsp)
 4ba7923:	4c 89 4c 24 78       	mov    %r9,0x78(%rsp)
 4ba7928:	4c 89 44 24 70       	mov    %r8,0x70(%rsp)
 4ba792d:	48 89 74 24 40       	mov    %rsi,0x40(%rsp)
 4ba7932:	48 89 7c 24 68       	mov    %rdi,0x68(%rsp)
 4ba7937:	e8 84 fc ff ff       	call   4ba75c0 <github.com/mitchellh/mapstructure.typedDecodeHook@@Base>
 4ba793c:	0f 1f 40 00          	nopl   0x0(%rax)
 4ba7940:	48 85 c0             	test   %rax,%rax
 4ba7943:	0f 84 d8 01 00 00    	je     4ba7b21 <github.com/mitchellh/mapstructure.DecodeHookExec@@Base+0x261>
 4ba7949:	48 89 5c 24 60       	mov    %rbx,0x60(%rsp)
 4ba794e:	44 8b 48 10          	mov    0x10(%rax),%r9d
 4ba7952:	41 81 f9 ab a6 78 38 	cmp    $0x3878a6ab,%r9d
 4ba7959:	75 66                	jne    4ba79c1 <github.com/mitchellh/mapstructure.DecodeHookExec@@Base+0x101>
 4ba795b:	48 8d 15 fe ef e9 00 	lea    0xe9effe(%rip),%rdx        # 5a46960 <type:F4LXDf/C@@Base>
 4ba7962:	48 39 d0             	cmp    %rdx,%rax
 4ba7965:	0f 85 b6 01 00 00    	jne    4ba7b21 <github.com/mitchellh/mapstructure.DecodeHookExec@@Base+0x261>
 4ba796b:	90                   	nop
 4ba796c:	90                   	nop
 4ba796d:	48 8b 84 24 80 00 00 	mov    0x80(%rsp),%rax
 4ba7974:	00 
 4ba7975:	48 8b 5c 24 68       	mov    0x68(%rsp),%rbx
 4ba797a:	48 8b 4c 24 40       	mov    0x40(%rsp),%rcx
 4ba797f:	bf 01 00 00 00       	mov    $0x1,%edi
 4ba7984:	e8 17 fd 3e fd       	call   1f976a0 <reflect.valueInterface@@Base>
 4ba7989:	48 8b 54 24 60       	mov    0x60(%rsp),%rdx
 4ba798e:	48 8b 32             	mov    (%rdx),%rsi
 4ba7991:	4c 8b 44 24 40       	mov    0x40(%rsp),%r8
 4ba7996:	41 83 e0 1f          	and    $0x1f,%r8d
 4ba799a:	4c 8b 4c 24 48       	mov    0x48(%rsp),%r9
 4ba799f:	41 83 e1 1f          	and    $0x1f,%r9d
 4ba79a3:	48 89 c1             	mov    %rax,%rcx
 4ba79a6:	48 89 df             	mov    %rbx,%rdi
 4ba79a9:	4c 89 c0             	mov    %r8,%rax
 4ba79ac:	4c 89 cb             	mov    %r9,%rbx
 4ba79af:	ff d6                	call   *%rsi
 4ba79b1:	48 8b ac 24 88 00 00 	mov    0x88(%rsp),%rbp
 4ba79b8:	00 
 4ba79b9:	48 81 c4 90 00 00 00 	add    $0x90,%rsp
 4ba79c0:	c3                   	ret
 4ba79c1:	41 81 f9 57 ed 5b 60 	cmp    $0x605bed57,%r9d
 4ba79c8:	75 56                	jne    4ba7a20 <github.com/mitchellh/mapstructure.DecodeHookExec@@Base+0x160>
 4ba79ca:	4c 8d 0d 0f c7 e7 00 	lea    0xe7c70f(%rip),%r9        # 5a240e0 <type:zDIYHYCh@@Base>
 4ba79d1:	4c 39 c8             	cmp    %r9,%rax
 4ba79d4:	0f 85 47 01 00 00    	jne    4ba7b21 <github.com/mitchellh/mapstructure.DecodeHookExec@@Base+0x261>
 4ba79da:	4c 8b 0b             	mov    (%rbx),%r9
 4ba79dd:	48 8b 84 24 80 00 00 	mov    0x80(%rsp),%rax
 4ba79e4:	00 
 4ba79e5:	48 8b 4c 24 40       	mov    0x40(%rsp),%rcx
 4ba79ea:	48 8b 7c 24 70       	mov    0x70(%rsp),%rdi
 4ba79ef:	48 8b 74 24 78       	mov    0x78(%rsp),%rsi
 4ba79f4:	4c 8b 44 24 48       	mov    0x48(%rsp),%r8
 4ba79f9:	48 89 da             	mov    %rbx,%rdx
 4ba79fc:	48 8b 5c 24 68       	mov    0x68(%rsp),%rbx
 4ba7a01:	41 ff d1             	call   *%r9
 4ba7a04:	48 8b ac 24 88 00 00 	mov    0x88(%rsp),%rbp
 4ba7a0b:	00 
 4ba7a0c:	48 81 c4 90 00 00 00 	add    $0x90,%rsp
 4ba7a13:	c3                   	ret
 4ba7a14:	66 0f 1f 84 00 00 00 	nopw   0x0(%rax,%rax,1)
 4ba7a1b:	00 00 
 4ba7a1d:	0f 1f 00             	nopl   (%rax)
 4ba7a20:	41 81 f9 e7 ff af ec 	cmp    $0xecafffe7,%r9d
 4ba7a27:	0f 85 f4 00 00 00    	jne    4ba7b21 <github.com/mitchellh/mapstructure.DecodeHookExec@@Base+0x261>
 4ba7a2d:	48 8d 15 ac ef e9 00 	lea    0xe9efac(%rip),%rdx        # 5a469e0 <type:m86+JeRe@@Base>
 4ba7a34:	48 39 d0             	cmp    %rdx,%rax
 4ba7a37:	0f 85 e4 00 00 00    	jne    4ba7b21 <github.com/mitchellh/mapstructure.DecodeHookExec@@Base+0x261>
 4ba7a3d:	48 8b 4c 24 40       	mov    0x40(%rsp),%rcx
 4ba7a42:	48 85 c9             	test   %rcx,%rcx
 4ba7a45:	74 17                	je     4ba7a5e <github.com/mitchellh/mapstructure.DecodeHookExec@@Base+0x19e>
 4ba7a47:	0f ba e1 09          	bt     $0x9,%ecx
 4ba7a4b:	72 11                	jb     4ba7a5e <github.com/mitchellh/mapstructure.DecodeHookExec@@Base+0x19e>
 4ba7a4d:	48 8d 05 9c e9 3b 01 	lea    0x13be99c(%rip),%rax        # 5f663f0 <go:itab.*reflect.rtype,reflect.Type@@Base>
 4ba7a54:	48 8b 94 24 80 00 00 	mov    0x80(%rsp),%rdx
 4ba7a5b:	00 
 4ba7a5c:	eb 1f                	jmp    4ba7a7d <github.com/mitchellh/mapstructure.DecodeHookExec@@Base+0x1bd>
 4ba7a5e:	48 8b 84 24 80 00 00 	mov    0x80(%rsp),%rax
 4ba7a65:	00 
 4ba7a66:	48 8b 5c 24 68       	mov    0x68(%rsp),%rbx
 4ba7a6b:	e8 50 46 3f fd       	call   1f9c0c0 <reflect.Value.typeSlow@@Base>
 4ba7a70:	48 8b 4c 24 40       	mov    0x40(%rsp),%rcx
 4ba7a75:	48 89 da             	mov    %rbx,%rdx
 4ba7a78:	48 8b 5c 24 60       	mov    0x60(%rsp),%rbx
 4ba7a7d:	48 89 54 24 58       	mov    %rdx,0x58(%rsp)
 4ba7a82:	48 89 44 24 38       	mov    %rax,0x38(%rsp)
 4ba7a87:	48 8b 74 24 48       	mov    0x48(%rsp),%rsi
 4ba7a8c:	48 85 f6             	test   %rsi,%rsi
 4ba7a8f:	74 14                	je     4ba7aa5 <github.com/mitchellh/mapstructure.DecodeHookExec@@Base+0x1e5>
 4ba7a91:	0f ba e6 09          	bt     $0x9,%esi
 4ba7a95:	72 0e                	jb     4ba7aa5 <github.com/mitchellh/mapstructure.DecodeHookExec@@Base+0x1e5>
 4ba7a97:	48 8d 35 52 e9 3b 01 	lea    0x13be952(%rip),%rsi        # 5f663f0 <go:itab.*reflect.rtype,reflect.Type@@Base>
 4ba7a9e:	48 8b 7c 24 70       	mov    0x70(%rsp),%rdi
 4ba7aa3:	eb 1d                	jmp    4ba7ac2 <github.com/mitchellh/mapstructure.DecodeHookExec@@Base+0x202>
 4ba7aa5:	48 8b 44 24 70       	mov    0x70(%rsp),%rax
 4ba7aaa:	48 8b 5c 24 78       	mov    0x78(%rsp),%rbx
 4ba7aaf:	48 89 f1             	mov    %rsi,%rcx
 4ba7ab2:	e8 09 46 3f fd       	call   1f9c0c0 <reflect.Value.typeSlow@@Base>
 4ba7ab7:	48 8b 4c 24 40       	mov    0x40(%rsp),%rcx
 4ba7abc:	48 89 c6             	mov    %rax,%rsi
 4ba7abf:	48 89 df             	mov    %rbx,%rdi
 4ba7ac2:	48 89 74 24 30       	mov    %rsi,0x30(%rsp)
 4ba7ac7:	48 89 7c 24 50       	mov    %rdi,0x50(%rsp)
 4ba7acc:	48 8b 84 24 80 00 00 	mov    0x80(%rsp),%rax
 4ba7ad3:	00 
 4ba7ad4:	48 8b 5c 24 68       	mov    0x68(%rsp),%rbx
 4ba7ad9:	bf 01 00 00 00       	mov    $0x1,%edi
 4ba7ade:	66 90                	xchg   %ax,%ax
 4ba7ae0:	e8 bb fb 3e fd       	call   1f976a0 <reflect.valueInterface@@Base>
 4ba7ae5:	48 8b 54 24 60       	mov    0x60(%rsp),%rdx
 4ba7aea:	48 8b 32             	mov    (%rdx),%rsi
 4ba7aed:	48 8b 4c 24 30       	mov    0x30(%rsp),%rcx
 4ba7af2:	48 8b 7c 24 50       	mov    0x50(%rsp),%rdi
 4ba7af7:	49 89 d8             	mov    %rbx,%r8
 4ba7afa:	48 8b 5c 24 58       	mov    0x58(%rsp),%rbx
 4ba7aff:	49 89 c1             	mov    %rax,%r9
 4ba7b02:	48 8b 44 24 38       	mov    0x38(%rsp),%rax
 4ba7b07:	49 89 f2             	mov    %rsi,%r10
 4ba7b0a:	4c 89 ce             	mov    %r9,%rsi
 4ba7b0d:	41 ff d2             	call   *%r10
 4ba7b10:	48 8b ac 24 88 00 00 	mov    0x88(%rsp),%rbp
 4ba7b17:	00 
 4ba7b18:	48 81 c4 90 00 00 00 	add    $0x90,%rsp
 4ba7b1f:	90                   	nop
 4ba7b20:	c3                   	ret
 4ba7b21:	48 8d 05 d8 c7 ec 00 	lea    0xecc7d8(%rip),%rax        # 5a74300 <type:hE5I1The@@Base>
 4ba7b28:	e8 b3 89 34 fd       	call   1ef04e0 <runtime.newobject@@Base>
 4ba7b2d:	48 c7 40 08 1d 00 00 	movq   $0x1d,0x8(%rax)
 4ba7b34:	00 
 4ba7b35:	48 8d 0d 39 5a 24 00 	lea    0x245a39(%rip),%rcx        # 4ded575 <_IO_stdin_used@@Base+0x1ba575>
 4ba7b3c:	48 89 08             	mov    %rcx,(%rax)
 4ba7b3f:	31 db                	xor    %ebx,%ebx
 4ba7b41:	48 8d 0d 78 63 35 01 	lea    0x1356378(%rip),%rcx        # 5efdec0 <go:itab.*errors.errorString,error@@Base>
 4ba7b48:	48 89 c7             	mov    %rax,%rdi
 4ba7b4b:	31 c0                	xor    %eax,%eax
 4ba7b4d:	48 8b ac 24 88 00 00 	mov    0x88(%rsp),%rbp
 4ba7b54:	00 
 4ba7b55:	48 81 c4 90 00 00 00 	add    $0x90,%rsp
 4ba7b5c:	c3                   	ret
 4ba7b5d:	48 89 44 24 08       	mov    %rax,0x8(%rsp)
 4ba7b62:	48 89 5c 24 10       	mov    %rbx,0x10(%rsp)
 4ba7b67:	48 89 4c 24 18       	mov    %rcx,0x18(%rsp)
 4ba7b6c:	48 89 7c 24 20       	mov    %rdi,0x20(%rsp)
 4ba7b71:	48 89 74 24 28       	mov    %rsi,0x28(%rsp)
 4ba7b76:	4c 89 44 24 30       	mov    %r8,0x30(%rsp)
 4ba7b7b:	4c 89 4c 24 38       	mov    %r9,0x38(%rsp)
 4ba7b80:	4c 89 54 24 40       	mov    %r10,0x40(%rsp)
 4ba7b85:	e8 d6 c8 3a fd       	call   1f54460 <runtime.morestack_noctxt.abi0@@Base>
 4ba7b8a:	48 8b 44 24 08       	mov    0x8(%rsp),%rax
 4ba7b8f:	48 8b 5c 24 10       	mov    0x10(%rsp),%rbx
 4ba7b94:	48 8b 4c 24 18       	mov    0x18(%rsp),%rcx
 4ba7b99:	48 8b 7c 24 20       	mov    0x20(%rsp),%rdi
 4ba7b9e:	48 8b 74 24 28       	mov    0x28(%rsp),%rsi
 4ba7ba3:	4c 8b 44 24 30       	mov    0x30(%rsp),%r8
 4ba7ba8:	4c 8b 4c 24 38       	mov    0x38(%rsp),%r9
 4ba7bad:	4c 8b 54 24 40       	mov    0x40(%rsp),%r10
 4ba7bb2:	e9 09 fd ff ff       	jmp    4ba78c0 <github.com/mitchellh/mapstructure.DecodeHookExec@@Base>
 4ba7bb7:	cc                   	int3
 4ba7bb8:	cc                   	int3
 4ba7bb9:	cc                   	int3
 4ba7bba:	cc                   	int3
 4ba7bbb:	cc                   	int3
 4ba7bbc:	cc                   	int3
 4ba7bbd:	cc                   	int3
 4ba7bbe:	cc                   	int3
 4ba7bbf:	cc                   	int3

0000000004ba7bc0 <github.com/mitchellh/mapstructure.(*Error).Error@@Base>:
 4ba7bc0:	4c 8d 64 24 e8       	lea    -0x18(%rsp),%r12
 4ba7bc5:	4d 3b 66 10          	cmp    0x10(%r14),%r12
 4ba7bc9:	0f 86 ec 01 00 00    	jbe    4ba7dbb <github.com/mitchellh/mapstructure.(*Error).Error@@Base+0x1fb>
 4ba7bcf:	48 81 ec 98 00 00 00 	sub    $0x98,%rsp
 4ba7bd6:	48 89 ac 24 90 00 00 	mov    %rbp,0x90(%rsp)
 4ba7bdd:	00 
 4ba7bde:	48 8d ac 24 90 00 00 	lea    0x90(%rsp),%rbp
 4ba7be5:	00 
 4ba7be6:	48 89 84 24 a0 00 00 	mov    %rax,0xa0(%rsp)
 4ba7bed:	00 
 4ba7bee:	48 8b 48 08          	mov    0x8(%rax),%rcx
 4ba7bf2:	48 89 4c 24 28       	mov    %rcx,0x28(%rsp)
 4ba7bf7:	48 89 cb             	mov    %rcx,%rbx
 4ba7bfa:	48 8d 05 9f 6a c0 00 	lea    0xc06a9f(%rip),%rax        # 57ae6a0 <type:string@@Base>
 4ba7c01:	e8 da e7 38 fd       	call   1f363e0 <runtime.makeslice@@Base>
 4ba7c06:	48 89 44 24 58       	mov    %rax,0x58(%rsp)
 4ba7c0b:	48 8b 94 24 a0 00 00 	mov    0xa0(%rsp),%rdx
 4ba7c12:	00 
 4ba7c13:	48 8b 32             	mov    (%rdx),%rsi
 4ba7c16:	48 8b 7a 08          	mov    0x8(%rdx),%rdi
 4ba7c1a:	48 89 7c 24 40       	mov    %rdi,0x40(%rsp)
 4ba7c1f:	31 c9                	xor    %ecx,%ecx
 4ba7c21:	eb 20                	jmp    4ba7c43 <github.com/mitchellh/mapstructure.(*Error).Error@@Base+0x83>
 4ba7c23:	4c 8b 4c 24 50       	mov    0x50(%rsp),%r9
 4ba7c28:	49 83 c1 10          	add    $0x10,%r9
 4ba7c2c:	48 8d 4e 01          	lea    0x1(%rsi),%rcx
 4ba7c30:	4c 89 c0             	mov    %r8,%rax
 4ba7c33:	48 8b 94 24 a0 00 00 	mov    0xa0(%rsp),%rdx
 4ba7c3a:	00 
 4ba7c3b:	48 8b 7c 24 40       	mov    0x40(%rsp),%rdi
 4ba7c40:	4c 89 ce             	mov    %r9,%rsi
 4ba7c43:	48 39 f9             	cmp    %rdi,%rcx
 4ba7c46:	0f 8d 8f 00 00 00    	jge    4ba7cdb <github.com/mitchellh/mapstructure.(*Error).Error@@Base+0x11b>
 4ba7c4c:	48 89 4c 24 30       	mov    %rcx,0x30(%rsp)
 4ba7c51:	48 89 74 24 50       	mov    %rsi,0x50(%rsp)
 4ba7c56:	48 8b 06             	mov    (%rsi),%rax
 4ba7c59:	48 8b 5e 08          	mov    0x8(%rsi),%rbx
 4ba7c5d:	44 0f 11 7c 24 60    	movups %xmm15,0x60(%rsp)
 4ba7c63:	e8 f8 60 34 fd       	call   1eedd60 <runtime.convTstring@@Base>
 4ba7c68:	48 8d 0d 31 6a c0 00 	lea    0xc06a31(%rip),%rcx        # 57ae6a0 <type:string@@Base>
 4ba7c6f:	48 89 4c 24 60       	mov    %rcx,0x60(%rsp)
 4ba7c74:	48 89 44 24 68       	mov    %rax,0x68(%rsp)
 4ba7c79:	48 8d 05 74 c5 08 00 	lea    0x8c574(%rip),%rax        # 4c341f4 <_IO_stdin_used@@Base+0x11f4>
 4ba7c80:	bb 04 00 00 00       	mov    $0x4,%ebx
 4ba7c85:	bf 01 00 00 00       	mov    $0x1,%edi
 4ba7c8a:	48 89 fe             	mov    %rdi,%rsi
 4ba7c8d:	48 8d 4c 24 60       	lea    0x60(%rsp),%rcx
 4ba7c92:	e8 69 cc 44 fd       	call   1ff4900 <fmt.Sprintf@@Base>
 4ba7c97:	48 8b 4c 24 30       	mov    0x30(%rsp),%rcx
 4ba7c9c:	48 8b 54 24 28       	mov    0x28(%rsp),%rdx
 4ba7ca1:	48 39 d1             	cmp    %rdx,%rcx
 4ba7ca4:	0f 83 05 01 00 00    	jae    4ba7daf <github.com/mitchellh/mapstructure.(*Error).Error@@Base+0x1ef>
 4ba7caa:	48 89 ce             	mov    %rcx,%rsi
 4ba7cad:	48 c1 e1 04          	shl    $0x4,%rcx
 4ba7cb1:	4c 8b 44 24 58       	mov    0x58(%rsp),%r8
 4ba7cb6:	49 89 5c 08 08       	mov    %rbx,0x8(%r8,%rcx,1)
 4ba7cbb:	49 8d 3c 08          	lea    (%r8,%rcx,1),%rdi
 4ba7cbf:	83 3d 9a 3c 2d 03 00 	cmpl   $0x0,0x32d3c9a(%rip)        # 7e7b960 <runtime.writeBarrier@@Base>
 4ba7cc6:	75 09                	jne    4ba7cd1 <github.com/mitchellh/mapstructure.(*Error).Error@@Base+0x111>
 4ba7cc8:	49 89 04 08          	mov    %rax,(%r8,%rcx,1)
 4ba7ccc:	e9 52 ff ff ff       	jmp    4ba7c23 <github.com/mitchellh/mapstructure.(*Error).Error@@Base+0x63>
 4ba7cd1:	e8 2a e9 3a fd       	call   1f56600 <runtime.gcWriteBarrier@@Base>
 4ba7cd6:	e9 48 ff ff ff       	jmp    4ba7c23 <github.com/mitchellh/mapstructure.(*Error).Error@@Base+0x63>
 4ba7cdb:	90                   	nop
 4ba7cdc:	48 8b 5c 24 28       	mov    0x28(%rsp),%rbx
 4ba7ce1:	48 89 d9             	mov    %rbx,%rcx
 4ba7ce4:	e8 17 61 34 fd       	call   1eede00 <runtime.convTslice@@Base>
 4ba7ce9:	48 89 c3             	mov    %rax,%rbx
 4ba7cec:	48 8d 05 fd f8 38 01 	lea    0x138f8fd(%rip),%rax        # 5f375f0 <go:itab.sort.StringSlice,sort.Interface@@Base>
 4ba7cf3:	e8 e8 b4 3b fd       	call   1f631e0 <sort.Sort@@Base>
 4ba7cf8:	48 8b 94 24 a0 00 00 	mov    0xa0(%rsp),%rdx
 4ba7cff:	00 
 4ba7d00:	48 8b 52 08          	mov    0x8(%rdx),%rdx
 4ba7d04:	48 89 54 24 40       	mov    %rdx,0x40(%rsp)
 4ba7d09:	48 8b 44 24 58       	mov    0x58(%rsp),%rax
 4ba7d0e:	48 8b 5c 24 28       	mov    0x28(%rsp),%rbx
 4ba7d13:	48 89 d9             	mov    %rbx,%rcx
 4ba7d16:	48 8d 3d ab e8 92 00 	lea    0x92e8ab(%rip),%rdi        # 54d65c8 <_IO_stdin_used@@Base+0x8a35c8>
 4ba7d1d:	be 01 00 00 00       	mov    $0x1,%esi
 4ba7d22:	e8 f9 f8 45 fd       	call   2007620 <strings.Join@@Base>
 4ba7d27:	48 89 44 24 48       	mov    %rax,0x48(%rsp)
 4ba7d2c:	48 89 5c 24 38       	mov    %rbx,0x38(%rsp)
 4ba7d31:	44 0f 11 7c 24 70    	movups %xmm15,0x70(%rsp)
 4ba7d37:	44 0f 11 bc 24 80 00 	movups %xmm15,0x80(%rsp)
 4ba7d3e:	00 00 
 4ba7d40:	48 8b 44 24 40       	mov    0x40(%rsp),%rax
 4ba7d45:	e8 96 5f 34 fd       	call   1eedce0 <runtime.convT64@@Base>
 4ba7d4a:	48 8d 15 0f 29 c0 00 	lea    0xc0290f(%rip),%rdx        # 57aa660 <type:int@@Base>
 4ba7d51:	48 89 54 24 70       	mov    %rdx,0x70(%rsp)
 4ba7d56:	48 89 44 24 78       	mov    %rax,0x78(%rsp)
 4ba7d5b:	48 8b 44 24 48       	mov    0x48(%rsp),%rax
 4ba7d60:	48 8b 5c 24 38       	mov    0x38(%rsp),%rbx
 4ba7d65:	e8 f6 5f 34 fd       	call   1eedd60 <runtime.convTstring@@Base>
 4ba7d6a:	48 8d 15 2f 69 c0 00 	lea    0xc0692f(%rip),%rdx        # 57ae6a0 <type:string@@Base>
 4ba7d71:	48 89 94 24 80 00 00 	mov    %rdx,0x80(%rsp)
 4ba7d78:	00 
 4ba7d79:	48 89 84 24 88 00 00 	mov    %rax,0x88(%rsp)
 4ba7d80:	00 
 4ba7d81:	48 8d 05 10 2d 23 00 	lea    0x232d10(%rip),%rax        # 4ddaa98 <_IO_stdin_used@@Base+0x1a7a98>
 4ba7d88:	bb 19 00 00 00       	mov    $0x19,%ebx
 4ba7d8d:	48 8d 4c 24 70       	lea    0x70(%rsp),%rcx
 4ba7d92:	bf 02 00 00 00       	mov    $0x2,%edi
 4ba7d97:	48 89 fe             	mov    %rdi,%rsi
 4ba7d9a:	e8 61 cb 44 fd       	call   1ff4900 <fmt.Sprintf@@Base>
 4ba7d9f:	48 8b ac 24 90 00 00 	mov    0x90(%rsp),%rbp
 4ba7da6:	00 
 4ba7da7:	48 81 c4 98 00 00 00 	add    $0x98,%rsp
 4ba7dae:	c3                   	ret
 4ba7daf:	48 89 c8             	mov    %rcx,%rax
 4ba7db2:	48 89 d1             	mov    %rdx,%rcx
 4ba7db5:	e8 e6 ec 3a fd       	call   1f56aa0 <runtime.panicIndex@@Base>
 4ba7dba:	90                   	nop
 4ba7dbb:	48 89 44 24 08       	mov    %rax,0x8(%rsp)
 4ba7dc0:	e8 9b c6 3a fd       	call   1f54460 <runtime.morestack_noctxt.abi0@@Base>
 4ba7dc5:	48 8b 44 24 08       	mov    0x8(%rsp),%rax
 4ba7dca:	e9 f1 fd ff ff       	jmp    4ba7bc0 <github.com/mitchellh/mapstructure.(*Error).Error@@Base>
 4ba7dcf:	cc                   	int3
 4ba7dd0:	cc                   	int3
 4ba7dd1:	cc                   	int3
 4ba7dd2:	cc                   	int3
 4ba7dd3:	cc                   	int3
 4ba7dd4:	cc                   	int3
 4ba7dd5:	cc                   	int3
 4ba7dd6:	cc                   	int3
 4ba7dd7:	cc                   	int3
 4ba7dd8:	cc                   	int3
 4ba7dd9:	cc                   	int3
 4ba7dda:	cc                   	int3
 4ba7ddb:	cc                   	int3
 4ba7ddc:	cc                   	int3
 4ba7ddd:	cc                   	int3
 4ba7dde:	cc                   	int3
 4ba7ddf:	cc                   	int3

0000000004ba7de0 <github.com/mitchellh/mapstructure.(*Error).WrappedErrors@@Base>:
 4ba7de0:	49 3b 66 10          	cmp    0x10(%r14),%rsp
 4ba7de4:	0f 86 36 01 00 00    	jbe    4ba7f20 <github.com/mitchellh/mapstructure.(*Error).WrappedErrors@@Base+0x140>
 4ba7dea:	48 83 ec 58          	sub    $0x58,%rsp
 4ba7dee:	48 89 6c 24 50       	mov    %rbp,0x50(%rsp)
 4ba7df3:	48 8d 6c 24 50       	lea    0x50(%rsp),%rbp
 4ba7df8:	48 85 c0             	test   %rax,%rax
 4ba7dfb:	74 37                	je     4ba7e34 <github.com/mitchellh/mapstructure.(*Error).WrappedErrors@@Base+0x54>
 4ba7dfd:	48 89 44 24 60       	mov    %rax,0x60(%rsp)
 4ba7e02:	48 8b 48 08          	mov    0x8(%rax),%rcx
 4ba7e06:	48 89 4c 24 18       	mov    %rcx,0x18(%rsp)
 4ba7e0b:	48 89 cb             	mov    %rcx,%rbx
 4ba7e0e:	48 8d 05 cb a7 e6 00 	lea    0xe6a7cb(%rip),%rax        # 5a125e0 <type:error@@Base>
 4ba7e15:	e8 c6 e5 38 fd       	call   1f363e0 <runtime.makeslice@@Base>
 4ba7e1a:	48 89 44 24 48       	mov    %rax,0x48(%rsp)
 4ba7e1f:	48 8b 54 24 60       	mov    0x60(%rsp),%rdx
 4ba7e24:	48 8b 32             	mov    (%rdx),%rsi
 4ba7e27:	48 8b 52 08          	mov    0x8(%rdx),%rdx
 4ba7e2b:	48 89 54 24 30       	mov    %rdx,0x30(%rsp)
 4ba7e30:	31 c9                	xor    %ecx,%ecx
 4ba7e32:	eb 2c                	jmp    4ba7e60 <github.com/mitchellh/mapstructure.(*Error).WrappedErrors@@Base+0x80>
 4ba7e34:	31 c0                	xor    %eax,%eax
 4ba7e36:	31 db                	xor    %ebx,%ebx
 4ba7e38:	48 89 d9             	mov    %rbx,%rcx
 4ba7e3b:	48 8b 6c 24 50       	mov    0x50(%rsp),%rbp
 4ba7e40:	48 83 c4 58          	add    $0x58,%rsp
 4ba7e44:	c3                   	ret
 4ba7e45:	48 8b 7c 24 40       	mov    0x40(%rsp),%rdi
 4ba7e4a:	48 83 c7 10          	add    $0x10,%rdi
 4ba7e4e:	4c 8d 56 01          	lea    0x1(%rsi),%r10
 4ba7e52:	4c 89 c8             	mov    %r9,%rax
 4ba7e55:	48 8b 54 24 30       	mov    0x30(%rsp),%rdx
 4ba7e5a:	4c 89 d1             	mov    %r10,%rcx
 4ba7e5d:	48 89 fe             	mov    %rdi,%rsi
 4ba7e60:	48 39 d1             	cmp    %rdx,%rcx
 4ba7e63:	0f 8d 9c 00 00 00    	jge    4ba7f05 <github.com/mitchellh/mapstructure.(*Error).WrappedErrors@@Base+0x125>
 4ba7e69:	48 89 4c 24 20       	mov    %rcx,0x20(%rsp)
 4ba7e6e:	48 89 74 24 40       	mov    %rsi,0x40(%rsp)
 4ba7e73:	48 8b 0e             	mov    (%rsi),%rcx
 4ba7e76:	48 89 4c 24 38       	mov    %rcx,0x38(%rsp)
 4ba7e7b:	48 8b 56 08          	mov    0x8(%rsi),%rdx
 4ba7e7f:	48 89 54 24 28       	mov    %rdx,0x28(%rsp)
 4ba7e84:	48 8d 05 75 c4 ec 00 	lea    0xecc475(%rip),%rax        # 5a74300 <type:hE5I1The@@Base>
 4ba7e8b:	e8 50 86 34 fd       	call   1ef04e0 <runtime.newobject@@Base>
 4ba7e90:	48 8b 4c 24 28       	mov    0x28(%rsp),%rcx
 4ba7e95:	48 89 48 08          	mov    %rcx,0x8(%rax)
 4ba7e99:	83 3d c0 3a 2d 03 00 	cmpl   $0x0,0x32d3ac0(%rip)        # 7e7b960 <runtime.writeBarrier@@Base>
 4ba7ea0:	75 0a                	jne    4ba7eac <github.com/mitchellh/mapstructure.(*Error).WrappedErrors@@Base+0xcc>
 4ba7ea2:	48 8b 54 24 38       	mov    0x38(%rsp),%rdx
 4ba7ea7:	48 89 10             	mov    %rdx,(%rax)
 4ba7eaa:	eb 0d                	jmp    4ba7eb9 <github.com/mitchellh/mapstructure.(*Error).WrappedErrors@@Base+0xd9>
 4ba7eac:	48 89 c7             	mov    %rax,%rdi
 4ba7eaf:	48 8b 54 24 38       	mov    0x38(%rsp),%rdx
 4ba7eb4:	e8 67 e8 3a fd       	call   1f56720 <runtime.gcWriteBarrierDX@@Base>
 4ba7eb9:	48 8b 54 24 20       	mov    0x20(%rsp),%rdx
 4ba7ebe:	48 8b 4c 24 18       	mov    0x18(%rsp),%rcx
 4ba7ec3:	48 39 ca             	cmp    %rcx,%rdx
 4ba7ec6:	73 4f                	jae    4ba7f17 <github.com/mitchellh/mapstructure.(*Error).WrappedErrors@@Base+0x137>
 4ba7ec8:	48 89 d6             	mov    %rdx,%rsi
 4ba7ecb:	48 c1 e2 04          	shl    $0x4,%rdx
 4ba7ecf:	4c 8d 05 ea 5f 35 01 	lea    0x1355fea(%rip),%r8        # 5efdec0 <go:itab.*errors.errorString,error@@Base>
 4ba7ed6:	4c 8b 4c 24 48       	mov    0x48(%rsp),%r9
 4ba7edb:	4d 89 04 11          	mov    %r8,(%r9,%rdx,1)
 4ba7edf:	49 8d 3c 11          	lea    (%r9,%rdx,1),%rdi
 4ba7ee3:	48 8d 7f 08          	lea    0x8(%rdi),%rdi
 4ba7ee7:	83 3d 72 3a 2d 03 00 	cmpl   $0x0,0x32d3a72(%rip)        # 7e7b960 <runtime.writeBarrier@@Base>
 4ba7eee:	75 0a                	jne    4ba7efa <github.com/mitchellh/mapstructure.(*Error).WrappedErrors@@Base+0x11a>
 4ba7ef0:	49 89 44 11 08       	mov    %rax,0x8(%r9,%rdx,1)
 4ba7ef5:	e9 4b ff ff ff       	jmp    4ba7e45 <github.com/mitchellh/mapstructure.(*Error).WrappedErrors@@Base+0x65>
 4ba7efa:	e8 01 e7 3a fd       	call   1f56600 <runtime.gcWriteBarrier@@Base>
 4ba7eff:	90                   	nop
 4ba7f00:	e9 40 ff ff ff       	jmp    4ba7e45 <github.com/mitchellh/mapstructure.(*Error).WrappedErrors@@Base+0x65>
 4ba7f05:	48 8b 5c 24 18       	mov    0x18(%rsp),%rbx
 4ba7f0a:	48 89 d9             	mov    %rbx,%rcx
 4ba7f0d:	48 8b 6c 24 50       	mov    0x50(%rsp),%rbp
 4ba7f12:	48 83 c4 58          	add    $0x58,%rsp
 4ba7f16:	c3                   	ret
 4ba7f17:	48 89 d0             	mov    %rdx,%rax
 4ba7f1a:	e8 81 eb 3a fd       	call   1f56aa0 <runtime.panicIndex@@Base>
 4ba7f1f:	90                   	nop
 4ba7f20:	48 89 44 24 08       	mov    %rax,0x8(%rsp)
 4ba7f25:	e8 36 c5 3a fd       	call   1f54460 <runtime.morestack_noctxt.abi0@@Base>
 4ba7f2a:	48 8b 44 24 08       	mov    0x8(%rsp),%rax
 4ba7f2f:	e9 ac fe ff ff       	jmp    4ba7de0 <github.com/mitchellh/mapstructure.(*Error).WrappedErrors@@Base>
 4ba7f34:	cc                   	int3
 4ba7f35:	cc                   	int3
 4ba7f36:	cc                   	int3
 4ba7f37:	cc                   	int3
 4ba7f38:	cc                   	int3
 4ba7f39:	cc                   	int3
 4ba7f3a:	cc                   	int3
 4ba7f3b:	cc                   	int3
 4ba7f3c:	cc                   	int3
 4ba7f3d:	cc                   	int3
 4ba7f3e:	cc                   	int3
 4ba7f3f:	cc                   	int3

0000000004ba7f40 <github.com/mitchellh/mapstructure.NewDecoder@@Base>:
 4ba7f40:	49 3b 66 10          	cmp    0x10(%r14),%rsp
 4ba7f44:	0f 86 c3 02 00 00    	jbe    4ba820d <github.com/mitchellh/mapstructure.NewDecoder@@Base+0x2cd>
 4ba7f4a:	48 83 ec 30          	sub    $0x30,%rsp
 4ba7f4e:	48 89 6c 24 28       	mov    %rbp,0x28(%rsp)
 4ba7f53:	48 8d 6c 24 28       	lea    0x28(%rsp),%rbp
 4ba7f58:	48 8b 50 20          	mov    0x20(%rax),%rdx
 4ba7f5c:	48 8b 70 28          	mov    0x28(%rax),%rsi
 4ba7f60:	48 85 d2             	test   %rdx,%rdx
 4ba7f63:	74 69                	je     4ba7fce <github.com/mitchellh/mapstructure.NewDecoder@@Base+0x8e>
 4ba7f65:	90                   	nop
 4ba7f66:	80 3d d3 03 29 03 00 	cmpb   $0x0,0x32903d3(%rip)        # 7e38340 <reflect.dummy@@Base>
 4ba7f6d:	74 25                	je     4ba7f94 <github.com/mitchellh/mapstructure.NewDecoder@@Base+0x54>
 4ba7f6f:	48 89 15 d2 03 29 03 	mov    %rdx,0x32903d2(%rip)        # 7e38348 <reflect.dummy@@Base+0x8>
 4ba7f76:	83 3d e3 39 2d 03 00 	cmpl   $0x0,0x32d39e3(%rip)        # 7e7b960 <runtime.writeBarrier@@Base>
 4ba7f7d:	75 09                	jne    4ba7f88 <github.com/mitchellh/mapstructure.NewDecoder@@Base+0x48>
 4ba7f7f:	48 89 35 ca 03 29 03 	mov    %rsi,0x32903ca(%rip)        # 7e38350 <reflect.dummy@@Base+0x10>
 4ba7f86:	eb 0c                	jmp    4ba7f94 <github.com/mitchellh/mapstructure.NewDecoder@@Base+0x54>
 4ba7f88:	48 8d 3d c1 03 29 03 	lea    0x32903c1(%rip),%rdi        # 7e38350 <reflect.dummy@@Base+0x10>
 4ba7f8f:	e8 cc e7 3a fd       	call   1f56760 <runtime.gcWriteBarrierSI@@Base>
 4ba7f94:	48 89 54 24 18       	mov    %rdx,0x18(%rsp)
 4ba7f99:	48 89 74 24 20       	mov    %rsi,0x20(%rsp)
 4ba7f9e:	48 8b 54 24 18       	mov    0x18(%rsp),%rdx
 4ba7fa3:	48 85 d2             	test   %rdx,%rdx
 4ba7fa6:	74 1d                	je     4ba7fc5 <github.com/mitchellh/mapstructure.NewDecoder@@Base+0x85>
 4ba7fa8:	0f b6 7a 17          	movzbl 0x17(%rdx),%edi
 4ba7fac:	41 89 f8             	mov    %edi,%r8d
 4ba7faf:	83 e7 1f             	and    $0x1f,%edi
 4ba7fb2:	49 89 f9             	mov    %rdi,%r9
 4ba7fb5:	48 0f ba ef 07       	bts    $0x7,%rdi
 4ba7fba:	41 f6 c0 20          	test   $0x20,%r8b
 4ba7fbe:	4c 0f 44 cf          	cmove  %rdi,%r9
 4ba7fc2:	90                   	nop
 4ba7fc3:	eb 10                	jmp    4ba7fd5 <github.com/mitchellh/mapstructure.NewDecoder@@Base+0x95>
 4ba7fc5:	45 31 c9             	xor    %r9d,%r9d
 4ba7fc8:	31 d2                	xor    %edx,%edx
 4ba7fca:	31 f6                	xor    %esi,%esi
 4ba7fcc:	eb 07                	jmp    4ba7fd5 <github.com/mitchellh/mapstructure.NewDecoder@@Base+0x95>
 4ba7fce:	45 31 c9             	xor    %r9d,%r9d
 4ba7fd1:	31 d2                	xor    %edx,%edx
 4ba7fd3:	31 f6                	xor    %esi,%esi
 4ba7fd5:	90                   	nop
 4ba7fd6:	4c 89 c9             	mov    %r9,%rcx
 4ba7fd9:	41 83 e1 1f          	and    $0x1f,%r9d
 4ba7fdd:	0f 1f 00             	nopl   (%rax)
 4ba7fe0:	49 83 f9 16          	cmp    $0x16,%r9
 4ba7fe4:	0f 85 ec 01 00 00    	jne    4ba81d6 <github.com/mitchellh/mapstructure.NewDecoder@@Base+0x296>
 4ba7fea:	48 89 44 24 38       	mov    %rax,0x38(%rsp)
 4ba7fef:	48 89 d0             	mov    %rdx,%rax
 4ba7ff2:	48 89 f3             	mov    %rsi,%rbx
 4ba7ff5:	e8 86 e4 3e fd       	call   1f96480 <reflect.Value.Elem@@Base>
 4ba7ffa:	0f ba e1 08          	bt     $0x8,%ecx
 4ba7ffe:	66 90                	xchg   %ax,%ax
 4ba8000:	0f 83 9c 01 00 00    	jae    4ba81a2 <github.com/mitchellh/mapstructure.NewDecoder@@Base+0x262>
 4ba8006:	48 8b 7c 24 38       	mov    0x38(%rsp),%rdi
 4ba800b:	48 8b 57 18          	mov    0x18(%rdi),%rdx
 4ba800f:	48 85 d2             	test   %rdx,%rdx
 4ba8012:	0f 84 dc 00 00 00    	je     4ba80f4 <github.com/mitchellh/mapstructure.NewDecoder@@Base+0x1b4>
 4ba8018:	48 83 3a 00          	cmpq   $0x0,(%rdx)
 4ba801c:	75 3b                	jne    4ba8059 <github.com/mitchellh/mapstructure.NewDecoder@@Base+0x119>
 4ba801e:	48 8d 05 7b 66 c0 00 	lea    0xc0667b(%rip),%rax        # 57ae6a0 <type:string@@Base>
 4ba8025:	31 db                	xor    %ebx,%ebx
 4ba8027:	48 89 d9             	mov    %rbx,%rcx
 4ba802a:	e8 b1 e3 38 fd       	call   1f363e0 <runtime.makeslice@@Base>
 4ba802f:	48 8b 7c 24 38       	mov    0x38(%rsp),%rdi
 4ba8034:	48 8b 57 18          	mov    0x18(%rdi),%rdx
 4ba8038:	44 0f 11 7a 08       	movups %xmm15,0x8(%rdx)
 4ba803d:	83 3d 1c 39 2d 03 00 	cmpl   $0x0,0x32d391c(%rip)        # 7e7b960 <runtime.writeBarrier@@Base>
 4ba8044:	75 05                	jne    4ba804b <github.com/mitchellh/mapstructure.NewDecoder@@Base+0x10b>
 4ba8046:	48 89 02             	mov    %rax,(%rdx)
 4ba8049:	eb 0e                	jmp    4ba8059 <github.com/mitchellh/mapstructure.NewDecoder@@Base+0x119>
 4ba804b:	48 89 f9             	mov    %rdi,%rcx
 4ba804e:	48 89 d7             	mov    %rdx,%rdi
 4ba8051:	e8 aa e5 3a fd       	call   1f56600 <runtime.gcWriteBarrier@@Base>
 4ba8056:	48 89 cf             	mov    %rcx,%rdi
 4ba8059:	48 8b 57 18          	mov    0x18(%rdi),%rdx
 4ba805d:	48 83 7a 18 00       	cmpq   $0x0,0x18(%rdx)
 4ba8062:	75 44                	jne    4ba80a8 <github.com/mitchellh/mapstructure.NewDecoder@@Base+0x168>
 4ba8064:	48 8d 05 35 66 c0 00 	lea    0xc06635(%rip),%rax        # 57ae6a0 <type:string@@Base>
 4ba806b:	31 db                	xor    %ebx,%ebx
 4ba806d:	48 89 d9             	mov    %rbx,%rcx
 4ba8070:	e8 6b e3 38 fd       	call   1f363e0 <runtime.makeslice@@Base>
 4ba8075:	48 8b 7c 24 38       	mov    0x38(%rsp),%rdi
 4ba807a:	48 8b 57 18          	mov    0x18(%rdi),%rdx
 4ba807e:	44 0f 11 7a 20       	movups %xmm15,0x20(%rdx)
 4ba8083:	83 3d d6 38 2d 03 00 	cmpl   $0x0,0x32d38d6(%rip)        # 7e7b960 <runtime.writeBarrier@@Base>
 4ba808a:	75 06                	jne    4ba8092 <github.com/mitchellh/mapstructure.NewDecoder@@Base+0x152>
 4ba808c:	48 89 42 18          	mov    %rax,0x18(%rdx)
 4ba8090:	eb 16                	jmp    4ba80a8 <github.com/mitchellh/mapstructure.NewDecoder@@Base+0x168>
 4ba8092:	48 83 c2 18          	add    $0x18,%rdx
 4ba8096:	48 89 f9             	mov    %rdi,%rcx
 4ba8099:	48 89 d7             	mov    %rdx,%rdi
 4ba809c:	0f 1f 40 00          	nopl   0x0(%rax)
 4ba80a0:	e8 5b e5 3a fd       	call   1f56600 <runtime.gcWriteBarrier@@Base>
 4ba80a5:	48 89 cf             	mov    %rcx,%rdi
 4ba80a8:	48 8b 57 18          	mov    0x18(%rdi),%rdx
 4ba80ac:	48 83 7a 30 00       	cmpq   $0x0,0x30(%rdx)
 4ba80b1:	75 41                	jne    4ba80f4 <github.com/mitchellh/mapstructure.NewDecoder@@Base+0x1b4>
 4ba80b3:	48 8d 05 e6 65 c0 00 	lea    0xc065e6(%rip),%rax        # 57ae6a0 <type:string@@Base>
 4ba80ba:	31 db                	xor    %ebx,%ebx
 4ba80bc:	48 89 d9             	mov    %rbx,%rcx
 4ba80bf:	90                   	nop
 4ba80c0:	e8 1b e3 38 fd       	call   1f363e0 <runtime.makeslice@@Base>
 4ba80c5:	48 8b 7c 24 38       	mov    0x38(%rsp),%rdi
 4ba80ca:	48 8b 57 18          	mov    0x18(%rdi),%rdx
 4ba80ce:	44 0f 11 7a 38       	movups %xmm15,0x38(%rdx)
 4ba80d3:	83 3d 86 38 2d 03 00 	cmpl   $0x0,0x32d3886(%rip)        # 7e7b960 <runtime.writeBarrier@@Base>
 4ba80da:	75 06                	jne    4ba80e2 <github.com/mitchellh/mapstructure.NewDecoder@@Base+0x1a2>
 4ba80dc:	48 89 42 30          	mov    %rax,0x30(%rdx)
 4ba80e0:	eb 12                	jmp    4ba80f4 <github.com/mitchellh/mapstructure.NewDecoder@@Base+0x1b4>
 4ba80e2:	48 8d 4a 30          	lea    0x30(%rdx),%rcx
 4ba80e6:	48 89 fa             	mov    %rdi,%rdx
 4ba80e9:	48 89 cf             	mov    %rcx,%rdi
 4ba80ec:	e8 0f e5 3a fd       	call   1f56600 <runtime.gcWriteBarrier@@Base>
 4ba80f1:	48 89 d7             	mov    %rdx,%rdi
 4ba80f4:	48 83 7f 38 00       	cmpq   $0x0,0x38(%rdi)
 4ba80f9:	75 37                	jne    4ba8132 <github.com/mitchellh/mapstructure.NewDecoder@@Base+0x1f2>
 4ba80fb:	48 c7 47 38 0c 00 00 	movq   $0xc,0x38(%rdi)
 4ba8102:	00 
 4ba8103:	83 3d 56 38 2d 03 00 	cmpl   $0x0,0x32d3856(%rip)        # 7e7b960 <runtime.writeBarrier@@Base>
 4ba810a:	75 0d                	jne    4ba8119 <github.com/mitchellh/mapstructure.NewDecoder@@Base+0x1d9>
 4ba810c:	48 8d 0d 8c 88 0c 00 	lea    0xc888c(%rip),%rcx        # 4c7099f <_IO_stdin_used@@Base+0x3d99f>
 4ba8113:	48 89 4f 30          	mov    %rcx,0x30(%rdi)
 4ba8117:	eb 19                	jmp    4ba8132 <github.com/mitchellh/mapstructure.NewDecoder@@Base+0x1f2>
 4ba8119:	48 8d 4f 30          	lea    0x30(%rdi),%rcx
 4ba811d:	48 89 f8             	mov    %rdi,%rax
 4ba8120:	48 89 cf             	mov    %rcx,%rdi
 4ba8123:	48 8d 15 75 88 0c 00 	lea    0xc8875(%rip),%rdx        # 4c7099f <_IO_stdin_used@@Base+0x3d99f>
 4ba812a:	e8 f1 e5 3a fd       	call   1f56720 <runtime.gcWriteBarrierDX@@Base>
 4ba812f:	48 89 c7             	mov    %rax,%rdi
 4ba8132:	48 83 7f 48 00       	cmpq   $0x0,0x48(%rdi)
 4ba8137:	75 2f                	jne    4ba8168 <github.com/mitchellh/mapstructure.NewDecoder@@Base+0x228>
 4ba8139:	83 3d 20 38 2d 03 00 	cmpl   $0x0,0x32d3820(%rip)        # 7e7b960 <runtime.writeBarrier@@Base>
 4ba8140:	75 0d                	jne    4ba814f <github.com/mitchellh/mapstructure.NewDecoder@@Base+0x20f>
 4ba8142:	48 8d 0d ff 7d 34 01 	lea    0x1347dff(%rip),%rcx        # 5eeff48 <strings.EqualFoldf@@Base>
 4ba8149:	48 89 4f 48          	mov    %rcx,0x48(%rdi)
 4ba814d:	eb 19                	jmp    4ba8168 <github.com/mitchellh/mapstructure.NewDecoder@@Base+0x228>
 4ba814f:	48 8d 4f 48          	lea    0x48(%rdi),%rcx
 4ba8153:	48 89 f8             	mov    %rdi,%rax
 4ba8156:	48 89 cf             	mov    %rcx,%rdi
 4ba8159:	48 8d 15 e8 7d 34 01 	lea    0x1347de8(%rip),%rdx        # 5eeff48 <strings.EqualFoldf@@Base>
 4ba8160:	e8 bb e5 3a fd       	call   1f56720 <runtime.gcWriteBarrierDX@@Base>
 4ba8165:	48 89 c7             	mov    %rax,%rdi
 4ba8168:	48 8d 05 91 69 ee 00 	lea    0xee6991(%rip),%rax        # 5a8eb00 <type:Pl8KEyQv@@Base>
 4ba816f:	e8 6c 83 34 fd       	call   1ef04e0 <runtime.newobject@@Base>
 4ba8174:	83 3d e5 37 2d 03 00 	cmpl   $0x0,0x32d37e5(%rip)        # 7e7b960 <runtime.writeBarrier@@Base>
 4ba817b:	75 0a                	jne    4ba8187 <github.com/mitchellh/mapstructure.NewDecoder@@Base+0x247>
 4ba817d:	48 8b 54 24 38       	mov    0x38(%rsp),%rdx
 4ba8182:	48 89 10             	mov    %rdx,(%rax)
 4ba8185:	eb 0d                	jmp    4ba8194 <github.com/mitchellh/mapstructure.NewDecoder@@Base+0x254>
 4ba8187:	48 89 c7             	mov    %rax,%rdi
 4ba818a:	48 8b 54 24 38       	mov    0x38(%rsp),%rdx
 4ba818f:	e8 8c e5 3a fd       	call   1f56720 <runtime.gcWriteBarrierDX@@Base>
 4ba8194:	31 db                	xor    %ebx,%ebx
 4ba8196:	31 c9                	xor    %ecx,%ecx
 4ba8198:	48 8b 6c 24 28       	mov    0x28(%rsp),%rbp
 4ba819d:	48 83 c4 30          	add    $0x30,%rsp
 4ba81a1:	c3                   	ret
 4ba81a2:	48 8d 05 57 c1 ec 00 	lea    0xecc157(%rip),%rax        # 5a74300 <type:hE5I1The@@Base>
 4ba81a9:	e8 32 83 34 fd       	call   1ef04e0 <runtime.newobject@@Base>
 4ba81ae:	48 c7 40 08 26 00 00 	movq   $0x26,0x8(%rax)
 4ba81b5:	00 
 4ba81b6:	48 8d 0d 15 a4 26 00 	lea    0x26a415(%rip),%rcx        # 4e125d2 <_IO_stdin_used@@Base+0x1df5d2>
 4ba81bd:	48 89 08             	mov    %rcx,(%rax)
 4ba81c0:	48 8d 1d f9 5c 35 01 	lea    0x1355cf9(%rip),%rbx        # 5efdec0 <go:itab.*errors.errorString,error@@Base>
 4ba81c7:	48 89 c1             	mov    %rax,%rcx
 4ba81ca:	31 c0                	xor    %eax,%eax
 4ba81cc:	48 8b 6c 24 28       	mov    0x28(%rsp),%rbp
 4ba81d1:	48 83 c4 30          	add    $0x30,%rsp
 4ba81d5:	c3                   	ret
 4ba81d6:	48 8d 05 23 c1 ec 00 	lea    0xecc123(%rip),%rax        # 5a74300 <type:hE5I1The@@Base>
 4ba81dd:	0f 1f 00             	nopl   (%rax)
 4ba81e0:	e8 fb 82 34 fd       	call   1ef04e0 <runtime.newobject@@Base>
 4ba81e5:	48 c7 40 08 18 00 00 	movq   $0x18,0x8(%rax)
 4ba81ec:	00 
 4ba81ed:	48 8d 0d 3b 1f 23 00 	lea    0x231f3b(%rip),%rcx        # 4dda12f <_IO_stdin_used@@Base+0x1a712f>
 4ba81f4:	48 89 08             	mov    %rcx,(%rax)
 4ba81f7:	48 8d 1d c2 5c 35 01 	lea    0x1355cc2(%rip),%rbx        # 5efdec0 <go:itab.*errors.errorString,error@@Base>
 4ba81fe:	48 89 c1             	mov    %rax,%rcx
 4ba8201:	31 c0                	xor    %eax,%eax
 4ba8203:	48 8b 6c 24 28       	mov    0x28(%rsp),%rbp
 4ba8208:	48 83 c4 30          	add    $0x30,%rsp
 4ba820c:	c3                   	ret
 4ba820d:	48 89 44 24 08       	mov    %rax,0x8(%rsp)
 4ba8212:	e8 49 c2 3a fd       	call   1f54460 <runtime.morestack_noctxt.abi0@@Base>
 4ba8217:	48 8b 44 24 08       	mov    0x8(%rsp),%rax
 4ba821c:	0f 1f 40 00          	nopl   0x0(%rax)
 4ba8220:	e9 1b fd ff ff       	jmp    4ba7f40 <github.com/mitchellh/mapstructure.NewDecoder@@Base>
 4ba8225:	cc                   	int3
 4ba8226:	cc                   	int3
 4ba8227:	cc                   	int3
 4ba8228:	cc                   	int3
 4ba8229:	cc                   	int3
 4ba822a:	cc                   	int3
 4ba822b:	cc                   	int3
 4ba822c:	cc                   	int3
 4ba822d:	cc                   	int3
 4ba822e:	cc                   	int3
 4ba822f:	cc                   	int3
 4ba8230:	cc                   	int3
 4ba8231:	cc                   	int3
 4ba8232:	cc                   	int3
 4ba8233:	cc                   	int3
 4ba8234:	cc                   	int3
 4ba8235:	cc                   	int3
 4ba8236:	cc                   	int3
 4ba8237:	cc                   	int3
 4ba8238:	cc                   	int3
 4ba8239:	cc                   	int3
 4ba823a:	cc                   	int3
 4ba823b:	cc                   	int3
 4ba823c:	cc                   	int3
 4ba823d:	cc                   	int3
 4ba823e:	cc                   	int3
 4ba823f:	cc                   	int3

0000000004ba8240 <github.com/mitchellh/mapstructure.(*Decoder).Decode@@Base>:
 4ba8240:	49 3b 66 10          	cmp    0x10(%r14),%rsp
 4ba8244:	0f 86 d8 00 00 00    	jbe    4ba8322 <github.com/mitchellh/mapstructure.(*Decoder).Decode@@Base+0xe2>
 4ba824a:	48 83 ec 58          	sub    $0x58,%rsp
 4ba824e:	48 89 6c 24 50       	mov    %rbp,0x50(%rsp)
 4ba8253:	48 8d 6c 24 50       	lea    0x50(%rsp),%rbp
 4ba8258:	48 89 5c 24 68       	mov    %rbx,0x68(%rsp)
 4ba825d:	48 89 4c 24 70       	mov    %rcx,0x70(%rsp)
 4ba8262:	48 89 44 24 60       	mov    %rax,0x60(%rsp)
 4ba8267:	48 8b 10             	mov    (%rax),%rdx
 4ba826a:	48 8b 72 20          	mov    0x20(%rdx),%rsi
 4ba826e:	48 8b 52 28          	mov    0x28(%rdx),%rdx
 4ba8272:	48 85 f6             	test   %rsi,%rsi
 4ba8275:	74 6b                	je     4ba82e2 <github.com/mitchellh/mapstructure.(*Decoder).Decode@@Base+0xa2>
 4ba8277:	90                   	nop
 4ba8278:	80 3d c1 00 29 03 00 	cmpb   $0x0,0x32900c1(%rip)        # 7e38340 <reflect.dummy@@Base>
 4ba827f:	90                   	nop
 4ba8280:	74 25                	je     4ba82a7 <github.com/mitchellh/mapstructure.(*Decoder).Decode@@Base+0x67>
 4ba8282:	48 89 35 bf 00 29 03 	mov    %rsi,0x32900bf(%rip)        # 7e38348 <reflect.dummy@@Base+0x8>
 4ba8289:	83 3d d0 36 2d 03 00 	cmpl   $0x0,0x32d36d0(%rip)        # 7e7b960 <runtime.writeBarrier@@Base>
 4ba8290:	75 09                	jne    4ba829b <github.com/mitchellh/mapstructure.(*Decoder).Decode@@Base+0x5b>
 4ba8292:	48 89 15 b7 00 29 03 	mov    %rdx,0x32900b7(%rip)        # 7e38350 <reflect.dummy@@Base+0x10>
 4ba8299:	eb 0c                	jmp    4ba82a7 <github.com/mitchellh/mapstructure.(*Decoder).Decode@@Base+0x67>
 4ba829b:	48 8d 3d ae 00 29 03 	lea    0x32900ae(%rip),%rdi        # 7e38350 <reflect.dummy@@Base+0x10>
 4ba82a2:	e8 79 e4 3a fd       	call   1f56720 <runtime.gcWriteBarrierDX@@Base>
 4ba82a7:	48 89 74 24 40       	mov    %rsi,0x40(%rsp)
 4ba82ac:	48 89 54 24 48       	mov    %rdx,0x48(%rsp)
 4ba82b1:	48 8b 74 24 40       	mov    0x40(%rsp),%rsi
 4ba82b6:	48 85 f6             	test   %rsi,%rsi
 4ba82b9:	74 1d                	je     4ba82d8 <github.com/mitchellh/mapstructure.(*Decoder).Decode@@Base+0x98>
 4ba82bb:	0f b6 7e 17          	movzbl 0x17(%rsi),%edi
 4ba82bf:	41 89 f8             	mov    %edi,%r8d
 4ba82c2:	83 e7 1f             	and    $0x1f,%edi
 4ba82c5:	49 89 f9             	mov    %rdi,%r9
 4ba82c8:	48 0f ba ef 07       	bts    $0x7,%rdi
 4ba82cd:	41 f6 c0 20          	test   $0x20,%r8b
 4ba82d1:	4c 0f 44 cf          	cmove  %rdi,%r9
 4ba82d5:	90                   	nop
 4ba82d6:	eb 11                	jmp    4ba82e9 <github.com/mitchellh/mapstructure.(*Decoder).Decode@@Base+0xa9>
 4ba82d8:	45 31 c9             	xor    %r9d,%r9d
 4ba82db:	31 f6                	xor    %esi,%esi
 4ba82dd:	31 d2                	xor    %edx,%edx
 4ba82df:	90                   	nop
 4ba82e0:	eb 07                	jmp    4ba82e9 <github.com/mitchellh/mapstructure.(*Decoder).Decode@@Base+0xa9>
 4ba82e2:	45 31 c9             	xor    %r9d,%r9d
 4ba82e5:	31 f6                	xor    %esi,%esi
 4ba82e7:	31 d2                	xor    %edx,%edx
 4ba82e9:	48 89 f0             	mov    %rsi,%rax
 4ba82ec:	48 89 d3             	mov    %rdx,%rbx
 4ba82ef:	4c 89 c9             	mov    %r9,%rcx
 4ba82f2:	e8 89 e1 3e fd       	call   1f96480 <reflect.Value.Elem@@Base>
 4ba82f7:	48 8b 7c 24 68       	mov    0x68(%rsp),%rdi
 4ba82fc:	48 8b 74 24 70       	mov    0x70(%rsp),%rsi
 4ba8301:	49 89 c0             	mov    %rax,%r8
 4ba8304:	49 89 d9             	mov    %rbx,%r9
 4ba8307:	49 89 ca             	mov    %rcx,%r10
 4ba830a:	48 8b 44 24 60       	mov    0x60(%rsp),%rax
 4ba830f:	31 db                	xor    %ebx,%ebx
 4ba8311:	31 c9                	xor    %ecx,%ecx
 4ba8313:	e8 48 00 00 00       	call   4ba8360 <github.com/mitchellh/mapstructure.(*Decoder).decode@@Base>
 4ba8318:	48 8b 6c 24 50       	mov    0x50(%rsp),%rbp
 4ba831d:	48 83 c4 58          	add    $0x58,%rsp
 4ba8321:	c3                   	ret
 4ba8322:	48 89 44 24 08       	mov    %rax,0x8(%rsp)
 4ba8327:	48 89 5c 24 10       	mov    %rbx,0x10(%rsp)
 4ba832c:	48 89 4c 24 18       	mov    %rcx,0x18(%rsp)
 4ba8331:	e8 2a c1 3a fd       	call   1f54460 <runtime.morestack_noctxt.abi0@@Base>
 4ba8336:	48 8b 44 24 08       	mov    0x8(%rsp),%rax
 4ba833b:	48 8b 5c 24 10       	mov    0x10(%rsp),%rbx
 4ba8340:	48 8b 4c 24 18       	mov    0x18(%rsp),%rcx
 4ba8345:	e9 f6 fe ff ff       	jmp    4ba8240 <github.com/mitchellh/mapstructure.(*Decoder).Decode@@Base>
 4ba834a:	cc                   	int3
 4ba834b:	cc                   	int3
 4ba834c:	cc                   	int3
 4ba834d:	cc                   	int3
 4ba834e:	cc                   	int3
 4ba834f:	cc                   	int3
 4ba8350:	cc                   	int3
 4ba8351:	cc                   	int3
 4ba8352:	cc                   	int3
 4ba8353:	cc                   	int3
 4ba8354:	cc                   	int3
 4ba8355:	cc                   	int3
 4ba8356:	cc                   	int3
 4ba8357:	cc                   	int3
 4ba8358:	cc                   	int3
 4ba8359:	cc                   	int3
 4ba835a:	cc                   	int3
 4ba835b:	cc                   	int3
 4ba835c:	cc                   	int3
 4ba835d:	cc                   	int3
 4ba835e:	cc                   	int3
 4ba835f:	cc                   	int3

0000000004ba8360 <github.com/mitchellh/mapstructure.(*Decoder).decode@@Base>:
 4ba8360:	4c 8d 64 24 c0       	lea    -0x40(%rsp),%r12
 4ba8365:	4d 3b 66 10          	cmp    0x10(%r14),%r12
 4ba8369:	0f 86 5a 07 00 00    	jbe    4ba8ac9 <github.com/mitchellh/mapstructure.(*Decoder).decode@@Base+0x769>
 4ba836f:	48 81 ec c0 00 00 00 	sub    $0xc0,%rsp
 4ba8376:	48 89 ac 24 b8 00 00 	mov    %rbp,0xb8(%rsp)
 4ba837d:	00 
 4ba837e:	48 8d ac 24 b8 00 00 	lea    0xb8(%rsp),%rbp
 4ba8385:	00 
 4ba8386:	48 89 9c 24 d0 00 00 	mov    %rbx,0xd0(%rsp)
 4ba838d:	00 
 4ba838e:	48 89 bc 24 e0 00 00 	mov    %rdi,0xe0(%rsp)
 4ba8395:	00 
 4ba8396:	48 89 b4 24 e8 00 00 	mov    %rsi,0xe8(%rsp)
 4ba839d:	00 
 4ba839e:	4c 89 84 24 f0 00 00 	mov    %r8,0xf0(%rsp)
 4ba83a5:	00 
 4ba83a6:	4c 89 8c 24 f8 00 00 	mov    %r9,0xf8(%rsp)
 4ba83ad:	00 
 4ba83ae:	48 85 ff             	test   %rdi,%rdi
 4ba83b1:	0f 84 b5 00 00 00    	je     4ba846c <github.com/mitchellh/mapstructure.(*Decoder).decode@@Base+0x10c>
 4ba83b7:	90                   	nop
 4ba83b8:	90                   	nop
 4ba83b9:	80 3d 80 ff 28 03 00 	cmpb   $0x0,0x328ff80(%rip)        # 7e38340 <reflect.dummy@@Base>
 4ba83c0:	74 2b                	je     4ba83ed <github.com/mitchellh/mapstructure.(*Decoder).decode@@Base+0x8d>
 4ba83c2:	48 89 3d 7f ff 28 03 	mov    %rdi,0x328ff7f(%rip)        # 7e38348 <reflect.dummy@@Base+0x8>
 4ba83c9:	83 3d 90 35 2d 03 00 	cmpl   $0x0,0x32d3590(%rip)        # 7e7b960 <runtime.writeBarrier@@Base>
 4ba83d0:	75 09                	jne    4ba83db <github.com/mitchellh/mapstructure.(*Decoder).decode@@Base+0x7b>
 4ba83d2:	48 89 35 77 ff 28 03 	mov    %rsi,0x328ff77(%rip)        # 7e38350 <reflect.dummy@@Base+0x10>
 4ba83d9:	eb 12                	jmp    4ba83ed <github.com/mitchellh/mapstructure.(*Decoder).decode@@Base+0x8d>
 4ba83db:	48 89 fa             	mov    %rdi,%rdx
 4ba83de:	48 8d 3d 6b ff 28 03 	lea    0x328ff6b(%rip),%rdi        # 7e38350 <reflect.dummy@@Base+0x10>
 4ba83e5:	e8 76 e3 3a fd       	call   1f56760 <runtime.gcWriteBarrierSI@@Base>
 4ba83ea:	48 89 d7             	mov    %rdx,%rdi
 4ba83ed:	48 89 bc 24 88 00 00 	mov    %rdi,0x88(%rsp)
 4ba83f4:	00 
 4ba83f5:	48 89 b4 24 90 00 00 	mov    %rsi,0x90(%rsp)
 4ba83fc:	00 
 4ba83fd:	48 8b 94 24 88 00 00 	mov    0x88(%rsp),%rdx
 4ba8404:	00 
 4ba8405:	48 85 d2             	test   %rdx,%rdx
 4ba8408:	74 22                	je     4ba842c <github.com/mitchellh/mapstructure.(*Decoder).decode@@Base+0xcc>
 4ba840a:	44 0f b6 5a 17       	movzbl 0x17(%rdx),%r11d
 4ba840f:	45 89 dc             	mov    %r11d,%r12d
 4ba8412:	41 83 e3 1f          	and    $0x1f,%r11d
 4ba8416:	4d 89 dd             	mov    %r11,%r13
 4ba8419:	49 0f ba eb 07       	bts    $0x7,%r11
 4ba841e:	41 f6 c4 20          	test   $0x20,%r12b
 4ba8422:	4d 0f 44 eb          	cmove  %r11,%r13
 4ba8426:	90                   	nop
 4ba8427:	49 89 f3             	mov    %rsi,%r11
 4ba842a:	eb 0a                	jmp    4ba8436 <github.com/mitchellh/mapstructure.(*Decoder).decode@@Base+0xd6>
 4ba842c:	49 89 f3             	mov    %rsi,%r11
 4ba842f:	45 31 ed             	xor    %r13d,%r13d
 4ba8432:	31 f6                	xor    %esi,%esi
 4ba8434:	31 d2                	xor    %edx,%edx
 4ba8436:	90                   	nop
 4ba8437:	4d 89 ec             	mov    %r13,%r12
 4ba843a:	41 83 e5 1f          	and    $0x1f,%r13d
 4ba843e:	66 90                	xchg   %ax,%ax
 4ba8440:	49 83 fd 16          	cmp    $0x16,%r13
 4ba8444:	75 30                	jne    4ba8476 <github.com/mitchellh/mapstructure.(*Decoder).decode@@Base+0x116>
 4ba8446:	41 0f ba e4 09       	bt     $0x9,%r12d
 4ba844b:	72 29                	jb     4ba8476 <github.com/mitchellh/mapstructure.(*Decoder).decode@@Base+0x116>
 4ba844d:	41 0f ba e4 07       	bt     $0x7,%r12d
 4ba8452:	73 05                	jae    4ba8459 <github.com/mitchellh/mapstructure.(*Decoder).decode@@Base+0xf9>
 4ba8454:	4c 8b 2e             	mov    (%rsi),%r13
 4ba8457:	eb 07                	jmp    4ba8460 <github.com/mitchellh/mapstructure.(*Decoder).decode@@Base+0x100>
 4ba8459:	49 89 f5             	mov    %rsi,%r13
 4ba845c:	0f 1f 40 00          	nopl   0x0(%rax)
 4ba8460:	4d 85 ed             	test   %r13,%r13
 4ba8463:	75 11                	jne    4ba8476 <github.com/mitchellh/mapstructure.(*Decoder).decode@@Base+0x116>
 4ba8465:	31 ff                	xor    %edi,%edi
 4ba8467:	45 31 db             	xor    %r11d,%r11d
 4ba846a:	eb 0a                	jmp    4ba8476 <github.com/mitchellh/mapstructure.(*Decoder).decode@@Base+0x116>
 4ba846c:	49 89 f3             	mov    %rsi,%r11
 4ba846f:	45 31 e4             	xor    %r12d,%r12d
 4ba8472:	31 d2                	xor    %edx,%edx
 4ba8474:	31 f6                	xor    %esi,%esi
 4ba8476:	4c 89 54 24 58       	mov    %r10,0x58(%rsp)
 4ba847b:	48 89 9c 24 d0 00 00 	mov    %rbx,0xd0(%rsp)
 4ba8482:	00 
 4ba8483:	48 89 8c 24 d8 00 00 	mov    %rcx,0xd8(%rsp)
 4ba848a:	00 
 4ba848b:	48 89 84 24 c8 00 00 	mov    %rax,0xc8(%rsp)
 4ba8492:	00 
 4ba8493:	4c 89 8c 24 80 00 00 	mov    %r9,0x80(%rsp)
 4ba849a:	00 
 4ba849b:	4c 89 44 24 78       	mov    %r8,0x78(%rsp)
 4ba84a0:	48 85 ff             	test   %rdi,%rdi
 4ba84a3:	0f 84 f4 04 00 00    	je     4ba899d <github.com/mitchellh/mapstructure.(*Decoder).decode@@Base+0x63d>
 4ba84a9:	4d 85 e4             	test   %r12,%r12
 4ba84ac:	0f 84 c8 03 00 00    	je     4ba887a <github.com/mitchellh/mapstructure.(*Decoder).decode@@Base+0x51a>
 4ba84b2:	4c 8b 28             	mov    (%rax),%r13
 4ba84b5:	4d 8b 7d 00          	mov    0x0(%r13),%r15
 4ba84b9:	4d 8b 6d 08          	mov    0x8(%r13),%r13
 4ba84bd:	0f 1f 00             	nopl   (%rax)
 4ba84c0:	4d 85 ff             	test   %r15,%r15
 4ba84c3:	74 54                	je     4ba8519 <github.com/mitchellh/mapstructure.(*Decoder).decode@@Base+0x1b9>
 4ba84c5:	4c 89 f8             	mov    %r15,%rax
 4ba84c8:	4c 89 eb             	mov    %r13,%rbx
 4ba84cb:	48 89 d1             	mov    %rdx,%rcx
 4ba84ce:	48 89 f7             	mov    %rsi,%rdi
 4ba84d1:	4c 89 e6             	mov    %r12,%rsi
 4ba84d4:	e8 e7 f3 ff ff       	call   4ba78c0 <github.com/mitchellh/mapstructure.DecodeHookExec@@Base>
 4ba84d9:	0f 1f 80 00 00 00 00 	nopl   0x0(%rax)
 4ba84e0:	48 85 c9             	test   %rcx,%rcx
 4ba84e3:	0f 85 f5 02 00 00    	jne    4ba87de <github.com/mitchellh/mapstructure.(*Decoder).decode@@Base+0x47e>
 4ba84e9:	48 8b 8c 24 d8 00 00 	mov    0xd8(%rsp),%rcx
 4ba84f0:	00 
 4ba84f1:	4c 8b 44 24 78       	mov    0x78(%rsp),%r8
 4ba84f6:	4c 8b 8c 24 80 00 00 	mov    0x80(%rsp),%r9
 4ba84fd:	00 
 4ba84fe:	4c 8b 54 24 58       	mov    0x58(%rsp),%r10
 4ba8503:	48 89 c7             	mov    %rax,%rdi
 4ba8506:	49 89 db             	mov    %rbx,%r11
 4ba8509:	48 8b 84 24 c8 00 00 	mov    0xc8(%rsp),%rax
 4ba8510:	00 
 4ba8511:	48 8b 9c 24 d0 00 00 	mov    0xd0(%rsp),%rbx
 4ba8518:	00 
 4ba8519:	90                   	nop
 4ba851a:	4c 89 d2             	mov    %r10,%rdx
 4ba851d:	41 83 e2 1f          	and    $0x1f,%r10d
 4ba8521:	4d 8d 62 fe          	lea    -0x2(%r10),%r12
 4ba8525:	90                   	nop
 4ba8526:	49 83 fc 04          	cmp    $0x4,%r12
 4ba852a:	77 08                	ja     4ba8534 <github.com/mitchellh/mapstructure.(*Decoder).decode@@Base+0x1d4>
 4ba852c:	41 ba 02 00 00 00    	mov    $0x2,%r10d
 4ba8532:	eb 22                	jmp    4ba8556 <github.com/mitchellh/mapstructure.(*Decoder).decode@@Base+0x1f6>
 4ba8534:	4d 8d 62 f9          	lea    -0x7(%r10),%r12
 4ba8538:	49 83 fc 04          	cmp    $0x4,%r12
 4ba853c:	77 08                	ja     4ba8546 <github.com/mitchellh/mapstructure.(*Decoder).decode@@Base+0x1e6>
 4ba853e:	41 ba 07 00 00 00    	mov    $0x7,%r10d
 4ba8544:	eb 10                	jmp    4ba8556 <github.com/mitchellh/mapstructure.(*Decoder).decode@@Base+0x1f6>
 4ba8546:	4d 8d 62 f3          	lea    -0xd(%r10),%r12
 4ba854a:	49 83 fc 01          	cmp    $0x1,%r12
 4ba854e:	77 06                	ja     4ba8556 <github.com/mitchellh/mapstructure.(*Decoder).decode@@Base+0x1f6>
 4ba8550:	41 ba 0d 00 00 00    	mov    $0xd,%r10d
 4ba8556:	4c 89 54 24 40       	mov    %r10,0x40(%rsp)
 4ba855b:	4d 8d 62 ff          	lea    -0x1(%r10),%r12
 4ba855f:	90                   	nop
 4ba8560:	49 83 fc 18          	cmp    $0x18,%r12
 4ba8564:	0f 87 ee 01 00 00    	ja     4ba8758 <github.com/mitchellh/mapstructure.(*Decoder).decode@@Base+0x3f8>
 4ba856a:	48 8d 35 ef 2c 3b 01 	lea    0x13b2cef(%rip),%rsi        # 5f5b260 <go:itab.gopkg.in/jcmturner/gokrb5.v7/crypto.RC4HMAC,gopkg.in/jcmturner/gokrb5.v7/crypto/etype.EType@@Base+0x1a80>
 4ba8571:	42 ff 24 e6          	jmp    *(%rsi,%r12,8)
 4ba8575:	4c 89 de             	mov    %r11,%rsi
 4ba8578:	49 89 d2             	mov    %rdx,%r10
 4ba857b:	0f 1f 44 00 00       	nopl   0x0(%rax,%rax,1)
 4ba8580:	e8 7b 2e 00 00       	call   4bab400 <github.com/mitchellh/mapstructure.(*Decoder).decodeBool@@Base>
 4ba8585:	b9 01 00 00 00       	mov    $0x1,%ecx
 4ba858a:	e9 df 00 00 00       	jmp    4ba866e <github.com/mitchellh/mapstructure.(*Decoder).decode@@Base+0x30e>
 4ba858f:	4c 89 de             	mov    %r11,%rsi
 4ba8592:	49 89 d2             	mov    %rdx,%r10
 4ba8595:	e8 66 18 00 00       	call   4ba9e00 <github.com/mitchellh/mapstructure.(*Decoder).decodeInt@@Base>
 4ba859a:	b9 01 00 00 00       	mov    $0x1,%ecx
 4ba859f:	90                   	nop
 4ba85a0:	e9 c9 00 00 00       	jmp    4ba866e <github.com/mitchellh/mapstructure.(*Decoder).decode@@Base+0x30e>
 4ba85a5:	4c 89 de             	mov    %r11,%rsi
 4ba85a8:	49 89 d2             	mov    %rdx,%r10
 4ba85ab:	e8 70 22 00 00       	call   4baa820 <github.com/mitchellh/mapstructure.(*Decoder).decodeUint@@Base>
 4ba85b0:	b9 01 00 00 00       	mov    $0x1,%ecx
 4ba85b5:	e9 b4 00 00 00       	jmp    4ba866e <github.com/mitchellh/mapstructure.(*Decoder).decode@@Base+0x30e>
 4ba85ba:	4c 89 de             	mov    %r11,%rsi
 4ba85bd:	49 89 d2             	mov    %rdx,%r10
 4ba85c0:	e8 fb 37 00 00       	call   4babdc0 <github.com/mitchellh/mapstructure.(*Decoder).decodeFloat@@Base>
 4ba85c5:	b9 01 00 00 00       	mov    $0x1,%ecx
 4ba85ca:	e9 9f 00 00 00       	jmp    4ba866e <github.com/mitchellh/mapstructure.(*Decoder).decode@@Base+0x30e>
 4ba85cf:	4c 89 de             	mov    %r11,%rsi
 4ba85d2:	49 89 d2             	mov    %rdx,%r10
 4ba85d5:	e8 26 7d 00 00       	call   4bb0300 <github.com/mitchellh/mapstructure.(*Decoder).decodeArray@@Base>
 4ba85da:	b9 01 00 00 00       	mov    $0x1,%ecx
 4ba85df:	90                   	nop
 4ba85e0:	e9 89 00 00 00       	jmp    4ba866e <github.com/mitchellh/mapstructure.(*Decoder).decode@@Base+0x30e>
 4ba85e5:	4c 89 de             	mov    %r11,%rsi
 4ba85e8:	49 89 d2             	mov    %rdx,%r10
 4ba85eb:	e8 b0 69 00 00       	call   4baefa0 <github.com/mitchellh/mapstructure.(*Decoder).decodeFunc@@Base>
 4ba85f0:	b9 01 00 00 00       	mov    $0x1,%ecx
 4ba85f5:	eb 77                	jmp    4ba866e <github.com/mitchellh/mapstructure.(*Decoder).decode@@Base+0x30e>
 4ba85f7:	4c 89 de             	mov    %r11,%rsi
 4ba85fa:	49 89 d2             	mov    %rdx,%r10
 4ba85fd:	0f 1f 00             	nopl   (%rax)
 4ba8600:	e8 3b 05 00 00       	call   4ba8b40 <github.com/mitchellh/mapstructure.(*Decoder).decodeBasic@@Base>
 4ba8605:	b9 01 00 00 00       	mov    $0x1,%ecx
 4ba860a:	eb 62                	jmp    4ba866e <github.com/mitchellh/mapstructure.(*Decoder).decode@@Base+0x30e>
 4ba860c:	4c 89 de             	mov    %r11,%rsi
 4ba860f:	49 89 d2             	mov    %rdx,%r10
 4ba8612:	e8 e9 41 00 00       	call   4bac800 <github.com/mitchellh/mapstructure.(*Decoder).decodeMap@@Base>
 4ba8617:	b9 01 00 00 00       	mov    $0x1,%ecx
 4ba861c:	eb 50                	jmp    4ba866e <github.com/mitchellh/mapstructure.(*Decoder).decode@@Base+0x30e>
 4ba861e:	4c 89 de             	mov    %r11,%rsi
 4ba8621:	49 89 d2             	mov    %rdx,%r10
 4ba8624:	e8 57 63 00 00       	call   4bae980 <github.com/mitchellh/mapstructure.(*Decoder).decodePtr@@Base>
 4ba8629:	48 89 ca             	mov    %rcx,%rdx
 4ba862c:	89 c1                	mov    %eax,%ecx
 4ba862e:	48 89 d8             	mov    %rbx,%rax
 4ba8631:	48 89 d3             	mov    %rdx,%rbx
 4ba8634:	eb 38                	jmp    4ba866e <github.com/mitchellh/mapstructure.(*Decoder).decode@@Base+0x30e>
 4ba8636:	4c 89 de             	mov    %r11,%rsi
 4ba8639:	49 89 d2             	mov    %rdx,%r10
 4ba863c:	0f 1f 40 00          	nopl   0x0(%rax)
 4ba8640:	e8 7b 6e 00 00       	call   4baf4c0 <github.com/mitchellh/mapstructure.(*Decoder).decodeSlice@@Base>
 4ba8645:	b9 01 00 00 00       	mov    $0x1,%ecx
 4ba864a:	eb 22                	jmp    4ba866e <github.com/mitchellh/mapstructure.(*Decoder).decode@@Base+0x30e>
 4ba864c:	4c 89 de             	mov    %r11,%rsi
 4ba864f:	49 89 d2             	mov    %rdx,%r10
 4ba8652:	e8 29 0c 00 00       	call   4ba9280 <github.com/mitchellh/mapstructure.(*Decoder).decodeString@@Base>
 4ba8657:	b9 01 00 00 00       	mov    $0x1,%ecx
 4ba865c:	eb 10                	jmp    4ba866e <github.com/mitchellh/mapstructure.(*Decoder).decode@@Base+0x30e>
 4ba865e:	4c 89 de             	mov    %r11,%rsi
 4ba8661:	49 89 d2             	mov    %rdx,%r10
 4ba8664:	e8 f7 87 00 00       	call   4bb0e60 <github.com/mitchellh/mapstructure.(*Decoder).decodeStruct@@Base>
 4ba8669:	b9 01 00 00 00       	mov    $0x1,%ecx
 4ba866e:	84 c9                	test   %cl,%cl
 4ba8670:	0f 84 d2 00 00 00    	je     4ba8748 <github.com/mitchellh/mapstructure.(*Decoder).decode@@Base+0x3e8>
 4ba8676:	48 8b 94 24 c8 00 00 	mov    0xc8(%rsp),%rdx
 4ba867d:	00 
 4ba867e:	48 8b 12             	mov    (%rdx),%rdx
 4ba8681:	48 8b 52 18          	mov    0x18(%rdx),%rdx
 4ba8685:	48 85 d2             	test   %rdx,%rdx
 4ba8688:	0f 84 ba 00 00 00    	je     4ba8748 <github.com/mitchellh/mapstructure.(*Decoder).decode@@Base+0x3e8>
 4ba868e:	4c 8b 84 24 d8 00 00 	mov    0xd8(%rsp),%r8
 4ba8695:	00 
 4ba8696:	4d 85 c0             	test   %r8,%r8
 4ba8699:	0f 84 a9 00 00 00    	je     4ba8748 <github.com/mitchellh/mapstructure.(*Decoder).decode@@Base+0x3e8>
 4ba869f:	4c 8b 4a 08          	mov    0x8(%rdx),%r9
 4ba86a3:	49 ff c1             	inc    %r9
 4ba86a6:	4c 8b 12             	mov    (%rdx),%r10
 4ba86a9:	48 8b 4a 10          	mov    0x10(%rdx),%rcx
 4ba86ad:	4c 39 c9             	cmp    %r9,%rcx
 4ba86b0:	73 5d                	jae    4ba870f <github.com/mitchellh/mapstructure.(*Decoder).decode@@Base+0x3af>
 4ba86b2:	48 89 5c 24 60       	mov    %rbx,0x60(%rsp)
 4ba86b7:	48 89 44 24 48       	mov    %rax,0x48(%rsp)
 4ba86bc:	48 89 54 24 70       	mov    %rdx,0x70(%rsp)
 4ba86c1:	4c 89 d0             	mov    %r10,%rax
 4ba86c4:	4c 89 cb             	mov    %r9,%rbx
 4ba86c7:	bf 01 00 00 00       	mov    $0x1,%edi
 4ba86cc:	48 8d 35 cd 5f c0 00 	lea    0xc05fcd(%rip),%rsi        # 57ae6a0 <type:string@@Base>
 4ba86d3:	e8 e8 dd 38 fd       	call   1f364c0 <runtime.growslice@@Base>
 4ba86d8:	48 8b 7c 24 70       	mov    0x70(%rsp),%rdi
 4ba86dd:	48 89 4f 10          	mov    %rcx,0x10(%rdi)
 4ba86e1:	83 3d 78 32 2d 03 00 	cmpl   $0x0,0x32d3278(%rip)        # 7e7b960 <runtime.writeBarrier@@Base>
 4ba86e8:	75 05                	jne    4ba86ef <github.com/mitchellh/mapstructure.(*Decoder).decode@@Base+0x38f>
 4ba86ea:	48 89 07             	mov    %rax,(%rdi)
 4ba86ed:	eb 05                	jmp    4ba86f4 <github.com/mitchellh/mapstructure.(*Decoder).decode@@Base+0x394>
 4ba86ef:	e8 0c df 3a fd       	call   1f56600 <runtime.gcWriteBarrier@@Base>
 4ba86f4:	48 89 fa             	mov    %rdi,%rdx
 4ba86f7:	4c 8b 84 24 d8 00 00 	mov    0xd8(%rsp),%r8
 4ba86fe:	00 
 4ba86ff:	49 89 c2             	mov    %rax,%r10
 4ba8702:	49 89 d9             	mov    %rbx,%r9
 4ba8705:	48 8b 44 24 48       	mov    0x48(%rsp),%rax
 4ba870a:	48 8b 5c 24 60       	mov    0x60(%rsp),%rbx
 4ba870f:	4c 89 4a 08          	mov    %r9,0x8(%rdx)
 4ba8713:	49 8d 49 ff          	lea    -0x1(%r9),%rcx
 4ba8717:	48 c1 e1 04          	shl    $0x4,%rcx
 4ba871b:	4d 89 44 0a 08       	mov    %r8,0x8(%r10,%rcx,1)
 4ba8720:	49 8d 3c 0a          	lea    (%r10,%rcx,1),%rdi
 4ba8724:	83 3d 35 32 2d 03 00 	cmpl   $0x0,0x32d3235(%rip)        # 7e7b960 <runtime.writeBarrier@@Base>
 4ba872b:	75 0e                	jne    4ba873b <github.com/mitchellh/mapstructure.(*Decoder).decode@@Base+0x3db>
 4ba872d:	48 8b 94 24 d0 00 00 	mov    0xd0(%rsp),%rdx
 4ba8734:	00 
 4ba8735:	49 89 14 0a          	mov    %rdx,(%r10,%rcx,1)
 4ba8739:	eb 0d                	jmp    4ba8748 <github.com/mitchellh/mapstructure.(*Decoder).decode@@Base+0x3e8>
 4ba873b:	48 8b 8c 24 d0 00 00 	mov    0xd0(%rsp),%rcx
 4ba8742:	00 
 4ba8743:	e8 b8 df 3a fd       	call   1f56700 <runtime.gcWriteBarrierCX@@Base>
 4ba8748:	48 8b ac 24 b8 00 00 	mov    0xb8(%rsp),%rbp
 4ba874f:	00 
 4ba8750:	48 81 c4 c0 00 00 00 	add    $0xc0,%rsp
 4ba8757:	c3                   	ret
 4ba8758:	44 0f 11 bc 24 98 00 	movups %xmm15,0x98(%rsp)
 4ba875f:	00 00 
 4ba8761:	44 0f 11 bc 24 a8 00 	movups %xmm15,0xa8(%rsp)
 4ba8768:	00 00 
 4ba876a:	48 89 d8             	mov    %rbx,%rax
 4ba876d:	48 89 cb             	mov    %rcx,%rbx
 4ba8770:	e8 eb 55 34 fd       	call   1eedd60 <runtime.convTstring@@Base>
 4ba8775:	48 8d 0d 24 5f c0 00 	lea    0xc05f24(%rip),%rcx        # 57ae6a0 <type:string@@Base>
 4ba877c:	48 89 8c 24 98 00 00 	mov    %rcx,0x98(%rsp)
 4ba8783:	00 
 4ba8784:	48 89 84 24 a0 00 00 	mov    %rax,0xa0(%rsp)
 4ba878b:	00 
 4ba878c:	48 8b 44 24 40       	mov    0x40(%rsp),%rax
 4ba8791:	e8 4a 55 34 fd       	call   1eedce0 <runtime.convT64@@Base>
 4ba8796:	48 8d 0d 23 c9 d0 00 	lea    0xd0c923(%rip),%rcx        # 58b50c0 <type:jwsLZ6N2@@Base>
 4ba879d:	48 89 8c 24 a8 00 00 	mov    %rcx,0xa8(%rsp)
 4ba87a4:	00 
 4ba87a5:	48 89 84 24 b0 00 00 	mov    %rax,0xb0(%rsp)
 4ba87ac:	00 
 4ba87ad:	48 8d 05 cb ea 22 00 	lea    0x22eacb(%rip),%rax        # 4dd727f <_IO_stdin_used@@Base+0x1a427f>
 4ba87b4:	bb 18 00 00 00       	mov    $0x18,%ebx
 4ba87b9:	48 8d 8c 24 98 00 00 	lea    0x98(%rsp),%rcx
 4ba87c0:	00 
 4ba87c1:	bf 02 00 00 00       	mov    $0x2,%edi
 4ba87c6:	48 89 fe             	mov    %rdi,%rsi
 4ba87c9:	e8 92 8a 44 fd       	call   1ff1260 <fmt.Errorf@@Base>
 4ba87ce:	48 8b ac 24 b8 00 00 	mov    0xb8(%rsp),%rbp
 4ba87d5:	00 
 4ba87d6:	48 81 c4 c0 00 00 00 	add    $0xc0,%rsp
 4ba87dd:	c3                   	ret
 4ba87de:	48 89 7c 24 68       	mov    %rdi,0x68(%rsp)
 4ba87e3:	48 89 4c 24 50       	mov    %rcx,0x50(%rsp)
 4ba87e8:	44 0f 11 bc 24 98 00 	movups %xmm15,0x98(%rsp)
 4ba87ef:	00 00 
 4ba87f1:	44 0f 11 bc 24 a8 00 	movups %xmm15,0xa8(%rsp)
 4ba87f8:	00 00 
 4ba87fa:	48 8b 84 24 d0 00 00 	mov    0xd0(%rsp),%rax
 4ba8801:	00 
 4ba8802:	48 8b 9c 24 d8 00 00 	mov    0xd8(%rsp),%rbx
 4ba8809:	00 
 4ba880a:	e8 51 55 34 fd       	call   1eedd60 <runtime.convTstring@@Base>
 4ba880f:	48 8d 0d 8a 5e c0 00 	lea    0xc05e8a(%rip),%rcx        # 57ae6a0 <type:string@@Base>
 4ba8816:	48 89 8c 24 98 00 00 	mov    %rcx,0x98(%rsp)
 4ba881d:	00 
 4ba881e:	48 89 84 24 a0 00 00 	mov    %rax,0xa0(%rsp)
 4ba8825:	00 
 4ba8826:	48 8b 4c 24 50       	mov    0x50(%rsp),%rcx
 4ba882b:	48 85 c9             	test   %rcx,%rcx
 4ba882e:	74 04                	je     4ba8834 <github.com/mitchellh/mapstructure.(*Decoder).decode@@Base+0x4d4>
 4ba8830:	48 8b 49 08          	mov    0x8(%rcx),%rcx
 4ba8834:	48 89 8c 24 a8 00 00 	mov    %rcx,0xa8(%rsp)
 4ba883b:	00 
 4ba883c:	48 8b 54 24 68       	mov    0x68(%rsp),%rdx
 4ba8841:	48 89 94 24 b0 00 00 	mov    %rdx,0xb0(%rsp)
 4ba8848:	00 
 4ba8849:	48 8d 05 cd c9 22 00 	lea    0x22c9cd(%rip),%rax        # 4dd521d <_IO_stdin_used@@Base+0x1a221d>
 4ba8850:	bb 17 00 00 00       	mov    $0x17,%ebx
 4ba8855:	48 8d 8c 24 98 00 00 	lea    0x98(%rsp),%rcx
 4ba885c:	00 
 4ba885d:	bf 02 00 00 00       	mov    $0x2,%edi
 4ba8862:	48 89 fe             	mov    %rdi,%rsi
 4ba8865:	e8 f6 89 44 fd       	call   1ff1260 <fmt.Errorf@@Base>
 4ba886a:	48 8b ac 24 b8 00 00 	mov    0xb8(%rsp),%rbp
 4ba8871:	00 
 4ba8872:	48 81 c4 c0 00 00 00 	add    $0xc0,%rsp
 4ba8879:	c3                   	ret
 4ba887a:	4d 85 d2             	test   %r10,%r10
 4ba887d:	74 10                	je     4ba888f <github.com/mitchellh/mapstructure.(*Decoder).decode@@Base+0x52f>
 4ba887f:	41 0f ba e2 09       	bt     $0x9,%r10d
 4ba8884:	72 09                	jb     4ba888f <github.com/mitchellh/mapstructure.(*Decoder).decode@@Base+0x52f>
 4ba8886:	48 8d 15 63 db 3b 01 	lea    0x13bdb63(%rip),%rdx        # 5f663f0 <go:itab.*reflect.rtype,reflect.Type@@Base>
 4ba888d:	eb 14                	jmp    4ba88a3 <github.com/mitchellh/mapstructure.(*Decoder).decode@@Base+0x543>
 4ba888f:	4c 89 c0             	mov    %r8,%rax
 4ba8892:	4c 89 cb             	mov    %r9,%rbx
 4ba8895:	4c 89 d1             	mov    %r10,%rcx
 4ba8898:	e8 23 38 3f fd       	call   1f9c0c0 <reflect.Value.typeSlow@@Base>
 4ba889d:	48 89 c2             	mov    %rax,%rdx
 4ba88a0:	49 89 d8             	mov    %rbx,%r8
 4ba88a3:	48 89 d0             	mov    %rdx,%rax
 4ba88a6:	4c 89 c3             	mov    %r8,%rbx
 4ba88a9:	e8 f2 55 3f fd       	call   1f9dea0 <reflect.Zero@@Base>
 4ba88ae:	48 89 c7             	mov    %rax,%rdi
 4ba88b1:	48 89 de             	mov    %rbx,%rsi
 4ba88b4:	49 89 c8             	mov    %rcx,%r8
 4ba88b7:	48 8b 44 24 78       	mov    0x78(%rsp),%rax
 4ba88bc:	48 8b 9c 24 80 00 00 	mov    0x80(%rsp),%rbx
 4ba88c3:	00 
 4ba88c4:	48 8b 4c 24 58       	mov    0x58(%rsp),%rcx
 4ba88c9:	e8 d2 1a 3f fd       	call   1f9a3a0 <reflect.Value.Set@@Base>
 4ba88ce:	48 8b 8c 24 c8 00 00 	mov    0xc8(%rsp),%rcx
 4ba88d5:	00 
 4ba88d6:	48 8b 09             	mov    (%rcx),%rcx
 4ba88d9:	48 8b 49 18          	mov    0x18(%rcx),%rcx
 4ba88dd:	0f 1f 00             	nopl   (%rax)
 4ba88e0:	48 85 c9             	test   %rcx,%rcx
 4ba88e3:	0f 84 a0 00 00 00    	je     4ba8989 <github.com/mitchellh/mapstructure.(*Decoder).decode@@Base+0x629>
 4ba88e9:	48 8b 94 24 d8 00 00 	mov    0xd8(%rsp),%rdx
 4ba88f0:	00 
 4ba88f1:	48 85 d2             	test   %rdx,%rdx
 4ba88f4:	0f 84 8f 00 00 00    	je     4ba8989 <github.com/mitchellh/mapstructure.(*Decoder).decode@@Base+0x629>
 4ba88fa:	48 8b 59 08          	mov    0x8(%rcx),%rbx
 4ba88fe:	48 ff c3             	inc    %rbx
 4ba8901:	48 8b 01             	mov    (%rcx),%rax
 4ba8904:	4c 8b 41 10          	mov    0x10(%rcx),%r8
 4ba8908:	49 39 d8             	cmp    %rbx,%r8
 4ba890b:	73 43                	jae    4ba8950 <github.com/mitchellh/mapstructure.(*Decoder).decode@@Base+0x5f0>
 4ba890d:	48 89 4c 24 70       	mov    %rcx,0x70(%rsp)
 4ba8912:	4c 89 c1             	mov    %r8,%rcx
 4ba8915:	bf 01 00 00 00       	mov    $0x1,%edi
 4ba891a:	48 8d 35 7f 5d c0 00 	lea    0xc05d7f(%rip),%rsi        # 57ae6a0 <type:string@@Base>
 4ba8921:	e8 9a db 38 fd       	call   1f364c0 <runtime.growslice@@Base>
 4ba8926:	48 8b 7c 24 70       	mov    0x70(%rsp),%rdi
 4ba892b:	48 89 4f 10          	mov    %rcx,0x10(%rdi)
 4ba892f:	83 3d 2a 30 2d 03 00 	cmpl   $0x0,0x32d302a(%rip)        # 7e7b960 <runtime.writeBarrier@@Base>
 4ba8936:	75 08                	jne    4ba8940 <github.com/mitchellh/mapstructure.(*Decoder).decode@@Base+0x5e0>
 4ba8938:	48 89 07             	mov    %rax,(%rdi)
 4ba893b:	eb 08                	jmp    4ba8945 <github.com/mitchellh/mapstructure.(*Decoder).decode@@Base+0x5e5>
 4ba893d:	0f 1f 00             	nopl   (%rax)
 4ba8940:	e8 bb dc 3a fd       	call   1f56600 <runtime.gcWriteBarrier@@Base>
 4ba8945:	48 89 f9             	mov    %rdi,%rcx
 4ba8948:	48 8b 94 24 d8 00 00 	mov    0xd8(%rsp),%rdx
 4ba894f:	00 
 4ba8950:	48 89 59 08          	mov    %rbx,0x8(%rcx)
 4ba8954:	48 8d 4b ff          	lea    -0x1(%rbx),%rcx
 4ba8958:	48 c1 e1 04          	shl    $0x4,%rcx
 4ba895c:	48 89 54 08 08       	mov    %rdx,0x8(%rax,%rcx,1)
 4ba8961:	48 8d 3c 08          	lea    (%rax,%rcx,1),%rdi
 4ba8965:	83 3d f4 2f 2d 03 00 	cmpl   $0x0,0x32d2ff4(%rip)        # 7e7b960 <runtime.writeBarrier@@Base>
 4ba896c:	75 0e                	jne    4ba897c <github.com/mitchellh/mapstructure.(*Decoder).decode@@Base+0x61c>
 4ba896e:	48 8b 94 24 d0 00 00 	mov    0xd0(%rsp),%rdx
 4ba8975:	00 
 4ba8976:	48 89 14 08          	mov    %rdx,(%rax,%rcx,1)
 4ba897a:	eb 0d                	jmp    4ba8989 <github.com/mitchellh/mapstructure.(*Decoder).decode@@Base+0x629>
 4ba897c:	48 8b 8c 24 d0 00 00 	mov    0xd0(%rsp),%rcx
 4ba8983:	00 
 4ba8984:	e8 77 dd 3a fd       	call   1f56700 <runtime.gcWriteBarrierCX@@Base>
 4ba8989:	31 c0                	xor    %eax,%eax
 4ba898b:	31 db                	xor    %ebx,%ebx
 4ba898d:	48 8b ac 24 b8 00 00 	mov    0xb8(%rsp),%rbp
 4ba8994:	00 
 4ba8995:	48 81 c4 c0 00 00 00 	add    $0xc0,%rsp
 4ba899c:	c3                   	ret
 4ba899d:	48 8b 10             	mov    (%rax),%rdx
 4ba89a0:	80 7a 12 00          	cmpb   $0x0,0x12(%rdx)
 4ba89a4:	0f 84 0b 01 00 00    	je     4ba8ab5 <github.com/mitchellh/mapstructure.(*Decoder).decode@@Base+0x755>
 4ba89aa:	4d 85 d2             	test   %r10,%r10
 4ba89ad:	74 10                	je     4ba89bf <github.com/mitchellh/mapstructure.(*Decoder).decode@@Base+0x65f>
 4ba89af:	41 0f ba e2 09       	bt     $0x9,%r10d
 4ba89b4:	72 09                	jb     4ba89bf <github.com/mitchellh/mapstructure.(*Decoder).decode@@Base+0x65f>
 4ba89b6:	48 8d 15 33 da 3b 01 	lea    0x13bda33(%rip),%rdx        # 5f663f0 <go:itab.*reflect.rtype,reflect.Type@@Base>
 4ba89bd:	eb 14                	jmp    4ba89d3 <github.com/mitchellh/mapstructure.(*Decoder).decode@@Base+0x673>
 4ba89bf:	4c 89 c0             	mov    %r8,%rax
 4ba89c2:	4c 89 cb             	mov    %r9,%rbx
 4ba89c5:	4c 89 d1             	mov    %r10,%rcx
 4ba89c8:	e8 f3 36 3f fd       	call   1f9c0c0 <reflect.Value.typeSlow@@Base>
 4ba89cd:	48 89 c2             	mov    %rax,%rdx
 4ba89d0:	49 89 d8             	mov    %rbx,%r8
 4ba89d3:	48 89 d0             	mov    %rdx,%rax
 4ba89d6:	4c 89 c3             	mov    %r8,%rbx
 4ba89d9:	e8 c2 54 3f fd       	call   1f9dea0 <reflect.Zero@@Base>
 4ba89de:	48 89 c7             	mov    %rax,%rdi
 4ba89e1:	48 89 de             	mov    %rbx,%rsi
 4ba89e4:	49 89 c8             	mov    %rcx,%r8
 4ba89e7:	48 8b 44 24 78       	mov    0x78(%rsp),%rax
 4ba89ec:	48 8b 9c 24 80 00 00 	mov    0x80(%rsp),%rbx
 4ba89f3:	00 
 4ba89f4:	48 8b 4c 24 58       	mov    0x58(%rsp),%rcx
 4ba89f9:	e8 a2 19 3f fd       	call   1f9a3a0 <reflect.Value.Set@@Base>
 4ba89fe:	48 8b 8c 24 c8 00 00 	mov    0xc8(%rsp),%rcx
 4ba8a05:	00 
 4ba8a06:	48 8b 09             	mov    (%rcx),%rcx
 4ba8a09:	48 8b 49 18          	mov    0x18(%rcx),%rcx
 4ba8a0d:	48 85 c9             	test   %rcx,%rcx
 4ba8a10:	0f 84 9f 00 00 00    	je     4ba8ab5 <github.com/mitchellh/mapstructure.(*Decoder).decode@@Base+0x755>
 4ba8a16:	48 8b 94 24 d8 00 00 	mov    0xd8(%rsp),%rdx
 4ba8a1d:	00 
 4ba8a1e:	66 90                	xchg   %ax,%ax
 4ba8a20:	48 85 d2             	test   %rdx,%rdx
 4ba8a23:	0f 84 8c 00 00 00    	je     4ba8ab5 <github.com/mitchellh/mapstructure.(*Decoder).decode@@Base+0x755>
 4ba8a29:	48 8b 59 08          	mov    0x8(%rcx),%rbx
 4ba8a2d:	48 ff c3             	inc    %rbx
 4ba8a30:	48 8b 01             	mov    (%rcx),%rax
 4ba8a33:	4c 8b 41 10          	mov    0x10(%rcx),%r8
 4ba8a37:	49 39 d8             	cmp    %rbx,%r8
 4ba8a3a:	73 40                	jae    4ba8a7c <github.com/mitchellh/mapstructure.(*Decoder).decode@@Base+0x71c>
 4ba8a3c:	48 89 4c 24 70       	mov    %rcx,0x70(%rsp)
 4ba8a41:	4c 89 c1             	mov    %r8,%rcx
 4ba8a44:	bf 01 00 00 00       	mov    $0x1,%edi
 4ba8a49:	48 8d 35 50 5c c0 00 	lea    0xc05c50(%rip),%rsi        # 57ae6a0 <type:string@@Base>
 4ba8a50:	e8 6b da 38 fd       	call   1f364c0 <runtime.growslice@@Base>
 4ba8a55:	48 8b 7c 24 70       	mov    0x70(%rsp),%rdi
 4ba8a5a:	48 89 4f 10          	mov    %rcx,0x10(%rdi)
 4ba8a5e:	83 3d fb 2e 2d 03 00 	cmpl   $0x0,0x32d2efb(%rip)        # 7e7b960 <runtime.writeBarrier@@Base>
 4ba8a65:	75 05                	jne    4ba8a6c <github.com/mitchellh/mapstructure.(*Decoder).decode@@Base+0x70c>
 4ba8a67:	48 89 07             	mov    %rax,(%rdi)
 4ba8a6a:	eb 05                	jmp    4ba8a71 <github.com/mitchellh/mapstructure.(*Decoder).decode@@Base+0x711>
 4ba8a6c:	e8 8f db 3a fd       	call   1f56600 <runtime.gcWriteBarrier@@Base>
 4ba8a71:	48 89 f9             	mov    %rdi,%rcx
 4ba8a74:	48 8b 94 24 d8 00 00 	mov    0xd8(%rsp),%rdx
 4ba8a7b:	00 
 4ba8a7c:	48 89 59 08          	mov    %rbx,0x8(%rcx)
 4ba8a80:	48 8d 4b ff          	lea    -0x1(%rbx),%rcx
 4ba8a84:	48 c1 e1 04          	shl    $0x4,%rcx
 4ba8a88:	48 89 54 08 08       	mov    %rdx,0x8(%rax,%rcx,1)
 4ba8a8d:	48 8d 3c 08          	lea    (%rax,%rcx,1),%rdi
 4ba8a91:	83 3d c8 2e 2d 03 00 	cmpl   $0x0,0x32d2ec8(%rip)        # 7e7b960 <runtime.writeBarrier@@Base>
 4ba8a98:	75 0e                	jne    4ba8aa8 <github.com/mitchellh/mapstructure.(*Decoder).decode@@Base+0x748>
 4ba8a9a:	48 8b 94 24 d0 00 00 	mov    0xd0(%rsp),%rdx
 4ba8aa1:	00 
 4ba8aa2:	48 89 14 08          	mov    %rdx,(%rax,%rcx,1)
 4ba8aa6:	eb 0d                	jmp    4ba8ab5 <github.com/mitchellh/mapstructure.(*Decoder).decode@@Base+0x755>
 4ba8aa8:	48 8b 8c 24 d0 00 00 	mov    0xd0(%rsp),%rcx
 4ba8aaf:	00 
 4ba8ab0:	e8 4b dc 3a fd       	call   1f56700 <runtime.gcWriteBarrierCX@@Base>
 4ba8ab5:	31 c0                	xor    %eax,%eax
 4ba8ab7:	31 db                	xor    %ebx,%ebx
 4ba8ab9:	48 8b ac 24 b8 00 00 	mov    0xb8(%rsp),%rbp
 4ba8ac0:	00 
 4ba8ac1:	48 81 c4 c0 00 00 00 	add    $0xc0,%rsp
 4ba8ac8:	c3                   	ret
 4ba8ac9:	48 89 44 24 08       	mov    %rax,0x8(%rsp)
 4ba8ace:	48 89 5c 24 10       	mov    %rbx,0x10(%rsp)
 4ba8ad3:	48 89 4c 24 18       	mov    %rcx,0x18(%rsp)
 4ba8ad8:	48 89 7c 24 20       	mov    %rdi,0x20(%rsp)
 4ba8add:	48 89 74 24 28       	mov    %rsi,0x28(%rsp)
 4ba8ae2:	4c 89 44 24 30       	mov    %r8,0x30(%rsp)
 4ba8ae7:	4c 89 4c 24 38       	mov    %r9,0x38(%rsp)
 4ba8aec:	4c 89 54 24 40       	mov    %r10,0x40(%rsp)
 4ba8af1:	e8 6a b9 3a fd       	call   1f54460 <runtime.morestack_noctxt.abi0@@Base>
 4ba8af6:	48 8b 44 24 08       	mov    0x8(%rsp),%rax
 4ba8afb:	48 8b 5c 24 10       	mov    0x10(%rsp),%rbx
 4ba8b00:	48 8b 4c 24 18       	mov    0x18(%rsp),%rcx
 4ba8b05:	48 8b 7c 24 20       	mov    0x20(%rsp),%rdi
 4ba8b0a:	48 8b 74 24 28       	mov    0x28(%rsp),%rsi
 4ba8b0f:	4c 8b 44 24 30       	mov    0x30(%rsp),%r8
 4ba8b14:	4c 8b 4c 24 38       	mov    0x38(%rsp),%r9
 4ba8b19:	4c 8b 54 24 40       	mov    0x40(%rsp),%r10
 4ba8b1e:	66 90                	xchg   %ax,%ax
 4ba8b20:	e9 3b f8 ff ff       	jmp    4ba8360 <github.com/mitchellh/mapstructure.(*Decoder).decode@@Base>
 4ba8b25:	cc                   	int3
 4ba8b26:	cc                   	int3
 4ba8b27:	cc                   	int3
 4ba8b28:	cc                   	int3
 4ba8b29:	cc                   	int3
 4ba8b2a:	cc                   	int3
 4ba8b2b:	cc                   	int3
 4ba8b2c:	cc                   	int3
 4ba8b2d:	cc                   	int3
 4ba8b2e:	cc                   	int3
 4ba8b2f:	cc                   	int3
 4ba8b30:	cc                   	int3
 4ba8b31:	cc                   	int3
 4ba8b32:	cc                   	int3
 4ba8b33:	cc                   	int3
 4ba8b34:	cc                   	int3
 4ba8b35:	cc                   	int3
 4ba8b36:	cc                   	int3
 4ba8b37:	cc                   	int3
 4ba8b38:	cc                   	int3
 4ba8b39:	cc                   	int3
 4ba8b3a:	cc                   	int3
 4ba8b3b:	cc                   	int3
 4ba8b3c:	cc                   	int3
 4ba8b3d:	cc                   	int3
 4ba8b3e:	cc                   	int3
 4ba8b3f:	cc                   	int3

0000000004ba8b40 <github.com/mitchellh/mapstructure.(*Decoder).decodeBasic@@Base>:
 4ba8b40:	4c 8d a4 24 30 ff ff 	lea    -0xd0(%rsp),%r12
 4ba8b47:	ff 
 4ba8b48:	4d 3b 66 10          	cmp    0x10(%r14),%r12
 4ba8b4c:	0f 86 c7 06 00 00    	jbe    4ba9219 <github.com/mitchellh/mapstructure.(*Decoder).decodeBasic@@Base+0x6d9>
 4ba8b52:	48 81 ec 50 01 00 00 	sub    $0x150,%rsp
 4ba8b59:	48 89 ac 24 48 01 00 	mov    %rbp,0x148(%rsp)
 4ba8b60:	00 
 4ba8b61:	48 8d ac 24 48 01 00 	lea    0x148(%rsp),%rbp
 4ba8b68:	00 
 4ba8b69:	48 89 bc 24 70 01 00 	mov    %rdi,0x170(%rsp)
 4ba8b70:	00 
 4ba8b71:	4c 89 84 24 80 01 00 	mov    %r8,0x180(%rsp)
 4ba8b78:	00 
 4ba8b79:	4c 89 8c 24 88 01 00 	mov    %r9,0x188(%rsp)
 4ba8b80:	00 
 4ba8b81:	48 89 b4 24 78 01 00 	mov    %rsi,0x178(%rsp)
 4ba8b88:	00 
 4ba8b89:	48 89 bc 24 00 01 00 	mov    %rdi,0x100(%rsp)
 4ba8b90:	00 
 4ba8b91:	48 89 8c 24 68 01 00 	mov    %rcx,0x168(%rsp)
 4ba8b98:	00 
 4ba8b99:	48 89 9c 24 60 01 00 	mov    %rbx,0x160(%rsp)
 4ba8ba0:	00 
 4ba8ba1:	48 89 84 24 f8 00 00 	mov    %rax,0xf8(%rsp)
 4ba8ba8:	00 
 4ba8ba9:	4c 89 54 24 78       	mov    %r10,0x78(%rsp)
 4ba8bae:	4c 89 8c 24 f0 00 00 	mov    %r9,0xf0(%rsp)
 4ba8bb5:	00 
 4ba8bb6:	4c 89 84 24 e8 00 00 	mov    %r8,0xe8(%rsp)
 4ba8bbd:	00 
 4ba8bbe:	66 90                	xchg   %ax,%ax
 4ba8bc0:	4d 85 d2             	test   %r10,%r10
 4ba8bc3:	75 04                	jne    4ba8bc9 <github.com/mitchellh/mapstructure.(*Decoder).decodeBasic@@Base+0x89>
 4ba8bc5:	31 d2                	xor    %edx,%edx
 4ba8bc7:	eb 57                	jmp    4ba8c20 <github.com/mitchellh/mapstructure.(*Decoder).decodeBasic@@Base+0xe0>
 4ba8bc9:	4c 89 c0             	mov    %r8,%rax
 4ba8bcc:	4c 89 cb             	mov    %r9,%rbx
 4ba8bcf:	4c 89 d1             	mov    %r10,%rcx
 4ba8bd2:	e8 a9 d8 3e fd       	call   1f96480 <reflect.Value.Elem@@Base>
 4ba8bd7:	48 85 c9             	test   %rcx,%rcx
 4ba8bda:	0f 95 c2             	setne  %dl
 4ba8bdd:	48 8b 84 24 f8 00 00 	mov    0xf8(%rsp),%rax
 4ba8be4:	00 
 4ba8be5:	48 8b 8c 24 68 01 00 	mov    0x168(%rsp),%rcx
 4ba8bec:	00 
 4ba8bed:	48 8b 9c 24 60 01 00 	mov    0x160(%rsp),%rbx
 4ba8bf4:	00 
 4ba8bf5:	48 8b b4 24 78 01 00 	mov    0x178(%rsp),%rsi
 4ba8bfc:	00 
 4ba8bfd:	48 8b bc 24 00 01 00 	mov    0x100(%rsp),%rdi
 4ba8c04:	00 
 4ba8c05:	4c 8b 84 24 e8 00 00 	mov    0xe8(%rsp),%r8
 4ba8c0c:	00 
 4ba8c0d:	4c 8b 8c 24 f0 00 00 	mov    0xf0(%rsp),%r9
 4ba8c14:	00 
 4ba8c15:	4c 8b 54 24 78       	mov    0x78(%rsp),%r10
 4ba8c1a:	66 0f 1f 44 00 00    	nopw   0x0(%rax,%rax,1)
 4ba8c20:	84 d2                	test   %dl,%dl
 4ba8c22:	0f 85 74 04 00 00    	jne    4ba909c <github.com/mitchellh/mapstructure.(*Decoder).decodeBasic@@Base+0x55c>
 4ba8c28:	48 85 ff             	test   %rdi,%rdi
 4ba8c2b:	74 78                	je     4ba8ca5 <github.com/mitchellh/mapstructure.(*Decoder).decodeBasic@@Base+0x165>
 4ba8c2d:	90                   	nop
 4ba8c2e:	80 3d 0b f7 28 03 00 	cmpb   $0x0,0x328f70b(%rip)        # 7e38340 <reflect.dummy@@Base>
 4ba8c35:	74 2b                	je     4ba8c62 <github.com/mitchellh/mapstructure.(*Decoder).decodeBasic@@Base+0x122>
 4ba8c37:	48 89 3d 0a f7 28 03 	mov    %rdi,0x328f70a(%rip)        # 7e38348 <reflect.dummy@@Base+0x8>
 4ba8c3e:	83 3d 1b 2d 2d 03 00 	cmpl   $0x0,0x32d2d1b(%rip)        # 7e7b960 <runtime.writeBarrier@@Base>
 4ba8c45:	75 09                	jne    4ba8c50 <github.com/mitchellh/mapstructure.(*Decoder).decodeBasic@@Base+0x110>
 4ba8c47:	48 89 35 02 f7 28 03 	mov    %rsi,0x328f702(%rip)        # 7e38350 <reflect.dummy@@Base+0x10>
 4ba8c4e:	eb 12                	jmp    4ba8c62 <github.com/mitchellh/mapstructure.(*Decoder).decodeBasic@@Base+0x122>
 4ba8c50:	48 89 f8             	mov    %rdi,%rax
 4ba8c53:	48 8d 3d f6 f6 28 03 	lea    0x328f6f6(%rip),%rdi        # 7e38350 <reflect.dummy@@Base+0x10>
 4ba8c5a:	e8 01 db 3a fd       	call   1f56760 <runtime.gcWriteBarrierSI@@Base>
 4ba8c5f:	48 89 c7             	mov    %rax,%rdi
 4ba8c62:	48 89 bc 24 08 01 00 	mov    %rdi,0x108(%rsp)
 4ba8c69:	00 
 4ba8c6a:	48 89 b4 24 10 01 00 	mov    %rsi,0x110(%rsp)
 4ba8c71:	00 
 4ba8c72:	48 8b 94 24 08 01 00 	mov    0x108(%rsp),%rdx
 4ba8c79:	00 
 4ba8c7a:	48 85 d2             	test   %rdx,%rdx
 4ba8c7d:	74 1d                	je     4ba8c9c <github.com/mitchellh/mapstructure.(*Decoder).decodeBasic@@Base+0x15c>
 4ba8c7f:	0f b6 7a 17          	movzbl 0x17(%rdx),%edi
 4ba8c83:	41 89 fb             	mov    %edi,%r11d
 4ba8c86:	83 e7 1f             	and    $0x1f,%edi
 4ba8c89:	49 89 fc             	mov    %rdi,%r12
 4ba8c8c:	48 0f ba ef 07       	bts    $0x7,%rdi
 4ba8c91:	41 f6 c3 20          	test   $0x20,%r11b
 4ba8c95:	4c 0f 44 e7          	cmove  %rdi,%r12
 4ba8c99:	90                   	nop
 4ba8c9a:	eb 10                	jmp    4ba8cac <github.com/mitchellh/mapstructure.(*Decoder).decodeBasic@@Base+0x16c>
 4ba8c9c:	45 31 e4             	xor    %r12d,%r12d
 4ba8c9f:	31 d2                	xor    %edx,%edx
 4ba8ca1:	31 f6                	xor    %esi,%esi
 4ba8ca3:	eb 07                	jmp    4ba8cac <github.com/mitchellh/mapstructure.(*Decoder).decodeBasic@@Base+0x16c>
 4ba8ca5:	45 31 e4             	xor    %r12d,%r12d
 4ba8ca8:	31 d2                	xor    %edx,%edx
 4ba8caa:	31 f6                	xor    %esi,%esi
 4ba8cac:	90                   	nop
 4ba8cad:	4c 89 e7             	mov    %r12,%rdi
 4ba8cb0:	41 83 e4 1f          	and    $0x1f,%r12d
 4ba8cb4:	49 83 fc 16          	cmp    $0x16,%r12
 4ba8cb8:	0f 85 fc 00 00 00    	jne    4ba8dba <github.com/mitchellh/mapstructure.(*Decoder).decodeBasic@@Base+0x27a>
 4ba8cbe:	4c 89 64 24 70       	mov    %r12,0x70(%rsp)
 4ba8cc3:	48 89 7c 24 68       	mov    %rdi,0x68(%rsp)
 4ba8cc8:	48 89 b4 24 88 00 00 	mov    %rsi,0x88(%rsp)
 4ba8ccf:	00 
 4ba8cd0:	48 89 94 24 80 00 00 	mov    %rdx,0x80(%rsp)
 4ba8cd7:	00 
 4ba8cd8:	0f ba e7 09          	bt     $0x9,%edi
 4ba8cdc:	72 09                	jb     4ba8ce7 <github.com/mitchellh/mapstructure.(*Decoder).decodeBasic@@Base+0x1a7>
 4ba8cde:	48 8d 05 0b d7 3b 01 	lea    0x13bd70b(%rip),%rax        # 5f663f0 <go:itab.*reflect.rtype,reflect.Type@@Base>
 4ba8ce5:	eb 11                	jmp    4ba8cf8 <github.com/mitchellh/mapstructure.(*Decoder).decodeBasic@@Base+0x1b8>
 4ba8ce7:	48 89 d0             	mov    %rdx,%rax
 4ba8cea:	48 89 f3             	mov    %rsi,%rbx
 4ba8ced:	48 89 f9             	mov    %rdi,%rcx
 4ba8cf0:	e8 cb 33 3f fd       	call   1f9c0c0 <reflect.Value.typeSlow@@Base>
 4ba8cf5:	48 89 da             	mov    %rbx,%rdx
 4ba8cf8:	48 8b 48 48          	mov    0x48(%rax),%rcx
 4ba8cfc:	48 89 d0             	mov    %rdx,%rax
 4ba8cff:	90                   	nop
 4ba8d00:	ff d1                	call   *%rcx
 4ba8d02:	48 89 84 24 e0 00 00 	mov    %rax,0xe0(%rsp)
 4ba8d09:	00 
 4ba8d0a:	48 89 9c 24 d8 00 00 	mov    %rbx,0xd8(%rsp)
 4ba8d11:	00 
 4ba8d12:	48 8b 4c 24 78       	mov    0x78(%rsp),%rcx
 4ba8d17:	48 85 c9             	test   %rcx,%rcx
 4ba8d1a:	74 17                	je     4ba8d33 <github.com/mitchellh/mapstructure.(*Decoder).decodeBasic@@Base+0x1f3>
 4ba8d1c:	0f ba e1 09          	bt     $0x9,%ecx
 4ba8d20:	72 11                	jb     4ba8d33 <github.com/mitchellh/mapstructure.(*Decoder).decodeBasic@@Base+0x1f3>
 4ba8d22:	48 8d 15 c7 d6 3b 01 	lea    0x13bd6c7(%rip),%rdx        # 5f663f0 <go:itab.*reflect.rtype,reflect.Type@@Base>
 4ba8d29:	48 8b b4 24 e8 00 00 	mov    0xe8(%rsp),%rsi
 4ba8d30:	00 
 4ba8d31:	eb 30                	jmp    4ba8d63 <github.com/mitchellh/mapstructure.(*Decoder).decodeBasic@@Base+0x223>
 4ba8d33:	48 8b 84 24 e8 00 00 	mov    0xe8(%rsp),%rax
 4ba8d3a:	00 
 4ba8d3b:	48 8b 9c 24 f0 00 00 	mov    0xf0(%rsp),%rbx
 4ba8d42:	00 
 4ba8d43:	e8 78 33 3f fd       	call   1f9c0c0 <reflect.Value.typeSlow@@Base>
 4ba8d48:	48 8b 4c 24 78       	mov    0x78(%rsp),%rcx
 4ba8d4d:	48 89 c2             	mov    %rax,%rdx
 4ba8d50:	48 89 de             	mov    %rbx,%rsi
 4ba8d53:	48 8b 84 24 e0 00 00 	mov    0xe0(%rsp),%rax
 4ba8d5a:	00 
 4ba8d5b:	48 8b 9c 24 d8 00 00 	mov    0xd8(%rsp),%rbx
 4ba8d62:	00 
 4ba8d63:	48 39 d0             	cmp    %rdx,%rax
 4ba8d66:	74 04                	je     4ba8d6c <github.com/mitchellh/mapstructure.(*Decoder).decodeBasic@@Base+0x22c>
 4ba8d68:	31 c0                	xor    %eax,%eax
 4ba8d6a:	eb 0d                	jmp    4ba8d79 <github.com/mitchellh/mapstructure.(*Decoder).decodeBasic@@Base+0x239>
 4ba8d6c:	48 89 f1             	mov    %rsi,%rcx
 4ba8d6f:	e8 6c c1 33 fd       	call   1ee4ee0 <runtime.ifaceeq@@Base>
 4ba8d74:	48 8b 4c 24 78       	mov    0x78(%rsp),%rcx
 4ba8d79:	48 8b 8c 24 68 01 00 	mov    0x168(%rsp),%rcx
 4ba8d80:	00 
 4ba8d81:	48 8b 94 24 80 00 00 	mov    0x80(%rsp),%rdx
 4ba8d88:	00 
 4ba8d89:	48 8b 9c 24 60 01 00 	mov    0x160(%rsp),%rbx
 4ba8d90:	00 
 4ba8d91:	48 8b b4 24 88 00 00 	mov    0x88(%rsp),%rsi
 4ba8d98:	00 
 4ba8d99:	48 8b 7c 24 68       	mov    0x68(%rsp),%rdi
 4ba8d9e:	4c 8b 84 24 e8 00 00 	mov    0xe8(%rsp),%r8
 4ba8da5:	00 
 4ba8da6:	4c 8b 8c 24 f0 00 00 	mov    0xf0(%rsp),%r9
 4ba8dad:	00 
 4ba8dae:	4c 8b 54 24 78       	mov    0x78(%rsp),%r10
 4ba8db3:	4c 8b 64 24 70       	mov    0x70(%rsp),%r12
 4ba8db8:	eb 06                	jmp    4ba8dc0 <github.com/mitchellh/mapstructure.(*Decoder).decodeBasic@@Base+0x280>
 4ba8dba:	31 c0                	xor    %eax,%eax
 4ba8dbc:	0f 1f 40 00          	nopl   0x0(%rax)
 4ba8dc0:	84 c0                	test   %al,%al
 4ba8dc2:	74 42                	je     4ba8e06 <github.com/mitchellh/mapstructure.(*Decoder).decodeBasic@@Base+0x2c6>
 4ba8dc4:	49 83 fc 16          	cmp    $0x16,%r12
 4ba8dc8:	75 3c                	jne    4ba8e06 <github.com/mitchellh/mapstructure.(*Decoder).decodeBasic@@Base+0x2c6>
 4ba8dca:	48 89 d0             	mov    %rdx,%rax
 4ba8dcd:	48 89 f3             	mov    %rsi,%rbx
 4ba8dd0:	48 89 f9             	mov    %rdi,%rcx
 4ba8dd3:	e8 a8 d6 3e fd       	call   1f96480 <reflect.Value.Elem@@Base>
 4ba8dd8:	4c 8b 84 24 e8 00 00 	mov    0xe8(%rsp),%r8
 4ba8ddf:	00 
 4ba8de0:	4c 8b 8c 24 f0 00 00 	mov    0xf0(%rsp),%r9
 4ba8de7:	00 
 4ba8de8:	4c 8b 54 24 78       	mov    0x78(%rsp),%r10
 4ba8ded:	48 89 cf             	mov    %rcx,%rdi
 4ba8df0:	48 89 c2             	mov    %rax,%rdx
 4ba8df3:	48 89 de             	mov    %rbx,%rsi
 4ba8df6:	48 8b 8c 24 68 01 00 	mov    0x168(%rsp),%rcx
 4ba8dfd:	00 
 4ba8dfe:	48 8b 9c 24 60 01 00 	mov    0x160(%rsp),%rbx
 4ba8e05:	00 
 4ba8e06:	48 85 ff             	test   %rdi,%rdi
 4ba8e09:	75 5e                	jne    4ba8e69 <github.com/mitchellh/mapstructure.(*Decoder).decodeBasic@@Base+0x329>
 4ba8e0b:	4d 85 d2             	test   %r10,%r10
 4ba8e0e:	74 12                	je     4ba8e22 <github.com/mitchellh/mapstructure.(*Decoder).decodeBasic@@Base+0x2e2>
 4ba8e10:	41 0f ba e2 09       	bt     $0x9,%r10d
 4ba8e15:	72 0b                	jb     4ba8e22 <github.com/mitchellh/mapstructure.(*Decoder).decodeBasic@@Base+0x2e2>
 4ba8e17:	48 8d 05 d2 d5 3b 01 	lea    0x13bd5d2(%rip),%rax        # 5f663f0 <go:itab.*reflect.rtype,reflect.Type@@Base>
 4ba8e1e:	66 90                	xchg   %ax,%ax
 4ba8e20:	eb 11                	jmp    4ba8e33 <github.com/mitchellh/mapstructure.(*Decoder).decodeBasic@@Base+0x2f3>
 4ba8e22:	4c 89 c0             	mov    %r8,%rax
 4ba8e25:	4c 89 cb             	mov    %r9,%rbx
 4ba8e28:	4c 89 d1             	mov    %r10,%rcx
 4ba8e2b:	e8 90 32 3f fd       	call   1f9c0c0 <reflect.Value.typeSlow@@Base>
 4ba8e30:	49 89 d8             	mov    %rbx,%r8
 4ba8e33:	4c 89 c3             	mov    %r8,%rbx
 4ba8e36:	e8 65 50 3f fd       	call   1f9dea0 <reflect.Zero@@Base>
 4ba8e3b:	4c 8b 84 24 e8 00 00 	mov    0xe8(%rsp),%r8
 4ba8e42:	00 
 4ba8e43:	4c 8b 8c 24 f0 00 00 	mov    0xf0(%rsp),%r9
 4ba8e4a:	00 
 4ba8e4b:	4c 8b 54 24 78       	mov    0x78(%rsp),%r10
 4ba8e50:	48 89 cf             	mov    %rcx,%rdi
 4ba8e53:	48 89 c2             	mov    %rax,%rdx
 4ba8e56:	48 89 de             	mov    %rbx,%rsi
 4ba8e59:	48 8b 8c 24 68 01 00 	mov    0x168(%rsp),%rcx
 4ba8e60:	00 
 4ba8e61:	48 8b 9c 24 60 01 00 	mov    0x160(%rsp),%rbx
 4ba8e68:	00 
 4ba8e69:	48 89 b4 24 b8 00 00 	mov    %rsi,0xb8(%rsp)
 4ba8e70:	00 
 4ba8e71:	48 89 94 24 b0 00 00 	mov    %rdx,0xb0(%rsp)
 4ba8e78:	00 
 4ba8e79:	48 89 7c 24 50       	mov    %rdi,0x50(%rsp)
 4ba8e7e:	66 90                	xchg   %ax,%ax
 4ba8e80:	48 85 ff             	test   %rdi,%rdi
 4ba8e83:	74 15                	je     4ba8e9a <github.com/mitchellh/mapstructure.(*Decoder).decodeBasic@@Base+0x35a>
 4ba8e85:	0f ba e7 09          	bt     $0x9,%edi
 4ba8e89:	72 0f                	jb     4ba8e9a <github.com/mitchellh/mapstructure.(*Decoder).decodeBasic@@Base+0x35a>
 4ba8e8b:	4d 85 d2             	test   %r10,%r10
 4ba8e8e:	48 89 d0             	mov    %rdx,%rax
 4ba8e91:	4c 8d 1d 58 d5 3b 01 	lea    0x13bd558(%rip),%r11        # 5f663f0 <go:itab.*reflect.rtype,reflect.Type@@Base>
 4ba8e98:	eb 56                	jmp    4ba8ef0 <github.com/mitchellh/mapstructure.(*Decoder).decodeBasic@@Base+0x3b0>
 4ba8e9a:	48 89 d0             	mov    %rdx,%rax
 4ba8e9d:	48 89 f3             	mov    %rsi,%rbx
 4ba8ea0:	48 89 f9             	mov    %rdi,%rcx
 4ba8ea3:	e8 18 32 3f fd       	call   1f9c0c0 <reflect.Value.typeSlow@@Base>
 4ba8ea8:	48 8b 4c 24 78       	mov    0x78(%rsp),%rcx
 4ba8ead:	48 85 c9             	test   %rcx,%rcx
 4ba8eb0:	48 8b 8c 24 68 01 00 	mov    0x168(%rsp),%rcx
 4ba8eb7:	00 
 4ba8eb8:	48 8b b4 24 b8 00 00 	mov    0xb8(%rsp),%rsi
 4ba8ebf:	00 
 4ba8ec0:	48 8b 7c 24 50       	mov    0x50(%rsp),%rdi
 4ba8ec5:	4c 8b 84 24 e8 00 00 	mov    0xe8(%rsp),%r8
 4ba8ecc:	00 
 4ba8ecd:	4c 8b 8c 24 f0 00 00 	mov    0xf0(%rsp),%r9
 4ba8ed4:	00 
 4ba8ed5:	4c 8b 54 24 78       	mov    0x78(%rsp),%r10
 4ba8eda:	49 89 c3             	mov    %rax,%r11
 4ba8edd:	48 89 da             	mov    %rbx,%rdx
 4ba8ee0:	48 8b 84 24 b0 00 00 	mov    0xb0(%rsp),%rax
 4ba8ee7:	00 
 4ba8ee8:	48 8b 9c 24 60 01 00 	mov    0x160(%rsp),%rbx
 4ba8eef:	00 
 4ba8ef0:	48 89 94 24 98 00 00 	mov    %rdx,0x98(%rsp)
 4ba8ef7:	00 
 4ba8ef8:	4c 89 5c 24 48       	mov    %r11,0x48(%rsp)
 4ba8efd:	74 10                	je     4ba8f0f <github.com/mitchellh/mapstructure.(*Decoder).decodeBasic@@Base+0x3cf>
 4ba8eff:	41 0f ba e2 09       	bt     $0x9,%r10d
 4ba8f04:	72 09                	jb     4ba8f0f <github.com/mitchellh/mapstructure.(*Decoder).decodeBasic@@Base+0x3cf>
 4ba8f06:	4c 8d 25 e3 d4 3b 01 	lea    0x13bd4e3(%rip),%r12        # 5f663f0 <go:itab.*reflect.rtype,reflect.Type@@Base>
 4ba8f0d:	eb 21                	jmp    4ba8f30 <github.com/mitchellh/mapstructure.(*Decoder).decodeBasic@@Base+0x3f0>
 4ba8f0f:	4c 89 c0             	mov    %r8,%rax
 4ba8f12:	4c 89 cb             	mov    %r9,%rbx
 4ba8f15:	4c 89 d1             	mov    %r10,%rcx
 4ba8f18:	e8 a3 31 3f fd       	call   1f9c0c0 <reflect.Value.typeSlow@@Base>
 4ba8f1d:	48 8b 94 24 98 00 00 	mov    0x98(%rsp),%rdx
 4ba8f24:	00 
 4ba8f25:	4c 8b 5c 24 48       	mov    0x48(%rsp),%r11
 4ba8f2a:	49 89 c4             	mov    %rax,%r12
 4ba8f2d:	49 89 d8             	mov    %rbx,%r8
 4ba8f30:	49 8b 73 20          	mov    0x20(%r11),%rsi
 4ba8f34:	48 89 d0             	mov    %rdx,%rax
 4ba8f37:	4c 89 e3             	mov    %r12,%rbx
 4ba8f3a:	4c 89 c1             	mov    %r8,%rcx
 4ba8f3d:	ff d6                	call   *%rsi
 4ba8f3f:	90                   	nop
 4ba8f40:	84 c0                	test   %al,%al
 4ba8f42:	0f 85 11 01 00 00    	jne    4ba9059 <github.com/mitchellh/mapstructure.(*Decoder).decodeBasic@@Base+0x519>
 4ba8f48:	48 8b 4c 24 78       	mov    0x78(%rsp),%rcx
 4ba8f4d:	48 85 c9             	test   %rcx,%rcx
 4ba8f50:	74 17                	je     4ba8f69 <github.com/mitchellh/mapstructure.(*Decoder).decodeBasic@@Base+0x429>
 4ba8f52:	0f ba e1 09          	bt     $0x9,%ecx
 4ba8f56:	72 11                	jb     4ba8f69 <github.com/mitchellh/mapstructure.(*Decoder).decodeBasic@@Base+0x429>
 4ba8f58:	48 8d 05 91 d4 3b 01 	lea    0x13bd491(%rip),%rax        # 5f663f0 <go:itab.*reflect.rtype,reflect.Type@@Base>
 4ba8f5f:	48 8b 9c 24 e8 00 00 	mov    0xe8(%rsp),%rbx
 4ba8f66:	00 
 4ba8f67:	eb 15                	jmp    4ba8f7e <github.com/mitchellh/mapstructure.(*Decoder).decodeBasic@@Base+0x43e>
 4ba8f69:	48 8b 84 24 e8 00 00 	mov    0xe8(%rsp),%rax
 4ba8f70:	00 
 4ba8f71:	48 8b 9c 24 f0 00 00 	mov    0xf0(%rsp),%rbx
 4ba8f78:	00 
 4ba8f79:	e8 42 31 3f fd       	call   1f9c0c0 <reflect.Value.typeSlow@@Base>
 4ba8f7e:	48 89 44 24 40       	mov    %rax,0x40(%rsp)
 4ba8f83:	48 89 9c 24 90 00 00 	mov    %rbx,0x90(%rsp)
 4ba8f8a:	00 
 4ba8f8b:	44 0f 11 bc 24 18 01 	movups %xmm15,0x118(%rsp)
 4ba8f92:	00 00 
 4ba8f94:	44 0f 11 bc 24 28 01 	movups %xmm15,0x128(%rsp)
 4ba8f9b:	00 00 
 4ba8f9d:	44 0f 11 bc 24 38 01 	movups %xmm15,0x138(%rsp)
 4ba8fa4:	00 00 
 4ba8fa6:	48 8b 84 24 60 01 00 	mov    0x160(%rsp),%rax
 4ba8fad:	00 
 4ba8fae:	48 8b 9c 24 68 01 00 	mov    0x168(%rsp),%rbx
 4ba8fb5:	00 
 4ba8fb6:	e8 a5 4d 34 fd       	call   1eedd60 <runtime.convTstring@@Base>
 4ba8fbb:	48 8d 0d de 56 c0 00 	lea    0xc056de(%rip),%rcx        # 57ae6a0 <type:string@@Base>
 4ba8fc2:	48 89 8c 24 18 01 00 	mov    %rcx,0x118(%rsp)
 4ba8fc9:	00 
 4ba8fca:	48 89 84 24 20 01 00 	mov    %rax,0x120(%rsp)
 4ba8fd1:	00 
 4ba8fd2:	48 8b 4c 24 40       	mov    0x40(%rsp),%rcx
 4ba8fd7:	48 85 c9             	test   %rcx,%rcx
 4ba8fda:	74 06                	je     4ba8fe2 <github.com/mitchellh/mapstructure.(*Decoder).decodeBasic@@Base+0x4a2>
 4ba8fdc:	48 8b 41 08          	mov    0x8(%rcx),%rax
 4ba8fe0:	eb 03                	jmp    4ba8fe5 <github.com/mitchellh/mapstructure.(*Decoder).decodeBasic@@Base+0x4a5>
 4ba8fe2:	48 89 c8             	mov    %rcx,%rax
 4ba8fe5:	48 89 84 24 28 01 00 	mov    %rax,0x128(%rsp)
 4ba8fec:	00 
 4ba8fed:	48 8b 94 24 90 00 00 	mov    0x90(%rsp),%rdx
 4ba8ff4:	00 
 4ba8ff5:	48 89 94 24 30 01 00 	mov    %rdx,0x130(%rsp)
 4ba8ffc:	00 
 4ba8ffd:	48 8b 54 24 48       	mov    0x48(%rsp),%rdx
 4ba9002:	48 85 d2             	test   %rdx,%rdx
 4ba9005:	74 06                	je     4ba900d <github.com/mitchellh/mapstructure.(*Decoder).decodeBasic@@Base+0x4cd>
 4ba9007:	4c 8b 5a 08          	mov    0x8(%rdx),%r11
 4ba900b:	eb 03                	jmp    4ba9010 <github.com/mitchellh/mapstructure.(*Decoder).decodeBasic@@Base+0x4d0>
 4ba900d:	49 89 d3             	mov    %rdx,%r11
 4ba9010:	4c 89 9c 24 38 01 00 	mov    %r11,0x138(%rsp)
 4ba9017:	00 
 4ba9018:	48 8b 94 24 98 00 00 	mov    0x98(%rsp),%rdx
 4ba901f:	00 
 4ba9020:	48 89 94 24 40 01 00 	mov    %rdx,0x140(%rsp)
 4ba9027:	00 
 4ba9028:	48 8d 05 d6 29 25 00 	lea    0x2529d6(%rip),%rax        # 4dfba05 <_IO_stdin_used@@Base+0x1c8a05>
 4ba902f:	bb 21 00 00 00       	mov    $0x21,%ebx
 4ba9034:	48 8d 8c 24 18 01 00 	lea    0x118(%rsp),%rcx
 4ba903b:	00 
 4ba903c:	bf 03 00 00 00       	mov    $0x3,%edi
 4ba9041:	48 89 fe             	mov    %rdi,%rsi
 4ba9044:	e8 17 82 44 fd       	call   1ff1260 <fmt.Errorf@@Base>
 4ba9049:	48 8b ac 24 48 01 00 	mov    0x148(%rsp),%rbp
 4ba9050:	00 
 4ba9051:	48 81 c4 50 01 00 00 	add    $0x150,%rsp
 4ba9058:	c3                   	ret
 4ba9059:	48 8b 84 24 e8 00 00 	mov    0xe8(%rsp),%rax
 4ba9060:	00 
 4ba9061:	48 8b 9c 24 f0 00 00 	mov    0xf0(%rsp),%rbx
 4ba9068:	00 
 4ba9069:	48 8b 4c 24 78       	mov    0x78(%rsp),%rcx
 4ba906e:	48 8b bc 24 b0 00 00 	mov    0xb0(%rsp),%rdi
 4ba9075:	00 
 4ba9076:	48 8b b4 24 b8 00 00 	mov    0xb8(%rsp),%rsi
 4ba907d:	00 
 4ba907e:	4c 8b 44 24 50       	mov    0x50(%rsp),%r8
 4ba9083:	e8 18 13 3f fd       	call   1f9a3a0 <reflect.Value.Set@@Base>
 4ba9088:	31 c0                	xor    %eax,%eax
 4ba908a:	31 db                	xor    %ebx,%ebx
 4ba908c:	48 8b ac 24 48 01 00 	mov    0x148(%rsp),%rbp
 4ba9093:	00 
 4ba9094:	48 81 c4 50 01 00 00 	add    $0x150,%rsp
 4ba909b:	c3                   	ret
 4ba909c:	4c 89 c0             	mov    %r8,%rax
 4ba909f:	4c 89 cb             	mov    %r9,%rbx
 4ba90a2:	4c 89 d1             	mov    %r10,%rcx
 4ba90a5:	e8 d6 d3 3e fd       	call   1f96480 <reflect.Value.Elem@@Base>
 4ba90aa:	48 89 ca             	mov    %rcx,%rdx
 4ba90ad:	81 e1 00 01 00 00    	and    $0x100,%ecx
 4ba90b3:	48 89 4c 24 70       	mov    %rcx,0x70(%rsp)
 4ba90b8:	0f 1f 84 00 00 00 00 	nopl   0x0(%rax,%rax,1)
 4ba90bf:	00 
 4ba90c0:	48 85 c9             	test   %rcx,%rcx
 4ba90c3:	0f 85 91 00 00 00    	jne    4ba915a <github.com/mitchellh/mapstructure.(*Decoder).decodeBasic@@Base+0x61a>
 4ba90c9:	48 89 54 24 68       	mov    %rdx,0x68(%rsp)
 4ba90ce:	48 89 84 24 d0 00 00 	mov    %rax,0xd0(%rsp)
 4ba90d5:	00 
 4ba90d6:	48 89 9c 24 d8 00 00 	mov    %rbx,0xd8(%rsp)
 4ba90dd:	00 
 4ba90de:	66 90                	xchg   %ax,%ax
 4ba90e0:	48 85 d2             	test   %rdx,%rdx
 4ba90e3:	74 0f                	je     4ba90f4 <github.com/mitchellh/mapstructure.(*Decoder).decodeBasic@@Base+0x5b4>
 4ba90e5:	0f ba e2 09          	bt     $0x9,%edx
 4ba90e9:	72 09                	jb     4ba90f4 <github.com/mitchellh/mapstructure.(*Decoder).decodeBasic@@Base+0x5b4>
 4ba90eb:	48 8d 35 fe d2 3b 01 	lea    0x13bd2fe(%rip),%rsi        # 5f663f0 <go:itab.*reflect.rtype,reflect.Type@@Base>
 4ba90f2:	eb 0e                	jmp    4ba9102 <github.com/mitchellh/mapstructure.(*Decoder).decodeBasic@@Base+0x5c2>
 4ba90f4:	48 89 d1             	mov    %rdx,%rcx
 4ba90f7:	e8 c4 2f 3f fd       	call   1f9c0c0 <reflect.Value.typeSlow@@Base>
 4ba90fc:	48 89 c6             	mov    %rax,%rsi
 4ba90ff:	48 89 d8             	mov    %rbx,%rax
 4ba9102:	48 89 c3             	mov    %rax,%rbx
 4ba9105:	48 89 f0             	mov    %rsi,%rax
 4ba9108:	e8 93 4e 3f fd       	call   1f9dfa0 <reflect.New@@Base>
 4ba910d:	48 89 84 24 c8 00 00 	mov    %rax,0xc8(%rsp)
 4ba9114:	00 
 4ba9115:	48 89 9c 24 c0 00 00 	mov    %rbx,0xc0(%rsp)
 4ba911c:	00 
 4ba911d:	48 89 4c 24 60       	mov    %rcx,0x60(%rsp)
 4ba9122:	e8 59 d3 3e fd       	call   1f96480 <reflect.Value.Elem@@Base>
 4ba9127:	48 8b bc 24 d0 00 00 	mov    0xd0(%rsp),%rdi
 4ba912e:	00 
 4ba912f:	48 8b b4 24 d8 00 00 	mov    0xd8(%rsp),%rsi
 4ba9136:	00 
 4ba9137:	4c 8b 44 24 68       	mov    0x68(%rsp),%r8
 4ba913c:	0f 1f 40 00          	nopl   0x0(%rax)
 4ba9140:	e8 5b 12 3f fd       	call   1f9a3a0 <reflect.Value.Set@@Base>
 4ba9145:	48 8b 54 24 60       	mov    0x60(%rsp),%rdx
 4ba914a:	48 8b 84 24 c8 00 00 	mov    0xc8(%rsp),%rax
 4ba9151:	00 
 4ba9152:	48 8b 9c 24 c0 00 00 	mov    0xc0(%rsp),%rbx
 4ba9159:	00 
 4ba915a:	48 89 54 24 58       	mov    %rdx,0x58(%rsp)
 4ba915f:	48 89 84 24 a0 00 00 	mov    %rax,0xa0(%rsp)
 4ba9166:	00 
 4ba9167:	48 89 9c 24 a8 00 00 	mov    %rbx,0xa8(%rsp)
 4ba916e:	00 
 4ba916f:	48 8b 8c 24 68 01 00 	mov    0x168(%rsp),%rcx
 4ba9176:	00 
 4ba9177:	48 8b bc 24 00 01 00 	mov    0x100(%rsp),%rdi
 4ba917e:	00 
 4ba917f:	48 8b b4 24 78 01 00 	mov    0x178(%rsp),%rsi
 4ba9186:	00 
 4ba9187:	49 89 c0             	mov    %rax,%r8
 4ba918a:	49 89 d9             	mov    %rbx,%r9
 4ba918d:	49 89 d2             	mov    %rdx,%r10
 4ba9190:	48 8b 84 24 f8 00 00 	mov    0xf8(%rsp),%rax
 4ba9197:	00 
 4ba9198:	48 8b 9c 24 60 01 00 	mov    0x160(%rsp),%rbx
 4ba919f:	00 
 4ba91a0:	e8 bb f1 ff ff       	call   4ba8360 <github.com/mitchellh/mapstructure.(*Decoder).decode@@Base>
 4ba91a5:	48 85 c0             	test   %rax,%rax
 4ba91a8:	75 0a                	jne    4ba91b4 <github.com/mitchellh/mapstructure.(*Decoder).decodeBasic@@Base+0x674>
 4ba91aa:	48 8b 54 24 70       	mov    0x70(%rsp),%rdx
 4ba91af:	48 85 d2             	test   %rdx,%rdx
 4ba91b2:	74 10                	je     4ba91c4 <github.com/mitchellh/mapstructure.(*Decoder).decodeBasic@@Base+0x684>
 4ba91b4:	48 8b ac 24 48 01 00 	mov    0x148(%rsp),%rbp
 4ba91bb:	00 
 4ba91bc:	48 81 c4 50 01 00 00 	add    $0x150,%rsp
 4ba91c3:	c3                   	ret
 4ba91c4:	48 8b 84 24 a0 00 00 	mov    0xa0(%rsp),%rax
 4ba91cb:	00 
 4ba91cc:	48 8b 9c 24 a8 00 00 	mov    0xa8(%rsp),%rbx
 4ba91d3:	00 
 4ba91d4:	48 8b 4c 24 58       	mov    0x58(%rsp),%rcx
 4ba91d9:	e8 a2 d2 3e fd       	call   1f96480 <reflect.Value.Elem@@Base>
 4ba91de:	48 89 c7             	mov    %rax,%rdi
 4ba91e1:	48 89 de             	mov    %rbx,%rsi
 4ba91e4:	49 89 c8             	mov    %rcx,%r8
 4ba91e7:	48 8b 84 24 e8 00 00 	mov    0xe8(%rsp),%rax
 4ba91ee:	00 
 4ba91ef:	48 8b 9c 24 f0 00 00 	mov    0xf0(%rsp),%rbx
 4ba91f6:	00 
 4ba91f7:	48 8b 4c 24 78       	mov    0x78(%rsp),%rcx
 4ba91fc:	0f 1f 40 00          	nopl   0x0(%rax)
 4ba9200:	e8 9b 11 3f fd       	call   1f9a3a0 <reflect.Value.Set@@Base>
 4ba9205:	31 c0                	xor    %eax,%eax
 4ba9207:	31 db                	xor    %ebx,%ebx
 4ba9209:	48 8b ac 24 48 01 00 	mov    0x148(%rsp),%rbp
 4ba9210:	00 
 4ba9211:	48 81 c4 50 01 00 00 	add    $0x150,%rsp
 4ba9218:	c3                   	ret
 4ba9219:	48 89 44 24 08       	mov    %rax,0x8(%rsp)
 4ba921e:	48 89 5c 24 10       	mov    %rbx,0x10(%rsp)
 4ba9223:	48 89 4c 24 18       	mov    %rcx,0x18(%rsp)
 4ba9228:	48 89 7c 24 20       	mov    %rdi,0x20(%rsp)
 4ba922d:	48 89 74 24 28       	mov    %rsi,0x28(%rsp)
 4ba9232:	4c 89 44 24 30       	mov    %r8,0x30(%rsp)
 4ba9237:	4c 89 4c 24 38       	mov    %r9,0x38(%rsp)
 4ba923c:	4c 89 54 24 40       	mov    %r10,0x40(%rsp)
 4ba9241:	e8 1a b2 3a fd       	call   1f54460 <runtime.morestack_noctxt.abi0@@Base>
 4ba9246:	48 8b 44 24 08       	mov    0x8(%rsp),%rax
 4ba924b:	48 8b 5c 24 10       	mov    0x10(%rsp),%rbx
 4ba9250:	48 8b 4c 24 18       	mov    0x18(%rsp),%rcx
 4ba9255:	48 8b 7c 24 20       	mov    0x20(%rsp),%rdi
 4ba925a:	48 8b 74 24 28       	mov    0x28(%rsp),%rsi
 4ba925f:	4c 8b 44 24 30       	mov    0x30(%rsp),%r8
 4ba9264:	4c 8b 4c 24 38       	mov    0x38(%rsp),%r9
 4ba9269:	4c 8b 54 24 40       	mov    0x40(%rsp),%r10
 4ba926e:	e9 cd f8 ff ff       	jmp    4ba8b40 <github.com/mitchellh/mapstructure.(*Decoder).decodeBasic@@Base>
 4ba9273:	cc                   	int3
 4ba9274:	cc                   	int3
 4ba9275:	cc                   	int3
 4ba9276:	cc                   	int3
 4ba9277:	cc                   	int3
 4ba9278:	cc                   	int3
 4ba9279:	cc                   	int3
 4ba927a:	cc                   	int3
 4ba927b:	cc                   	int3
 4ba927c:	cc                   	int3
 4ba927d:	cc                   	int3
 4ba927e:	cc                   	int3
 4ba927f:	cc                   	int3

0000000004ba9280 <github.com/mitchellh/mapstructure.(*Decoder).decodeString@@Base>:
 4ba9280:	4c 8d a4 24 78 ff ff 	lea    -0x88(%rsp),%r12
 4ba9287:	ff 
 4ba9288:	4d 3b 66 10          	cmp    0x10(%r14),%r12
 4ba928c:	0f 86 00 0b 00 00    	jbe    4ba9d92 <github.com/mitchellh/mapstructure.(*Decoder).decodeString@@Base+0xb12>
 4ba9292:	48 81 ec 08 01 00 00 	sub    $0x108,%rsp
 4ba9299:	48 89 ac 24 00 01 00 	mov    %rbp,0x100(%rsp)
 4ba92a0:	00 
 4ba92a1:	48 8d ac 24 00 01 00 	lea    0x100(%rsp),%rbp
 4ba92a8:	00 
 4ba92a9:	48 89 9c 24 18 01 00 	mov    %rbx,0x118(%rsp)
 4ba92b0:	00 
 4ba92b1:	48 89 bc 24 28 01 00 	mov    %rdi,0x128(%rsp)
 4ba92b8:	00 
 4ba92b9:	48 89 b4 24 30 01 00 	mov    %rsi,0x130(%rsp)
 4ba92c0:	00 
 4ba92c1:	4c 89 84 24 38 01 00 	mov    %r8,0x138(%rsp)
 4ba92c8:	00 
 4ba92c9:	4c 89 8c 24 40 01 00 	mov    %r9,0x140(%rsp)
 4ba92d0:	00 
 4ba92d1:	48 85 ff             	test   %rdi,%rdi
 4ba92d4:	0f 84 80 00 00 00    	je     4ba935a <github.com/mitchellh/mapstructure.(*Decoder).decodeString@@Base+0xda>
 4ba92da:	90                   	nop
 4ba92db:	80 3d 5e f0 28 03 00 	cmpb   $0x0,0x328f05e(%rip)        # 7e38340 <reflect.dummy@@Base>
 4ba92e2:	74 2b                	je     4ba930f <github.com/mitchellh/mapstructure.(*Decoder).decodeString@@Base+0x8f>
 4ba92e4:	48 89 3d 5d f0 28 03 	mov    %rdi,0x328f05d(%rip)        # 7e38348 <reflect.dummy@@Base+0x8>
 4ba92eb:	83 3d 6e 26 2d 03 00 	cmpl   $0x0,0x32d266e(%rip)        # 7e7b960 <runtime.writeBarrier@@Base>
 4ba92f2:	75 09                	jne    4ba92fd <github.com/mitchellh/mapstructure.(*Decoder).decodeString@@Base+0x7d>
 4ba92f4:	48 89 35 55 f0 28 03 	mov    %rsi,0x328f055(%rip)        # 7e38350 <reflect.dummy@@Base+0x10>
 4ba92fb:	eb 12                	jmp    4ba930f <github.com/mitchellh/mapstructure.(*Decoder).decodeString@@Base+0x8f>
 4ba92fd:	48 89 fa             	mov    %rdi,%rdx
 4ba9300:	48 8d 3d 49 f0 28 03 	lea    0x328f049(%rip),%rdi        # 7e38350 <reflect.dummy@@Base+0x10>
 4ba9307:	e8 54 d4 3a fd       	call   1f56760 <runtime.gcWriteBarrierSI@@Base>
 4ba930c:	48 89 d7             	mov    %rdx,%rdi
 4ba930f:	48 89 bc 24 b0 00 00 	mov    %rdi,0xb0(%rsp)
 4ba9316:	00 
 4ba9317:	48 89 b4 24 b8 00 00 	mov    %rsi,0xb8(%rsp)
 4ba931e:	00 
 4ba931f:	48 8b 94 24 b0 00 00 	mov    0xb0(%rsp),%rdx
 4ba9326:	00 
 4ba9327:	48 85 d2             	test   %rdx,%rdx
 4ba932a:	74 22                	je     4ba934e <github.com/mitchellh/mapstructure.(*Decoder).decodeString@@Base+0xce>
 4ba932c:	44 0f b6 5a 17       	movzbl 0x17(%rdx),%r11d
 4ba9331:	45 89 dc             	mov    %r11d,%r12d
 4ba9334:	41 83 e3 1f          	and    $0x1f,%r11d
 4ba9338:	4d 89 dd             	mov    %r11,%r13
 4ba933b:	49 0f ba eb 07       	bts    $0x7,%r11
 4ba9340:	41 f6 c4 20          	test   $0x20,%r12b
 4ba9344:	4d 0f 44 eb          	cmove  %r11,%r13
 4ba9348:	90                   	nop
 4ba9349:	49 89 f3             	mov    %rsi,%r11
 4ba934c:	eb 16                	jmp    4ba9364 <github.com/mitchellh/mapstructure.(*Decoder).decodeString@@Base+0xe4>
 4ba934e:	49 89 f3             	mov    %rsi,%r11
 4ba9351:	45 31 ed             	xor    %r13d,%r13d
 4ba9354:	31 d2                	xor    %edx,%edx
 4ba9356:	31 f6                	xor    %esi,%esi
 4ba9358:	eb 0a                	jmp    4ba9364 <github.com/mitchellh/mapstructure.(*Decoder).decodeString@@Base+0xe4>
 4ba935a:	49 89 f3             	mov    %rsi,%r11
 4ba935d:	45 31 ed             	xor    %r13d,%r13d
 4ba9360:	31 d2                	xor    %edx,%edx
 4ba9362:	31 f6                	xor    %esi,%esi
 4ba9364:	48 89 bc 24 28 01 00 	mov    %rdi,0x128(%rsp)
 4ba936b:	00 
 4ba936c:	48 89 8c 24 20 01 00 	mov    %rcx,0x120(%rsp)
 4ba9373:	00 
 4ba9374:	4c 89 9c 24 a8 00 00 	mov    %r11,0xa8(%rsp)
 4ba937b:	00 
 4ba937c:	48 89 9c 24 18 01 00 	mov    %rbx,0x118(%rsp)
 4ba9383:	00 
 4ba9384:	4c 89 54 24 68       	mov    %r10,0x68(%rsp)
 4ba9389:	4c 89 8c 24 a0 00 00 	mov    %r9,0xa0(%rsp)
 4ba9390:	00 
 4ba9391:	4c 89 84 24 98 00 00 	mov    %r8,0x98(%rsp)
 4ba9398:	00 
 4ba9399:	90                   	nop
 4ba939a:	4d 89 ec             	mov    %r13,%r12
 4ba939d:	41 83 e5 1f          	and    $0x1f,%r13d
 4ba93a1:	49 83 fd 16          	cmp    $0x16,%r13
 4ba93a5:	75 5c                	jne    4ba9403 <github.com/mitchellh/mapstructure.(*Decoder).decodeString@@Base+0x183>
 4ba93a7:	48 89 84 24 10 01 00 	mov    %rax,0x110(%rsp)
 4ba93ae:	00 
 4ba93af:	48 89 d0             	mov    %rdx,%rax
 4ba93b2:	48 89 f3             	mov    %rsi,%rbx
 4ba93b5:	4c 89 e1             	mov    %r12,%rcx
 4ba93b8:	e8 c3 d0 3e fd       	call   1f96480 <reflect.Value.Elem@@Base>
 4ba93bd:	48 8b bc 24 28 01 00 	mov    0x128(%rsp),%rdi
 4ba93c4:	00 
 4ba93c5:	4c 8b 84 24 98 00 00 	mov    0x98(%rsp),%r8
 4ba93cc:	00 
 4ba93cd:	4c 8b 8c 24 a0 00 00 	mov    0xa0(%rsp),%r9
 4ba93d4:	00 
 4ba93d5:	4c 8b 54 24 68       	mov    0x68(%rsp),%r10
 4ba93da:	4c 8b 9c 24 a8 00 00 	mov    0xa8(%rsp),%r11
 4ba93e1:	00 
 4ba93e2:	48 89 de             	mov    %rbx,%rsi
 4ba93e5:	49 89 cc             	mov    %rcx,%r12
 4ba93e8:	48 89 c2             	mov    %rax,%rdx
 4ba93eb:	48 8b 84 24 10 01 00 	mov    0x110(%rsp),%rax
 4ba93f2:	00 
 4ba93f3:	48 8b 8c 24 20 01 00 	mov    0x120(%rsp),%rcx
 4ba93fa:	00 
 4ba93fb:	48 8b 9c 24 18 01 00 	mov    0x118(%rsp),%rbx
 4ba9402:	00 
 4ba9403:	90                   	nop
 4ba9404:	4d 89 e5             	mov    %r12,%r13
 4ba9407:	41 83 e4 1f          	and    $0x1f,%r12d
 4ba940b:	4d 8d 7c 24 fe       	lea    -0x2(%r12),%r15
 4ba9410:	90                   	nop
 4ba9411:	49 83 ff 04          	cmp    $0x4,%r15
 4ba9415:	77 08                	ja     4ba941f <github.com/mitchellh/mapstructure.(*Decoder).decodeString@@Base+0x19f>
 4ba9417:	41 bf 02 00 00 00    	mov    $0x2,%r15d
 4ba941d:	eb 29                	jmp    4ba9448 <github.com/mitchellh/mapstructure.(*Decoder).decodeString@@Base+0x1c8>
 4ba941f:	4d 8d 7c 24 f9       	lea    -0x7(%r12),%r15
 4ba9424:	49 83 ff 04          	cmp    $0x4,%r15
 4ba9428:	77 08                	ja     4ba9432 <github.com/mitchellh/mapstructure.(*Decoder).decodeString@@Base+0x1b2>
 4ba942a:	41 bf 07 00 00 00    	mov    $0x7,%r15d
 4ba9430:	eb 16                	jmp    4ba9448 <github.com/mitchellh/mapstructure.(*Decoder).decodeString@@Base+0x1c8>
 4ba9432:	4d 8d 7c 24 f3       	lea    -0xd(%r12),%r15
 4ba9437:	49 83 ff 01          	cmp    $0x1,%r15
 4ba943b:	77 08                	ja     4ba9445 <github.com/mitchellh/mapstructure.(*Decoder).decodeString@@Base+0x1c5>
 4ba943d:	41 bf 0d 00 00 00    	mov    $0xd,%r15d
 4ba9443:	eb 03                	jmp    4ba9448 <github.com/mitchellh/mapstructure.(*Decoder).decodeString@@Base+0x1c8>
 4ba9445:	4d 89 e7             	mov    %r12,%r15
 4ba9448:	4c 89 6c 24 60       	mov    %r13,0x60(%rsp)
 4ba944d:	48 89 b4 24 88 00 00 	mov    %rsi,0x88(%rsp)
 4ba9454:	00 
 4ba9455:	48 89 54 24 70       	mov    %rdx,0x70(%rsp)
 4ba945a:	66 0f 1f 44 00 00    	nopw   0x0(%rax,%rax,1)
 4ba9460:	49 83 ff 18          	cmp    $0x18,%r15
 4ba9464:	0f 84 2b 05 00 00    	je     4ba9995 <github.com/mitchellh/mapstructure.(*Decoder).decodeString@@Base+0x715>
 4ba946a:	49 83 ff 01          	cmp    $0x1,%r15
 4ba946e:	0f 85 f6 00 00 00    	jne    4ba956a <github.com/mitchellh/mapstructure.(*Decoder).decodeString@@Base+0x2ea>
 4ba9474:	4c 8b 18             	mov    (%rax),%r11
 4ba9477:	41 80 7b 13 00       	cmpb   $0x0,0x13(%r11)
 4ba947c:	75 0d                	jne    4ba948b <github.com/mitchellh/mapstructure.(*Decoder).decodeString@@Base+0x20b>
 4ba947e:	4c 8b 9c 24 a8 00 00 	mov    0xa8(%rsp),%r11
 4ba9485:	00 
 4ba9486:	e9 df 00 00 00       	jmp    4ba956a <github.com/mitchellh/mapstructure.(*Decoder).decodeString@@Base+0x2ea>
 4ba948b:	49 83 fc 01          	cmp    $0x1,%r12
 4ba948f:	74 4d                	je     4ba94de <github.com/mitchellh/mapstructure.(*Decoder).decodeString@@Base+0x25e>
 4ba9491:	48 89 d0             	mov    %rdx,%rax
 4ba9494:	48 89 f3             	mov    %rsi,%rbx
 4ba9497:	4c 89 e9             	mov    %r13,%rcx
 4ba949a:	e8 81 85 3e fd       	call   1f91a20 <reflect.Value.panicNotBool@@Base>
 4ba949f:	48 8b 8c 24 20 01 00 	mov    0x120(%rsp),%rcx
 4ba94a6:	00 
 4ba94a7:	48 8b 54 24 70       	mov    0x70(%rsp),%rdx
 4ba94ac:	48 8b 9c 24 18 01 00 	mov    0x118(%rsp),%rbx
 4ba94b3:	00 
 4ba94b4:	48 8b b4 24 88 00 00 	mov    0x88(%rsp),%rsi
 4ba94bb:	00 
 4ba94bc:	48 8b bc 24 28 01 00 	mov    0x128(%rsp),%rdi
 4ba94c3:	00 
 4ba94c4:	4c 8b 84 24 98 00 00 	mov    0x98(%rsp),%r8
 4ba94cb:	00 
 4ba94cc:	4c 8b 8c 24 a0 00 00 	mov    0xa0(%rsp),%r9
 4ba94d3:	00 
 4ba94d4:	4c 8b 54 24 68       	mov    0x68(%rsp),%r10
 4ba94d9:	4c 8b 6c 24 60       	mov    0x60(%rsp),%r13
 4ba94de:	80 3e 00             	cmpb   $0x0,(%rsi)
 4ba94e1:	74 1c                	je     4ba94ff <github.com/mitchellh/mapstructure.(*Decoder).decodeString@@Base+0x27f>
 4ba94e3:	4c 89 c0             	mov    %r8,%rax
 4ba94e6:	4c 89 cb             	mov    %r9,%rbx
 4ba94e9:	4c 89 d1             	mov    %r10,%rcx
 4ba94ec:	48 8d 3d 6d 58 93 00 	lea    0x93586d(%rip),%rdi        # 54ded60 <_IO_stdin_used@@Base+0x8abd60>
 4ba94f3:	be 01 00 00 00       	mov    $0x1,%esi
 4ba94f8:	e8 a3 21 3f fd       	call   1f9b6a0 <reflect.Value.SetString@@Base>
 4ba94fd:	eb 1a                	jmp    4ba9519 <github.com/mitchellh/mapstructure.(*Decoder).decodeString@@Base+0x299>
 4ba94ff:	4c 89 c0             	mov    %r8,%rax
 4ba9502:	4c 89 cb             	mov    %r9,%rbx
 4ba9505:	4c 89 d1             	mov    %r10,%rcx
 4ba9508:	48 8d 3d 31 da 92 00 	lea    0x92da31(%rip),%rdi        # 54d6f40 <_IO_stdin_used@@Base+0x8a3f40>
 4ba950f:	be 01 00 00 00       	mov    $0x1,%esi
 4ba9514:	e8 87 21 3f fd       	call   1f9b6a0 <reflect.Value.SetString@@Base>
 4ba9519:	48 8b 8c 24 20 01 00 	mov    0x120(%rsp),%rcx
 4ba9520:	00 
 4ba9521:	48 8b 54 24 70       	mov    0x70(%rsp),%rdx
 4ba9526:	48 8b 9c 24 18 01 00 	mov    0x118(%rsp),%rbx
 4ba952d:	00 
 4ba952e:	48 8b b4 24 88 00 00 	mov    0x88(%rsp),%rsi
 4ba9535:	00 
 4ba9536:	48 8b bc 24 28 01 00 	mov    0x128(%rsp),%rdi
 4ba953d:	00 
 4ba953e:	4c 8b 84 24 98 00 00 	mov    0x98(%rsp),%r8
 4ba9545:	00 
 4ba9546:	4c 8b 8c 24 a0 00 00 	mov    0xa0(%rsp),%r9
 4ba954d:	00 
 4ba954e:	4c 8b 54 24 68       	mov    0x68(%rsp),%r10
 4ba9553:	4c 8b 9c 24 a8 00 00 	mov    0xa8(%rsp),%r11
 4ba955a:	00 
 4ba955b:	4c 8b 6c 24 60       	mov    0x60(%rsp),%r13
 4ba9560:	b8 01 00 00 00       	mov    $0x1,%eax
 4ba9565:	e9 c7 04 00 00       	jmp    4ba9a31 <github.com/mitchellh/mapstructure.(*Decoder).decodeString@@Base+0x7b1>
 4ba956a:	4c 89 64 24 58       	mov    %r12,0x58(%rsp)
 4ba956f:	49 83 ff 02          	cmp    $0x2,%r15
 4ba9573:	0f 85 e7 00 00 00    	jne    4ba9660 <github.com/mitchellh/mapstructure.(*Decoder).decodeString@@Base+0x3e0>
 4ba9579:	4c 8b 18             	mov    (%rax),%r11
 4ba957c:	41 80 7b 13 00       	cmpb   $0x0,0x13(%r11)
 4ba9581:	75 0d                	jne    4ba9590 <github.com/mitchellh/mapstructure.(*Decoder).decodeString@@Base+0x310>
 4ba9583:	4c 8b 9c 24 a8 00 00 	mov    0xa8(%rsp),%r11
 4ba958a:	00 
 4ba958b:	e9 d0 00 00 00       	jmp    4ba9660 <github.com/mitchellh/mapstructure.(*Decoder).decodeString@@Base+0x3e0>
 4ba9590:	49 83 fc 03          	cmp    $0x3,%r12
 4ba9594:	77 1c                	ja     4ba95b2 <github.com/mitchellh/mapstructure.(*Decoder).decodeString@@Base+0x332>
 4ba9596:	49 83 fc 02          	cmp    $0x2,%r12
 4ba959a:	75 06                	jne    4ba95a2 <github.com/mitchellh/mapstructure.(*Decoder).decodeString@@Base+0x322>
 4ba959c:	4c 8b 1e             	mov    (%rsi),%r11
 4ba959f:	90                   	nop
 4ba95a0:	eb 36                	jmp    4ba95d8 <github.com/mitchellh/mapstructure.(*Decoder).decodeString@@Base+0x358>
 4ba95a2:	49 83 fc 03          	cmp    $0x3,%r12
 4ba95a6:	0f 85 af 07 00 00    	jne    4ba9d5b <github.com/mitchellh/mapstructure.(*Decoder).decodeString@@Base+0xadb>
 4ba95ac:	4c 0f be 1e          	movsbq (%rsi),%r11
 4ba95b0:	eb 26                	jmp    4ba95d8 <github.com/mitchellh/mapstructure.(*Decoder).decodeString@@Base+0x358>
 4ba95b2:	49 83 fc 04          	cmp    $0x4,%r12
 4ba95b6:	75 08                	jne    4ba95c0 <github.com/mitchellh/mapstructure.(*Decoder).decodeString@@Base+0x340>
 4ba95b8:	4c 0f bf 1e          	movswq (%rsi),%r11
 4ba95bc:	eb 1a                	jmp    4ba95d8 <github.com/mitchellh/mapstructure.(*Decoder).decodeString@@Base+0x358>
 4ba95be:	66 90                	xchg   %ax,%ax
 4ba95c0:	49 83 fc 05          	cmp    $0x5,%r12
 4ba95c4:	75 05                	jne    4ba95cb <github.com/mitchellh/mapstructure.(*Decoder).decodeString@@Base+0x34b>
 4ba95c6:	4c 63 1e             	movslq (%rsi),%r11
 4ba95c9:	eb 0d                	jmp    4ba95d8 <github.com/mitchellh/mapstructure.(*Decoder).decodeString@@Base+0x358>
 4ba95cb:	49 83 fc 06          	cmp    $0x6,%r12
 4ba95cf:	0f 85 86 07 00 00    	jne    4ba9d5b <github.com/mitchellh/mapstructure.(*Decoder).decodeString@@Base+0xadb>
 4ba95d5:	4c 8b 1e             	mov    (%rsi),%r11
 4ba95d8:	4c 89 d8             	mov    %r11,%rax
 4ba95db:	bb 0a 00 00 00       	mov    $0xa,%ebx
