# github.com/lasselj/timebeat/beater/clocksync/clients/ptp/server.(*TxQueue).Add
# addr 0x45cc2a0 size 512 (0x200)


/mnt/c/Users/SHIWA/GitHub/TimeCard-Mini/timebeat-extracted/usr/share/timebeat/bin/timebeat:     file format elf64-x86-64


Disassembly of section .text:

00000000045cc2a0 <github.com/lasselj/timebeat/beater/clocksync/clients/ptp/server.(*TxQueue).Add@@Base>:
 45cc2a0:	49 3b 66 10          	cmp    0x10(%r14),%rsp
 45cc2a4:	0f 86 d1 01 00 00    	jbe    45cc47b <github.com/lasselj/timebeat/beater/clocksync/clients/ptp/server.(*TxQueue).Add@@Base+0x1db>
 45cc2aa:	48 83 ec 50          	sub    $0x50,%rsp
 45cc2ae:	48 89 6c 24 48       	mov    %rbp,0x48(%rsp)
 45cc2b3:	48 8d 6c 24 48       	lea    0x48(%rsp),%rbp
 45cc2b8:	49 c7 c5 00 00 00 00 	mov    $0x0,%r13
 45cc2bf:	4c 89 6c 24 40       	mov    %r13,0x40(%rsp)
 45cc2c4:	48 89 5c 24 60       	mov    %rbx,0x60(%rsp)
 45cc2c9:	c6 44 24 17 00       	movb   $0x0,0x17(%rsp)
 45cc2ce:	48 89 c1             	mov    %rax,%rcx
 45cc2d1:	31 c0                	xor    %eax,%eax
 45cc2d3:	be 01 00 00 00       	mov    $0x1,%esi
 45cc2d8:	f0 0f b1 31          	lock cmpxchg %esi,(%rcx)
 45cc2dc:	40 0f 94 c6          	sete   %sil
 45cc2e0:	40 84 f6             	test   %sil,%sil
 45cc2e3:	75 17                	jne    45cc2fc <github.com/lasselj/timebeat/beater/clocksync/clients/ptp/server.(*TxQueue).Add@@Base+0x5c>
 45cc2e5:	48 89 4c 24 28       	mov    %rcx,0x28(%rsp)
 45cc2ea:	48 89 c8             	mov    %rcx,%rax
 45cc2ed:	e8 4e c2 9a fd       	call   1f78540 <sync.(*Mutex).lockSlow@@Base>
 45cc2f2:	48 8b 4c 24 28       	mov    0x28(%rsp),%rcx
 45cc2f7:	48 8b 5c 24 60       	mov    0x60(%rsp),%rbx
 45cc2fc:	44 0f 11 7c 24 30    	movups %xmm15,0x30(%rsp)
 45cc302:	48 8d 35 97 01 00 00 	lea    0x197(%rip),%rsi        # 45cc4a0 <github.com/lasselj/timebeat/beater/clocksync/clients/ptp/server.(*TxQueue).Add.func1@@Base>
 45cc309:	48 89 74 24 30       	mov    %rsi,0x30(%rsp)
 45cc30e:	48 89 4c 24 38       	mov    %rcx,0x38(%rsp)
 45cc313:	48 8d 74 24 30       	lea    0x30(%rsp),%rsi
 45cc318:	48 89 74 24 40       	mov    %rsi,0x40(%rsp)
 45cc31d:	c6 44 24 17 01       	movb   $0x1,0x17(%rsp)
 45cc322:	48 8b 79 08          	mov    0x8(%rcx),%rdi
 45cc326:	48 81 7f 28 f4 01 00 	cmpq   $0x1f4,0x28(%rdi)
 45cc32d:	00 
 45cc32e:	0f 8f 1f 01 00 00    	jg     45cc453 <github.com/lasselj/timebeat/beater/clocksync/clients/ptp/server.(*TxQueue).Add@@Base+0x1b3>
 45cc334:	90                   	nop
 45cc335:	90                   	nop
 45cc336:	48 83 3f 00          	cmpq   $0x0,(%rdi)
 45cc33a:	75 34                	jne    45cc370 <github.com/lasselj/timebeat/beater/clocksync/clients/ptp/server.(*TxQueue).Add@@Base+0xd0>
 45cc33c:	90                   	nop
 45cc33d:	83 3d 1c f6 8a 03 00 	cmpl   $0x0,0x38af61c(%rip)        # 7e7b960 <runtime.writeBarrier@@Base>
 45cc344:	75 09                	jne    45cc34f <github.com/lasselj/timebeat/beater/clocksync/clients/ptp/server.(*TxQueue).Add@@Base+0xaf>
 45cc346:	48 89 3f             	mov    %rdi,(%rdi)
 45cc349:	48 89 7f 08          	mov    %rdi,0x8(%rdi)
 45cc34d:	eb 19                	jmp    45cc368 <github.com/lasselj/timebeat/beater/clocksync/clients/ptp/server.(*TxQueue).Add@@Base+0xc8>
 45cc34f:	48 89 f9             	mov    %rdi,%rcx
 45cc352:	e8 a9 a3 98 fd       	call   1f56700 <runtime.gcWriteBarrierCX@@Base>
 45cc357:	48 8d 51 08          	lea    0x8(%rcx),%rdx
 45cc35b:	48 89 d7             	mov    %rdx,%rdi
 45cc35e:	66 90                	xchg   %ax,%ax
 45cc360:	e8 9b a3 98 fd       	call   1f56700 <runtime.gcWriteBarrierCX@@Base>
 45cc365:	48 89 cf             	mov    %rcx,%rdi
 45cc368:	48 c7 47 28 00 00 00 	movq   $0x0,0x28(%rdi)
 45cc36f:	00 
 45cc370:	48 89 7c 24 18       	mov    %rdi,0x18(%rsp)
 45cc375:	48 8b 4f 08          	mov    0x8(%rdi),%rcx
 45cc379:	48 89 4c 24 20       	mov    %rcx,0x20(%rsp)
 45cc37e:	48 8d 05 5b 9f 66 01 	lea    0x1669f5b(%rip),%rax        # 5c362e0 <type:Uhqc0Mrc@@Base>
 45cc385:	e8 56 41 92 fd       	call   1ef04e0 <runtime.newobject@@Base>
 45cc38a:	48 8d 0d af 08 11 01 	lea    0x11108af(%rip),%rcx        # 56dcc40 <type:bUdCrYva@@Base>
 45cc391:	48 89 48 18          	mov    %rcx,0x18(%rax)
 45cc395:	83 3d c4 f5 8a 03 00 	cmpl   $0x0,0x38af5c4(%rip)        # 7e7b960 <runtime.writeBarrier@@Base>
 45cc39c:	75 0b                	jne    45cc3a9 <github.com/lasselj/timebeat/beater/clocksync/clients/ptp/server.(*TxQueue).Add@@Base+0x109>
 45cc39e:	48 8b 4c 24 60       	mov    0x60(%rsp),%rcx
 45cc3a3:	48 89 48 20          	mov    %rcx,0x20(%rax)
 45cc3a7:	eb 0e                	jmp    45cc3b7 <github.com/lasselj/timebeat/beater/clocksync/clients/ptp/server.(*TxQueue).Add@@Base+0x117>
 45cc3a9:	48 8d 78 20          	lea    0x20(%rax),%rdi
 45cc3ad:	48 8b 4c 24 60       	mov    0x60(%rsp),%rcx
 45cc3b2:	e8 49 a3 98 fd       	call   1f56700 <runtime.gcWriteBarrierCX@@Base>
 45cc3b7:	83 3d a2 f5 8a 03 00 	cmpl   $0x0,0x38af5a2(%rip)        # 7e7b960 <runtime.writeBarrier@@Base>
 45cc3be:	66 90                	xchg   %ax,%ax
 45cc3c0:	75 0b                	jne    45cc3cd <github.com/lasselj/timebeat/beater/clocksync/clients/ptp/server.(*TxQueue).Add@@Base+0x12d>
 45cc3c2:	48 8b 4c 24 20       	mov    0x20(%rsp),%rcx
 45cc3c7:	48 89 48 08          	mov    %rcx,0x8(%rax)
 45cc3cb:	eb 0e                	jmp    45cc3db <github.com/lasselj/timebeat/beater/clocksync/clients/ptp/server.(*TxQueue).Add@@Base+0x13b>
 45cc3cd:	48 8d 78 08          	lea    0x8(%rax),%rdi
 45cc3d1:	48 8b 4c 24 20       	mov    0x20(%rsp),%rcx
 45cc3d6:	e8 25 a3 98 fd       	call   1f56700 <runtime.gcWriteBarrierCX@@Base>
 45cc3db:	48 8b 19             	mov    (%rcx),%rbx
 45cc3de:	83 3d 7b f5 8a 03 00 	cmpl   $0x0,0x38af57b(%rip)        # 7e7b960 <runtime.writeBarrier@@Base>
 45cc3e5:	75 08                	jne    45cc3ef <github.com/lasselj/timebeat/beater/clocksync/clients/ptp/server.(*TxQueue).Add@@Base+0x14f>
 45cc3e7:	48 89 18             	mov    %rbx,(%rax)
 45cc3ea:	48 89 01             	mov    %rax,(%rcx)
 45cc3ed:	eb 10                	jmp    45cc3ff <github.com/lasselj/timebeat/beater/clocksync/clients/ptp/server.(*TxQueue).Add@@Base+0x15f>
 45cc3ef:	48 89 c7             	mov    %rax,%rdi
 45cc3f2:	e8 49 a3 98 fd       	call   1f56740 <runtime.gcWriteBarrierBX@@Base>
 45cc3f7:	48 89 cf             	mov    %rcx,%rdi
 45cc3fa:	e8 01 a2 98 fd       	call   1f56600 <runtime.gcWriteBarrier@@Base>
 45cc3ff:	48 8b 38             	mov    (%rax),%rdi
 45cc402:	84 07                	test   %al,(%rdi)
 45cc404:	83 3d 55 f5 8a 03 00 	cmpl   $0x0,0x38af555(%rip)        # 7e7b960 <runtime.writeBarrier@@Base>
 45cc40b:	75 0f                	jne    45cc41c <github.com/lasselj/timebeat/beater/clocksync/clients/ptp/server.(*TxQueue).Add@@Base+0x17c>
 45cc40d:	48 89 47 08          	mov    %rax,0x8(%rdi)
 45cc411:	48 8b 4c 24 18       	mov    0x18(%rsp),%rcx
 45cc416:	48 89 48 10          	mov    %rcx,0x10(%rax)
 45cc41a:	eb 1a                	jmp    45cc436 <github.com/lasselj/timebeat/beater/clocksync/clients/ptp/server.(*TxQueue).Add@@Base+0x196>
 45cc41c:	48 83 c7 08          	add    $0x8,%rdi
 45cc420:	e8 db a1 98 fd       	call   1f56600 <runtime.gcWriteBarrier@@Base>
 45cc425:	48 8d 78 10          	lea    0x10(%rax),%rdi
 45cc429:	48 8b 44 24 18       	mov    0x18(%rsp),%rax
 45cc42e:	e8 cd a1 98 fd       	call   1f56600 <runtime.gcWriteBarrier@@Base>
 45cc433:	48 89 c1             	mov    %rax,%rcx
 45cc436:	48 ff 41 28          	incq   0x28(%rcx)
 45cc43a:	c6 44 24 17 00       	movb   $0x0,0x17(%rsp)
 45cc43f:	48 8b 54 24 40       	mov    0x40(%rsp),%rdx
 45cc444:	48 8b 02             	mov    (%rdx),%rax
 45cc447:	ff d0                	call   *%rax
 45cc449:	48 8b 6c 24 48       	mov    0x48(%rsp),%rbp
 45cc44e:	48 83 c4 50          	add    $0x50,%rsp
 45cc452:	c3                   	ret
 45cc453:	c6 44 24 17 00       	movb   $0x0,0x17(%rsp)
 45cc458:	48 8b 54 24 40       	mov    0x40(%rsp),%rdx
 45cc45d:	48 8b 02             	mov    (%rdx),%rax
 45cc460:	ff d0                	call   *%rax
 45cc462:	48 8b 6c 24 48       	mov    0x48(%rsp),%rbp
 45cc467:	48 83 c4 50          	add    $0x50,%rsp
 45cc46b:	c3                   	ret
 45cc46c:	e8 ef fa 94 fd       	call   1f1bf60 <runtime.deferreturn@@Base>
 45cc471:	48 8b 6c 24 48       	mov    0x48(%rsp),%rbp
 45cc476:	48 83 c4 50          	add    $0x50,%rsp
 45cc47a:	c3                   	ret
 45cc47b:	48 89 44 24 08       	mov    %rax,0x8(%rsp)
 45cc480:	48 89 5c 24 10       	mov    %rbx,0x10(%rsp)
 45cc485:	e8 d6 7f 98 fd       	call   1f54460 <runtime.morestack_noctxt.abi0@@Base>
 45cc48a:	48 8b 44 24 08       	mov    0x8(%rsp),%rax
 45cc48f:	48 8b 5c 24 10       	mov    0x10(%rsp),%rbx
 45cc494:	e9 07 fe ff ff       	jmp    45cc2a0 <github.com/lasselj/timebeat/beater/clocksync/clients/ptp/server.(*TxQueue).Add@@Base>
 45cc499:	cc                   	int3
 45cc49a:	cc                   	int3
 45cc49b:	cc                   	int3
 45cc49c:	cc                   	int3
 45cc49d:	cc                   	int3
 45cc49e:	cc                   	int3
 45cc49f:	cc                   	int3
