# github.com/lasselj/timebeat/beater/clocksync/sources.(*TimeSourceStore).adjustForProfile
# addr 0x4414900 size 320 (0x140)


/mnt/c/Users/SHIWA/GitHub/TimeCard-Mini/timebeat-extracted/usr/share/timebeat/bin/timebeat:     file format elf64-x86-64


Disassembly of section .text:

0000000004414900 <github.com/lasselj/timebeat/beater/clocksync/sources.(*TimeSourceStore).adjustForProfile@@Base>:
 4414900:	49 3b 66 10          	cmp    0x10(%r14),%rsp
 4414904:	0f 86 05 01 00 00    	jbe    4414a0f <github.com/lasselj/timebeat/beater/clocksync/sources.(*TimeSourceStore).adjustForProfile@@Base+0x10f>
 441490a:	48 83 ec 28          	sub    $0x28,%rsp
 441490e:	48 89 6c 24 20       	mov    %rbp,0x20(%rsp)
 4414913:	48 8d 6c 24 20       	lea    0x20(%rsp),%rbp
 4414918:	48 8b 53 58          	mov    0x58(%rbx),%rdx
 441491c:	48 8b 73 60          	mov    0x60(%rbx),%rsi
 4414920:	48 83 fe 08          	cmp    $0x8,%rsi
 4414924:	7f 7a                	jg     44149a0 <github.com/lasselj/timebeat/beater/clocksync/sources.(*TimeSourceStore).adjustForProfile@@Base+0xa0>
 4414926:	48 83 fe 06          	cmp    $0x6,%rsi
 441492a:	75 1f                	jne    441494b <github.com/lasselj/timebeat/beater/clocksync/sources.(*TimeSourceStore).adjustForProfile@@Base+0x4b>
 441492c:	81 3a 68 79 62 72    	cmpl   $0x72627968,(%rdx)
 4414932:	0f 85 cd 00 00 00    	jne    4414a05 <github.com/lasselj/timebeat/beater/clocksync/sources.(*TimeSourceStore).adjustForProfile@@Base+0x105>
 4414938:	66 81 7a 04 69 64    	cmpw   $0x6469,0x4(%rdx)
 441493e:	66 90                	xchg   %ax,%ax
 4414940:	0f 84 80 00 00 00    	je     44149c6 <github.com/lasselj/timebeat/beater/clocksync/sources.(*TimeSourceStore).adjustForProfile@@Base+0xc6>
 4414946:	e9 ba 00 00 00       	jmp    4414a05 <github.com/lasselj/timebeat/beater/clocksync/sources.(*TimeSourceStore).adjustForProfile@@Base+0x105>
 441494b:	48 83 fe 08          	cmp    $0x8,%rsi
 441494f:	0f 85 b0 00 00 00    	jne    4414a05 <github.com/lasselj/timebeat/beater/clocksync/sources.(*TimeSourceStore).adjustForProfile@@Base+0x105>
 4414955:	48 b9 47 2e 38 32 36 	movabs $0x312e353632382e47,%rcx
 441495c:	35 2e 31 
 441495f:	90                   	nop
 4414960:	48 39 0a             	cmp    %rcx,(%rdx)
 4414963:	74 32                	je     4414997 <github.com/lasselj/timebeat/beater/clocksync/sources.(*TimeSourceStore).adjustForProfile@@Base+0x97>
 4414965:	48 b9 47 2e 38 32 37 	movabs $0x312e353732382e47,%rcx
 441496c:	35 2e 31 
 441496f:	48 39 0a             	cmp    %rcx,(%rdx)
 4414972:	74 1c                	je     4414990 <github.com/lasselj/timebeat/beater/clocksync/sources.(*TimeSourceStore).adjustForProfile@@Base+0x90>
 4414974:	48 b9 47 2e 38 32 37 	movabs $0x322e353732382e47,%rcx
 441497b:	35 2e 32 
 441497e:	66 90                	xchg   %ax,%ax
 4414980:	48 39 0a             	cmp    %rcx,(%rdx)
 4414983:	0f 85 7c 00 00 00    	jne    4414a05 <github.com/lasselj/timebeat/beater/clocksync/sources.(*TimeSourceStore).adjustForProfile@@Base+0x105>
 4414989:	e8 12 02 00 00       	call   4414ba0 <github.com/lasselj/timebeat/beater/clocksync/sources.(*TimeSourceStore).AdjustFor_G_8275_2@@Base>
 441498e:	eb 75                	jmp    4414a05 <github.com/lasselj/timebeat/beater/clocksync/sources.(*TimeSourceStore).adjustForProfile@@Base+0x105>
 4414990:	e8 4b 05 00 00       	call   4414ee0 <github.com/lasselj/timebeat/beater/clocksync/sources.(*TimeSourceStore).AdjustFor_G_8275_1@@Base>
 4414995:	eb 6e                	jmp    4414a05 <github.com/lasselj/timebeat/beater/clocksync/sources.(*TimeSourceStore).adjustForProfile@@Base+0x105>
 4414997:	e8 a4 09 00 00       	call   4415340 <github.com/lasselj/timebeat/beater/clocksync/sources.(*TimeSourceStore).AdjustFor_G_8265_1@@Base>
 441499c:	eb 67                	jmp    4414a05 <github.com/lasselj/timebeat/beater/clocksync/sources.(*TimeSourceStore).adjustForProfile@@Base+0x105>
 441499e:	66 90                	xchg   %ax,%ax
 44149a0:	48 83 fe 10          	cmp    $0x10,%rsi
 44149a4:	75 27                	jne    44149cd <github.com/lasselj/timebeat/beater/clocksync/sources.(*TimeSourceStore).adjustForProfile@@Base+0xcd>
 44149a6:	48 b9 65 6e 74 65 72 	movabs $0x6972707265746e65,%rcx
 44149ad:	70 72 69 
 44149b0:	48 39 0a             	cmp    %rcx,(%rdx)
 44149b3:	75 50                	jne    4414a05 <github.com/lasselj/timebeat/beater/clocksync/sources.(*TimeSourceStore).adjustForProfile@@Base+0x105>
 44149b5:	48 b9 73 65 2d 64 72 	movabs $0x74666172642d6573,%rcx
 44149bc:	61 66 74 
 44149bf:	90                   	nop
 44149c0:	48 39 4a 08          	cmp    %rcx,0x8(%rdx)
 44149c4:	75 3f                	jne    4414a05 <github.com/lasselj/timebeat/beater/clocksync/sources.(*TimeSourceStore).adjustForProfile@@Base+0x105>
 44149c6:	e8 75 00 00 00       	call   4414a40 <github.com/lasselj/timebeat/beater/clocksync/sources.(*TimeSourceStore).AdjustFor_Enterprise_Draft@@Base>
 44149cb:	eb 38                	jmp    4414a05 <github.com/lasselj/timebeat/beater/clocksync/sources.(*TimeSourceStore).adjustForProfile@@Base+0x105>
 44149cd:	48 83 fe 12          	cmp    $0x12,%rsi
 44149d1:	75 32                	jne    4414a05 <github.com/lasselj/timebeat/beater/clocksync/sources.(*TimeSourceStore).adjustForProfile@@Base+0x105>
 44149d3:	48 89 5c 24 38       	mov    %rbx,0x38(%rsp)
 44149d8:	48 89 44 24 18       	mov    %rax,0x18(%rsp)
 44149dd:	48 89 d0             	mov    %rdx,%rax
 44149e0:	48 8d 1d 65 12 95 00 	lea    0x951265(%rip),%rbx        # 4d65c4c <_IO_stdin_used@@Base+0x132c4c>
 44149e7:	b9 12 00 00 00       	mov    $0x12,%ecx
 44149ec:	e8 2f f1 ac fd       	call   1ee3b20 <runtime.memequal@@Base>
 44149f1:	84 c0                	test   %al,%al
 44149f3:	74 10                	je     4414a05 <github.com/lasselj/timebeat/beater/clocksync/sources.(*TimeSourceStore).adjustForProfile@@Base+0x105>
 44149f5:	48 8b 44 24 18       	mov    0x18(%rsp),%rax
 44149fa:	48 8b 5c 24 38       	mov    0x38(%rsp),%rbx
 44149ff:	90                   	nop
 4414a00:	e8 7b 0d 00 00       	call   4415780 <github.com/lasselj/timebeat/beater/clocksync/sources.(*TimeSourceStore).AdjustFor_IEC_IEEE_61850_9_3@@Base>
 4414a05:	48 8b 6c 24 20       	mov    0x20(%rsp),%rbp
 4414a0a:	48 83 c4 28          	add    $0x28,%rsp
 4414a0e:	c3                   	ret
 4414a0f:	48 89 44 24 08       	mov    %rax,0x8(%rsp)
 4414a14:	48 89 5c 24 10       	mov    %rbx,0x10(%rsp)
 4414a19:	e8 42 fa b3 fd       	call   1f54460 <runtime.morestack_noctxt.abi0@@Base>
 4414a1e:	48 8b 44 24 08       	mov    0x8(%rsp),%rax
 4414a23:	48 8b 5c 24 10       	mov    0x10(%rsp),%rbx
 4414a28:	e9 d3 fe ff ff       	jmp    4414900 <github.com/lasselj/timebeat/beater/clocksync/sources.(*TimeSourceStore).adjustForProfile@@Base>
 4414a2d:	cc                   	int3
 4414a2e:	cc                   	int3
 4414a2f:	cc                   	int3
 4414a30:	cc                   	int3
 4414a31:	cc                   	int3
 4414a32:	cc                   	int3
 4414a33:	cc                   	int3
 4414a34:	cc                   	int3
 4414a35:	cc                   	int3
 4414a36:	cc                   	int3
 4414a37:	cc                   	int3
 4414a38:	cc                   	int3
 4414a39:	cc                   	int3
 4414a3a:	cc                   	int3
 4414a3b:	cc                   	int3
 4414a3c:	cc                   	int3
 4414a3d:	cc                   	int3
 4414a3e:	cc                   	int3
 4414a3f:	cc                   	int3
