# github.com/lasselj/timebeat/beater/clocksync/clients/ptp/client.(*Client).SetPeerInfoJSONData
# addr 0x45d6100 size 960 (0x3c0)


/mnt/c/Users/SHIWA/GitHub/TimeCard-Mini/timebeat-extracted/usr/share/timebeat/bin/timebeat:     file format elf64-x86-64


Disassembly of section .text:

00000000045d6100 <github.com/lasselj/timebeat/beater/clocksync/clients/ptp/client.(*Client).SetPeerInfoJSONData@@Base>:
 45d6100:	4c 8d 64 24 e0       	lea    -0x20(%rsp),%r12
 45d6105:	4d 3b 66 10          	cmp    0x10(%r14),%r12
 45d6109:	0f 86 7d 03 00 00    	jbe    45d648c <github.com/lasselj/timebeat/beater/clocksync/clients/ptp/client.(*Client).SetPeerInfoJSONData@@Base+0x38c>
 45d610f:	48 81 ec a0 00 00 00 	sub    $0xa0,%rsp
 45d6116:	48 89 ac 24 98 00 00 	mov    %rbp,0x98(%rsp)
 45d611d:	00 
 45d611e:	48 8d ac 24 98 00 00 	lea    0x98(%rsp),%rbp
 45d6125:	00 
 45d6126:	49 c7 c5 00 00 00 00 	mov    $0x0,%r13
 45d612d:	4c 89 ac 24 90 00 00 	mov    %r13,0x90(%rsp)
 45d6134:	00 
 45d6135:	48 89 84 24 a8 00 00 	mov    %rax,0xa8(%rsp)
 45d613c:	00 
 45d613d:	48 89 8c 24 b8 00 00 	mov    %rcx,0xb8(%rsp)
 45d6144:	00 
 45d6145:	48 89 9c 24 b0 00 00 	mov    %rbx,0xb0(%rsp)
 45d614c:	00 
 45d614d:	c6 44 24 2f 00       	movb   $0x0,0x2f(%rsp)
 45d6152:	44 0f 11 7c 24 60    	movups %xmm15,0x60(%rsp)
 45d6158:	48 8b 90 28 04 00 00 	mov    0x428(%rax),%rdx
 45d615f:	48 89 c6             	mov    %rax,%rsi
 45d6162:	31 c0                	xor    %eax,%eax
 45d6164:	bf 01 00 00 00       	mov    $0x1,%edi
 45d6169:	f0 0f b1 7a 0c       	lock cmpxchg %edi,0xc(%rdx)
 45d616e:	40 0f 94 c7          	sete   %dil
 45d6172:	40 84 ff             	test   %dil,%dil
 45d6175:	75 16                	jne    45d618d <github.com/lasselj/timebeat/beater/clocksync/clients/ptp/client.(*Client).SetPeerInfoJSONData@@Base+0x8d>
 45d6177:	48 8d 42 0c          	lea    0xc(%rdx),%rax
 45d617b:	0f 1f 44 00 00       	nopl   0x0(%rax,%rax,1)
 45d6180:	e8 bb 23 9a fd       	call   1f78540 <sync.(*Mutex).lockSlow@@Base>
 45d6185:	48 8b b4 24 a8 00 00 	mov    0xa8(%rsp),%rsi
 45d618c:	00 
 45d618d:	48 8b 96 28 04 00 00 	mov    0x428(%rsi),%rdx
 45d6194:	84 02                	test   %al,(%rdx)
 45d6196:	44 0f 11 7c 24 70    	movups %xmm15,0x70(%rsp)
 45d619c:	48 8d 3d 1d 03 00 00 	lea    0x31d(%rip),%rdi        # 45d64c0 <github.com/lasselj/timebeat/beater/clocksync/clients/ptp/client.(*Client).SetPeerInfoJSONData.func1@@Base>
 45d61a3:	48 89 7c 24 70       	mov    %rdi,0x70(%rsp)
 45d61a8:	48 83 c2 0c          	add    $0xc,%rdx
 45d61ac:	48 89 54 24 78       	mov    %rdx,0x78(%rsp)
 45d61b1:	48 8d 54 24 70       	lea    0x70(%rsp),%rdx
 45d61b6:	48 89 94 24 90 00 00 	mov    %rdx,0x90(%rsp)
 45d61bd:	00 
 45d61be:	c6 44 24 2f 01       	movb   $0x1,0x2f(%rsp)
 45d61c3:	90                   	nop
 45d61c4:	48 8b 96 f0 03 00 00 	mov    0x3f0(%rsi),%rdx
 45d61cb:	48 89 54 24 58       	mov    %rdx,0x58(%rsp)
 45d61d0:	90                   	nop
 45d61d1:	48 8b 4a 28          	mov    0x28(%rdx),%rcx
 45d61d5:	48 89 4c 24 38       	mov    %rcx,0x38(%rsp)
 45d61da:	48 8d 05 bf 84 1d 01 	lea    0x11d84bf(%rip),%rax        # 57ae6a0 <type:string@@Base>
 45d61e1:	48 89 cb             	mov    %rcx,%rbx
 45d61e4:	e8 f7 01 96 fd       	call   1f363e0 <runtime.makeslice@@Base>
 45d61e9:	48 89 44 24 50       	mov    %rax,0x50(%rsp)
 45d61ee:	48 8b 54 24 58       	mov    0x58(%rsp),%rdx
 45d61f3:	48 8b 4a 50          	mov    0x50(%rdx),%rcx
 45d61f7:	48 89 4c 24 30       	mov    %rcx,0x30(%rsp)
 45d61fc:	48 89 cb             	mov    %rcx,%rbx
 45d61ff:	48 8d 05 3a e1 2d 01 	lea    0x12de13a(%rip),%rax        # 58b4340 <type:tpDRQG8O@@Base>
 45d6206:	e8 d5 01 96 fd       	call   1f363e0 <runtime.makeslice@@Base>
 45d620b:	48 89 44 24 48       	mov    %rax,0x48(%rsp)
 45d6210:	48 8d 05 89 60 6d 01 	lea    0x16d6089(%rip),%rax        # 5cac2a0 <type:zFbdAtxm@@Base>
 45d6217:	e8 c4 a2 91 fd       	call   1ef04e0 <runtime.newobject@@Base>
 45d621c:	48 8b 54 24 58       	mov    0x58(%rsp),%rdx
 45d6221:	48 8b 32             	mov    (%rdx),%rsi
 45d6224:	48 8b 7a 08          	mov    0x8(%rdx),%rdi
 45d6228:	48 89 78 08          	mov    %rdi,0x8(%rax)
 45d622c:	83 3d 2d 57 8a 03 00 	cmpl   $0x0,0x38a572d(%rip)        # 7e7b960 <runtime.writeBarrier@@Base>
 45d6233:	75 05                	jne    45d623a <github.com/lasselj/timebeat/beater/clocksync/clients/ptp/client.(*Client).SetPeerInfoJSONData@@Base+0x13a>
 45d6235:	48 89 30             	mov    %rsi,(%rax)
 45d6238:	eb 0b                	jmp    45d6245 <github.com/lasselj/timebeat/beater/clocksync/clients/ptp/client.(*Client).SetPeerInfoJSONData@@Base+0x145>
 45d623a:	48 89 c7             	mov    %rax,%rdi
 45d623d:	0f 1f 00             	nopl   (%rax)
 45d6240:	e8 1b 05 98 fd       	call   1f56760 <runtime.gcWriteBarrierSI@@Base>
 45d6245:	4c 8b 42 10          	mov    0x10(%rdx),%r8
 45d6249:	4c 8b 4a 18          	mov    0x18(%rdx),%r9
 45d624d:	4c 89 48 18          	mov    %r9,0x18(%rax)
 45d6251:	83 3d 08 57 8a 03 00 	cmpl   $0x0,0x38a5708(%rip)        # 7e7b960 <runtime.writeBarrier@@Base>
 45d6258:	75 08                	jne    45d6262 <github.com/lasselj/timebeat/beater/clocksync/clients/ptp/client.(*Client).SetPeerInfoJSONData@@Base+0x162>
 45d625a:	4c 89 40 10          	mov    %r8,0x10(%rax)
 45d625e:	66 90                	xchg   %ax,%ax
 45d6260:	eb 09                	jmp    45d626b <github.com/lasselj/timebeat/beater/clocksync/clients/ptp/client.(*Client).SetPeerInfoJSONData@@Base+0x16b>
 45d6262:	48 8d 78 10          	lea    0x10(%rax),%rdi
 45d6266:	e8 15 05 98 fd       	call   1f56780 <runtime.gcWriteBarrierR8@@Base>
 45d626b:	4c 8b 42 40          	mov    0x40(%rdx),%r8
 45d626f:	4c 8b 4a 38          	mov    0x38(%rdx),%r9
 45d6273:	4c 89 48 38          	mov    %r9,0x38(%rax)
 45d6277:	83 3d e2 56 8a 03 00 	cmpl   $0x0,0x38a56e2(%rip)        # 7e7b960 <runtime.writeBarrier@@Base>
 45d627e:	66 90                	xchg   %ax,%ax
 45d6280:	75 06                	jne    45d6288 <github.com/lasselj/timebeat/beater/clocksync/clients/ptp/client.(*Client).SetPeerInfoJSONData@@Base+0x188>
 45d6282:	4c 89 40 40          	mov    %r8,0x40(%rax)
 45d6286:	eb 09                	jmp    45d6291 <github.com/lasselj/timebeat/beater/clocksync/clients/ptp/client.(*Client).SetPeerInfoJSONData@@Base+0x191>
 45d6288:	48 8d 78 40          	lea    0x40(%rax),%rdi
 45d628c:	e8 ef 04 98 fd       	call   1f56780 <runtime.gcWriteBarrierR8@@Base>
 45d6291:	4c 8b 44 24 38       	mov    0x38(%rsp),%r8
 45d6296:	4c 89 40 28          	mov    %r8,0x28(%rax)
 45d629a:	4c 89 40 30          	mov    %r8,0x30(%rax)
 45d629e:	83 3d bb 56 8a 03 00 	cmpl   $0x0,0x38a56bb(%rip)        # 7e7b960 <runtime.writeBarrier@@Base>
 45d62a5:	75 0b                	jne    45d62b2 <github.com/lasselj/timebeat/beater/clocksync/clients/ptp/client.(*Client).SetPeerInfoJSONData@@Base+0x1b2>
 45d62a7:	4c 8b 44 24 50       	mov    0x50(%rsp),%r8
 45d62ac:	4c 89 40 20          	mov    %r8,0x20(%rax)
 45d62b0:	eb 13                	jmp    45d62c5 <github.com/lasselj/timebeat/beater/clocksync/clients/ptp/client.(*Client).SetPeerInfoJSONData@@Base+0x1c5>
 45d62b2:	48 8d 78 20          	lea    0x20(%rax),%rdi
 45d62b6:	4c 8b 44 24 50       	mov    0x50(%rsp),%r8
 45d62bb:	0f 1f 44 00 00       	nopl   0x0(%rax,%rax,1)
 45d62c0:	e8 bb 04 98 fd       	call   1f56780 <runtime.gcWriteBarrierR8@@Base>
 45d62c5:	4c 8b 44 24 30       	mov    0x30(%rsp),%r8
 45d62ca:	4c 89 40 50          	mov    %r8,0x50(%rax)
 45d62ce:	4c 89 40 58          	mov    %r8,0x58(%rax)
 45d62d2:	83 3d 87 56 8a 03 00 	cmpl   $0x0,0x38a5687(%rip)        # 7e7b960 <runtime.writeBarrier@@Base>
 45d62d9:	75 0b                	jne    45d62e6 <github.com/lasselj/timebeat/beater/clocksync/clients/ptp/client.(*Client).SetPeerInfoJSONData@@Base+0x1e6>
 45d62db:	4c 8b 44 24 48       	mov    0x48(%rsp),%r8
 45d62e0:	4c 89 40 48          	mov    %r8,0x48(%rax)
 45d62e4:	eb 0e                	jmp    45d62f4 <github.com/lasselj/timebeat/beater/clocksync/clients/ptp/client.(*Client).SetPeerInfoJSONData@@Base+0x1f4>
 45d62e6:	48 8d 78 48          	lea    0x48(%rax),%rdi
 45d62ea:	4c 8b 44 24 48       	mov    0x48(%rsp),%r8
 45d62ef:	e8 8c 04 98 fd       	call   1f56780 <runtime.gcWriteBarrierR8@@Base>
 45d62f4:	48 89 44 24 40       	mov    %rax,0x40(%rsp)
 45d62f9:	48 8b 58 20          	mov    0x20(%rax),%rbx
 45d62fd:	48 8b 48 28          	mov    0x28(%rax),%rcx
 45d6301:	48 8b 7a 20          	mov    0x20(%rdx),%rdi
 45d6305:	48 8b 72 28          	mov    0x28(%rdx),%rsi
 45d6309:	48 8d 05 90 83 1d 01 	lea    0x11d8390(%rip),%rax        # 57ae6a0 <type:string@@Base>
 45d6310:	e8 eb 0c 92 fd       	call   1ef7000 <runtime.typedslicecopy@@Base>
 45d6315:	48 8b 54 24 40       	mov    0x40(%rsp),%rdx
 45d631a:	48 8b 5a 48          	mov    0x48(%rdx),%rbx
 45d631e:	48 8b 4a 50          	mov    0x50(%rdx),%rcx
 45d6322:	4c 8b 44 24 58       	mov    0x58(%rsp),%r8
 45d6327:	49 8b 78 48          	mov    0x48(%r8),%rdi
 45d632b:	49 8b 70 50          	mov    0x50(%r8),%rsi
 45d632f:	48 8d 05 0a e0 2d 01 	lea    0x12de00a(%rip),%rax        # 58b4340 <type:tpDRQG8O@@Base>
 45d6336:	e8 c5 0c 92 fd       	call   1ef7000 <runtime.typedslicecopy@@Base>
 45d633b:	31 c0                	xor    %eax,%eax
 45d633d:	48 8b 9c 24 b0 00 00 	mov    0xb0(%rsp),%rbx
 45d6344:	00 
 45d6345:	48 8b 8c 24 b8 00 00 	mov    0xb8(%rsp),%rcx
 45d634c:	00 
 45d634d:	e8 6e 45 96 fd       	call   1f3a8c0 <runtime.stringtoslicebyte@@Base>
 45d6352:	48 8b 74 24 40       	mov    0x40(%rsp),%rsi
 45d6357:	48 8d 56 38          	lea    0x38(%rsi),%rdx
 45d635b:	48 8d 3d 1e 38 12 01 	lea    0x112381e(%rip),%rdi        # 56f9b80 <type:24t2MT1d@@Base>
 45d6362:	48 89 d6             	mov    %rdx,%rsi
 45d6365:	e8 56 f0 c8 fd       	call   22653c0 <encoding/json.Unmarshal@@Base>
 45d636a:	48 85 c0             	test   %rax,%rax
 45d636d:	0f 84 89 00 00 00    	je     45d63fc <github.com/lasselj/timebeat/beater/clocksync/clients/ptp/client.(*Client).SetPeerInfoJSONData@@Base+0x2fc>
 45d6373:	48 8b 48 18          	mov    0x18(%rax),%rcx
 45d6377:	48 89 d8             	mov    %rbx,%rax
 45d637a:	ff d1                	call   *%rcx
 45d637c:	44 0f 11 bc 24 80 00 	movups %xmm15,0x80(%rsp)
 45d6383:	00 00 
 45d6385:	e8 d6 79 91 fd       	call   1eedd60 <runtime.convTstring@@Base>
 45d638a:	48 8d 0d 0f 83 1d 01 	lea    0x11d830f(%rip),%rcx        # 57ae6a0 <type:string@@Base>
 45d6391:	48 89 8c 24 80 00 00 	mov    %rcx,0x80(%rsp)
 45d6398:	00 
 45d6399:	48 89 84 24 88 00 00 	mov    %rax,0x88(%rsp)
 45d63a0:	00 
 45d63a1:	48 8d 05 1a 81 7f 00 	lea    0x7f811a(%rip),%rax        # 4dce4c2 <_IO_stdin_used@@Base+0x19b4c2>
 45d63a8:	bb 15 00 00 00       	mov    $0x15,%ebx
 45d63ad:	48 8d 8c 24 80 00 00 	lea    0x80(%rsp),%rcx
 45d63b4:	00 
 45d63b5:	bf 01 00 00 00       	mov    $0x1,%edi
 45d63ba:	48 89 fe             	mov    %rdi,%rsi
 45d63bd:	0f 1f 00             	nopl   (%rax)
 45d63c0:	e8 3b e5 a1 fd       	call   1ff4900 <fmt.Sprintf@@Base>
 45d63c5:	48 89 44 24 60       	mov    %rax,0x60(%rsp)
 45d63ca:	48 89 5c 24 68       	mov    %rbx,0x68(%rsp)
 45d63cf:	c6 44 24 2f 00       	movb   $0x0,0x2f(%rsp)
 45d63d4:	48 8b 94 24 90 00 00 	mov    0x90(%rsp),%rdx
 45d63db:	00 
 45d63dc:	48 8b 0a             	mov    (%rdx),%rcx
 45d63df:	90                   	nop
 45d63e0:	ff d1                	call   *%rcx
 45d63e2:	48 8b 44 24 60       	mov    0x60(%rsp),%rax
 45d63e7:	48 8b 5c 24 68       	mov    0x68(%rsp),%rbx
 45d63ec:	48 8b ac 24 98 00 00 	mov    0x98(%rsp),%rbp
 45d63f3:	00 
 45d63f4:	48 81 c4 a0 00 00 00 	add    $0xa0,%rsp
 45d63fb:	c3                   	ret
 45d63fc:	90                   	nop
 45d63fd:	48 8b 84 24 a8 00 00 	mov    0xa8(%rsp),%rax
 45d6404:	00 
 45d6405:	48 05 f0 03 00 00    	add    $0x3f0,%rax
 45d640b:	48 8b 5c 24 40       	mov    0x40(%rsp),%rbx
 45d6410:	e8 8b 7d 97 fd       	call   1f4e1a0 <sync/atomic.StorePointer@@Base>
 45d6415:	48 8b 44 24 40       	mov    0x40(%rsp),%rax
 45d641a:	e8 61 d5 e2 ff       	call   4403980 <github.com/lasselj/timebeat/config.(*Identity).SaveIdentity@@Base>
 45d641f:	48 8d 05 aa 54 71 00 	lea    0x7154aa(%rip),%rax        # 4ceb8d0 <_IO_stdin_used@@Base+0xb88d0>
 45d6426:	bb 10 00 00 00       	mov    $0x10,%ebx
 45d642b:	31 c9                	xor    %ecx,%ecx
 45d642d:	31 ff                	xor    %edi,%edi
 45d642f:	48 89 fe             	mov    %rdi,%rsi
 45d6432:	e8 c9 e4 a1 fd       	call   1ff4900 <fmt.Sprintf@@Base>
 45d6437:	48 89 44 24 60       	mov    %rax,0x60(%rsp)
 45d643c:	48 89 5c 24 68       	mov    %rbx,0x68(%rsp)
 45d6441:	c6 44 24 2f 00       	movb   $0x0,0x2f(%rsp)
 45d6446:	48 8b 94 24 90 00 00 	mov    0x90(%rsp),%rdx
 45d644d:	00 
 45d644e:	48 8b 0a             	mov    (%rdx),%rcx
 45d6451:	ff d1                	call   *%rcx
 45d6453:	48 8b 44 24 60       	mov    0x60(%rsp),%rax
 45d6458:	48 8b 5c 24 68       	mov    0x68(%rsp),%rbx
 45d645d:	48 8b ac 24 98 00 00 	mov    0x98(%rsp),%rbp
 45d6464:	00 
 45d6465:	48 81 c4 a0 00 00 00 	add    $0xa0,%rsp
 45d646c:	c3                   	ret
 45d646d:	e8 ee 5a 94 fd       	call   1f1bf60 <runtime.deferreturn@@Base>
 45d6472:	48 8b 44 24 60       	mov    0x60(%rsp),%rax
 45d6477:	48 8b 5c 24 68       	mov    0x68(%rsp),%rbx
 45d647c:	48 8b ac 24 98 00 00 	mov    0x98(%rsp),%rbp
 45d6483:	00 
 45d6484:	48 81 c4 a0 00 00 00 	add    $0xa0,%rsp
 45d648b:	c3                   	ret
 45d648c:	48 89 44 24 08       	mov    %rax,0x8(%rsp)
 45d6491:	48 89 5c 24 10       	mov    %rbx,0x10(%rsp)
 45d6496:	48 89 4c 24 18       	mov    %rcx,0x18(%rsp)
 45d649b:	0f 1f 44 00 00       	nopl   0x0(%rax,%rax,1)
 45d64a0:	e8 bb df 97 fd       	call   1f54460 <runtime.morestack_noctxt.abi0@@Base>
 45d64a5:	48 8b 44 24 08       	mov    0x8(%rsp),%rax
 45d64aa:	48 8b 5c 24 10       	mov    0x10(%rsp),%rbx
 45d64af:	48 8b 4c 24 18       	mov    0x18(%rsp),%rcx
 45d64b4:	e9 47 fc ff ff       	jmp    45d6100 <github.com/lasselj/timebeat/beater/clocksync/clients/ptp/client.(*Client).SetPeerInfoJSONData@@Base>
 45d64b9:	cc                   	int3
 45d64ba:	cc                   	int3
 45d64bb:	cc                   	int3
 45d64bc:	cc                   	int3
 45d64bd:	cc                   	int3
 45d64be:	cc                   	int3
 45d64bf:	cc                   	int3
