# github.com/lasselj/timebeat/beater/clocksync/clients/ptpsquared.(*Controller).verifyWeAreUsingBestPeerServer.func1
# addr 0x4b56320 size 384 (0x180)


/mnt/c/Users/SHIWA/GitHub/TimeCard-Mini/timebeat-extracted/usr/share/timebeat/bin/timebeat:     file format elf64-x86-64


Disassembly of section .text:

0000000004b56320 <github.com/lasselj/timebeat/beater/clocksync/clients/ptpsquared.(*Controller).verifyWeAreUsingBestPeerServer.func1@@Base>:
 4b56320:	4c 8d 64 24 d8       	lea    -0x28(%rsp),%r12
 4b56325:	4d 3b 66 10          	cmp    0x10(%r14),%r12
 4b56329:	0f 86 53 01 00 00    	jbe    4b56482 <github.com/lasselj/timebeat/beater/clocksync/clients/ptpsquared.(*Controller).verifyWeAreUsingBestPeerServer.func1@@Base+0x162>
 4b5632f:	48 81 ec a8 00 00 00 	sub    $0xa8,%rsp
 4b56336:	48 89 ac 24 a0 00 00 	mov    %rbp,0xa0(%rsp)
 4b5633d:	00 
 4b5633e:	48 8d ac 24 a0 00 00 	lea    0xa0(%rsp),%rbp
 4b56345:	00 
 4b56346:	48 8b 42 10          	mov    0x10(%rdx),%rax
 4b5634a:	48 89 44 24 48       	mov    %rax,0x48(%rsp)
 4b5634f:	48 8b 4a 18          	mov    0x18(%rdx),%rcx
 4b56353:	48 89 4c 24 30       	mov    %rcx,0x30(%rsp)
 4b56358:	48 8b 52 08          	mov    0x8(%rdx),%rdx
 4b5635c:	48 89 54 24 40       	mov    %rdx,0x40(%rsp)
 4b56361:	e8 ba 59 47 fd       	call   1fcbd20 <time.Now@@Base>
 4b56366:	48 89 44 24 58       	mov    %rax,0x58(%rsp)
 4b5636b:	48 89 5c 24 60       	mov    %rbx,0x60(%rsp)
 4b56370:	48 89 4c 24 68       	mov    %rcx,0x68(%rsp)
 4b56375:	48 8b 44 24 58       	mov    0x58(%rsp),%rax
 4b5637a:	48 89 44 24 38       	mov    %rax,0x38(%rsp)
 4b5637f:	48 0f ba e0 3f       	bt     $0x3f,%rax
 4b56384:	73 15                	jae    4b5639b <github.com/lasselj/timebeat/beater/clocksync/clients/ptpsquared.(*Controller).verifyWeAreUsingBestPeerServer.func1@@Base+0x7b>
 4b56386:	48 d1 e0             	shl    $1,%rax
 4b56389:	48 c1 e8 1f          	shr    $0x1f,%rax
 4b5638d:	48 ba 80 7f b1 d7 0d 	movabs $0xdd7b17f80,%rdx
 4b56394:	00 00 00 
 4b56397:	48 8d 1c 10          	lea    (%rax,%rdx,1),%rbx
 4b5639b:	48 89 5c 24 28       	mov    %rbx,0x28(%rsp)
 4b563a0:	90                   	nop
 4b563a1:	48 8d 05 b8 78 06 01 	lea    0x10678b8(%rip),%rax        # 5bbdc60 <type:X5RPehdr@@Base>
 4b563a8:	e8 33 a1 39 fd       	call   1ef04e0 <runtime.newobject@@Base>
 4b563ad:	48 89 44 24 50       	mov    %rax,0x50(%rsp)
 4b563b2:	48 8b 4c 24 28       	mov    0x28(%rsp),%rcx
 4b563b7:	48 69 c9 00 ca 9a 3b 	imul   $0x3b9aca00,%rcx,%rcx
 4b563be:	48 8b 54 24 38       	mov    0x38(%rsp),%rdx
 4b563c3:	81 e2 ff ff ff 3f    	and    $0x3fffffff,%edx
 4b563c9:	48 63 d2             	movslq %edx,%rdx
 4b563cc:	48 01 d1             	add    %rdx,%rcx
 4b563cf:	48 ba 00 00 1a 3d eb 	movabs $0xa1b203eb3d1a0000,%rdx
 4b563d6:	03 b2 a1 
 4b563d9:	48 8d 1c 0a          	lea    (%rdx,%rcx,1),%rbx
 4b563dd:	0f 1f 00             	nopl   (%rax)
 4b563e0:	e8 bb cb 55 fd       	call   20b2fa0 <math/rand.(*rngSource).Seed@@Base>
 4b563e5:	90                   	nop
 4b563e6:	48 8d 05 13 90 f4 00 	lea    0xf49013(%rip),%rax        # 5a9f400 <type:GjcrFJiM@@Base>
 4b563ed:	48 8d 1d dc e7 3c 01 	lea    0x13ce7dc(%rip),%rbx        # 5f24bd0 <go:itab.*math/rand.rngSource,math/rand.Source@@Base>
 4b563f4:	48 8b 4c 24 50       	mov    0x50(%rsp),%rcx
 4b563f9:	e8 02 7c 39 fd       	call   1eee000 <runtime.assertI2I2@@Base>
 4b563fe:	44 0f 11 7c 24 70    	movups %xmm15,0x70(%rsp)
 4b56404:	44 0f 11 bc 24 80 00 	movups %xmm15,0x80(%rsp)
 4b5640b:	00 00 
 4b5640d:	44 0f 11 bc 24 90 00 	movups %xmm15,0x90(%rsp)
 4b56414:	00 00 
 4b56416:	48 8d 0d b3 e7 3c 01 	lea    0x13ce7b3(%rip),%rcx        # 5f24bd0 <go:itab.*math/rand.rngSource,math/rand.Source@@Base>
 4b5641d:	48 89 4c 24 70       	mov    %rcx,0x70(%rsp)
 4b56422:	48 8b 4c 24 50       	mov    0x50(%rsp),%rcx
 4b56427:	48 89 4c 24 78       	mov    %rcx,0x78(%rsp)
 4b5642c:	48 89 84 24 80 00 00 	mov    %rax,0x80(%rsp)
 4b56433:	00 
 4b56434:	48 89 9c 24 88 00 00 	mov    %rbx,0x88(%rsp)
 4b5643b:	00 
 4b5643c:	48 8d 44 24 70       	lea    0x70(%rsp),%rax
 4b56441:	48 bb 00 b0 8e f0 1b 	movabs $0x1bf08eb000,%rbx
 4b56448:	00 00 00 
 4b5644b:	e8 f0 ba 55 fd       	call   20b1f40 <math/rand.(*Rand).Int63n@@Base>
 4b56450:	e8 8b cd 3f fd       	call   1f531e0 <time.Sleep@@Base>
 4b56455:	48 8b 44 24 40       	mov    0x40(%rsp),%rax
 4b5645a:	48 8b 5c 24 48       	mov    0x48(%rsp),%rbx
 4b5645f:	48 8b 4c 24 30       	mov    0x30(%rsp),%rcx
 4b56464:	e8 37 00 00 00       	call   4b564a0 <github.com/lasselj/timebeat/beater/clocksync/clients/ptpsquared.(*Controller).findPeerServerAndSendRequest@@Base>
 4b56469:	48 8b 4c 24 40       	mov    0x40(%rsp),%rcx
 4b5646e:	c6 41 50 00          	movb   $0x0,0x50(%rcx)
 4b56472:	48 8b ac 24 a0 00 00 	mov    0xa0(%rsp),%rbp
 4b56479:	00 
 4b5647a:	48 81 c4 a8 00 00 00 	add    $0xa8,%rsp
 4b56481:	c3                   	ret
 4b56482:	e8 39 df 3f fd       	call   1f543c0 <runtime.morestack.abi0@@Base>
 4b56487:	e9 94 fe ff ff       	jmp    4b56320 <github.com/lasselj/timebeat/beater/clocksync/clients/ptpsquared.(*Controller).verifyWeAreUsingBestPeerServer.func1@@Base>
 4b5648c:	cc                   	int3
 4b5648d:	cc                   	int3
 4b5648e:	cc                   	int3
 4b5648f:	cc                   	int3
 4b56490:	cc                   	int3
 4b56491:	cc                   	int3
 4b56492:	cc                   	int3
 4b56493:	cc                   	int3
 4b56494:	cc                   	int3
 4b56495:	cc                   	int3
 4b56496:	cc                   	int3
 4b56497:	cc                   	int3
 4b56498:	cc                   	int3
 4b56499:	cc                   	int3
 4b5649a:	cc                   	int3
 4b5649b:	cc                   	int3
 4b5649c:	cc                   	int3
 4b5649d:	cc                   	int3
 4b5649e:	cc                   	int3
 4b5649f:	cc                   	int3
