# github.com/lasselj/timebeat/beater/clocksync/clients/vendors/timebeat/open_timecard_mini_v2_pt/client.NewClient
# addr 0x4b989c0 size 896 (0x380)


/mnt/c/Users/SHIWA/GitHub/TimeCard-Mini/timebeat-extracted/usr/share/timebeat/bin/timebeat:     file format elf64-x86-64


Disassembly of section .text:

0000000004b989c0 <github.com/lasselj/timebeat/beater/clocksync/clients/vendors/timebeat/open_timecard_mini_v2_pt/client.NewClient@@Base>:
 4b989c0:	4c 8d a4 24 88 fa ff 	lea    -0x578(%rsp),%r12
 4b989c7:	ff 
 4b989c8:	4d 3b 66 10          	cmp    0x10(%r14),%r12
 4b989cc:	0f 86 3f 03 00 00    	jbe    4b98d11 <github.com/lasselj/timebeat/beater/clocksync/clients/vendors/timebeat/open_timecard_mini_v2_pt/client.NewClient@@Base+0x351>
 4b989d2:	48 81 ec f8 05 00 00 	sub    $0x5f8,%rsp
 4b989d9:	48 89 ac 24 f0 05 00 	mov    %rbp,0x5f0(%rsp)
 4b989e0:	00 
 4b989e1:	48 8d ac 24 f0 05 00 	lea    0x5f0(%rsp),%rbp
 4b989e8:	00 
 4b989e9:	48 89 84 24 50 08 00 	mov    %rax,0x850(%rsp)
 4b989f0:	00 
 4b989f1:	48 8d bc 24 a0 03 00 	lea    0x3a0(%rsp),%rdi
 4b989f8:	00 
 4b989f9:	48 8d b4 24 00 06 00 	lea    0x600(%rsp),%rsi
 4b98a00:	00 
 4b98a01:	48 89 6c 24 f0       	mov    %rbp,-0x10(%rsp)
 4b98a06:	48 8d 6c 24 f0       	lea    -0x10(%rsp),%rbp
 4b98a0b:	e8 6a e5 3b fd       	call   1f56f7a <runtime.duffcopy@@Base+0x17a>
 4b98a10:	48 8b 6d 00          	mov    0x0(%rbp),%rbp
 4b98a14:	48 8d bc 24 90 00 00 	lea    0x90(%rsp),%rdi
 4b98a1b:	00 
 4b98a1c:	48 8d 35 5d fe 3a 01 	lea    0x13afe5d(%rip),%rsi        # 5f48880 <golang.org/x/exp/slices..dict.pdqsortOrdered[github.com/libp2p/go-libp2p/core/protocol.ID]@@Base+0x8a0>
 4b98a23:	48 89 6c 24 f0       	mov    %rbp,-0x10(%rsp)
 4b98a28:	48 8d 6c 24 f0       	lea    -0x10(%rsp),%rbp
 4b98a2d:	e8 fa e6 3b fd       	call   1f5712c <runtime.duffcopy@@Base+0x32c>
 4b98a32:	48 8b 6d 00          	mov    0x0(%rbp),%rbp
 4b98a36:	48 8b 8c 24 e0 04 00 	mov    0x4e0(%rsp),%rcx
 4b98a3d:	00 
 4b98a3e:	48 8b 94 24 e8 04 00 	mov    0x4e8(%rsp),%rdx
 4b98a45:	00 
 4b98a46:	48 8b 9c 24 f0 04 00 	mov    0x4f0(%rsp),%rbx
 4b98a4d:	00 
 4b98a4e:	48 89 8c 24 b8 00 00 	mov    %rcx,0xb8(%rsp)
 4b98a55:	00 
 4b98a56:	48 89 94 24 c0 00 00 	mov    %rdx,0xc0(%rsp)
 4b98a5d:	00 
 4b98a5e:	48 89 9c 24 c8 00 00 	mov    %rbx,0xc8(%rsp)
 4b98a65:	00 
 4b98a66:	48 89 84 24 d0 00 00 	mov    %rax,0xd0(%rsp)
 4b98a6d:	00 
 4b98a6e:	48 8d bc 24 f0 00 00 	lea    0xf0(%rsp),%rdi
 4b98a75:	00 
 4b98a76:	48 8d b4 24 90 00 00 	lea    0x90(%rsp),%rsi
 4b98a7d:	00 
 4b98a7e:	66 90                	xchg   %ax,%ax
 4b98a80:	48 89 6c 24 f0       	mov    %rbp,-0x10(%rsp)
 4b98a85:	48 8d 6c 24 f0       	lea    -0x10(%rsp),%rbp
 4b98a8a:	e8 9d e6 3b fd       	call   1f5712c <runtime.duffcopy@@Base+0x32c>
 4b98a8f:	48 8b 6d 00          	mov    0x0(%rbp),%rbp
 4b98a93:	48 8d bc 24 50 01 00 	lea    0x150(%rsp),%rdi
 4b98a9a:	00 
 4b98a9b:	48 8d b4 24 00 06 00 	lea    0x600(%rsp),%rsi
 4b98aa2:	00 
 4b98aa3:	48 89 6c 24 f0       	mov    %rbp,-0x10(%rsp)
 4b98aa8:	48 8d 6c 24 f0       	lea    -0x10(%rsp),%rbp
 4b98aad:	e8 c8 e4 3b fd       	call   1f56f7a <runtime.duffcopy@@Base+0x17a>
 4b98ab2:	48 8b 6d 00          	mov    0x0(%rbp),%rbp
 4b98ab6:	48 8d 05 63 b1 00 01 	lea    0x100b163(%rip),%rax        # 5ba3c20 <type:N3oH328K@@Base>
 4b98abd:	0f 1f 00             	nopl   (%rax)
 4b98ac0:	e8 1b 7a 35 fd       	call   1ef04e0 <runtime.newobject@@Base>
 4b98ac5:	48 89 44 24 70       	mov    %rax,0x70(%rsp)
 4b98aca:	48 8d 05 0f af 00 01 	lea    0x100af0f(%rip),%rax        # 5ba39e0 <type:MvsSFke+@@Base>
 4b98ad1:	e8 0a 7a 35 fd       	call   1ef04e0 <runtime.newobject@@Base>
 4b98ad6:	48 c7 00 01 00 00 00 	movq   $0x1,(%rax)
 4b98add:	48 c7 40 10 0b 00 00 	movq   $0xb,0x10(%rax)
 4b98ae4:	00 
 4b98ae5:	48 8d 0d 2e 1b 0d 00 	lea    0xd1b2e(%rip),%rcx        # 4c6a61a <_IO_stdin_used@@Base+0x3761a>
 4b98aec:	48 89 48 08          	mov    %rcx,0x8(%rax)
 4b98af0:	c6 40 18 58          	movb   $0x58,0x18(%rax)
 4b98af4:	83 3d 65 2e 2e 03 00 	cmpl   $0x0,0x32e2e65(%rip)        # 7e7b960 <runtime.writeBarrier@@Base>
 4b98afb:	75 16                	jne    4b98b13 <github.com/lasselj/timebeat/beater/clocksync/clients/vendors/timebeat/open_timecard_mini_v2_pt/client.NewClient@@Base+0x153>
 4b98afd:	48 8b 7c 24 70       	mov    0x70(%rsp),%rdi
 4b98b02:	48 89 07             	mov    %rax,(%rdi)
 4b98b05:	48 8b 84 24 50 08 00 	mov    0x850(%rsp),%rax
 4b98b0c:	00 
 4b98b0d:	48 89 47 20          	mov    %rax,0x20(%rdi)
 4b98b11:	eb 27                	jmp    4b98b3a <github.com/lasselj/timebeat/beater/clocksync/clients/vendors/timebeat/open_timecard_mini_v2_pt/client.NewClient@@Base+0x17a>
 4b98b13:	48 8b 7c 24 70       	mov    0x70(%rsp),%rdi
 4b98b18:	e8 e3 da 3b fd       	call   1f56600 <runtime.gcWriteBarrier@@Base>
 4b98b1d:	48 8d 47 20          	lea    0x20(%rdi),%rax
 4b98b21:	48 89 f9             	mov    %rdi,%rcx
 4b98b24:	48 89 c7             	mov    %rax,%rdi
 4b98b27:	48 8b 94 24 50 08 00 	mov    0x850(%rsp),%rdx
 4b98b2e:	00 
 4b98b2f:	e8 ec db 3b fd       	call   1f56720 <runtime.gcWriteBarrierDX@@Base>
 4b98b34:	48 89 d0             	mov    %rdx,%rax
 4b98b37:	48 89 cf             	mov    %rcx,%rdi
 4b98b3a:	48 8b 8c 24 90 02 00 	mov    0x290(%rsp),%rcx
 4b98b41:	00 
 4b98b42:	48 8b 94 24 98 02 00 	mov    0x298(%rsp),%rdx
 4b98b49:	00 
 4b98b4a:	48 8b 9c 24 a0 02 00 	mov    0x2a0(%rsp),%rbx
 4b98b51:	00 
 4b98b52:	48 89 57 10          	mov    %rdx,0x10(%rdi)
 4b98b56:	48 89 5f 18          	mov    %rbx,0x18(%rdi)
 4b98b5a:	83 3d ff 2d 2e 03 00 	cmpl   $0x0,0x32e2dff(%rip)        # 7e7b960 <runtime.writeBarrier@@Base>
 4b98b61:	75 06                	jne    4b98b69 <github.com/lasselj/timebeat/beater/clocksync/clients/vendors/timebeat/open_timecard_mini_v2_pt/client.NewClient@@Base+0x1a9>
 4b98b63:	48 89 4f 08          	mov    %rcx,0x8(%rdi)
 4b98b67:	eb 0c                	jmp    4b98b75 <github.com/lasselj/timebeat/beater/clocksync/clients/vendors/timebeat/open_timecard_mini_v2_pt/client.NewClient@@Base+0x1b5>
 4b98b69:	48 8d 57 08          	lea    0x8(%rdi),%rdx
 4b98b6d:	48 89 d7             	mov    %rdx,%rdi
 4b98b70:	e8 8b db 3b fd       	call   1f56700 <runtime.gcWriteBarrierCX@@Base>
 4b98b75:	48 89 e7             	mov    %rsp,%rdi
 4b98b78:	48 8d b4 24 f0 00 00 	lea    0xf0(%rsp),%rsi
 4b98b7f:	00 
 4b98b80:	48 89 6c 24 f0       	mov    %rbp,-0x10(%rsp)
 4b98b85:	48 8d 6c 24 f0       	lea    -0x10(%rsp),%rbp
 4b98b8a:	e8 9d e5 3b fd       	call   1f5712c <runtime.duffcopy@@Base+0x32c>
 4b98b8f:	48 8b 6d 00          	mov    0x0(%rbp),%rbp
 4b98b93:	e8 88 6f a1 ff       	call   45afb20 <github.com/lasselj/timebeat/beater/clocksync/clients/vendors/generic_gnss_device.NewDevice@@Base>
 4b98b98:	48 89 84 24 88 00 00 	mov    %rax,0x88(%rsp)
 4b98b9f:	00 
 4b98ba0:	48 8b 44 24 70       	mov    0x70(%rsp),%rax
 4b98ba5:	e8 d6 d8 ff ff       	call   4b96480 <github.com/lasselj/timebeat/beater/clocksync/clients/vendors/timebeat/clock_gen/clock_gen_8A34002E.NewClockGen8A34012@@Base>
 4b98baa:	48 89 84 24 80 00 00 	mov    %rax,0x80(%rsp)
 4b98bb1:	00 
 4b98bb2:	bb 1a 00 00 00       	mov    $0x1a,%ebx
 4b98bb7:	31 c9                	xor    %ecx,%ecx
 4b98bb9:	31 ff                	xor    %edi,%edi
 4b98bbb:	48 89 fe             	mov    %rdi,%rsi
 4b98bbe:	48 8d 05 af 6e 24 00 	lea    0x246eaf(%rip),%rax        # 4ddfa74 <_IO_stdin_used@@Base+0x1aca74>
 4b98bc5:	e8 36 bd 45 fd       	call   1ff4900 <fmt.Sprintf@@Base>
 4b98bca:	48 89 44 24 78       	mov    %rax,0x78(%rsp)
 4b98bcf:	48 89 5c 24 60       	mov    %rbx,0x60(%rsp)
 4b98bd4:	48 8d 05 c5 cc 14 01 	lea    0x114ccc5(%rip),%rax        # 5ce58a0 <type:CRJAsxQp@@Base>
 4b98bdb:	0f 1f 44 00 00       	nopl   0x0(%rax,%rax,1)
 4b98be0:	e8 fb 78 35 fd       	call   1ef04e0 <runtime.newobject@@Base>
 4b98be5:	48 89 44 24 68       	mov    %rax,0x68(%rsp)
 4b98bea:	48 8d 78 18          	lea    0x18(%rax),%rdi
 4b98bee:	83 3d 6b 2d 2e 03 00 	cmpl   $0x0,0x32e2d6b(%rip)        # 7e7b960 <runtime.writeBarrier@@Base>
 4b98bf5:	75 40                	jne    4b98c37 <github.com/lasselj/timebeat/beater/clocksync/clients/vendors/timebeat/open_timecard_mini_v2_pt/client.NewClient@@Base+0x277>
 4b98bf7:	48 8b 8c 24 88 00 00 	mov    0x88(%rsp),%rcx
 4b98bfe:	00 
 4b98bff:	48 89 08             	mov    %rcx,(%rax)
 4b98c02:	48 8b 8c 24 80 00 00 	mov    0x80(%rsp),%rcx
 4b98c09:	00 
 4b98c0a:	48 89 48 08          	mov    %rcx,0x8(%rax)
 4b98c0e:	48 8b 8c 24 50 08 00 	mov    0x850(%rsp),%rcx
 4b98c15:	00 
 4b98c16:	48 89 48 10          	mov    %rcx,0x10(%rax)
 4b98c1a:	48 8d b4 24 00 06 00 	lea    0x600(%rsp),%rsi
 4b98c21:	00 
 4b98c22:	48 89 6c 24 f0       	mov    %rbp,-0x10(%rsp)
 4b98c27:	48 8d 6c 24 f0       	lea    -0x10(%rsp),%rbp
 4b98c2c:	e8 49 e3 3b fd       	call   1f56f7a <runtime.duffcopy@@Base+0x17a>
 4b98c31:	48 8b 6d 00          	mov    0x0(%rbp),%rbp
 4b98c35:	eb 54                	jmp    4b98c8b <github.com/lasselj/timebeat/beater/clocksync/clients/vendors/timebeat/open_timecard_mini_v2_pt/client.NewClient@@Base+0x2cb>
 4b98c37:	48 89 f9             	mov    %rdi,%rcx
 4b98c3a:	48 89 c7             	mov    %rax,%rdi
 4b98c3d:	48 8b 94 24 88 00 00 	mov    0x88(%rsp),%rdx
 4b98c44:	00 
 4b98c45:	e8 d6 da 3b fd       	call   1f56720 <runtime.gcWriteBarrierDX@@Base>
 4b98c4a:	48 8d 50 08          	lea    0x8(%rax),%rdx
 4b98c4e:	48 89 d7             	mov    %rdx,%rdi
 4b98c51:	48 8b b4 24 80 00 00 	mov    0x80(%rsp),%rsi
 4b98c58:	00 
 4b98c59:	e8 02 db 3b fd       	call   1f56760 <runtime.gcWriteBarrierSI@@Base>
 4b98c5e:	48 8d 78 10          	lea    0x10(%rax),%rdi
 4b98c62:	48 8b 94 24 50 08 00 	mov    0x850(%rsp),%rdx
 4b98c69:	00 
 4b98c6a:	e8 b1 da 3b fd       	call   1f56720 <runtime.gcWriteBarrierDX@@Base>
 4b98c6f:	48 89 cb             	mov    %rcx,%rbx
 4b98c72:	48 8d 8c 24 00 06 00 	lea    0x600(%rsp),%rcx
 4b98c79:	00 
 4b98c7a:	48 8d 05 9f c5 0a 01 	lea    0x10ac59f(%rip),%rax        # 5c45220 <type:K0rE3Tf5@@Base>
 4b98c81:	e8 ba e1 35 fd       	call   1ef6e40 <runtime.typedmemmove@@Base>
 4b98c86:	48 8b 44 24 68       	mov    0x68(%rsp),%rax
 4b98c8b:	48 8b 5c 24 60       	mov    0x60(%rsp),%rbx
 4b98c90:	48 89 98 78 02 00 00 	mov    %rbx,0x278(%rax)
 4b98c97:	83 3d c2 2c 2e 03 00 	cmpl   $0x0,0x32e2cc2(%rip)        # 7e7b960 <runtime.writeBarrier@@Base>
 4b98c9e:	66 90                	xchg   %ax,%ax
 4b98ca0:	75 0e                	jne    4b98cb0 <github.com/lasselj/timebeat/beater/clocksync/clients/vendors/timebeat/open_timecard_mini_v2_pt/client.NewClient@@Base+0x2f0>
 4b98ca2:	48 8b 4c 24 78       	mov    0x78(%rsp),%rcx
 4b98ca7:	48 89 88 70 02 00 00 	mov    %rcx,0x270(%rax)
 4b98cae:	eb 15                	jmp    4b98cc5 <github.com/lasselj/timebeat/beater/clocksync/clients/vendors/timebeat/open_timecard_mini_v2_pt/client.NewClient@@Base+0x305>
 4b98cb0:	48 8d b8 70 02 00 00 	lea    0x270(%rax),%rdi
 4b98cb7:	48 8b 4c 24 78       	mov    0x78(%rsp),%rcx
 4b98cbc:	0f 1f 40 00          	nopl   0x0(%rax)
 4b98cc0:	e8 3b da 3b fd       	call   1f56700 <runtime.gcWriteBarrierCX@@Base>
 4b98cc5:	48 89 c8             	mov    %rcx,%rax
 4b98cc8:	e8 d3 e0 86 ff       	call   4406da0 <github.com/lasselj/timebeat/beater/logging.NewLogger@@Base>
 4b98ccd:	83 3d 8c 2c 2e 03 00 	cmpl   $0x0,0x32e2c8c(%rip)        # 7e7b960 <runtime.writeBarrier@@Base>
 4b98cd4:	75 0e                	jne    4b98ce4 <github.com/lasselj/timebeat/beater/clocksync/clients/vendors/timebeat/open_timecard_mini_v2_pt/client.NewClient@@Base+0x324>
 4b98cd6:	48 8b 4c 24 68       	mov    0x68(%rsp),%rcx
 4b98cdb:	48 89 81 68 02 00 00 	mov    %rax,0x268(%rcx)
 4b98ce2:	eb 1a                	jmp    4b98cfe <github.com/lasselj/timebeat/beater/clocksync/clients/vendors/timebeat/open_timecard_mini_v2_pt/client.NewClient@@Base+0x33e>
 4b98ce4:	48 8b 7c 24 68       	mov    0x68(%rsp),%rdi
 4b98ce9:	48 8d 8f 68 02 00 00 	lea    0x268(%rdi),%rcx
 4b98cf0:	48 89 fa             	mov    %rdi,%rdx
 4b98cf3:	48 89 cf             	mov    %rcx,%rdi
 4b98cf6:	e8 05 d9 3b fd       	call   1f56600 <runtime.gcWriteBarrier@@Base>
 4b98cfb:	48 89 d1             	mov    %rdx,%rcx
 4b98cfe:	48 89 c8             	mov    %rcx,%rax
 4b98d01:	48 8b ac 24 f0 05 00 	mov    0x5f0(%rsp),%rbp
 4b98d08:	00 
 4b98d09:	48 81 c4 f8 05 00 00 	add    $0x5f8,%rsp
 4b98d10:	c3                   	ret
 4b98d11:	48 89 84 24 58 02 00 	mov    %rax,0x258(%rsp)
 4b98d18:	00 
 4b98d19:	e8 42 b7 3b fd       	call   1f54460 <runtime.morestack_noctxt.abi0@@Base>
 4b98d1e:	48 8b 84 24 58 02 00 	mov    0x258(%rsp),%rax
 4b98d25:	00 
 4b98d26:	e9 95 fc ff ff       	jmp    4b989c0 <github.com/lasselj/timebeat/beater/clocksync/clients/vendors/timebeat/open_timecard_mini_v2_pt/client.NewClient@@Base>
 4b98d2b:	cc                   	int3
 4b98d2c:	cc                   	int3
 4b98d2d:	cc                   	int3
 4b98d2e:	cc                   	int3
 4b98d2f:	cc                   	int3
 4b98d30:	cc                   	int3
 4b98d31:	cc                   	int3
 4b98d32:	cc                   	int3
 4b98d33:	cc                   	int3
 4b98d34:	cc                   	int3
 4b98d35:	cc                   	int3
 4b98d36:	cc                   	int3
 4b98d37:	cc                   	int3
 4b98d38:	cc                   	int3
 4b98d39:	cc                   	int3
 4b98d3a:	cc                   	int3
 4b98d3b:	cc                   	int3
 4b98d3c:	cc                   	int3
 4b98d3d:	cc                   	int3
 4b98d3e:	cc                   	int3
 4b98d3f:	cc                   	int3
