# github.com/lasselj/timebeat/beater/clocksync/clients/ptp.GetPTPClients.func1
# addr 0x45e4440 size 1376 (0x560)


/mnt/c/Users/SHIWA/GitHub/TimeCard-Mini/timebeat-extracted/usr/share/timebeat/bin/timebeat:     file format elf64-x86-64


Disassembly of section .text:

00000000045e4440 <github.com/lasselj/timebeat/beater/clocksync/clients/ptp.GetPTPClients.func1@@Base>:
 45e4440:	4c 8d a4 24 28 ff ff 	lea    -0xd8(%rsp),%r12
 45e4447:	ff 
 45e4448:	4d 3b 66 10          	cmp    0x10(%r14),%r12
 45e444c:	0f 86 15 05 00 00    	jbe    45e4967 <github.com/lasselj/timebeat/beater/clocksync/clients/ptp.GetPTPClients.func1@@Base+0x527>
 45e4452:	48 81 ec 58 01 00 00 	sub    $0x158,%rsp
 45e4459:	48 89 ac 24 50 01 00 	mov    %rbp,0x150(%rsp)
 45e4460:	00 
 45e4461:	48 8d ac 24 50 01 00 	lea    0x150(%rsp),%rbp
 45e4468:	00 
 45e4469:	48 89 84 24 60 01 00 	mov    %rax,0x160(%rsp)
 45e4470:	00 
 45e4471:	48 89 9c 24 68 01 00 	mov    %rbx,0x168(%rsp)
 45e4478:	00 
 45e4479:	48 89 8c 24 70 01 00 	mov    %rcx,0x170(%rsp)
 45e4480:	00 
 45e4481:	48 89 bc 24 78 01 00 	mov    %rdi,0x178(%rsp)
 45e4488:	00 
 45e4489:	48 8b 52 08          	mov    0x8(%rdx),%rdx
 45e448d:	48 85 c0             	test   %rax,%rax
 45e4490:	74 2a                	je     45e44bc <github.com/lasselj/timebeat/beater/clocksync/clients/ptp.GetPTPClients.func1@@Base+0x7c>
 45e4492:	81 78 10 74 6c 25 76 	cmpl   $0x76256c74,0x10(%rax)
 45e4499:	75 21                	jne    45e44bc <github.com/lasselj/timebeat/beater/clocksync/clients/ptp.GetPTPClients.func1@@Base+0x7c>
 45e449b:	48 8d 35 9e d8 52 01 	lea    0x152d89e(%rip),%rsi        # 5b11d40 <type:CFqlkVxY@@Base>
 45e44a2:	48 39 f0             	cmp    %rsi,%rax
 45e44a5:	75 15                	jne    45e44bc <github.com/lasselj/timebeat/beater/clocksync/clients/ptp.GetPTPClients.func1@@Base+0x7c>
 45e44a7:	b8 01 00 00 00       	mov    $0x1,%eax
 45e44ac:	48 8b ac 24 50 01 00 	mov    0x150(%rsp),%rbp
 45e44b3:	00 
 45e44b4:	48 81 c4 58 01 00 00 	add    $0x158,%rsp
 45e44bb:	c3                   	ret
 45e44bc:	48 8d 1d 3d f7 8d 01 	lea    0x18df73d(%rip),%rbx        # 5ec3c00 <type:97XPxJCH@@Base>
 45e44c3:	48 39 d9             	cmp    %rbx,%rcx
 45e44c6:	0f 85 8b 04 00 00    	jne    45e4957 <github.com/lasselj/timebeat/beater/clocksync/clients/ptp.GetPTPClients.func1@@Base+0x517>
 45e44cc:	48 89 94 24 a8 00 00 	mov    %rdx,0xa8(%rsp)
 45e44d3:	00 
 45e44d4:	48 89 bc 24 78 01 00 	mov    %rdi,0x178(%rsp)
 45e44db:	00 
 45e44dc:	90                   	nop
 45e44dd:	48 8b 8f 90 03 00 00 	mov    0x390(%rdi),%rcx
 45e44e4:	48 89 4c 24 40       	mov    %rcx,0x40(%rsp)
 45e44e9:	48 8b 97 88 03 00 00 	mov    0x388(%rdi),%rdx
 45e44f0:	48 89 94 24 88 00 00 	mov    %rdx,0x88(%rsp)
 45e44f7:	00 
 45e44f8:	48 8d 87 f0 03 00 00 	lea    0x3f0(%rdi),%rax
 45e44ff:	48 8d 1d 7a b6 96 01 	lea    0x196b67a(%rip),%rbx        # 5f4fb80 <sync/atomic..dict.Pointer[github.com/lasselj/timebeat/config.Identity]@@Base>
 45e4506:	e8 75 e4 ff ff       	call   45e2980 <sync/atomic.(*Pointer[go.shape.struct { ID string "json:\"id\""; Data string "json:\"data\""; Associations []string "json:\"associations\""; DataJSON interface {} "json:\"json_data\""; AssociationsJSON []interface {} "json:\"json_associations\"" }]).Load@@Base>
 45e450b:	48 8b 08             	mov    (%rax),%rcx
 45e450e:	48 89 8c 24 80 00 00 	mov    %rcx,0x80(%rsp)
 45e4515:	00 
 45e4516:	48 8b 50 08          	mov    0x8(%rax),%rdx
 45e451a:	48 89 54 24 38       	mov    %rdx,0x38(%rsp)
 45e451f:	48 8b 84 24 78 01 00 	mov    0x178(%rsp),%rax
 45e4526:	00 
 45e4527:	0f b6 b0 8a 02 00 00 	movzbl 0x28a(%rax),%esi
 45e452e:	48 89 74 24 68       	mov    %rsi,0x68(%rsp)
 45e4533:	e8 e8 d3 ff ff       	call   45e1920 <github.com/lasselj/timebeat/beater/clocksync/clients/ptp/client.(*Client).GetErrorOfSource@@Base>
 45e4538:	f2 0f 5a c0          	cvtsd2ss %xmm0,%xmm0
 45e453c:	0f 1f 40 00          	nopl   0x0(%rax)
 45e4540:	e8 db 85 00 00       	call   45ecb20 <github.com/lasselj/timebeat/beater/clocksync/clients/ptp.FormatErrorOfSource@@Base>
 45e4545:	48 89 84 24 a0 00 00 	mov    %rax,0xa0(%rsp)
 45e454c:	00 
 45e454d:	48 89 5c 24 60       	mov    %rbx,0x60(%rsp)
 45e4552:	48 8b 8c 24 78 01 00 	mov    0x178(%rsp),%rcx
 45e4559:	00 
 45e455a:	48 8b 91 b0 02 00 00 	mov    0x2b0(%rcx),%rdx
 45e4561:	0f b6 72 29          	movzbl 0x29(%rdx),%esi
 45e4565:	48 89 74 24 58       	mov    %rsi,0x58(%rsp)
 45e456a:	0f b6 52 2b          	movzbl 0x2b(%rdx),%edx
 45e456e:	48 89 54 24 50       	mov    %rdx,0x50(%rsp)
 45e4573:	44 0f 11 bc 24 b0 00 	movups %xmm15,0xb0(%rsp)
 45e457a:	00 00 
 45e457c:	44 0f 11 bc 24 c0 00 	movups %xmm15,0xc0(%rsp)
 45e4583:	00 00 
 45e4585:	48 8d b9 96 02 00 00 	lea    0x296(%rcx),%rdi
 45e458c:	48 8d 05 6d 7c 4a 01 	lea    0x14a7c6d(%rip),%rax        # 5a8c200 <type:u0rwxhci@@Base>
 45e4593:	48 89 fb             	mov    %rdi,%rbx
 45e4596:	e8 c5 95 90 fd       	call   1eedb60 <runtime.convTnoptr@@Base>
 45e459b:	48 8d 0d 5e 7c 4a 01 	lea    0x14a7c5e(%rip),%rcx        # 5a8c200 <type:u0rwxhci@@Base>
 45e45a2:	48 89 8c 24 b0 00 00 	mov    %rcx,0xb0(%rsp)
 45e45a9:	00 
 45e45aa:	48 89 84 24 b8 00 00 	mov    %rax,0xb8(%rsp)
 45e45b1:	00 
 45e45b2:	48 8b 94 24 78 01 00 	mov    0x178(%rsp),%rdx
 45e45b9:	00 
 45e45ba:	0f b7 82 9e 02 00 00 	movzwl 0x29e(%rdx),%eax
 45e45c1:	e8 1a 96 90 fd       	call   1eedbe0 <runtime.convT16@@Base>
 45e45c6:	48 8d 0d d3 a2 1c 01 	lea    0x11ca2d3(%rip),%rcx        # 57ae8a0 <type:uint16@@Base>
 45e45cd:	48 89 8c 24 c0 00 00 	mov    %rcx,0xc0(%rsp)
 45e45d4:	00 
 45e45d5:	48 89 84 24 c8 00 00 	mov    %rax,0xc8(%rsp)
 45e45dc:	00 
 45e45dd:	48 8d 05 7a 23 65 00 	lea    0x65237a(%rip),%rax        # 4c3695e <_IO_stdin_used@@Base+0x395e>
 45e45e4:	bb 05 00 00 00       	mov    $0x5,%ebx
 45e45e9:	bf 02 00 00 00       	mov    $0x2,%edi
 45e45ee:	48 89 fe             	mov    %rdi,%rsi
 45e45f1:	48 8d 8c 24 b0 00 00 	lea    0xb0(%rsp),%rcx
 45e45f8:	00 
 45e45f9:	e8 02 03 a1 fd       	call   1ff4900 <fmt.Sprintf@@Base>
 45e45fe:	48 89 44 24 78       	mov    %rax,0x78(%rsp)
 45e4603:	48 89 5c 24 30       	mov    %rbx,0x30(%rsp)
 45e4608:	44 0f 11 bc 24 b0 00 	movups %xmm15,0xb0(%rsp)
 45e460f:	00 00 
 45e4611:	44 0f 11 bc 24 c0 00 	movups %xmm15,0xc0(%rsp)
 45e4618:	00 00 
 45e461a:	48 8b 8c 24 78 01 00 	mov    0x178(%rsp),%rcx
 45e4621:	00 
 45e4622:	48 8d 91 8c 02 00 00 	lea    0x28c(%rcx),%rdx
 45e4629:	48 8d 05 d0 7b 4a 01 	lea    0x14a7bd0(%rip),%rax        # 5a8c200 <type:u0rwxhci@@Base>
 45e4630:	48 89 d3             	mov    %rdx,%rbx
 45e4633:	e8 28 95 90 fd       	call   1eedb60 <runtime.convTnoptr@@Base>
 45e4638:	48 8d 0d c1 7b 4a 01 	lea    0x14a7bc1(%rip),%rcx        # 5a8c200 <type:u0rwxhci@@Base>
 45e463f:	48 89 8c 24 b0 00 00 	mov    %rcx,0xb0(%rsp)
 45e4646:	00 
 45e4647:	48 89 84 24 b8 00 00 	mov    %rax,0xb8(%rsp)
 45e464e:	00 
 45e464f:	48 8b 8c 24 78 01 00 	mov    0x178(%rsp),%rcx
 45e4656:	00 
 45e4657:	0f b7 81 94 02 00 00 	movzwl 0x294(%rcx),%eax
 45e465e:	66 90                	xchg   %ax,%ax
 45e4660:	e8 7b 95 90 fd       	call   1eedbe0 <runtime.convT16@@Base>
 45e4665:	48 8d 0d 34 a2 1c 01 	lea    0x11ca234(%rip),%rcx        # 57ae8a0 <type:uint16@@Base>
 45e466c:	48 89 8c 24 c0 00 00 	mov    %rcx,0xc0(%rsp)
 45e4673:	00 
 45e4674:	48 89 84 24 c8 00 00 	mov    %rax,0xc8(%rsp)
 45e467b:	00 
 45e467c:	48 8d 05 db 22 65 00 	lea    0x6522db(%rip),%rax        # 4c3695e <_IO_stdin_used@@Base+0x395e>
 45e4683:	bb 05 00 00 00       	mov    $0x5,%ebx
 45e4688:	48 8d 8c 24 b0 00 00 	lea    0xb0(%rsp),%rcx
 45e468f:	00 
 45e4690:	bf 02 00 00 00       	mov    $0x2,%edi
 45e4695:	48 89 fe             	mov    %rdi,%rsi
 45e4698:	e8 63 02 a1 fd       	call   1ff4900 <fmt.Sprintf@@Base>
 45e469d:	48 89 44 24 70       	mov    %rax,0x70(%rsp)
 45e46a2:	48 89 5c 24 28       	mov    %rbx,0x28(%rsp)
 45e46a7:	48 8d bc 24 d0 00 00 	lea    0xd0(%rsp),%rdi
 45e46ae:	00 
 45e46af:	66 0f 1f 84 00 00 00 	nopw   0x0(%rax,%rax,1)
 45e46b6:	00 00 
 45e46b8:	0f 1f 84 00 00 00 00 	nopl   0x0(%rax,%rax,1)
 45e46bf:	00 
 45e46c0:	48 89 6c 24 f0       	mov    %rbp,-0x10(%rsp)
 45e46c5:	48 8d 6c 24 f0       	lea    -0x10(%rsp),%rbp
 45e46ca:	e8 f3 26 97 fd       	call   1f56dc2 <runtime.duffzero@@Base+0x142>
 45e46cf:	48 8b 6d 00          	mov    0x0(%rbp),%rbp
 45e46d3:	48 8b 84 24 80 00 00 	mov    0x80(%rsp),%rax
 45e46da:	00 
 45e46db:	48 8b 5c 24 38       	mov    0x38(%rsp),%rbx
 45e46e0:	e8 7b 96 90 fd       	call   1eedd60 <runtime.convTstring@@Base>
 45e46e5:	48 8b 5c 24 40       	mov    0x40(%rsp),%rbx
 45e46ea:	48 85 db             	test   %rbx,%rbx
 45e46ed:	b9 01 00 00 00       	mov    $0x1,%ecx
 45e46f2:	48 0f 44 d9          	cmove  %rcx,%rbx
 45e46f6:	48 8b 8c 24 88 00 00 	mov    0x88(%rsp),%rcx
 45e46fd:	00 
 45e46fe:	48 8d 15 53 1e ef 00 	lea    0xef1e53(%rip),%rdx        # 54d6558 <_IO_stdin_used@@Base+0x8a3558>
 45e4705:	48 0f 44 ca          	cmove  %rdx,%rcx
 45e4709:	48 8d 15 90 9f 1c 01 	lea    0x11c9f90(%rip),%rdx        # 57ae6a0 <type:string@@Base>
 45e4710:	48 89 94 24 d0 00 00 	mov    %rdx,0xd0(%rsp)
 45e4717:	00 
 45e4718:	48 89 84 24 d8 00 00 	mov    %rax,0xd8(%rsp)
 45e471f:	00 
 45e4720:	48 89 c8             	mov    %rcx,%rax
 45e4723:	e8 38 96 90 fd       	call   1eedd60 <runtime.convTstring@@Base>
 45e4728:	48 8d 0d 71 9f 1c 01 	lea    0x11c9f71(%rip),%rcx        # 57ae6a0 <type:string@@Base>
 45e472f:	48 89 8c 24 e0 00 00 	mov    %rcx,0xe0(%rsp)
 45e4736:	00 
 45e4737:	48 89 84 24 e8 00 00 	mov    %rax,0xe8(%rsp)
 45e473e:	00 
 45e473f:	48 8d 15 1a a2 1c 01 	lea    0x11ca21a(%rip),%rdx        # 57ae960 <type:uint8@@Base>
 45e4746:	48 89 94 24 f0 00 00 	mov    %rdx,0xf0(%rsp)
 45e474d:	00 
 45e474e:	48 8b 74 24 68       	mov    0x68(%rsp),%rsi
 45e4753:	48 8d 3d c6 79 68 03 	lea    0x36879c6(%rip),%rdi        # 7c6c120 <runtime.staticuint64s@@Base>
 45e475a:	48 8d 34 f7          	lea    (%rdi,%rsi,8),%rsi
 45e475e:	48 89 b4 24 f8 00 00 	mov    %rsi,0xf8(%rsp)
 45e4765:	00 
 45e4766:	48 8b 84 24 a0 00 00 	mov    0xa0(%rsp),%rax
 45e476d:	00 
 45e476e:	48 8b 5c 24 60       	mov    0x60(%rsp),%rbx
 45e4773:	e8 e8 95 90 fd       	call   1eedd60 <runtime.convTstring@@Base>
 45e4778:	48 8d 0d 21 9f 1c 01 	lea    0x11c9f21(%rip),%rcx        # 57ae6a0 <type:string@@Base>
 45e477f:	48 89 8c 24 00 01 00 	mov    %rcx,0x100(%rsp)
 45e4786:	00 
 45e4787:	48 89 84 24 08 01 00 	mov    %rax,0x108(%rsp)
 45e478e:	00 
 45e478f:	48 8d 15 ca 5f 1c 01 	lea    0x11c5fca(%rip),%rdx        # 57aa760 <type:int8@@Base>
 45e4796:	48 89 94 24 10 01 00 	mov    %rdx,0x110(%rsp)
 45e479d:	00 
 45e479e:	48 8b 74 24 58       	mov    0x58(%rsp),%rsi
 45e47a3:	48 8d 3d 76 79 68 03 	lea    0x3687976(%rip),%rdi        # 7c6c120 <runtime.staticuint64s@@Base>
 45e47aa:	48 8d 34 f7          	lea    (%rdi,%rsi,8),%rsi
 45e47ae:	48 89 b4 24 18 01 00 	mov    %rsi,0x118(%rsp)
 45e47b5:	00 
 45e47b6:	48 89 94 24 20 01 00 	mov    %rdx,0x120(%rsp)
 45e47bd:	00 
 45e47be:	48 8b 54 24 50       	mov    0x50(%rsp),%rdx
 45e47c3:	48 8d 14 d7          	lea    (%rdi,%rdx,8),%rdx
 45e47c7:	48 89 94 24 28 01 00 	mov    %rdx,0x128(%rsp)
 45e47ce:	00 
 45e47cf:	48 8b 44 24 78       	mov    0x78(%rsp),%rax
 45e47d4:	48 8b 5c 24 30       	mov    0x30(%rsp),%rbx
 45e47d9:	e8 82 95 90 fd       	call   1eedd60 <runtime.convTstring@@Base>
 45e47de:	48 8d 0d bb 9e 1c 01 	lea    0x11c9ebb(%rip),%rcx        # 57ae6a0 <type:string@@Base>
 45e47e5:	48 89 8c 24 30 01 00 	mov    %rcx,0x130(%rsp)
 45e47ec:	00 
 45e47ed:	48 89 84 24 38 01 00 	mov    %rax,0x138(%rsp)
 45e47f4:	00 
 45e47f5:	48 8b 44 24 70       	mov    0x70(%rsp),%rax
 45e47fa:	48 8b 5c 24 28       	mov    0x28(%rsp),%rbx
 45e47ff:	90                   	nop
 45e4800:	e8 5b 95 90 fd       	call   1eedd60 <runtime.convTstring@@Base>
 45e4805:	48 8d 0d 94 9e 1c 01 	lea    0x11c9e94(%rip),%rcx        # 57ae6a0 <type:string@@Base>
 45e480c:	48 89 8c 24 40 01 00 	mov    %rcx,0x140(%rsp)
 45e4813:	00 
 45e4814:	48 89 84 24 48 01 00 	mov    %rax,0x148(%rsp)
 45e481b:	00 
 45e481c:	48 8d 05 b9 e1 7f 00 	lea    0x7fe1b9(%rip),%rax        # 4de29dc <_IO_stdin_used@@Base+0x1af9dc>
 45e4823:	bb 1b 00 00 00       	mov    $0x1b,%ebx
 45e4828:	bf 08 00 00 00       	mov    $0x8,%edi
 45e482d:	48 89 fe             	mov    %rdi,%rsi
 45e4830:	48 8d 8c 24 d0 00 00 	lea    0xd0(%rsp),%rcx
 45e4837:	00 
 45e4838:	e8 c3 00 a1 fd       	call   1ff4900 <fmt.Sprintf@@Base>
 45e483d:	90                   	nop
 45e483e:	48 8b bc 24 a8 00 00 	mov    0xa8(%rsp),%rdi
 45e4845:	00 
 45e4846:	48 8b 0f             	mov    (%rdi),%rcx
 45e4849:	48 85 c9             	test   %rcx,%rcx
 45e484c:	74 0a                	je     45e4858 <github.com/lasselj/timebeat/beater/clocksync/clients/ptp.GetPTPClients.func1@@Base+0x418>
 45e484e:	48 39 f9             	cmp    %rdi,%rcx
 45e4851:	74 1c                	je     45e486f <github.com/lasselj/timebeat/beater/clocksync/clients/ptp.GetPTPClients.func1@@Base+0x42f>
 45e4853:	e9 ec 00 00 00       	jmp    45e4944 <github.com/lasselj/timebeat/beater/clocksync/clients/ptp.GetPTPClients.func1@@Base+0x504>
 45e4858:	83 3d 01 71 89 03 00 	cmpl   $0x0,0x3897101(%rip)        # 7e7b960 <runtime.writeBarrier@@Base>
 45e485f:	90                   	nop
 45e4860:	75 05                	jne    45e4867 <github.com/lasselj/timebeat/beater/clocksync/clients/ptp.GetPTPClients.func1@@Base+0x427>
 45e4862:	48 89 3f             	mov    %rdi,(%rdi)
 45e4865:	eb 08                	jmp    45e486f <github.com/lasselj/timebeat/beater/clocksync/clients/ptp.GetPTPClients.func1@@Base+0x42f>
 45e4867:	48 89 fa             	mov    %rdi,%rdx
 45e486a:	e8 b1 1e 97 fd       	call   1f56720 <runtime.gcWriteBarrierDX@@Base>
 45e486f:	48 8b 57 10          	mov    0x10(%rdi),%rdx
 45e4873:	4c 8d 04 1a          	lea    (%rdx,%rbx,1),%r8
 45e4877:	48 8b 4f 18          	mov    0x18(%rdi),%rcx
 45e487b:	4c 8b 4f 08          	mov    0x8(%rdi),%r9
 45e487f:	90                   	nop
 45e4880:	4c 39 c1             	cmp    %r8,%rcx
 45e4883:	73 3f                	jae    45e48c4 <github.com/lasselj/timebeat/beater/clocksync/clients/ptp.GetPTPClients.func1@@Base+0x484>
 45e4885:	48 89 54 24 68       	mov    %rdx,0x68(%rsp)
 45e488a:	48 89 5c 24 48       	mov    %rbx,0x48(%rsp)
 45e488f:	48 89 84 24 90 00 00 	mov    %rax,0x90(%rsp)
 45e4896:	00 
 45e4897:	4c 89 c8             	mov    %r9,%rax
 45e489a:	48 89 df             	mov    %rbx,%rdi
 45e489d:	48 8d 35 bc a0 1c 01 	lea    0x11ca0bc(%rip),%rsi        # 57ae960 <type:uint8@@Base>
 45e48a4:	4c 89 c3             	mov    %r8,%rbx
 45e48a7:	e8 14 1c 95 fd       	call   1f364c0 <runtime.growslice@@Base>
 45e48ac:	48 8b 54 24 68       	mov    0x68(%rsp),%rdx
 45e48b1:	49 89 c1             	mov    %rax,%r9
 45e48b4:	49 89 d8             	mov    %rbx,%r8
 45e48b7:	48 8b 84 24 90 00 00 	mov    0x90(%rsp),%rax
 45e48be:	00 
 45e48bf:	48 8b 5c 24 48       	mov    0x48(%rsp),%rbx
 45e48c4:	48 89 4c 24 68       	mov    %rcx,0x68(%rsp)
 45e48c9:	4c 89 44 24 60       	mov    %r8,0x60(%rsp)
 45e48ce:	4c 89 8c 24 98 00 00 	mov    %r9,0x98(%rsp)
 45e48d5:	00 
 45e48d6:	4c 01 ca             	add    %r9,%rdx
 45e48d9:	48 89 c6             	mov    %rax,%rsi
 45e48dc:	48 89 d0             	mov    %rdx,%rax
 45e48df:	48 89 df             	mov    %rbx,%rdi
 45e48e2:	48 89 f3             	mov    %rsi,%rbx
 45e48e5:	48 89 f9             	mov    %rdi,%rcx
 45e48e8:	e8 b3 2b 97 fd       	call   1f574a0 <runtime.memmove@@Base>
 45e48ed:	48 8b 54 24 60       	mov    0x60(%rsp),%rdx
 45e48f2:	48 8b bc 24 a8 00 00 	mov    0xa8(%rsp),%rdi
 45e48f9:	00 
 45e48fa:	48 89 57 10          	mov    %rdx,0x10(%rdi)
 45e48fe:	48 8b 54 24 68       	mov    0x68(%rsp),%rdx
 45e4903:	48 89 57 18          	mov    %rdx,0x18(%rdi)
 45e4907:	83 3d 52 70 89 03 00 	cmpl   $0x0,0x3897052(%rip)        # 7e7b960 <runtime.writeBarrier@@Base>
 45e490e:	75 0e                	jne    45e491e <github.com/lasselj/timebeat/beater/clocksync/clients/ptp.GetPTPClients.func1@@Base+0x4de>
 45e4910:	48 8b 8c 24 98 00 00 	mov    0x98(%rsp),%rcx
 45e4917:	00 
 45e4918:	48 89 4f 08          	mov    %rcx,0x8(%rdi)
 45e491c:	eb 11                	jmp    45e492f <github.com/lasselj/timebeat/beater/clocksync/clients/ptp.GetPTPClients.func1@@Base+0x4ef>
 45e491e:	48 83 c7 08          	add    $0x8,%rdi
 45e4922:	48 8b 8c 24 98 00 00 	mov    0x98(%rsp),%rcx
 45e4929:	00 
 45e492a:	e8 d1 1d 97 fd       	call   1f56700 <runtime.gcWriteBarrierCX@@Base>
 45e492f:	b8 01 00 00 00       	mov    $0x1,%eax
 45e4934:	48 8b ac 24 50 01 00 	mov    0x150(%rsp),%rbp
 45e493b:	00 
 45e493c:	48 81 c4 58 01 00 00 	add    $0x158,%rsp
 45e4943:	c3                   	ret
 45e4944:	48 8d 05 55 9d 1c 01 	lea    0x11c9d55(%rip),%rax        # 57ae6a0 <type:string@@Base>
 45e494b:	48 8d 1d ae 85 91 01 	lea    0x19185ae(%rip),%rbx        # 5efcf00 <golang.org/x/exp/slices..dict.siftDownOrdered[github.com/libp2p/go-libp2p/core/protocol.ID]@@Base+0x28f0>
 45e4952:	e8 e9 83 93 fd       	call   1f1cd40 <runtime.gopanic@@Base>
 45e4957:	48 89 c8             	mov    %rcx,%rax
 45e495a:	48 8d 0d df f9 2c 01 	lea    0x12cf9df(%rip),%rcx        # 58b4340 <type:tpDRQG8O@@Base>
 45e4961:	e8 3a 8f 90 fd       	call   1eed8a0 <runtime.panicdottypeE@@Base>
 45e4966:	90                   	nop
 45e4967:	48 89 44 24 08       	mov    %rax,0x8(%rsp)
 45e496c:	48 89 5c 24 10       	mov    %rbx,0x10(%rsp)
 45e4971:	48 89 4c 24 18       	mov    %rcx,0x18(%rsp)
 45e4976:	48 89 7c 24 20       	mov    %rdi,0x20(%rsp)
 45e497b:	0f 1f 44 00 00       	nopl   0x0(%rax,%rax,1)
 45e4980:	e8 3b fa 96 fd       	call   1f543c0 <runtime.morestack.abi0@@Base>
 45e4985:	48 8b 44 24 08       	mov    0x8(%rsp),%rax
 45e498a:	48 8b 5c 24 10       	mov    0x10(%rsp),%rbx
 45e498f:	48 8b 4c 24 18       	mov    0x18(%rsp),%rcx
 45e4994:	48 8b 7c 24 20       	mov    0x20(%rsp),%rdi
 45e4999:	e9 a2 fa ff ff       	jmp    45e4440 <github.com/lasselj/timebeat/beater/clocksync/clients/ptp.GetPTPClients.func1@@Base>
 45e499e:	cc                   	int3
 45e499f:	cc                   	int3
