# github.com/lasselj/timebeat/beater/clocksync/clients/vendors/generic_gnss_device.(*GenericGNSSDevice).setNmeaTcpServerConfigOption
# addr 0x45ae820 size 672 (0x2a0)


/mnt/c/Users/SHIWA/GitHub/TimeCard-Mini/timebeat-extracted/usr/share/timebeat/bin/timebeat:     file format elf64-x86-64


Disassembly of section .text:

00000000045ae820 <github.com/lasselj/timebeat/beater/clocksync/clients/vendors/generic_gnss_device.(*GenericGNSSDevice).setNmeaTcpServerConfigOption@@Base>:
 45ae820:	49 3b 66 10          	cmp    0x10(%r14),%rsp
 45ae824:	0f 86 45 02 00 00    	jbe    45aea6f <github.com/lasselj/timebeat/beater/clocksync/clients/vendors/generic_gnss_device.(*GenericGNSSDevice).setNmeaTcpServerConfigOption@@Base+0x24f>
 45ae82a:	48 83 ec 58          	sub    $0x58,%rsp
 45ae82e:	48 89 6c 24 50       	mov    %rbp,0x50(%rsp)
 45ae833:	48 8d 6c 24 50       	lea    0x50(%rsp),%rbp
 45ae838:	48 89 5c 24 68       	mov    %rbx,0x68(%rsp)
 45ae83d:	48 89 44 24 60       	mov    %rax,0x60(%rsp)
 45ae842:	48 83 f9 03          	cmp    $0x3,%rcx
 45ae846:	0f 8c e5 01 00 00    	jl     45aea31 <github.com/lasselj/timebeat/beater/clocksync/clients/vendors/generic_gnss_device.(*GenericGNSSDevice).setNmeaTcpServerConfigOption@@Base+0x211>
 45ae84c:	48 8d 57 fe          	lea    -0x2(%rdi),%rdx
 45ae850:	48 8d 43 20          	lea    0x20(%rbx),%rax
 45ae854:	48 8d 59 fe          	lea    -0x2(%rcx),%rbx
 45ae858:	48 89 d1             	mov    %rdx,%rcx
 45ae85b:	48 8d 3d 56 88 f2 00 	lea    0xf28856(%rip),%rdi        # 54d70b8 <_IO_stdin_used@@Base+0x8a40b8>
 45ae862:	be 01 00 00 00       	mov    $0x1,%esi
 45ae867:	e8 b4 8d a5 fd       	call   2007620 <strings.Join@@Base>
 45ae86c:	48 89 c1             	mov    %rax,%rcx
 45ae86f:	48 89 df             	mov    %rbx,%rdi
 45ae872:	48 8d 05 c2 56 68 00 	lea    0x6856c2(%rip),%rax        # 4c33f3b <_IO_stdin_used@@Base+0xf3b>
 45ae879:	bb 03 00 00 00       	mov    $0x3,%ebx
 45ae87e:	66 90                	xchg   %ax,%ax
 45ae880:	e8 bb bb aa fd       	call   205a440 <net.ResolveTCPAddr@@Base>
 45ae885:	48 85 db             	test   %rbx,%rbx
 45ae888:	74 58                	je     45ae8e2 <github.com/lasselj/timebeat/beater/clocksync/clients/vendors/generic_gnss_device.(*GenericGNSSDevice).setNmeaTcpServerConfigOption@@Base+0xc2>
 45ae88a:	44 0f 11 7c 24 40    	movups %xmm15,0x40(%rsp)
 45ae890:	74 04                	je     45ae896 <github.com/lasselj/timebeat/beater/clocksync/clients/vendors/generic_gnss_device.(*GenericGNSSDevice).setNmeaTcpServerConfigOption@@Base+0x76>
 45ae892:	48 8b 5b 08          	mov    0x8(%rbx),%rbx
 45ae896:	48 89 5c 24 40       	mov    %rbx,0x40(%rsp)
 45ae89b:	48 89 4c 24 48       	mov    %rcx,0x48(%rsp)
 45ae8a0:	48 8d 05 f6 4a 88 00 	lea    0x884af6(%rip),%rax        # 4e3339d <_IO_stdin_used@@Base+0x20039d>
 45ae8a7:	bb 2f 00 00 00       	mov    $0x2f,%ebx
 45ae8ac:	48 8d 4c 24 40       	lea    0x40(%rsp),%rcx
 45ae8b1:	bf 01 00 00 00       	mov    $0x1,%edi
 45ae8b6:	48 89 fe             	mov    %rdi,%rsi
 45ae8b9:	e8 42 60 a4 fd       	call   1ff4900 <fmt.Sprintf@@Base>
 45ae8be:	48 8b 54 24 60       	mov    0x60(%rsp),%rdx
 45ae8c3:	48 8b 92 00 01 00 00 	mov    0x100(%rdx),%rdx
 45ae8ca:	48 89 d9             	mov    %rbx,%rcx
 45ae8cd:	48 89 c3             	mov    %rax,%rbx
 45ae8d0:	48 89 d0             	mov    %rdx,%rax
 45ae8d3:	e8 88 87 e5 ff       	call   4407060 <github.com/lasselj/timebeat/beater/logging.(*Logger).Error@@Base>
 45ae8d8:	48 8b 6c 24 50       	mov    0x50(%rsp),%rbp
 45ae8dd:	48 83 c4 58          	add    $0x58,%rsp
 45ae8e1:	c3                   	ret
 45ae8e2:	48 89 44 24 28       	mov    %rax,0x28(%rsp)
 45ae8e7:	48 8d 05 b2 2d 1b 01 	lea    0x11b2db2(%rip),%rax        # 57616a0 <type:D0SlTacC@@Base>
 45ae8ee:	bb 0a 00 00 00       	mov    $0xa,%ebx
 45ae8f3:	e8 e8 8f 93 fd       	call   1ee78e0 <runtime.makechan@@Base>
 45ae8f8:	48 89 44 24 38       	mov    %rax,0x38(%rsp)
 45ae8fd:	48 8b 4c 24 60       	mov    0x60(%rsp),%rcx
 45ae902:	48 8b 91 00 01 00 00 	mov    0x100(%rcx),%rdx
 45ae909:	48 8b 1a             	mov    (%rdx),%rbx
 45ae90c:	48 8b 52 08          	mov    0x8(%rdx),%rdx
 45ae910:	48 8d 3d de 8b 6b 00 	lea    0x6b8bde(%rip),%rdi        # 4c674f5 <_IO_stdin_used@@Base+0x344f5>
 45ae917:	be 0a 00 00 00       	mov    $0xa,%esi
 45ae91c:	31 c0                	xor    %eax,%eax
 45ae91e:	48 89 d1             	mov    %rdx,%rcx
 45ae921:	e8 fa b9 98 fd       	call   1f3a320 <runtime.concatstring2@@Base>
 45ae926:	e8 75 84 e5 ff       	call   4406da0 <github.com/lasselj/timebeat/beater/logging.NewLogger@@Base>
 45ae92b:	48 89 44 24 30       	mov    %rax,0x30(%rsp)
 45ae930:	48 8d 05 69 5e 69 01 	lea    0x1695e69(%rip),%rax        # 5c447a0 <type:gkWu/gZ/@@Base>
 45ae937:	e8 a4 1b 94 fd       	call   1ef04e0 <runtime.newobject@@Base>
 45ae93c:	83 3d 1d d0 8c 03 00 	cmpl   $0x0,0x38cd01d(%rip)        # 7e7b960 <runtime.writeBarrier@@Base>
 45ae943:	75 0a                	jne    45ae94f <github.com/lasselj/timebeat/beater/clocksync/clients/vendors/generic_gnss_device.(*GenericGNSSDevice).setNmeaTcpServerConfigOption@@Base+0x12f>
 45ae945:	48 8b 4c 24 28       	mov    0x28(%rsp),%rcx
 45ae94a:	48 89 08             	mov    %rcx,(%rax)
 45ae94d:	eb 0d                	jmp    45ae95c <github.com/lasselj/timebeat/beater/clocksync/clients/vendors/generic_gnss_device.(*GenericGNSSDevice).setNmeaTcpServerConfigOption@@Base+0x13c>
 45ae94f:	48 89 c7             	mov    %rax,%rdi
 45ae952:	48 8b 4c 24 28       	mov    0x28(%rsp),%rcx
 45ae957:	e8 a4 7d 9a fd       	call   1f56700 <runtime.gcWriteBarrierCX@@Base>
 45ae95c:	48 8b 54 24 60       	mov    0x60(%rsp),%rdx
 45ae961:	48 8b 9a 08 01 00 00 	mov    0x108(%rdx),%rbx
 45ae968:	83 3d f1 cf 8c 03 00 	cmpl   $0x0,0x38ccff1(%rip)        # 7e7b960 <runtime.writeBarrier@@Base>
 45ae96f:	75 1f                	jne    45ae990 <github.com/lasselj/timebeat/beater/clocksync/clients/vendors/generic_gnss_device.(*GenericGNSSDevice).setNmeaTcpServerConfigOption@@Base+0x170>
 45ae971:	48 89 58 08          	mov    %rbx,0x8(%rax)
 45ae975:	48 8b 5c 24 38       	mov    0x38(%rsp),%rbx
 45ae97a:	48 89 58 10          	mov    %rbx,0x10(%rax)
 45ae97e:	48 8b 5c 24 30       	mov    0x30(%rsp),%rbx
 45ae983:	48 89 58 18          	mov    %rbx,0x18(%rax)
 45ae987:	48 89 82 20 01 00 00 	mov    %rax,0x120(%rdx)
 45ae98e:	eb 35                	jmp    45ae9c5 <github.com/lasselj/timebeat/beater/clocksync/clients/vendors/generic_gnss_device.(*GenericGNSSDevice).setNmeaTcpServerConfigOption@@Base+0x1a5>
 45ae990:	48 8d 78 08          	lea    0x8(%rax),%rdi
 45ae994:	e8 a7 7d 9a fd       	call   1f56740 <runtime.gcWriteBarrierBX@@Base>
 45ae999:	48 8d 78 10          	lea    0x10(%rax),%rdi
 45ae99d:	48 8b 5c 24 38       	mov    0x38(%rsp),%rbx
 45ae9a2:	e8 99 7d 9a fd       	call   1f56740 <runtime.gcWriteBarrierBX@@Base>
 45ae9a7:	48 8d 78 18          	lea    0x18(%rax),%rdi
 45ae9ab:	48 8b 5c 24 30       	mov    0x30(%rsp),%rbx
 45ae9b0:	e8 8b 7d 9a fd       	call   1f56740 <runtime.gcWriteBarrierBX@@Base>
 45ae9b5:	48 8d ba 20 01 00 00 	lea    0x120(%rdx),%rdi
 45ae9bc:	0f 1f 40 00          	nopl   0x0(%rax)
 45ae9c0:	e8 3b 7c 9a fd       	call   1f56600 <runtime.gcWriteBarrier@@Base>
 45ae9c5:	48 89 c8             	mov    %rcx,%rax
 45ae9c8:	e8 73 b7 aa fd       	call   205a140 <net.(*TCPAddr).String@@Base>
 45ae9cd:	44 0f 11 7c 24 40    	movups %xmm15,0x40(%rsp)
 45ae9d3:	e8 88 f3 93 fd       	call   1eedd60 <runtime.convTstring@@Base>
 45ae9d8:	48 8d 0d c1 fc 1f 01 	lea    0x11ffcc1(%rip),%rcx        # 57ae6a0 <type:string@@Base>
 45ae9df:	48 89 4c 24 40       	mov    %rcx,0x40(%rsp)
 45ae9e4:	48 89 44 24 48       	mov    %rax,0x48(%rsp)
 45ae9e9:	48 8d 05 d9 95 84 00 	lea    0x8495d9(%rip),%rax        # 4df7fc9 <_IO_stdin_used@@Base+0x1c4fc9>
 45ae9f0:	bb 20 00 00 00       	mov    $0x20,%ebx
 45ae9f5:	48 8d 4c 24 40       	lea    0x40(%rsp),%rcx
 45ae9fa:	bf 01 00 00 00       	mov    $0x1,%edi
 45ae9ff:	48 89 fe             	mov    %rdi,%rsi
 45aea02:	e8 f9 5e a4 fd       	call   1ff4900 <fmt.Sprintf@@Base>
 45aea07:	48 8b 4c 24 60       	mov    0x60(%rsp),%rcx
 45aea0c:	48 8b 89 00 01 00 00 	mov    0x100(%rcx),%rcx
 45aea13:	48 89 c2             	mov    %rax,%rdx
 45aea16:	48 89 c8             	mov    %rcx,%rax
 45aea19:	48 89 de             	mov    %rbx,%rsi
 45aea1c:	48 89 d3             	mov    %rdx,%rbx
 45aea1f:	48 89 f1             	mov    %rsi,%rcx
 45aea22:	e8 b9 88 e5 ff       	call   44072e0 <github.com/lasselj/timebeat/beater/logging.(*Logger).Info@@Base>
 45aea27:	48 8b 6c 24 50       	mov    0x50(%rsp),%rbp
 45aea2c:	48 83 c4 58          	add    $0x58,%rsp
 45aea30:	c3                   	ret
 45aea31:	48 8d 05 4b e3 86 00 	lea    0x86e34b(%rip),%rax        # 4e1cd83 <_IO_stdin_used@@Base+0x1e9d83>
 45aea38:	bb 29 00 00 00       	mov    $0x29,%ebx
 45aea3d:	31 c9                	xor    %ecx,%ecx
 45aea3f:	31 ff                	xor    %edi,%edi
 45aea41:	48 89 fe             	mov    %rdi,%rsi
 45aea44:	e8 b7 5e a4 fd       	call   1ff4900 <fmt.Sprintf@@Base>
 45aea49:	48 8b 54 24 60       	mov    0x60(%rsp),%rdx
 45aea4e:	48 8b 92 00 01 00 00 	mov    0x100(%rdx),%rdx
 45aea55:	48 89 d9             	mov    %rbx,%rcx
 45aea58:	48 89 c3             	mov    %rax,%rbx
 45aea5b:	48 89 d0             	mov    %rdx,%rax
 45aea5e:	66 90                	xchg   %ax,%ax
 45aea60:	e8 fb 85 e5 ff       	call   4407060 <github.com/lasselj/timebeat/beater/logging.(*Logger).Error@@Base>
 45aea65:	48 8b 6c 24 50       	mov    0x50(%rsp),%rbp
 45aea6a:	48 83 c4 58          	add    $0x58,%rsp
 45aea6e:	c3                   	ret
 45aea6f:	48 89 44 24 08       	mov    %rax,0x8(%rsp)
 45aea74:	48 89 5c 24 10       	mov    %rbx,0x10(%rsp)
 45aea79:	48 89 4c 24 18       	mov    %rcx,0x18(%rsp)
 45aea7e:	48 89 7c 24 20       	mov    %rdi,0x20(%rsp)
 45aea83:	e8 d8 59 9a fd       	call   1f54460 <runtime.morestack_noctxt.abi0@@Base>
 45aea88:	48 8b 44 24 08       	mov    0x8(%rsp),%rax
 45aea8d:	48 8b 5c 24 10       	mov    0x10(%rsp),%rbx
 45aea92:	48 8b 4c 24 18       	mov    0x18(%rsp),%rcx
 45aea97:	48 8b 7c 24 20       	mov    0x20(%rsp),%rdi
 45aea9c:	0f 1f 40 00          	nopl   0x0(%rax)
 45aeaa0:	e9 7b fd ff ff       	jmp    45ae820 <github.com/lasselj/timebeat/beater/clocksync/clients/vendors/generic_gnss_device.(*GenericGNSSDevice).setNmeaTcpServerConfigOption@@Base>
 45aeaa5:	cc                   	int3
 45aeaa6:	cc                   	int3
 45aeaa7:	cc                   	int3
 45aeaa8:	cc                   	int3
 45aeaa9:	cc                   	int3
 45aeaaa:	cc                   	int3
 45aeaab:	cc                   	int3
 45aeaac:	cc                   	int3
 45aeaad:	cc                   	int3
 45aeaae:	cc                   	int3
 45aeaaf:	cc                   	int3
 45aeab0:	cc                   	int3
 45aeab1:	cc                   	int3
 45aeab2:	cc                   	int3
 45aeab3:	cc                   	int3
 45aeab4:	cc                   	int3
 45aeab5:	cc                   	int3
 45aeab6:	cc                   	int3
 45aeab7:	cc                   	int3
 45aeab8:	cc                   	int3
 45aeab9:	cc                   	int3
 45aeaba:	cc                   	int3
 45aeabb:	cc                   	int3
 45aeabc:	cc                   	int3
 45aeabd:	cc                   	int3
 45aeabe:	cc                   	int3
 45aeabf:	cc                   	int3
