# github.com/lasselj/timebeat/beater/clocksync/clients/ptpsquared.NewPTPSetupProtocol
# addr 0x4b66980 size 544 (0x220)


/mnt/c/Users/SHIWA/GitHub/TimeCard-Mini/timebeat-extracted/usr/share/timebeat/bin/timebeat:     file format elf64-x86-64


Disassembly of section .text:

0000000004b66980 <github.com/lasselj/timebeat/beater/clocksync/clients/ptpsquared.NewPTPSetupProtocol@@Base>:
 4b66980:	49 3b 66 10          	cmp    0x10(%r14),%rsp
 4b66984:	0f 86 f0 01 00 00    	jbe    4b66b7a <github.com/lasselj/timebeat/beater/clocksync/clients/ptpsquared.NewPTPSetupProtocol@@Base+0x1fa>
 4b6698a:	48 83 ec 48          	sub    $0x48,%rsp
 4b6698e:	48 89 6c 24 40       	mov    %rbp,0x40(%rsp)
 4b66993:	48 8d 6c 24 40       	lea    0x40(%rsp),%rbp
 4b66998:	48 89 44 24 50       	mov    %rax,0x50(%rsp)
 4b6699d:	0f 1f 00             	nopl   (%rax)
 4b669a0:	e8 9b a8 38 fd       	call   1ef1240 <runtime.makemap_small@@Base>
 4b669a5:	48 89 44 24 38       	mov    %rax,0x38(%rsp)
 4b669aa:	bb 10 00 00 00       	mov    $0x10,%ebx
 4b669af:	48 8d 05 da 33 18 00 	lea    0x1833da(%rip),%rax        # 4ce9d90 <_IO_stdin_used@@Base+0xb6d90>
 4b669b6:	e8 e5 03 8a ff       	call   4406da0 <github.com/lasselj/timebeat/beater/logging.NewLogger@@Base>
 4b669bb:	48 89 44 24 30       	mov    %rax,0x30(%rsp)
 4b669c0:	31 db                	xor    %ebx,%ebx
 4b669c2:	48 8d 05 d7 81 bf 00 	lea    0xbf81d7(%rip),%rax        # 575eba0 <type:DluGPTfl@@Base>
 4b669c9:	e8 12 0f 38 fd       	call   1ee78e0 <runtime.makechan@@Base>
 4b669ce:	48 89 44 24 28       	mov    %rax,0x28(%rsp)
 4b669d3:	48 8d 05 46 dc 0d 01 	lea    0x10ddc46(%rip),%rax        # 5c44620 <type:g9d42e9I@@Base>
 4b669da:	e8 01 9b 38 fd       	call   1ef04e0 <runtime.newobject@@Base>
 4b669df:	48 89 44 24 20       	mov    %rax,0x20(%rsp)
 4b669e4:	83 3d 75 4f 31 03 00 	cmpl   $0x0,0x3314f75(%rip)        # 7e7b960 <runtime.writeBarrier@@Base>
 4b669eb:	75 25                	jne    4b66a12 <github.com/lasselj/timebeat/beater/clocksync/clients/ptpsquared.NewPTPSetupProtocol@@Base+0x92>
 4b669ed:	48 8b 4c 24 50       	mov    0x50(%rsp),%rcx
 4b669f2:	48 89 08             	mov    %rcx,(%rax)
 4b669f5:	48 8b 54 24 38       	mov    0x38(%rsp),%rdx
 4b669fa:	48 89 50 08          	mov    %rdx,0x8(%rax)
 4b669fe:	48 8b 54 24 30       	mov    0x30(%rsp),%rdx
 4b66a03:	48 89 50 10          	mov    %rdx,0x10(%rax)
 4b66a07:	48 8b 54 24 28       	mov    0x28(%rsp),%rdx
 4b66a0c:	48 89 50 18          	mov    %rdx,0x18(%rax)
 4b66a10:	eb 3a                	jmp    4b66a4c <github.com/lasselj/timebeat/beater/clocksync/clients/ptpsquared.NewPTPSetupProtocol@@Base+0xcc>
 4b66a12:	48 89 c7             	mov    %rax,%rdi
 4b66a15:	48 8b 4c 24 50       	mov    0x50(%rsp),%rcx
 4b66a1a:	e8 e1 fc 3e fd       	call   1f56700 <runtime.gcWriteBarrierCX@@Base>
 4b66a1f:	48 8d 50 08          	lea    0x8(%rax),%rdx
 4b66a23:	48 89 d7             	mov    %rdx,%rdi
 4b66a26:	48 8b 5c 24 38       	mov    0x38(%rsp),%rbx
 4b66a2b:	e8 10 fd 3e fd       	call   1f56740 <runtime.gcWriteBarrierBX@@Base>
 4b66a30:	48 8d 78 10          	lea    0x10(%rax),%rdi
 4b66a34:	48 8b 54 24 30       	mov    0x30(%rsp),%rdx
 4b66a39:	e8 e2 fc 3e fd       	call   1f56720 <runtime.gcWriteBarrierDX@@Base>
 4b66a3e:	48 8d 78 18          	lea    0x18(%rax),%rdi
 4b66a42:	48 8b 54 24 28       	mov    0x28(%rsp),%rdx
 4b66a47:	e8 d4 fc 3e fd       	call   1f56720 <runtime.gcWriteBarrierDX@@Base>
 4b66a4c:	48 8d 05 8d be f4 00 	lea    0xf4be8d(%rip),%rax        # 5ab28e0 <type:8Syp22X6@@Base>
 4b66a53:	e8 88 9a 38 fd       	call   1ef04e0 <runtime.newobject@@Base>
 4b66a58:	48 8d 0d a1 18 00 00 	lea    0x18a1(%rip),%rcx        # 4b68300 <github.com/lasselj/timebeat/beater/clocksync/clients/ptpsquared.(*PTPSetupProtocol).onPTPSetupRequest-fm@@Base>
 4b66a5f:	48 89 08             	mov    %rcx,(%rax)
 4b66a62:	83 3d f7 4e 31 03 00 	cmpl   $0x0,0x3314ef7(%rip)        # 7e7b960 <runtime.writeBarrier@@Base>
 4b66a69:	75 0b                	jne    4b66a76 <github.com/lasselj/timebeat/beater/clocksync/clients/ptpsquared.NewPTPSetupProtocol@@Base+0xf6>
 4b66a6b:	48 8b 54 24 20       	mov    0x20(%rsp),%rdx
 4b66a70:	48 89 50 08          	mov    %rdx,0x8(%rax)
 4b66a74:	eb 0f                	jmp    4b66a85 <github.com/lasselj/timebeat/beater/clocksync/clients/ptpsquared.NewPTPSetupProtocol@@Base+0x105>
 4b66a76:	48 8d 78 08          	lea    0x8(%rax),%rdi
 4b66a7a:	48 8b 54 24 20       	mov    0x20(%rsp),%rdx
 4b66a7f:	90                   	nop
 4b66a80:	e8 9b fc 3e fd       	call   1f56720 <runtime.gcWriteBarrierDX@@Base>
 4b66a85:	48 8b 54 24 50       	mov    0x50(%rsp),%rdx
 4b66a8a:	48 8b 32             	mov    (%rdx),%rsi
 4b66a8d:	4c 8b 42 08          	mov    0x8(%rdx),%r8
 4b66a91:	48 8b 1d a8 b2 2c 03 	mov    0x32cb2a8(%rip),%rbx        # 7e31d40 <github.com/lasselj/timebeat/beater/clocksync/clients/ptpsquared.PTP_SETUP_REQUEST@@Base>
 4b66a98:	48 8b 0d a9 b2 2c 03 	mov    0x32cb2a9(%rip),%rcx        # 7e31d48 <github.com/lasselj/timebeat/beater/clocksync/clients/ptpsquared.PTP_SETUP_REQUEST@@Base+0x8>
 4b66a9f:	48 8b 76 70          	mov    0x70(%rsi),%rsi
 4b66aa3:	48 89 c7             	mov    %rax,%rdi
 4b66aa6:	4c 89 c0             	mov    %r8,%rax
 4b66aa9:	ff d6                	call   *%rsi
 4b66aab:	48 8d 05 2e be f4 00 	lea    0xf4be2e(%rip),%rax        # 5ab28e0 <type:8Syp22X6@@Base>
 4b66ab2:	e8 29 9a 38 fd       	call   1ef04e0 <runtime.newobject@@Base>
 4b66ab7:	48 8d 15 c2 18 00 00 	lea    0x18c2(%rip),%rdx        # 4b68380 <github.com/lasselj/timebeat/beater/clocksync/clients/ptpsquared.(*PTPSetupProtocol).onPTPSetupResponse-fm@@Base>
 4b66abe:	48 89 10             	mov    %rdx,(%rax)
 4b66ac1:	83 3d 98 4e 31 03 00 	cmpl   $0x0,0x3314e98(%rip)        # 7e7b960 <runtime.writeBarrier@@Base>
 4b66ac8:	75 0b                	jne    4b66ad5 <github.com/lasselj/timebeat/beater/clocksync/clients/ptpsquared.NewPTPSetupProtocol@@Base+0x155>
 4b66aca:	48 8b 54 24 20       	mov    0x20(%rsp),%rdx
 4b66acf:	48 89 50 08          	mov    %rdx,0x8(%rax)
 4b66ad3:	eb 10                	jmp    4b66ae5 <github.com/lasselj/timebeat/beater/clocksync/clients/ptpsquared.NewPTPSetupProtocol@@Base+0x165>
 4b66ad5:	48 8d 78 08          	lea    0x8(%rax),%rdi
 4b66ad9:	48 8b 54 24 20       	mov    0x20(%rsp),%rdx
 4b66ade:	66 90                	xchg   %ax,%ax
 4b66ae0:	e8 3b fc 3e fd       	call   1f56720 <runtime.gcWriteBarrierDX@@Base>
 4b66ae5:	48 8b 54 24 50       	mov    0x50(%rsp),%rdx
 4b66aea:	48 8b 32             	mov    (%rdx),%rsi
 4b66aed:	4c 8b 42 08          	mov    0x8(%rdx),%r8
 4b66af1:	48 8b 1d 58 b2 2c 03 	mov    0x32cb258(%rip),%rbx        # 7e31d50 <github.com/lasselj/timebeat/beater/clocksync/clients/ptpsquared.PTP_SETUP_RESPONSE@@Base>
 4b66af8:	48 8b 0d 59 b2 2c 03 	mov    0x32cb259(%rip),%rcx        # 7e31d58 <github.com/lasselj/timebeat/beater/clocksync/clients/ptpsquared.PTP_SETUP_RESPONSE@@Base+0x8>
 4b66aff:	48 8b 76 70          	mov    0x70(%rsi),%rsi
 4b66b03:	48 89 c7             	mov    %rax,%rdi
 4b66b06:	4c 89 c0             	mov    %r8,%rax
 4b66b09:	ff d6                	call   *%rsi
 4b66b0b:	48 8d 05 ce bd f4 00 	lea    0xf4bdce(%rip),%rax        # 5ab28e0 <type:8Syp22X6@@Base>
 4b66b12:	e8 c9 99 38 fd       	call   1ef04e0 <runtime.newobject@@Base>
 4b66b17:	48 8d 15 e2 18 00 00 	lea    0x18e2(%rip),%rdx        # 4b68400 <github.com/lasselj/timebeat/beater/clocksync/clients/ptpsquared.(*PTPSetupProtocol).onPTPSetupAck-fm@@Base>
 4b66b1e:	48 89 10             	mov    %rdx,(%rax)
 4b66b21:	83 3d 38 4e 31 03 00 	cmpl   $0x0,0x3314e38(%rip)        # 7e7b960 <runtime.writeBarrier@@Base>
 4b66b28:	75 0b                	jne    4b66b35 <github.com/lasselj/timebeat/beater/clocksync/clients/ptpsquared.NewPTPSetupProtocol@@Base+0x1b5>
 4b66b2a:	48 8b 54 24 20       	mov    0x20(%rsp),%rdx
 4b66b2f:	48 89 50 08          	mov    %rdx,0x8(%rax)
 4b66b33:	eb 10                	jmp    4b66b45 <github.com/lasselj/timebeat/beater/clocksync/clients/ptpsquared.NewPTPSetupProtocol@@Base+0x1c5>
 4b66b35:	48 8d 78 08          	lea    0x8(%rax),%rdi
 4b66b39:	48 8b 54 24 20       	mov    0x20(%rsp),%rdx
 4b66b3e:	66 90                	xchg   %ax,%ax
 4b66b40:	e8 db fb 3e fd       	call   1f56720 <runtime.gcWriteBarrierDX@@Base>
 4b66b45:	48 8b 54 24 50       	mov    0x50(%rsp),%rdx
 4b66b4a:	48 8b 32             	mov    (%rdx),%rsi
 4b66b4d:	48 8b 52 08          	mov    0x8(%rdx),%rdx
 4b66b51:	48 8b 1d d8 b1 2c 03 	mov    0x32cb1d8(%rip),%rbx        # 7e31d30 <github.com/lasselj/timebeat/beater/clocksync/clients/ptpsquared.PTP_SETUP_ACK@@Base>
 4b66b58:	48 8b 0d d9 b1 2c 03 	mov    0x32cb1d9(%rip),%rcx        # 7e31d38 <github.com/lasselj/timebeat/beater/clocksync/clients/ptpsquared.PTP_SETUP_ACK@@Base+0x8>
 4b66b5f:	48 8b 76 70          	mov    0x70(%rsi),%rsi
 4b66b63:	48 89 c7             	mov    %rax,%rdi
 4b66b66:	48 89 d0             	mov    %rdx,%rax
 4b66b69:	ff d6                	call   *%rsi
 4b66b6b:	48 8b 44 24 20       	mov    0x20(%rsp),%rax
 4b66b70:	48 8b 6c 24 40       	mov    0x40(%rsp),%rbp
 4b66b75:	48 83 c4 48          	add    $0x48,%rsp
 4b66b79:	c3                   	ret
 4b66b7a:	48 89 44 24 08       	mov    %rax,0x8(%rsp)
 4b66b7f:	90                   	nop
 4b66b80:	e8 db d8 3e fd       	call   1f54460 <runtime.morestack_noctxt.abi0@@Base>
 4b66b85:	48 8b 44 24 08       	mov    0x8(%rsp),%rax
 4b66b8a:	e9 f1 fd ff ff       	jmp    4b66980 <github.com/lasselj/timebeat/beater/clocksync/clients/ptpsquared.NewPTPSetupProtocol@@Base>
 4b66b8f:	cc                   	int3
 4b66b90:	cc                   	int3
 4b66b91:	cc                   	int3
 4b66b92:	cc                   	int3
 4b66b93:	cc                   	int3
 4b66b94:	cc                   	int3
 4b66b95:	cc                   	int3
 4b66b96:	cc                   	int3
 4b66b97:	cc                   	int3
 4b66b98:	cc                   	int3
 4b66b99:	cc                   	int3
 4b66b9a:	cc                   	int3
 4b66b9b:	cc                   	int3
 4b66b9c:	cc                   	int3
 4b66b9d:	cc                   	int3
 4b66b9e:	cc                   	int3
 4b66b9f:	cc                   	int3
