# github.com/lasselj/timebeat/beater/clocksync/clients/ptp.UpdateAnnounceMessageFromCLI.func1
# addr 0x45e52c0 size 640 (0x280)


/mnt/c/Users/SHIWA/GitHub/TimeCard-Mini/timebeat-extracted/usr/share/timebeat/bin/timebeat:     file format elf64-x86-64


Disassembly of section .text:

00000000045e52c0 <github.com/lasselj/timebeat/beater/clocksync/clients/ptp.UpdateAnnounceMessageFromCLI.func1@@Base>:
 45e52c0:	49 3b 66 10          	cmp    0x10(%r14),%rsp
 45e52c4:	0f 86 2e 02 00 00    	jbe    45e54f8 <github.com/lasselj/timebeat/beater/clocksync/clients/ptp.UpdateAnnounceMessageFromCLI.func1@@Base+0x238>
 45e52ca:	48 83 ec 30          	sub    $0x30,%rsp
 45e52ce:	48 89 6c 24 28       	mov    %rbp,0x28(%rsp)
 45e52d3:	48 8d 6c 24 28       	lea    0x28(%rsp),%rbp
 45e52d8:	48 89 44 24 38       	mov    %rax,0x38(%rsp)
 45e52dd:	48 89 5c 24 40       	mov    %rbx,0x40(%rsp)
 45e52e2:	48 89 4c 24 48       	mov    %rcx,0x48(%rsp)
 45e52e7:	48 89 7c 24 50       	mov    %rdi,0x50(%rsp)
 45e52ec:	48 8b 72 18          	mov    0x18(%rdx),%rsi
 45e52f0:	48 89 74 24 18       	mov    %rsi,0x18(%rsp)
 45e52f5:	48 8b 5a 10          	mov    0x10(%rdx),%rbx
 45e52f9:	4c 8b 42 20          	mov    0x20(%rdx),%r8
 45e52fd:	4c 89 44 24 20       	mov    %r8,0x20(%rsp)
 45e5302:	0f b7 52 08          	movzwl 0x8(%rdx),%edx
 45e5306:	48 85 c0             	test   %rax,%rax
 45e5309:	0f 84 b3 00 00 00    	je     45e53c2 <github.com/lasselj/timebeat/beater/clocksync/clients/ptp.UpdateAnnounceMessageFromCLI.func1@@Base+0x102>
 45e530f:	81 78 10 74 6c 25 76 	cmpl   $0x76256c74,0x10(%rax)
 45e5316:	0f 85 a6 00 00 00    	jne    45e53c2 <github.com/lasselj/timebeat/beater/clocksync/clients/ptp.UpdateAnnounceMessageFromCLI.func1@@Base+0x102>
 45e531c:	4c 8d 0d 1d ca 52 01 	lea    0x152ca1d(%rip),%r9        # 5b11d40 <type:CFqlkVxY@@Base>
 45e5323:	4c 39 c8             	cmp    %r9,%rax
 45e5326:	0f 85 96 00 00 00    	jne    45e53c2 <github.com/lasselj/timebeat/beater/clocksync/clients/ptp.UpdateAnnounceMessageFromCLI.func1@@Base+0x102>
 45e532c:	66 85 d2             	test   %dx,%dx
 45e532f:	0f 85 7e 00 00 00    	jne    45e53b3 <github.com/lasselj/timebeat/beater/clocksync/clients/ptp.UpdateAnnounceMessageFromCLI.func1@@Base+0xf3>
 45e5335:	48 8d 15 c4 e8 8d 01 	lea    0x18de8c4(%rip),%rdx        # 5ec3c00 <type:97XPxJCH@@Base>
 45e533c:	0f 1f 40 00          	nopl   0x0(%rax)
 45e5340:	48 39 d1             	cmp    %rdx,%rcx
 45e5343:	0f 85 9c 01 00 00    	jne    45e54e5 <github.com/lasselj/timebeat/beater/clocksync/clients/ptp.UpdateAnnounceMessageFromCLI.func1@@Base+0x225>
 45e5349:	48 8b 87 40 04 00 00 	mov    0x440(%rdi),%rax
 45e5350:	48 85 c0             	test   %rax,%rax
 45e5353:	74 07                	je     45e535c <github.com/lasselj/timebeat/beater/clocksync/clients/ptp.UpdateAnnounceMessageFromCLI.func1@@Base+0x9c>
 45e5355:	e8 26 5d fe ff       	call   45cb080 <github.com/lasselj/timebeat/beater/clocksync/clients/ptp/server.(*Server).UpdateAnnounceMessage@@Base>
 45e535a:	eb 29                	jmp    45e5385 <github.com/lasselj/timebeat/beater/clocksync/clients/ptp.UpdateAnnounceMessageFromCLI.func1@@Base+0xc5>
 45e535c:	90                   	nop
 45e535d:	48 8d 05 9c ef 48 01 	lea    0x148ef9c(%rip),%rax        # 5a74300 <type:hE5I1The@@Base>
 45e5364:	e8 77 b1 90 fd       	call   1ef04e0 <runtime.newobject@@Base>
 45e5369:	48 c7 40 08 17 00 00 	movq   $0x17,0x8(%rax)
 45e5370:	00 
 45e5371:	48 8d 0d 1d ee 7e 00 	lea    0x7eee1d(%rip),%rcx        # 4dd4195 <_IO_stdin_used@@Base+0x1a1195>
 45e5378:	48 89 08             	mov    %rcx,(%rax)
 45e537b:	48 89 c3             	mov    %rax,%rbx
 45e537e:	48 8d 05 3b 8b 91 01 	lea    0x1918b3b(%rip),%rax        # 5efdec0 <go:itab.*errors.errorString,error@@Base>
 45e5385:	48 85 c0             	test   %rax,%rax
 45e5388:	74 21                	je     45e53ab <github.com/lasselj/timebeat/beater/clocksync/clients/ptp.UpdateAnnounceMessageFromCLI.func1@@Base+0xeb>
 45e538a:	48 8b 7c 24 18       	mov    0x18(%rsp),%rdi
 45e538f:	48 89 07             	mov    %rax,(%rdi)
 45e5392:	83 3d c7 65 89 03 00 	cmpl   $0x0,0x38965c7(%rip)        # 7e7b960 <runtime.writeBarrier@@Base>
 45e5399:	75 07                	jne    45e53a2 <github.com/lasselj/timebeat/beater/clocksync/clients/ptp.UpdateAnnounceMessageFromCLI.func1@@Base+0xe2>
 45e539b:	48 89 5f 08          	mov    %rbx,0x8(%rdi)
 45e539f:	90                   	nop
 45e53a0:	eb 09                	jmp    45e53ab <github.com/lasselj/timebeat/beater/clocksync/clients/ptp.UpdateAnnounceMessageFromCLI.func1@@Base+0xeb>
 45e53a2:	48 83 c7 08          	add    $0x8,%rdi
 45e53a6:	e8 95 13 97 fd       	call   1f56740 <runtime.gcWriteBarrierBX@@Base>
 45e53ab:	48 8b 4c 24 20       	mov    0x20(%rsp),%rcx
 45e53b0:	48 ff 01             	incq   (%rcx)
 45e53b3:	b8 01 00 00 00       	mov    $0x1,%eax
 45e53b8:	48 8b 6c 24 28       	mov    0x28(%rsp),%rbp
 45e53bd:	48 83 c4 30          	add    $0x30,%rsp
 45e53c1:	c3                   	ret
 45e53c2:	4c 8d 0d 37 e8 8d 01 	lea    0x18de837(%rip),%r9        # 5ec3c00 <type:97XPxJCH@@Base>
 45e53c9:	4c 39 c9             	cmp    %r9,%rcx
 45e53cc:	0f 85 fc 00 00 00    	jne    45e54ce <github.com/lasselj/timebeat/beater/clocksync/clients/ptp.UpdateAnnounceMessageFromCLI.func1@@Base+0x20e>
 45e53d2:	66 85 d2             	test   %dx,%dx
 45e53d5:	75 6d                	jne    45e5444 <github.com/lasselj/timebeat/beater/clocksync/clients/ptp.UpdateAnnounceMessageFromCLI.func1@@Base+0x184>
 45e53d7:	48 8b 87 40 04 00 00 	mov    0x440(%rdi),%rax
 45e53de:	66 90                	xchg   %ax,%ax
 45e53e0:	48 85 c0             	test   %rax,%rax
 45e53e3:	74 07                	je     45e53ec <github.com/lasselj/timebeat/beater/clocksync/clients/ptp.UpdateAnnounceMessageFromCLI.func1@@Base+0x12c>
 45e53e5:	e8 96 5c fe ff       	call   45cb080 <github.com/lasselj/timebeat/beater/clocksync/clients/ptp/server.(*Server).UpdateAnnounceMessage@@Base>
 45e53ea:	eb 29                	jmp    45e5415 <github.com/lasselj/timebeat/beater/clocksync/clients/ptp.UpdateAnnounceMessageFromCLI.func1@@Base+0x155>
 45e53ec:	90                   	nop
 45e53ed:	48 8d 05 0c ef 48 01 	lea    0x148ef0c(%rip),%rax        # 5a74300 <type:hE5I1The@@Base>
 45e53f4:	e8 e7 b0 90 fd       	call   1ef04e0 <runtime.newobject@@Base>
 45e53f9:	48 c7 40 08 17 00 00 	movq   $0x17,0x8(%rax)
 45e5400:	00 
 45e5401:	48 8d 0d 8d ed 7e 00 	lea    0x7eed8d(%rip),%rcx        # 4dd4195 <_IO_stdin_used@@Base+0x1a1195>
 45e5408:	48 89 08             	mov    %rcx,(%rax)
 45e540b:	48 89 c3             	mov    %rax,%rbx
 45e540e:	48 8d 05 ab 8a 91 01 	lea    0x1918aab(%rip),%rax        # 5efdec0 <go:itab.*errors.errorString,error@@Base>
 45e5415:	48 85 c0             	test   %rax,%rax
 45e5418:	74 20                	je     45e543a <github.com/lasselj/timebeat/beater/clocksync/clients/ptp.UpdateAnnounceMessageFromCLI.func1@@Base+0x17a>
 45e541a:	48 8b 7c 24 18       	mov    0x18(%rsp),%rdi
 45e541f:	48 89 07             	mov    %rax,(%rdi)
 45e5422:	83 3d 37 65 89 03 00 	cmpl   $0x0,0x3896537(%rip)        # 7e7b960 <runtime.writeBarrier@@Base>
 45e5429:	75 06                	jne    45e5431 <github.com/lasselj/timebeat/beater/clocksync/clients/ptp.UpdateAnnounceMessageFromCLI.func1@@Base+0x171>
 45e542b:	48 89 5f 08          	mov    %rbx,0x8(%rdi)
 45e542f:	eb 09                	jmp    45e543a <github.com/lasselj/timebeat/beater/clocksync/clients/ptp.UpdateAnnounceMessageFromCLI.func1@@Base+0x17a>
 45e5431:	48 83 c7 08          	add    $0x8,%rdi
 45e5435:	e8 06 13 97 fd       	call   1f56740 <runtime.gcWriteBarrierBX@@Base>
 45e543a:	48 8b 4c 24 20       	mov    0x20(%rsp),%rcx
 45e543f:	48 ff 01             	incq   (%rcx)
 45e5442:	eb 7b                	jmp    45e54bf <github.com/lasselj/timebeat/beater/clocksync/clients/ptp.UpdateAnnounceMessageFromCLI.func1@@Base+0x1ff>
 45e5444:	66 39 97 9e 02 00 00 	cmp    %dx,0x29e(%rdi)
 45e544b:	75 72                	jne    45e54bf <github.com/lasselj/timebeat/beater/clocksync/clients/ptp.UpdateAnnounceMessageFromCLI.func1@@Base+0x1ff>
 45e544d:	48 8b 87 40 04 00 00 	mov    0x440(%rdi),%rax
 45e5454:	48 85 c0             	test   %rax,%rax
 45e5457:	74 09                	je     45e5462 <github.com/lasselj/timebeat/beater/clocksync/clients/ptp.UpdateAnnounceMessageFromCLI.func1@@Base+0x1a2>
 45e5459:	e8 22 5c fe ff       	call   45cb080 <github.com/lasselj/timebeat/beater/clocksync/clients/ptp/server.(*Server).UpdateAnnounceMessage@@Base>
 45e545e:	66 90                	xchg   %ax,%ax
 45e5460:	eb 29                	jmp    45e548b <github.com/lasselj/timebeat/beater/clocksync/clients/ptp.UpdateAnnounceMessageFromCLI.func1@@Base+0x1cb>
 45e5462:	90                   	nop
 45e5463:	48 8d 05 96 ee 48 01 	lea    0x148ee96(%rip),%rax        # 5a74300 <type:hE5I1The@@Base>
 45e546a:	e8 71 b0 90 fd       	call   1ef04e0 <runtime.newobject@@Base>
 45e546f:	48 c7 40 08 17 00 00 	movq   $0x17,0x8(%rax)
 45e5476:	00 
 45e5477:	48 8d 0d 17 ed 7e 00 	lea    0x7eed17(%rip),%rcx        # 4dd4195 <_IO_stdin_used@@Base+0x1a1195>
 45e547e:	48 89 08             	mov    %rcx,(%rax)
 45e5481:	48 89 c3             	mov    %rax,%rbx
 45e5484:	48 8d 05 35 8a 91 01 	lea    0x1918a35(%rip),%rax        # 5efdec0 <go:itab.*errors.errorString,error@@Base>
 45e548b:	48 8b 7c 24 18       	mov    0x18(%rsp),%rdi
 45e5490:	48 89 07             	mov    %rax,(%rdi)
 45e5493:	83 3d c6 64 89 03 00 	cmpl   $0x0,0x38964c6(%rip)        # 7e7b960 <runtime.writeBarrier@@Base>
 45e549a:	75 06                	jne    45e54a2 <github.com/lasselj/timebeat/beater/clocksync/clients/ptp.UpdateAnnounceMessageFromCLI.func1@@Base+0x1e2>
 45e549c:	48 89 5f 08          	mov    %rbx,0x8(%rdi)
 45e54a0:	eb 09                	jmp    45e54ab <github.com/lasselj/timebeat/beater/clocksync/clients/ptp.UpdateAnnounceMessageFromCLI.func1@@Base+0x1eb>
 45e54a2:	48 83 c7 08          	add    $0x8,%rdi
 45e54a6:	e8 95 12 97 fd       	call   1f56740 <runtime.gcWriteBarrierBX@@Base>
 45e54ab:	48 8b 4c 24 20       	mov    0x20(%rsp),%rcx
 45e54b0:	48 ff 01             	incq   (%rcx)
 45e54b3:	31 c0                	xor    %eax,%eax
 45e54b5:	48 8b 6c 24 28       	mov    0x28(%rsp),%rbp
 45e54ba:	48 83 c4 30          	add    $0x30,%rsp
 45e54be:	c3                   	ret
 45e54bf:	b8 01 00 00 00       	mov    $0x1,%eax
 45e54c4:	48 8b 6c 24 28       	mov    0x28(%rsp),%rbp
 45e54c9:	48 83 c4 30          	add    $0x30,%rsp
 45e54cd:	c3                   	ret
 45e54ce:	48 89 c8             	mov    %rcx,%rax
 45e54d1:	4c 89 cb             	mov    %r9,%rbx
 45e54d4:	48 8d 0d 65 ee 2c 01 	lea    0x12cee65(%rip),%rcx        # 58b4340 <type:tpDRQG8O@@Base>
 45e54db:	0f 1f 44 00 00       	nopl   0x0(%rax,%rax,1)
 45e54e0:	e8 bb 83 90 fd       	call   1eed8a0 <runtime.panicdottypeE@@Base>
 45e54e5:	48 89 c8             	mov    %rcx,%rax
 45e54e8:	48 89 d3             	mov    %rdx,%rbx
 45e54eb:	48 8d 0d 4e ee 2c 01 	lea    0x12cee4e(%rip),%rcx        # 58b4340 <type:tpDRQG8O@@Base>
 45e54f2:	e8 a9 83 90 fd       	call   1eed8a0 <runtime.panicdottypeE@@Base>
 45e54f7:	90                   	nop
 45e54f8:	48 89 44 24 08       	mov    %rax,0x8(%rsp)
 45e54fd:	48 89 5c 24 10       	mov    %rbx,0x10(%rsp)
 45e5502:	48 89 4c 24 18       	mov    %rcx,0x18(%rsp)
 45e5507:	48 89 7c 24 20       	mov    %rdi,0x20(%rsp)
 45e550c:	e8 af ee 96 fd       	call   1f543c0 <runtime.morestack.abi0@@Base>
 45e5511:	48 8b 44 24 08       	mov    0x8(%rsp),%rax
 45e5516:	48 8b 5c 24 10       	mov    0x10(%rsp),%rbx
 45e551b:	48 8b 4c 24 18       	mov    0x18(%rsp),%rcx
 45e5520:	48 8b 7c 24 20       	mov    0x20(%rsp),%rdi
 45e5525:	e9 96 fd ff ff       	jmp    45e52c0 <github.com/lasselj/timebeat/beater/clocksync/clients/ptp.UpdateAnnounceMessageFromCLI.func1@@Base>
 45e552a:	cc                   	int3
 45e552b:	cc                   	int3
 45e552c:	cc                   	int3
 45e552d:	cc                   	int3
 45e552e:	cc                   	int3
 45e552f:	cc                   	int3
 45e5530:	cc                   	int3
 45e5531:	cc                   	int3
 45e5532:	cc                   	int3
 45e5533:	cc                   	int3
 45e5534:	cc                   	int3
 45e5535:	cc                   	int3
 45e5536:	cc                   	int3
 45e5537:	cc                   	int3
 45e5538:	cc                   	int3
 45e5539:	cc                   	int3
 45e553a:	cc                   	int3
 45e553b:	cc                   	int3
 45e553c:	cc                   	int3
 45e553d:	cc                   	int3
 45e553e:	cc                   	int3
 45e553f:	cc                   	int3
