# github.com/lasselj/timebeat/beater/clocksync/servo/filters.NewFilterConfig
# addr 0x4579260 size 416 (0x1a0)


/mnt/c/Users/SHIWA/GitHub/TimeCard-Mini/timebeat-extracted/usr/share/timebeat/bin/timebeat:     file format elf64-x86-64


Disassembly of section .text:

0000000004579260 <github.com/lasselj/timebeat/beater/clocksync/servo/filters.NewFilterConfig@@Base>:
 4579260:	49 3b 66 10          	cmp    0x10(%r14),%rsp
 4579264:	0f 86 5b 01 00 00    	jbe    45793c5 <github.com/lasselj/timebeat/beater/clocksync/servo/filters.NewFilterConfig@@Base+0x165>
 457926a:	48 83 ec 18          	sub    $0x18,%rsp
 457926e:	48 89 6c 24 10       	mov    %rbp,0x10(%rsp)
 4579273:	48 8d 6c 24 10       	lea    0x10(%rsp),%rbp
 4579278:	88 5c 24 28          	mov    %bl,0x28(%rsp)
 457927c:	0f 1f 40 00          	nopl   0x0(%rax)
 4579280:	48 83 f8 01          	cmp    $0x1,%rax
 4579284:	0f 84 f1 00 00 00    	je     457937b <github.com/lasselj/timebeat/beater/clocksync/servo/filters.NewFilterConfig@@Base+0x11b>
 457928a:	48 83 f8 02          	cmp    $0x2,%rax
 457928e:	0f 84 a3 00 00 00    	je     4579337 <github.com/lasselj/timebeat/beater/clocksync/servo/filters.NewFilterConfig@@Base+0xd7>
 4579294:	48 83 f8 04          	cmp    $0x4,%rax
 4579298:	74 58                	je     45792f2 <github.com/lasselj/timebeat/beater/clocksync/servo/filters.NewFilterConfig@@Base+0x92>
 457929a:	66 0f 1f 44 00 00    	nopw   0x0(%rax,%rax,1)
 45792a0:	48 83 f8 05          	cmp    $0x5,%rax
 45792a4:	74 07                	je     45792ad <github.com/lasselj/timebeat/beater/clocksync/servo/filters.NewFilterConfig@@Base+0x4d>
 45792a6:	31 c0                	xor    %eax,%eax
 45792a8:	e9 0e 01 00 00       	jmp    45793bb <github.com/lasselj/timebeat/beater/clocksync/servo/filters.NewFilterConfig@@Base+0x15b>
 45792ad:	48 8d 05 ec cb 76 01 	lea    0x176cbec(%rip),%rax        # 5ce5ea0 <type:N+5o+UF9@@Base>
 45792b4:	e8 27 72 97 fd       	call   1ef04e0 <runtime.newobject@@Base>
 45792b9:	48 c7 00 05 00 00 00 	movq   $0x5,(%rax)
 45792c0:	48 c7 40 08 c8 00 00 	movq   $0xc8,0x8(%rax)
 45792c7:	00 
 45792c8:	f2 0f 10 05 90 53 f6 	movsd  0xf65390(%rip),%xmm0        # 54de660 <_IO_stdin_used@@Base+0x8ab660>
 45792cf:	00 
 45792d0:	f2 0f 11 40 10       	movsd  %xmm0,0x10(%rax)
 45792d5:	48 c7 40 18 59 00 00 	movq   $0x59,0x18(%rax)
 45792dc:	00 
 45792dd:	48 c7 40 20 0a 00 00 	movq   $0xa,0x20(%rax)
 45792e4:	00 
 45792e5:	0f b6 4c 24 28       	movzbl 0x28(%rsp),%ecx
 45792ea:	88 48 28             	mov    %cl,0x28(%rax)
 45792ed:	e9 c9 00 00 00       	jmp    45793bb <github.com/lasselj/timebeat/beater/clocksync/servo/filters.NewFilterConfig@@Base+0x15b>
 45792f2:	48 8d 05 a7 cb 76 01 	lea    0x176cba7(%rip),%rax        # 5ce5ea0 <type:N+5o+UF9@@Base>
 45792f9:	e8 e2 71 97 fd       	call   1ef04e0 <runtime.newobject@@Base>
 45792fe:	48 c7 00 04 00 00 00 	movq   $0x4,(%rax)
 4579305:	48 c7 40 08 64 00 00 	movq   $0x64,0x8(%rax)
 457930c:	00 
 457930d:	f2 0f 10 05 d3 52 f6 	movsd  0xf652d3(%rip),%xmm0        # 54de5e8 <_IO_stdin_used@@Base+0x8ab5e8>
 4579314:	00 
 4579315:	f2 0f 11 40 10       	movsd  %xmm0,0x10(%rax)
 457931a:	48 c7 40 18 59 00 00 	movq   $0x59,0x18(%rax)
 4579321:	00 
 4579322:	48 c7 40 20 0a 00 00 	movq   $0xa,0x20(%rax)
 4579329:	00 
 457932a:	0f b6 4c 24 28       	movzbl 0x28(%rsp),%ecx
 457932f:	88 48 28             	mov    %cl,0x28(%rax)
 4579332:	e9 84 00 00 00       	jmp    45793bb <github.com/lasselj/timebeat/beater/clocksync/servo/filters.NewFilterConfig@@Base+0x15b>
 4579337:	48 8d 05 62 cb 76 01 	lea    0x176cb62(%rip),%rax        # 5ce5ea0 <type:N+5o+UF9@@Base>
 457933e:	66 90                	xchg   %ax,%ax
 4579340:	e8 9b 71 97 fd       	call   1ef04e0 <runtime.newobject@@Base>
 4579345:	48 c7 00 02 00 00 00 	movq   $0x2,(%rax)
 457934c:	48 c7 40 08 14 00 00 	movq   $0x14,0x8(%rax)
 4579353:	00 
 4579354:	f2 0f 10 05 14 52 f6 	movsd  0xf65214(%rip),%xmm0        # 54de570 <_IO_stdin_used@@Base+0x8ab570>
 457935b:	00 
 457935c:	f2 0f 11 40 10       	movsd  %xmm0,0x10(%rax)
 4579361:	48 c7 40 18 11 00 00 	movq   $0x11,0x18(%rax)
 4579368:	00 
 4579369:	48 c7 40 20 02 00 00 	movq   $0x2,0x20(%rax)
 4579370:	00 
 4579371:	0f b6 4c 24 28       	movzbl 0x28(%rsp),%ecx
 4579376:	88 48 28             	mov    %cl,0x28(%rax)
 4579379:	eb 40                	jmp    45793bb <github.com/lasselj/timebeat/beater/clocksync/servo/filters.NewFilterConfig@@Base+0x15b>
 457937b:	48 8d 05 1e cb 76 01 	lea    0x176cb1e(%rip),%rax        # 5ce5ea0 <type:N+5o+UF9@@Base>
 4579382:	e8 59 71 97 fd       	call   1ef04e0 <runtime.newobject@@Base>
 4579387:	48 c7 00 01 00 00 00 	movq   $0x1,(%rax)
 457938e:	48 c7 40 08 64 00 00 	movq   $0x64,0x8(%rax)
 4579395:	00 
 4579396:	f2 0f 10 05 d2 51 f6 	movsd  0xf651d2(%rip),%xmm0        # 54de570 <_IO_stdin_used@@Base+0x8ab570>
 457939d:	00 
 457939e:	f2 0f 11 40 10       	movsd  %xmm0,0x10(%rax)
 45793a3:	48 c7 40 18 59 00 00 	movq   $0x59,0x18(%rax)
 45793aa:	00 
 45793ab:	48 c7 40 20 0a 00 00 	movq   $0xa,0x20(%rax)
 45793b2:	00 
 45793b3:	0f b6 4c 24 28       	movzbl 0x28(%rsp),%ecx
 45793b8:	88 48 28             	mov    %cl,0x28(%rax)
 45793bb:	48 8b 6c 24 10       	mov    0x10(%rsp),%rbp
 45793c0:	48 83 c4 18          	add    $0x18,%rsp
 45793c4:	c3                   	ret
 45793c5:	48 89 44 24 08       	mov    %rax,0x8(%rsp)
 45793ca:	88 5c 24 10          	mov    %bl,0x10(%rsp)
 45793ce:	e8 8d b0 9d fd       	call   1f54460 <runtime.morestack_noctxt.abi0@@Base>
 45793d3:	48 8b 44 24 08       	mov    0x8(%rsp),%rax
 45793d8:	0f b6 5c 24 10       	movzbl 0x10(%rsp),%ebx
 45793dd:	0f 1f 00             	nopl   (%rax)
 45793e0:	e9 7b fe ff ff       	jmp    4579260 <github.com/lasselj/timebeat/beater/clocksync/servo/filters.NewFilterConfig@@Base>
 45793e5:	cc                   	int3
 45793e6:	cc                   	int3
 45793e7:	cc                   	int3
 45793e8:	cc                   	int3
 45793e9:	cc                   	int3
 45793ea:	cc                   	int3
 45793eb:	cc                   	int3
 45793ec:	cc                   	int3
 45793ed:	cc                   	int3
 45793ee:	cc                   	int3
 45793ef:	cc                   	int3
 45793f0:	cc                   	int3
 45793f1:	cc                   	int3
 45793f2:	cc                   	int3
 45793f3:	cc                   	int3
 45793f4:	cc                   	int3
 45793f5:	cc                   	int3
 45793f6:	cc                   	int3
 45793f7:	cc                   	int3
 45793f8:	cc                   	int3
 45793f9:	cc                   	int3
 45793fa:	cc                   	int3
 45793fb:	cc                   	int3
 45793fc:	cc                   	int3
 45793fd:	cc                   	int3
 45793fe:	cc                   	int3
 45793ff:	cc                   	int3
