# github.com/lasselj/timebeat/beater/clocksync/clients/ptpsquared.(*State).ReserveSeat
# addr 0x4b62ba0 size 992 (0x3e0)


/mnt/c/Users/SHIWA/GitHub/TimeCard-Mini/timebeat-extracted/usr/share/timebeat/bin/timebeat:     file format elf64-x86-64


Disassembly of section .text:

0000000004b62ba0 <github.com/lasselj/timebeat/beater/clocksync/clients/ptpsquared.(*State).ReserveSeat@@Base>:
 4b62ba0:	49 3b 66 10          	cmp    0x10(%r14),%rsp
 4b62ba4:	0f 86 ac 03 00 00    	jbe    4b62f56 <github.com/lasselj/timebeat/beater/clocksync/clients/ptpsquared.(*State).ReserveSeat@@Base+0x3b6>
 4b62baa:	48 83 ec 78          	sub    $0x78,%rsp
 4b62bae:	48 89 6c 24 70       	mov    %rbp,0x70(%rsp)
 4b62bb3:	48 8d 6c 24 70       	lea    0x70(%rsp),%rbp
 4b62bb8:	48 89 9c 24 88 00 00 	mov    %rbx,0x88(%rsp)
 4b62bbf:	00 
 4b62bc0:	48 89 84 24 80 00 00 	mov    %rax,0x80(%rsp)
 4b62bc7:	00 
 4b62bc8:	48 8d 05 d1 81 14 01 	lea    0x11481d1(%rip),%rax        # 5caada0 <type:HTxnwVA4@@Base>
 4b62bcf:	e8 0c d9 38 fd       	call   1ef04e0 <runtime.newobject@@Base>
 4b62bd4:	48 89 44 24 68       	mov    %rax,0x68(%rsp)
 4b62bd9:	48 8b 8c 24 80 00 00 	mov    0x80(%rsp),%rcx
 4b62be0:	00 
 4b62be1:	48 8b 51 40          	mov    0x40(%rcx),%rdx
 4b62be5:	48 8b 59 48          	mov    0x48(%rcx),%rbx
 4b62be9:	48 89 5c 24 40       	mov    %rbx,0x40(%rsp)
 4b62bee:	48 8b b4 24 88 00 00 	mov    0x88(%rsp),%rsi
 4b62bf5:	00 
 4b62bf6:	31 ff                	xor    %edi,%edi
 4b62bf8:	eb 0a                	jmp    4b62c04 <github.com/lasselj/timebeat/beater/clocksync/clients/ptpsquared.(*State).ReserveSeat@@Base+0x64>
 4b62bfa:	48 83 c2 28          	add    $0x28,%rdx
 4b62bfe:	48 ff c7             	inc    %rdi
 4b62c01:	4c 89 c0             	mov    %r8,%rax
 4b62c04:	48 39 df             	cmp    %rbx,%rdi
 4b62c07:	0f 8d 69 01 00 00    	jge    4b62d76 <github.com/lasselj/timebeat/beater/clocksync/clients/ptpsquared.(*State).ReserveSeat@@Base+0x1d6>
 4b62c0d:	48 89 7c 24 38       	mov    %rdi,0x38(%rsp)
 4b62c12:	48 89 54 24 60       	mov    %rdx,0x60(%rsp)
 4b62c17:	83 3d 42 8d 31 03 00 	cmpl   $0x0,0x3318d42(%rip)        # 7e7b960 <runtime.writeBarrier@@Base>
 4b62c1e:	66 90                	xchg   %ax,%ax
 4b62c20:	75 18                	jne    4b62c3a <github.com/lasselj/timebeat/beater/clocksync/clients/ptpsquared.(*State).ReserveSeat@@Base+0x9a>
 4b62c22:	4c 8b 02             	mov    (%rdx),%r8
 4b62c25:	4c 89 00             	mov    %r8,(%rax)
 4b62c28:	0f 10 42 08          	movups 0x8(%rdx),%xmm0
 4b62c2c:	0f 11 40 08          	movups %xmm0,0x8(%rax)
 4b62c30:	0f 10 42 18          	movups 0x18(%rdx),%xmm0
 4b62c34:	0f 11 40 18          	movups %xmm0,0x18(%rax)
 4b62c38:	eb 36                	jmp    4b62c70 <github.com/lasselj/timebeat/beater/clocksync/clients/ptpsquared.(*State).ReserveSeat@@Base+0xd0>
 4b62c3a:	48 89 c3             	mov    %rax,%rbx
 4b62c3d:	48 89 d1             	mov    %rdx,%rcx
 4b62c40:	48 8d 05 59 81 14 01 	lea    0x1148159(%rip),%rax        # 5caada0 <type:HTxnwVA4@@Base>
 4b62c47:	e8 f4 41 39 fd       	call   1ef6e40 <runtime.typedmemmove@@Base>
 4b62c4c:	48 8b 44 24 68       	mov    0x68(%rsp),%rax
 4b62c51:	48 8b 8c 24 80 00 00 	mov    0x80(%rsp),%rcx
 4b62c58:	00 
 4b62c59:	48 8b 54 24 60       	mov    0x60(%rsp),%rdx
 4b62c5e:	48 8b 5c 24 40       	mov    0x40(%rsp),%rbx
 4b62c63:	48 8b b4 24 88 00 00 	mov    0x88(%rsp),%rsi
 4b62c6a:	00 
 4b62c6b:	48 8b 7c 24 38       	mov    0x38(%rsp),%rdi
 4b62c70:	49 89 c0             	mov    %rax,%r8
 4b62c73:	31 c0                	xor    %eax,%eax
 4b62c75:	41 b9 01 00 00 00    	mov    $0x1,%r9d
 4b62c7b:	f0 45 0f b1 48 20    	lock cmpxchg %r9d,0x20(%r8)
 4b62c81:	41 0f 94 c2          	sete   %r10b
 4b62c85:	49 8d 40 20          	lea    0x20(%r8),%rax
 4b62c89:	48 89 44 24 48       	mov    %rax,0x48(%rsp)
 4b62c8e:	45 84 d2             	test   %r10b,%r10b
 4b62c91:	75 34                	jne    4b62cc7 <github.com/lasselj/timebeat/beater/clocksync/clients/ptpsquared.(*State).ReserveSeat@@Base+0x127>
 4b62c93:	e8 a8 58 41 fd       	call   1f78540 <sync.(*Mutex).lockSlow@@Base>
 4b62c98:	48 8b 44 24 48       	mov    0x48(%rsp),%rax
 4b62c9d:	48 8b 8c 24 80 00 00 	mov    0x80(%rsp),%rcx
 4b62ca4:	00 
 4b62ca5:	48 8b 54 24 60       	mov    0x60(%rsp),%rdx
 4b62caa:	48 8b 5c 24 40       	mov    0x40(%rsp),%rbx
 4b62caf:	48 8b b4 24 88 00 00 	mov    0x88(%rsp),%rsi
 4b62cb6:	00 
 4b62cb7:	48 8b 7c 24 38       	mov    0x38(%rsp),%rdi
 4b62cbc:	4c 8b 44 24 68       	mov    0x68(%rsp),%r8
 4b62cc1:	41 b9 01 00 00 00    	mov    $0x1,%r9d
 4b62cc7:	4d 8b 50 18          	mov    0x18(%r8),%r10
 4b62ccb:	4d 85 d2             	test   %r10,%r10
 4b62cce:	74 05                	je     4b62cd5 <github.com/lasselj/timebeat/beater/clocksync/clients/ptpsquared.(*State).ReserveSeat@@Base+0x135>
 4b62cd0:	4d 8b 12             	mov    (%r10),%r10
 4b62cd3:	eb 03                	jmp    4b62cd8 <github.com/lasselj/timebeat/beater/clocksync/clients/ptpsquared.(*State).ReserveSeat@@Base+0x138>
 4b62cd5:	45 31 d2             	xor    %r10d,%r10d
 4b62cd8:	4d 8b 58 08          	mov    0x8(%r8),%r11
 4b62cdc:	4d 29 d3             	sub    %r10,%r11
 4b62cdf:	90                   	nop
 4b62ce0:	4d 85 db             	test   %r11,%r11
 4b62ce3:	7e 41                	jle    4b62d26 <github.com/lasselj/timebeat/beater/clocksync/clients/ptpsquared.(*State).ReserveSeat@@Base+0x186>
 4b62ce5:	4c 8b 96 b8 00 00 00 	mov    0xb8(%rsi),%r10
 4b62cec:	4d 39 10             	cmp    %r10,(%r8)
 4b62cef:	7f 35                	jg     4b62d26 <github.com/lasselj/timebeat/beater/clocksync/clients/ptpsquared.(*State).ReserveSeat@@Base+0x186>
 4b62cf1:	4d 8b 50 10          	mov    0x10(%r8),%r10
 4b62cf5:	4d 85 d2             	test   %r10,%r10
 4b62cf8:	74 05                	je     4b62cff <github.com/lasselj/timebeat/beater/clocksync/clients/ptpsquared.(*State).ReserveSeat@@Base+0x15f>
 4b62cfa:	4d 8b 1a             	mov    (%r10),%r11
 4b62cfd:	eb 03                	jmp    4b62d02 <github.com/lasselj/timebeat/beater/clocksync/clients/ptpsquared.(*State).ReserveSeat@@Base+0x162>
 4b62cff:	45 31 db             	xor    %r11d,%r11d
 4b62d02:	4d 85 db             	test   %r11,%r11
 4b62d05:	74 7b                	je     4b62d82 <github.com/lasselj/timebeat/beater/clocksync/clients/ptpsquared.(*State).ReserveSeat@@Base+0x1e2>
 4b62d07:	4c 89 54 24 58       	mov    %r10,0x58(%rsp)
 4b62d0c:	4c 8b 5e 28          	mov    0x28(%rsi),%r11
 4b62d10:	4c 89 5c 24 50       	mov    %r11,0x50(%rsp)
 4b62d15:	4c 8b 66 30          	mov    0x30(%rsi),%r12
 4b62d19:	4c 89 64 24 28       	mov    %r12,0x28(%rsp)
 4b62d1e:	45 31 ed             	xor    %r13d,%r13d
 4b62d21:	e9 61 01 00 00       	jmp    4b62e87 <github.com/lasselj/timebeat/beater/clocksync/clients/ptpsquared.(*State).ReserveSeat@@Base+0x2e7>
 4b62d26:	90                   	nop
 4b62d27:	41 ba ff ff ff ff    	mov    $0xffffffff,%r10d
 4b62d2d:	f0 45 0f c1 50 20    	lock xadd %r10d,0x20(%r8)
 4b62d33:	41 ff ca             	dec    %r10d
 4b62d36:	45 85 d2             	test   %r10d,%r10d
 4b62d39:	0f 84 bb fe ff ff    	je     4b62bfa <github.com/lasselj/timebeat/beater/clocksync/clients/ptpsquared.(*State).ReserveSeat@@Base+0x5a>
 4b62d3f:	44 89 d3             	mov    %r10d,%ebx
 4b62d42:	e8 f9 5a 41 fd       	call   1f78840 <sync.(*Mutex).unlockSlow@@Base>
 4b62d47:	48 8b 8c 24 80 00 00 	mov    0x80(%rsp),%rcx
 4b62d4e:	00 
 4b62d4f:	48 8b 54 24 60       	mov    0x60(%rsp),%rdx
 4b62d54:	48 8b 5c 24 40       	mov    0x40(%rsp),%rbx
 4b62d59:	48 8b b4 24 88 00 00 	mov    0x88(%rsp),%rsi
 4b62d60:	00 
 4b62d61:	48 8b 7c 24 38       	mov    0x38(%rsp),%rdi
 4b62d66:	4c 8b 44 24 68       	mov    0x68(%rsp),%r8
 4b62d6b:	41 b9 01 00 00 00    	mov    $0x1,%r9d
 4b62d71:	e9 84 fe ff ff       	jmp    4b62bfa <github.com/lasselj/timebeat/beater/clocksync/clients/ptpsquared.(*State).ReserveSeat@@Base+0x5a>
 4b62d76:	31 c0                	xor    %eax,%eax
 4b62d78:	48 8b 6c 24 70       	mov    0x70(%rsp),%rbp
 4b62d7d:	48 83 c4 78          	add    $0x78,%rsp
 4b62d81:	c3                   	ret
 4b62d82:	49 8b 58 18          	mov    0x18(%r8),%rbx
 4b62d86:	48 8b 0e             	mov    (%rsi),%rcx
 4b62d89:	48 8b 7e 08          	mov    0x8(%rsi),%rdi
 4b62d8d:	48 8d 05 4c c5 dd 00 	lea    0xddc54c(%rip),%rax        # 593f2e0 <type:m80sCF9S@@Base>
 4b62d94:	e8 47 34 39 fd       	call   1ef61e0 <runtime.mapassign_faststr@@Base>
 4b62d99:	84 00                	test   %al,(%rax)
 4b62d9b:	83 3d be 8b 31 03 00 	cmpl   $0x0,0x3318bbe(%rip)        # 7e7b960 <runtime.writeBarrier@@Base>
 4b62da2:	75 19                	jne    4b62dbd <github.com/lasselj/timebeat/beater/clocksync/clients/ptpsquared.(*State).ReserveSeat@@Base+0x21d>
 4b62da4:	48 8b 8c 24 88 00 00 	mov    0x88(%rsp),%rcx
 4b62dab:	00 
 4b62dac:	48 89 08             	mov    %rcx,(%rax)
 4b62daf:	48 8b 54 24 68       	mov    0x68(%rsp),%rdx
 4b62db4:	48 89 91 b0 00 00 00 	mov    %rdx,0xb0(%rcx)
 4b62dbb:	eb 24                	jmp    4b62de1 <github.com/lasselj/timebeat/beater/clocksync/clients/ptpsquared.(*State).ReserveSeat@@Base+0x241>
 4b62dbd:	48 89 c7             	mov    %rax,%rdi
 4b62dc0:	48 8b 8c 24 88 00 00 	mov    0x88(%rsp),%rcx
 4b62dc7:	00 
 4b62dc8:	e8 33 39 3f fd       	call   1f56700 <runtime.gcWriteBarrierCX@@Base>
 4b62dcd:	48 8d b9 b0 00 00 00 	lea    0xb0(%rcx),%rdi
 4b62dd4:	48 8b 4c 24 68       	mov    0x68(%rsp),%rcx
 4b62dd9:	e8 22 39 3f fd       	call   1f56700 <runtime.gcWriteBarrierCX@@Base>
 4b62dde:	48 89 ca             	mov    %rcx,%rdx
 4b62de1:	90                   	nop
 4b62de2:	bb ff ff ff ff       	mov    $0xffffffff,%ebx
 4b62de7:	f0 0f c1 5a 20       	lock xadd %ebx,0x20(%rdx)
 4b62dec:	ff cb                	dec    %ebx
 4b62dee:	85 db                	test   %ebx,%ebx
 4b62df0:	74 0a                	je     4b62dfc <github.com/lasselj/timebeat/beater/clocksync/clients/ptpsquared.(*State).ReserveSeat@@Base+0x25c>
 4b62df2:	48 8b 44 24 48       	mov    0x48(%rsp),%rax
 4b62df7:	e8 44 5a 41 fd       	call   1f78840 <sync.(*Mutex).unlockSlow@@Base>
 4b62dfc:	48 8b 84 24 80 00 00 	mov    0x80(%rsp),%rax
 4b62e03:	00 
 4b62e04:	e8 77 01 00 00       	call   4b62f80 <github.com/lasselj/timebeat/beater/clocksync/clients/ptpsquared.(*State).CalculateLowestAvailableSeatScore@@Base>
 4b62e09:	48 8b bc 24 80 00 00 	mov    0x80(%rsp),%rdi
 4b62e10:	00 
 4b62e11:	48 89 5f 60          	mov    %rbx,0x60(%rdi)
 4b62e15:	48 89 4f 68          	mov    %rcx,0x68(%rdi)
 4b62e19:	83 3d 40 8b 31 03 00 	cmpl   $0x0,0x3318b40(%rip)        # 7e7b960 <runtime.writeBarrier@@Base>
 4b62e20:	75 06                	jne    4b62e28 <github.com/lasselj/timebeat/beater/clocksync/clients/ptpsquared.(*State).ReserveSeat@@Base+0x288>
 4b62e22:	48 89 47 58          	mov    %rax,0x58(%rdi)
 4b62e26:	eb 09                	jmp    4b62e31 <github.com/lasselj/timebeat/beater/clocksync/clients/ptpsquared.(*State).ReserveSeat@@Base+0x291>
 4b62e28:	48 83 c7 58          	add    $0x58,%rdi
 4b62e2c:	e8 cf 37 3f fd       	call   1f56600 <runtime.gcWriteBarrier@@Base>
 4b62e31:	b8 01 00 00 00       	mov    $0x1,%eax
 4b62e36:	48 8b 6c 24 70       	mov    0x70(%rsp),%rbp
 4b62e3b:	48 83 c4 78          	add    $0x78,%rsp
 4b62e3f:	90                   	nop
 4b62e40:	c3                   	ret
 4b62e41:	4c 8b 6c 24 30       	mov    0x30(%rsp),%r13
 4b62e46:	49 ff c5             	inc    %r13
 4b62e49:	48 8b 44 24 48       	mov    0x48(%rsp),%rax
 4b62e4e:	48 8b 8c 24 80 00 00 	mov    0x80(%rsp),%rcx
 4b62e55:	00 
 4b62e56:	48 8b 54 24 60       	mov    0x60(%rsp),%rdx
 4b62e5b:	48 8b 5c 24 40       	mov    0x40(%rsp),%rbx
 4b62e60:	48 8b b4 24 88 00 00 	mov    0x88(%rsp),%rsi
 4b62e67:	00 
 4b62e68:	48 8b 7c 24 38       	mov    0x38(%rsp),%rdi
 4b62e6d:	4c 8b 44 24 68       	mov    0x68(%rsp),%r8
 4b62e72:	41 b9 01 00 00 00    	mov    $0x1,%r9d
 4b62e78:	4c 8b 54 24 58       	mov    0x58(%rsp),%r10
 4b62e7d:	4c 8b 5c 24 50       	mov    0x50(%rsp),%r11
 4b62e82:	4c 8b 64 24 28       	mov    0x28(%rsp),%r12
 4b62e87:	4d 39 e5             	cmp    %r12,%r13
 4b62e8a:	7d 6e                	jge    4b62efa <github.com/lasselj/timebeat/beater/clocksync/clients/ptpsquared.(*State).ReserveSeat@@Base+0x35a>
 4b62e8c:	4c 89 6c 24 30       	mov    %r13,0x30(%rsp)
 4b62e91:	43 8b 0c ab          	mov    (%r11,%r13,4),%ecx
 4b62e95:	89 4c 24 24          	mov    %ecx,0x24(%rsp)
 4b62e99:	48 8d 05 80 e3 de 00 	lea    0xdee380(%rip),%rax        # 5951220 <type:xOEi4ZnN@@Base>
 4b62ea0:	4c 89 d3             	mov    %r10,%rbx
 4b62ea3:	e8 18 0d 39 fd       	call   1ef3bc0 <runtime.mapaccess2_fast32@@Base>
 4b62ea8:	84 db                	test   %bl,%bl
 4b62eaa:	74 95                	je     4b62e41 <github.com/lasselj/timebeat/beater/clocksync/clients/ptpsquared.(*State).ReserveSeat@@Base+0x2a1>
 4b62eac:	48 8d 05 6d 9d c6 00 	lea    0xc69d6d(%rip),%rax        # 57ccc20 <type:[1]uint32@@Base>
 4b62eb3:	e8 28 d6 38 fd       	call   1ef04e0 <runtime.newobject@@Base>
 4b62eb8:	8b 4c 24 24          	mov    0x24(%rsp),%ecx
 4b62ebc:	89 08                	mov    %ecx,(%rax)
 4b62ebe:	48 8b 4c 24 30       	mov    0x30(%rsp),%rcx
 4b62ec3:	48 8b 54 24 28       	mov    0x28(%rsp),%rdx
 4b62ec8:	48 39 d1             	cmp    %rdx,%rcx
 4b62ecb:	48 8b 44 24 48       	mov    0x48(%rsp),%rax
 4b62ed0:	48 8b 8c 24 80 00 00 	mov    0x80(%rsp),%rcx
 4b62ed7:	00 
 4b62ed8:	48 8b 54 24 60       	mov    0x60(%rsp),%rdx
 4b62edd:	48 8b 5c 24 40       	mov    0x40(%rsp),%rbx
 4b62ee2:	48 8b b4 24 88 00 00 	mov    0x88(%rsp),%rsi
 4b62ee9:	00 
 4b62eea:	48 8b 7c 24 38       	mov    0x38(%rsp),%rdi
 4b62eef:	4c 8b 44 24 68       	mov    0x68(%rsp),%r8
 4b62ef4:	41 b9 01 00 00 00    	mov    $0x1,%r9d
 4b62efa:	66 0f 1f 44 00 00    	nopw   0x0(%rax,%rax,1)
 4b62f00:	0f 8c 7c fe ff ff    	jl     4b62d82 <github.com/lasselj/timebeat/beater/clocksync/clients/ptpsquared.(*State).ReserveSeat@@Base+0x1e2>
 4b62f06:	90                   	nop
 4b62f07:	41 ba ff ff ff ff    	mov    $0xffffffff,%r10d
 4b62f0d:	f0 45 0f c1 50 20    	lock xadd %r10d,0x20(%r8)
 4b62f13:	41 ff ca             	dec    %r10d
 4b62f16:	45 85 d2             	test   %r10d,%r10d
 4b62f19:	0f 84 db fc ff ff    	je     4b62bfa <github.com/lasselj/timebeat/beater/clocksync/clients/ptpsquared.(*State).ReserveSeat@@Base+0x5a>
 4b62f1f:	44 89 d3             	mov    %r10d,%ebx
 4b62f22:	e8 19 59 41 fd       	call   1f78840 <sync.(*Mutex).unlockSlow@@Base>
 4b62f27:	48 8b 8c 24 80 00 00 	mov    0x80(%rsp),%rcx
 4b62f2e:	00 
 4b62f2f:	48 8b 54 24 60       	mov    0x60(%rsp),%rdx
 4b62f34:	48 8b 5c 24 40       	mov    0x40(%rsp),%rbx
 4b62f39:	48 8b b4 24 88 00 00 	mov    0x88(%rsp),%rsi
 4b62f40:	00 
 4b62f41:	48 8b 7c 24 38       	mov    0x38(%rsp),%rdi
 4b62f46:	4c 8b 44 24 68       	mov    0x68(%rsp),%r8
 4b62f4b:	41 b9 01 00 00 00    	mov    $0x1,%r9d
 4b62f51:	e9 a4 fc ff ff       	jmp    4b62bfa <github.com/lasselj/timebeat/beater/clocksync/clients/ptpsquared.(*State).ReserveSeat@@Base+0x5a>
 4b62f56:	48 89 44 24 08       	mov    %rax,0x8(%rsp)
 4b62f5b:	48 89 5c 24 10       	mov    %rbx,0x10(%rsp)
 4b62f60:	e8 fb 14 3f fd       	call   1f54460 <runtime.morestack_noctxt.abi0@@Base>
 4b62f65:	48 8b 44 24 08       	mov    0x8(%rsp),%rax
 4b62f6a:	48 8b 5c 24 10       	mov    0x10(%rsp),%rbx
 4b62f6f:	e9 2c fc ff ff       	jmp    4b62ba0 <github.com/lasselj/timebeat/beater/clocksync/clients/ptpsquared.(*State).ReserveSeat@@Base>
 4b62f74:	cc                   	int3
 4b62f75:	cc                   	int3
 4b62f76:	cc                   	int3
 4b62f77:	cc                   	int3
 4b62f78:	cc                   	int3
 4b62f79:	cc                   	int3
 4b62f7a:	cc                   	int3
 4b62f7b:	cc                   	int3
 4b62f7c:	cc                   	int3
 4b62f7d:	cc                   	int3
 4b62f7e:	cc                   	int3
 4b62f7f:	cc                   	int3
