# github.com/lasselj/timebeat/beater/clocksync/taas.(*Controller).createVRF
# addr 0x4be9e20 size 1216 (0x4c0)


/mnt/c/Users/SHIWA/GitHub/TimeCard-Mini/timebeat-extracted/usr/share/timebeat/bin/timebeat:     file format elf64-x86-64


Disassembly of section .text:

0000000004be9e20 <github.com/lasselj/timebeat/beater/clocksync/taas.(*Controller).createVRF@@Base>:
 4be9e20:	4c 8d a4 24 00 ff ff 	lea    -0x100(%rsp),%r12
 4be9e27:	ff 
 4be9e28:	4d 3b 66 10          	cmp    0x10(%r14),%r12
 4be9e2c:	0f 86 10 03 00 00    	jbe    4bea142 <github.com/lasselj/timebeat/beater/clocksync/taas.(*Controller).createVRF@@Base+0x322>
 4be9e32:	48 81 ec 80 01 00 00 	sub    $0x180,%rsp
 4be9e39:	48 89 ac 24 78 01 00 	mov    %rbp,0x178(%rsp)
 4be9e40:	00 
 4be9e41:	48 8d ac 24 78 01 00 	lea    0x178(%rsp),%rbp
 4be9e48:	00 
 4be9e49:	48 89 9c 24 90 01 00 	mov    %rbx,0x190(%rsp)
 4be9e50:	00 
 4be9e51:	48 89 84 24 88 01 00 	mov    %rax,0x188(%rsp)
 4be9e58:	00 
 4be9e59:	48 89 bc 24 a0 01 00 	mov    %rdi,0x1a0(%rsp)
 4be9e60:	00 
 4be9e61:	44 0f 11 7c 24 70    	movups %xmm15,0x70(%rsp)
 4be9e67:	48 8d 7c 24 78       	lea    0x78(%rsp),%rdi
 4be9e6c:	48 89 6c 24 f0       	mov    %rbp,-0x10(%rsp)
 4be9e71:	48 8d 6c 24 f0       	lea    -0x10(%rsp),%rbp
 4be9e76:	e8 19 cf 36 fd       	call   1f56d94 <runtime.duffzero@@Base+0x114>
 4be9e7b:	48 8b 6d 00          	mov    0x0(%rbp),%rbp
 4be9e7f:	48 c7 84 24 80 00 00 	movq   $0xffffffffffffffff,0x80(%rsp)
 4be9e86:	00 ff ff ff ff 
 4be9e8b:	44 0f 11 7c 24 50    	movups %xmm15,0x50(%rsp)
 4be9e91:	44 0f 11 7c 24 60    	movups %xmm15,0x60(%rsp)
 4be9e97:	48 8d 35 02 48 bc 00 	lea    0xbc4802(%rip),%rsi        # 57ae6a0 <type:string@@Base>
 4be9e9e:	48 89 74 24 50       	mov    %rsi,0x50(%rsp)
 4be9ea3:	4c 8d 05 9e 93 30 01 	lea    0x130939e(%rip),%r8        # 5ef3248 <time..dict.leadingInt[string]@@Base+0x2fb8>
 4be9eaa:	4c 89 44 24 58       	mov    %r8,0x58(%rsp)
 4be9eaf:	48 89 d8             	mov    %rbx,%rax
 4be9eb2:	48 89 cb             	mov    %rcx,%rbx
 4be9eb5:	e8 a6 3e 30 fd       	call   1eedd60 <runtime.convTstring@@Base>
 4be9eba:	48 8d 0d df 47 bc 00 	lea    0xbc47df(%rip),%rcx        # 57ae6a0 <type:string@@Base>
 4be9ec1:	48 89 4c 24 60       	mov    %rcx,0x60(%rsp)
 4be9ec6:	48 89 44 24 68       	mov    %rax,0x68(%rsp)
 4be9ecb:	48 8d 05 d7 ca 04 00 	lea    0x4cad7(%rip),%rax        # 4c369a9 <_IO_stdin_used@@Base+0x39a9>
 4be9ed2:	bb 05 00 00 00       	mov    $0x5,%ebx
 4be9ed7:	bf 02 00 00 00       	mov    $0x2,%edi
 4be9edc:	48 89 fe             	mov    %rdi,%rsi
 4be9edf:	48 8d 4c 24 50       	lea    0x50(%rsp),%rcx
 4be9ee4:	e8 17 aa 40 fd       	call   1ff4900 <fmt.Sprintf@@Base>
 4be9ee9:	48 89 84 24 88 00 00 	mov    %rax,0x88(%rsp)
 4be9ef0:	00 
 4be9ef1:	48 89 9c 24 90 00 00 	mov    %rbx,0x90(%rsp)
 4be9ef8:	00 
 4be9ef9:	48 8d 05 a0 3b f3 00 	lea    0xf33ba0(%rip),%rax        # 5b1daa0 <type:8LYlLCut@@Base>
 4be9f00:	e8 db 65 30 fd       	call   1ef04e0 <runtime.newobject@@Base>
 4be9f05:	48 89 44 24 38       	mov    %rax,0x38(%rsp)
 4be9f0a:	83 3d 4f 1a 29 03 00 	cmpl   $0x0,0x3291a4f(%rip)        # 7e7b960 <runtime.writeBarrier@@Base>
 4be9f11:	75 26                	jne    4be9f39 <github.com/lasselj/timebeat/beater/clocksync/taas.(*Controller).createVRF@@Base+0x119>
 4be9f13:	48 8b 54 24 70       	mov    0x70(%rsp),%rdx
 4be9f18:	48 89 10             	mov    %rdx,(%rax)
 4be9f1b:	48 8d 78 08          	lea    0x8(%rax),%rdi
 4be9f1f:	48 8d 74 24 78       	lea    0x78(%rsp),%rsi
 4be9f24:	48 89 6c 24 f0       	mov    %rbp,-0x10(%rsp)
 4be9f29:	48 8d 6c 24 f0       	lea    -0x10(%rsp),%rbp
 4be9f2e:	e8 6d d1 36 fd       	call   1f570a0 <runtime.duffcopy@@Base+0x2a0>
 4be9f33:	48 8b 6d 00          	mov    0x0(%rbp),%rbp
 4be9f37:	eb 19                	jmp    4be9f52 <github.com/lasselj/timebeat/beater/clocksync/taas.(*Controller).createVRF@@Base+0x132>
 4be9f39:	48 89 c3             	mov    %rax,%rbx
 4be9f3c:	48 8d 4c 24 70       	lea    0x70(%rsp),%rcx
 4be9f41:	48 8d 05 d8 51 28 01 	lea    0x12851d8(%rip),%rax        # 5e6f120 <type:rEqxYaeR@@Base>
 4be9f48:	e8 f3 ce 30 fd       	call   1ef6e40 <runtime.typedmemmove@@Base>
 4be9f4d:	48 8b 44 24 38       	mov    0x38(%rsp),%rax
 4be9f52:	48 8b 94 24 a0 01 00 	mov    0x1a0(%rsp),%rdx
 4be9f59:	00 
 4be9f5a:	89 90 08 01 00 00    	mov    %edx,0x108(%rax)
 4be9f60:	48 8b 9c 24 88 00 00 	mov    0x88(%rsp),%rbx
 4be9f67:	00 
 4be9f68:	48 8b 8c 24 90 00 00 	mov    0x90(%rsp),%rcx
 4be9f6f:	00 
 4be9f70:	48 8b 15 79 4a d9 02 	mov    0x2d94a79(%rip),%rdx        # 797e9f0 <github.com/vishvananda/netlink.pkgHandle@@Base>
 4be9f77:	48 89 d0             	mov    %rdx,%rax
 4be9f7a:	e8 e1 73 fe ff       	call   4bd1360 <github.com/vishvananda/netlink.(*Handle).LinkByName@@Base>
 4be9f7f:	90                   	nop
 4be9f80:	48 85 c9             	test   %rcx,%rcx
 4be9f83:	0f 85 ca 00 00 00    	jne    4bea053 <github.com/lasselj/timebeat/beater/clocksync/taas.(*Controller).createVRF@@Base+0x233>
 4be9f89:	90                   	nop
 4be9f8a:	48 8b 15 5f 4a d9 02 	mov    0x2d94a5f(%rip),%rdx        # 797e9f0 <github.com/vishvananda/netlink.pkgHandle@@Base>
 4be9f91:	48 89 d9             	mov    %rbx,%rcx
 4be9f94:	48 89 c3             	mov    %rax,%rbx
 4be9f97:	48 89 d0             	mov    %rdx,%rax
 4be9f9a:	e8 01 70 fe ff       	call   4bd0fa0 <github.com/vishvananda/netlink.(*Handle).LinkDel@@Base>
 4be9f9f:	90                   	nop
 4be9fa0:	48 85 c0             	test   %rax,%rax
 4be9fa3:	0f 84 aa 00 00 00    	je     4bea053 <github.com/lasselj/timebeat/beater/clocksync/taas.(*Controller).createVRF@@Base+0x233>
 4be9fa9:	48 8b 48 18          	mov    0x18(%rax),%rcx
 4be9fad:	48 89 d8             	mov    %rbx,%rax
 4be9fb0:	ff d1                	call   *%rcx
 4be9fb2:	48 89 44 24 48       	mov    %rax,0x48(%rsp)
 4be9fb7:	48 89 5c 24 30       	mov    %rbx,0x30(%rsp)
 4be9fbc:	44 0f 11 7c 24 50    	movups %xmm15,0x50(%rsp)
 4be9fc2:	44 0f 11 7c 24 60    	movups %xmm15,0x60(%rsp)
 4be9fc8:	48 8b 8c 24 88 00 00 	mov    0x88(%rsp),%rcx
 4be9fcf:	00 
 4be9fd0:	48 8b 94 24 90 00 00 	mov    0x90(%rsp),%rdx
 4be9fd7:	00 
 4be9fd8:	48 89 c8             	mov    %rcx,%rax
 4be9fdb:	48 89 d3             	mov    %rdx,%rbx
 4be9fde:	66 90                	xchg   %ax,%ax
 4be9fe0:	e8 7b 3d 30 fd       	call   1eedd60 <runtime.convTstring@@Base>
 4be9fe5:	48 8d 0d b4 46 bc 00 	lea    0xbc46b4(%rip),%rcx        # 57ae6a0 <type:string@@Base>
 4be9fec:	48 89 4c 24 50       	mov    %rcx,0x50(%rsp)
 4be9ff1:	48 89 44 24 58       	mov    %rax,0x58(%rsp)
 4be9ff6:	48 8b 44 24 48       	mov    0x48(%rsp),%rax
 4be9ffb:	48 8b 5c 24 30       	mov    0x30(%rsp),%rbx
 4bea000:	e8 5b 3d 30 fd       	call   1eedd60 <runtime.convTstring@@Base>
 4bea005:	48 8d 0d 94 46 bc 00 	lea    0xbc4694(%rip),%rcx        # 57ae6a0 <type:string@@Base>
 4bea00c:	48 89 4c 24 60       	mov    %rcx,0x60(%rsp)
 4bea011:	48 89 44 24 68       	mov    %rax,0x68(%rsp)
 4bea016:	48 8d 05 66 1e 27 00 	lea    0x271e66(%rip),%rax        # 4e5be83 <_IO_stdin_used@@Base+0x228e83>
 4bea01d:	bb 3b 00 00 00       	mov    $0x3b,%ebx
 4bea022:	bf 02 00 00 00       	mov    $0x2,%edi
 4bea027:	48 89 fe             	mov    %rdi,%rsi
 4bea02a:	48 8d 4c 24 50       	lea    0x50(%rsp),%rcx
 4bea02f:	e8 cc a8 40 fd       	call   1ff4900 <fmt.Sprintf@@Base>
 4bea034:	48 8b 8c 24 88 01 00 	mov    0x188(%rsp),%rcx
 4bea03b:	00 
 4bea03c:	48 8b 11             	mov    (%rcx),%rdx
 4bea03f:	48 89 c6             	mov    %rax,%rsi
 4bea042:	48 89 d0             	mov    %rdx,%rax
 4bea045:	48 89 df             	mov    %rbx,%rdi
 4bea048:	48 89 f3             	mov    %rsi,%rbx
 4bea04b:	48 89 f9             	mov    %rdi,%rcx
 4bea04e:	e8 4d d1 81 ff       	call   44071a0 <github.com/lasselj/timebeat/beater/logging.(*Logger).Warn@@Base>
 4bea053:	48 8b 05 96 49 d9 02 	mov    0x2d94996(%rip),%rax        # 797e9f0 <github.com/vishvananda/netlink.pkgHandle@@Base>
 4bea05a:	48 8d 1d 6f 6a 33 01 	lea    0x1336a6f(%rip),%rbx        # 5f20ad0 <go:itab.*github.com/vishvananda/netlink.Vrf,github.com/vishvananda/netlink.Link@@Base>
 4bea061:	48 8b 4c 24 38       	mov    0x38(%rsp),%rcx
 4bea066:	bf 04 06 00 00       	mov    $0x604,%edi
 4bea06b:	e8 30 36 fe ff       	call   4bcd6a0 <github.com/vishvananda/netlink.(*Handle).linkModify@@Base>
 4bea070:	48 85 c0             	test   %rax,%rax
 4bea073:	0f 84 9b 00 00 00    	je     4bea114 <github.com/lasselj/timebeat/beater/clocksync/taas.(*Controller).createVRF@@Base+0x2f4>
 4bea079:	48 89 5c 24 40       	mov    %rbx,0x40(%rsp)
 4bea07e:	48 89 44 24 28       	mov    %rax,0x28(%rsp)
 4bea083:	44 0f 11 7c 24 50    	movups %xmm15,0x50(%rsp)
 4bea089:	44 0f 11 7c 24 60    	movups %xmm15,0x60(%rsp)
 4bea08f:	48 8b 84 24 88 00 00 	mov    0x88(%rsp),%rax
 4bea096:	00 
 4bea097:	48 8b 9c 24 90 00 00 	mov    0x90(%rsp),%rbx
 4bea09e:	00 
 4bea09f:	90                   	nop
 4bea0a0:	e8 bb 3c 30 fd       	call   1eedd60 <runtime.convTstring@@Base>
 4bea0a5:	48 8d 0d f4 45 bc 00 	lea    0xbc45f4(%rip),%rcx        # 57ae6a0 <type:string@@Base>
 4bea0ac:	48 89 4c 24 50       	mov    %rcx,0x50(%rsp)
 4bea0b1:	48 89 44 24 58       	mov    %rax,0x58(%rsp)
 4bea0b6:	48 8b 4c 24 28       	mov    0x28(%rsp),%rcx
 4bea0bb:	0f 1f 44 00 00       	nopl   0x0(%rax,%rax,1)
 4bea0c0:	48 85 c9             	test   %rcx,%rcx
 4bea0c3:	74 06                	je     4bea0cb <github.com/lasselj/timebeat/beater/clocksync/taas.(*Controller).createVRF@@Base+0x2ab>
 4bea0c5:	48 8b 41 08          	mov    0x8(%rcx),%rax
 4bea0c9:	eb 03                	jmp    4bea0ce <github.com/lasselj/timebeat/beater/clocksync/taas.(*Controller).createVRF@@Base+0x2ae>
 4bea0cb:	48 89 c8             	mov    %rcx,%rax
 4bea0ce:	48 89 44 24 60       	mov    %rax,0x60(%rsp)
 4bea0d3:	48 8b 54 24 40       	mov    0x40(%rsp),%rdx
 4bea0d8:	48 89 54 24 68       	mov    %rdx,0x68(%rsp)
 4bea0dd:	48 8d 05 48 34 1e 00 	lea    0x1e3448(%rip),%rax        # 4dcd52c <_IO_stdin_used@@Base+0x19a52c>
 4bea0e4:	bb 15 00 00 00       	mov    $0x15,%ebx
 4bea0e9:	48 8d 4c 24 50       	lea    0x50(%rsp),%rcx
 4bea0ee:	bf 02 00 00 00       	mov    $0x2,%edi
 4bea0f3:	48 89 fe             	mov    %rdi,%rsi
 4bea0f6:	e8 05 a8 40 fd       	call   1ff4900 <fmt.Sprintf@@Base>
 4bea0fb:	48 8b 94 24 88 01 00 	mov    0x188(%rsp),%rdx
 4bea102:	00 
 4bea103:	48 8b 12             	mov    (%rdx),%rdx
 4bea106:	48 89 d9             	mov    %rbx,%rcx
 4bea109:	48 89 c3             	mov    %rax,%rbx
 4bea10c:	48 89 d0             	mov    %rdx,%rax
 4bea10f:	e8 4c cf 81 ff       	call   4407060 <github.com/lasselj/timebeat/beater/logging.(*Logger).Error@@Base>
 4bea114:	90                   	nop
 4bea115:	48 8b 05 d4 48 d9 02 	mov    0x2d948d4(%rip),%rax        # 797e9f0 <github.com/vishvananda/netlink.pkgHandle@@Base>
 4bea11c:	48 8d 1d ad 69 33 01 	lea    0x13369ad(%rip),%rbx        # 5f20ad0 <go:itab.*github.com/vishvananda/netlink.Vrf,github.com/vishvananda/netlink.Link@@Base>
 4bea123:	48 8b 4c 24 38       	mov    0x38(%rsp),%rcx
 4bea128:	e8 b3 e3 fd ff       	call   4bc84e0 <github.com/vishvananda/netlink.(*Handle).LinkSetUp@@Base>
 4bea12d:	48 8b 44 24 38       	mov    0x38(%rsp),%rax
 4bea132:	48 8b ac 24 78 01 00 	mov    0x178(%rsp),%rbp
 4bea139:	00 
 4bea13a:	48 81 c4 80 01 00 00 	add    $0x180,%rsp
 4bea141:	c3                   	ret
 4bea142:	48 89 44 24 08       	mov    %rax,0x8(%rsp)
 4bea147:	48 89 5c 24 10       	mov    %rbx,0x10(%rsp)
 4bea14c:	48 89 4c 24 18       	mov    %rcx,0x18(%rsp)
 4bea151:	48 89 7c 24 20       	mov    %rdi,0x20(%rsp)
 4bea156:	e8 05 a3 36 fd       	call   1f54460 <runtime.morestack_noctxt.abi0@@Base>
 4bea15b:	48 8b 44 24 08       	mov    0x8(%rsp),%rax
 4bea160:	48 8b 5c 24 10       	mov    0x10(%rsp),%rbx
 4bea165:	48 8b 4c 24 18       	mov    0x18(%rsp),%rcx
 4bea16a:	48 8b 7c 24 20       	mov    0x20(%rsp),%rdi
 4bea16f:	e9 ac fc ff ff       	jmp    4be9e20 <github.com/lasselj/timebeat/beater/clocksync/taas.(*Controller).createVRF@@Base>
 4bea174:	cc                   	int3
 4bea175:	cc                   	int3
 4bea176:	cc                   	int3
 4bea177:	cc                   	int3
 4bea178:	cc                   	int3
 4bea179:	cc                   	int3
 4bea17a:	cc                   	int3
 4bea17b:	cc                   	int3
 4bea17c:	cc                   	int3
 4bea17d:	cc                   	int3
 4bea17e:	cc                   	int3
 4bea17f:	cc                   	int3

0000000004bea180 <github.com/lasselj/timebeat/beater/clocksync/taas.(*TaasOrigin).Type@@Base>:
 4bea180:	48 8b 40 10          	mov    0x10(%rax),%rax
 4bea184:	c3                   	ret
 4bea185:	cc                   	int3
 4bea186:	cc                   	int3
 4bea187:	cc                   	int3
 4bea188:	cc                   	int3
 4bea189:	cc                   	int3
 4bea18a:	cc                   	int3
 4bea18b:	cc                   	int3
 4bea18c:	cc                   	int3
 4bea18d:	cc                   	int3
 4bea18e:	cc                   	int3
 4bea18f:	cc                   	int3
 4bea190:	cc                   	int3
 4bea191:	cc                   	int3
 4bea192:	cc                   	int3
 4bea193:	cc                   	int3
 4bea194:	cc                   	int3
 4bea195:	cc                   	int3
 4bea196:	cc                   	int3
 4bea197:	cc                   	int3
 4bea198:	cc                   	int3
 4bea199:	cc                   	int3
 4bea19a:	cc                   	int3
 4bea19b:	cc                   	int3
 4bea19c:	cc                   	int3
 4bea19d:	cc                   	int3
 4bea19e:	cc                   	int3
 4bea19f:	cc                   	int3

0000000004bea1a0 <github.com/lasselj/timebeat/beater/clocksync/taas.(*TaasOrigin).Name@@Base>:
 4bea1a0:	48 8b 08             	mov    (%rax),%rcx
 4bea1a3:	48 8b 58 08          	mov    0x8(%rax),%rbx
 4bea1a7:	48 89 c8             	mov    %rcx,%rax
 4bea1aa:	c3                   	ret
 4bea1ab:	cc                   	int3
 4bea1ac:	cc                   	int3
 4bea1ad:	cc                   	int3
 4bea1ae:	cc                   	int3
 4bea1af:	cc                   	int3
 4bea1b0:	cc                   	int3
 4bea1b1:	cc                   	int3
 4bea1b2:	cc                   	int3
 4bea1b3:	cc                   	int3
 4bea1b4:	cc                   	int3
 4bea1b5:	cc                   	int3
 4bea1b6:	cc                   	int3
 4bea1b7:	cc                   	int3
 4bea1b8:	cc                   	int3
 4bea1b9:	cc                   	int3
 4bea1ba:	cc                   	int3
 4bea1bb:	cc                   	int3
 4bea1bc:	cc                   	int3
 4bea1bd:	cc                   	int3
 4bea1be:	cc                   	int3
 4bea1bf:	cc                   	int3

0000000004bea1c0 <github.com/lasselj/timebeat/beater/clocksync/taas.(*TaasOrigin).Description@@Base>:
 4bea1c0:	48 8b 48 18          	mov    0x18(%rax),%rcx
 4bea1c4:	48 8b 58 20          	mov    0x20(%rax),%rbx
 4bea1c8:	48 89 c8             	mov    %rcx,%rax
 4bea1cb:	c3                   	ret
 4bea1cc:	cc                   	int3
 4bea1cd:	cc                   	int3
 4bea1ce:	cc                   	int3
 4bea1cf:	cc                   	int3
 4bea1d0:	cc                   	int3
 4bea1d1:	cc                   	int3
 4bea1d2:	cc                   	int3
 4bea1d3:	cc                   	int3
 4bea1d4:	cc                   	int3
 4bea1d5:	cc                   	int3
 4bea1d6:	cc                   	int3
 4bea1d7:	cc                   	int3
 4bea1d8:	cc                   	int3
 4bea1d9:	cc                   	int3
 4bea1da:	cc                   	int3
 4bea1db:	cc                   	int3
 4bea1dc:	cc                   	int3
 4bea1dd:	cc                   	int3
 4bea1de:	cc                   	int3
 4bea1df:	cc                   	int3

0000000004bea1e0 <github.com/lasselj/timebeat/beater/clocksync/taas.(*TaasOrigin).Vlan@@Base>:
 4bea1e0:	48 8b 40 28          	mov    0x28(%rax),%rax
 4bea1e4:	c3                   	ret
 4bea1e5:	cc                   	int3
 4bea1e6:	cc                   	int3
 4bea1e7:	cc                   	int3
 4bea1e8:	cc                   	int3
 4bea1e9:	cc                   	int3
 4bea1ea:	cc                   	int3
 4bea1eb:	cc                   	int3
 4bea1ec:	cc                   	int3
 4bea1ed:	cc                   	int3
 4bea1ee:	cc                   	int3
 4bea1ef:	cc                   	int3
 4bea1f0:	cc                   	int3
 4bea1f1:	cc                   	int3
 4bea1f2:	cc                   	int3
 4bea1f3:	cc                   	int3
 4bea1f4:	cc                   	int3
 4bea1f5:	cc                   	int3
 4bea1f6:	cc                   	int3
 4bea1f7:	cc                   	int3
 4bea1f8:	cc                   	int3
 4bea1f9:	cc                   	int3
 4bea1fa:	cc                   	int3
 4bea1fb:	cc                   	int3
 4bea1fc:	cc                   	int3
 4bea1fd:	cc                   	int3
 4bea1fe:	cc                   	int3
 4bea1ff:	cc                   	int3

0000000004bea200 <github.com/lasselj/timebeat/beater/clocksync/taas.(*TaasOrigin).Iface@@Base>:
 4bea200:	48 8b 48 30          	mov    0x30(%rax),%rcx
 4bea204:	48 8b 58 38          	mov    0x38(%rax),%rbx
 4bea208:	48 89 c8             	mov    %rcx,%rax
 4bea20b:	c3                   	ret
 4bea20c:	cc                   	int3
 4bea20d:	cc                   	int3
 4bea20e:	cc                   	int3
 4bea20f:	cc                   	int3
 4bea210:	cc                   	int3
 4bea211:	cc                   	int3
 4bea212:	cc                   	int3
 4bea213:	cc                   	int3
 4bea214:	cc                   	int3
 4bea215:	cc                   	int3
 4bea216:	cc                   	int3
 4bea217:	cc                   	int3
 4bea218:	cc                   	int3
 4bea219:	cc                   	int3
 4bea21a:	cc                   	int3
 4bea21b:	cc                   	int3
 4bea21c:	cc                   	int3
 4bea21d:	cc                   	int3
 4bea21e:	cc                   	int3
 4bea21f:	cc                   	int3

0000000004bea220 <github.com/lasselj/timebeat/beater/clocksync/taas.(*TaasOrigin).Identifier@@Base>:
 4bea220:	48 8b 48 40          	mov    0x40(%rax),%rcx
 4bea224:	48 8b 58 48          	mov    0x48(%rax),%rbx
 4bea228:	48 89 c8             	mov    %rcx,%rax
 4bea22b:	c3                   	ret
 4bea22c:	cc                   	int3
 4bea22d:	cc                   	int3
 4bea22e:	cc                   	int3
 4bea22f:	cc                   	int3
 4bea230:	cc                   	int3
 4bea231:	cc                   	int3
 4bea232:	cc                   	int3
 4bea233:	cc                   	int3
 4bea234:	cc                   	int3
 4bea235:	cc                   	int3
 4bea236:	cc                   	int3
 4bea237:	cc                   	int3
 4bea238:	cc                   	int3
 4bea239:	cc                   	int3
 4bea23a:	cc                   	int3
 4bea23b:	cc                   	int3
 4bea23c:	cc                   	int3
 4bea23d:	cc                   	int3
 4bea23e:	cc                   	int3
 4bea23f:	cc                   	int3

0000000004bea240 <github.com/lasselj/timebeat/beater/clocksync/taas.(*TaasOrigin).AddToIdentifier@@Base>:
 4bea240:	49 3b 66 10          	cmp    0x10(%r14),%rsp
 4bea244:	76 5e                	jbe    4bea2a4 <github.com/lasselj/timebeat/beater/clocksync/taas.(*TaasOrigin).AddToIdentifier@@Base+0x64>
 4bea246:	48 83 ec 30          	sub    $0x30,%rsp
 4bea24a:	48 89 6c 24 28       	mov    %rbp,0x28(%rsp)
 4bea24f:	48 8d 6c 24 28       	lea    0x28(%rsp),%rbp
 4bea254:	48 89 5c 24 40       	mov    %rbx,0x40(%rsp)
 4bea259:	48 89 44 24 38       	mov    %rax,0x38(%rsp)
 4bea25e:	48 8b 50 40          	mov    0x40(%rax),%rdx
 4bea262:	4c 8b 40 48          	mov    0x48(%rax),%r8
 4bea266:	48 89 df             	mov    %rbx,%rdi
 4bea269:	48 89 ce             	mov    %rcx,%rsi
 4bea26c:	48 89 d3             	mov    %rdx,%rbx
 4bea26f:	4c 89 c1             	mov    %r8,%rcx
 4bea272:	31 c0                	xor    %eax,%eax
 4bea274:	e8 a7 00 35 fd       	call   1f3a320 <runtime.concatstring2@@Base>
 4bea279:	48 8b 7c 24 38       	mov    0x38(%rsp),%rdi
 4bea27e:	48 89 5f 48          	mov    %rbx,0x48(%rdi)
 4bea282:	83 3d d7 16 29 03 00 	cmpl   $0x0,0x32916d7(%rip)        # 7e7b960 <runtime.writeBarrier@@Base>
 4bea289:	75 06                	jne    4bea291 <github.com/lasselj/timebeat/beater/clocksync/taas.(*TaasOrigin).AddToIdentifier@@Base+0x51>
 4bea28b:	48 89 47 40          	mov    %rax,0x40(%rdi)
 4bea28f:	eb 09                	jmp    4bea29a <github.com/lasselj/timebeat/beater/clocksync/taas.(*TaasOrigin).AddToIdentifier@@Base+0x5a>
 4bea291:	48 83 c7 40          	add    $0x40,%rdi
 4bea295:	e8 66 c3 36 fd       	call   1f56600 <runtime.gcWriteBarrier@@Base>
 4bea29a:	48 8b 6c 24 28       	mov    0x28(%rsp),%rbp
 4bea29f:	48 83 c4 30          	add    $0x30,%rsp
 4bea2a3:	c3                   	ret
 4bea2a4:	48 89 44 24 08       	mov    %rax,0x8(%rsp)
 4bea2a9:	48 89 5c 24 10       	mov    %rbx,0x10(%rsp)
 4bea2ae:	48 89 4c 24 18       	mov    %rcx,0x18(%rsp)
 4bea2b3:	e8 a8 a1 36 fd       	call   1f54460 <runtime.morestack_noctxt.abi0@@Base>
 4bea2b8:	48 8b 44 24 08       	mov    0x8(%rsp),%rax
 4bea2bd:	48 8b 5c 24 10       	mov    0x10(%rsp),%rbx
 4bea2c2:	48 8b 4c 24 18       	mov    0x18(%rsp),%rcx
 4bea2c7:	e9 74 ff ff ff       	jmp    4bea240 <github.com/lasselj/timebeat/beater/clocksync/taas.(*TaasOrigin).AddToIdentifier@@Base>
 4bea2cc:	cc                   	int3
 4bea2cd:	cc                   	int3
 4bea2ce:	cc                   	int3
 4bea2cf:	cc                   	int3
 4bea2d0:	cc                   	int3
 4bea2d1:	cc                   	int3
 4bea2d2:	cc                   	int3
 4bea2d3:	cc                   	int3
 4bea2d4:	cc                   	int3
 4bea2d5:	cc                   	int3
 4bea2d6:	cc                   	int3
 4bea2d7:	cc                   	int3
 4bea2d8:	cc                   	int3
 4bea2d9:	cc                   	int3
 4bea2da:	cc                   	int3
 4bea2db:	cc                   	int3
 4bea2dc:	cc                   	int3
 4bea2dd:	cc                   	int3
 4bea2de:	cc                   	int3
 4bea2df:	cc                   	int3
