# github.com/lasselj/timebeat/interactive/daemon.CreateCommands
# addr 0x4c209e0 size 12288 (0x3000)


/mnt/c/Users/SHIWA/GitHub/TimeCard-Mini/timebeat-extracted/usr/share/timebeat/bin/timebeat:     file format elf64-x86-64


Disassembly of section .text:

0000000004c209e0 <github.com/lasselj/timebeat/interactive/daemon.CreateCommands@@Base>:
 4c209e0:	4c 8d a4 24 28 fe ff 	lea    -0x1d8(%rsp),%r12
 4c209e7:	ff 
 4c209e8:	4d 3b 66 10          	cmp    0x10(%r14),%r12
 4c209ec:	0f 86 97 56 00 00    	jbe    4c26089 <github.com/lasselj/timebeat/interactive/daemon.CreateCommands@@Base+0x56a9>
 4c209f2:	48 81 ec 58 02 00 00 	sub    $0x258,%rsp
 4c209f9:	48 89 ac 24 50 02 00 	mov    %rbp,0x250(%rsp)
 4c20a00:	00 
 4c20a01:	48 8d ac 24 50 02 00 	lea    0x250(%rsp),%rbp
 4c20a08:	00 
 4c20a09:	48 8d 05 70 b9 08 01 	lea    0x108b970(%rip),%rax        # 5cac380 <type:uKbinQcm@@Base>
 4c20a10:	e8 cb fa 2c fd       	call   1ef04e0 <runtime.newobject@@Base>
 4c20a15:	48 89 44 24 50       	mov    %rax,0x50(%rsp)
 4c20a1a:	48 8d 05 1f 0e bb 00 	lea    0xbb0e1f(%rip),%rax        # 57d1840 <type:[2]string@@Base>
 4c20a21:	e8 ba fa 2c fd       	call   1ef04e0 <runtime.newobject@@Base>
 4c20a26:	48 c7 40 08 04 00 00 	movq   $0x4,0x8(%rax)
 4c20a2d:	00 
 4c20a2e:	48 8d 0d 9b 5c 01 00 	lea    0x15c9b(%rip),%rcx        # 4c366d0 <_IO_stdin_used@@Base+0x36d0>
 4c20a35:	48 89 08             	mov    %rcx,(%rax)
 4c20a38:	48 c7 40 18 0e 00 00 	movq   $0xe,0x18(%rax)
 4c20a3f:	00 
 4c20a40:	48 8d 15 91 31 0b 00 	lea    0xb3191(%rip),%rdx        # 4cd3bd8 <_IO_stdin_used@@Base+0xa0bd8>
 4c20a47:	48 89 50 10          	mov    %rdx,0x10(%rax)
 4c20a4b:	48 8b 7c 24 50       	mov    0x50(%rsp),%rdi
 4c20a50:	48 c7 47 08 02 00 00 	movq   $0x2,0x8(%rdi)
 4c20a57:	00 
 4c20a58:	48 c7 47 10 02 00 00 	movq   $0x2,0x10(%rdi)
 4c20a5f:	00 
 4c20a60:	83 3d f9 ae 25 03 00 	cmpl   $0x0,0x325aef9(%rip)        # 7e7b960 <runtime.writeBarrier@@Base>
 4c20a67:	75 05                	jne    4c20a6e <github.com/lasselj/timebeat/interactive/daemon.CreateCommands@@Base+0x8e>
 4c20a69:	48 89 07             	mov    %rax,(%rdi)
 4c20a6c:	eb 05                	jmp    4c20a73 <github.com/lasselj/timebeat/interactive/daemon.CreateCommands@@Base+0x93>
 4c20a6e:	e8 8d 5b 33 fd       	call   1f56600 <runtime.gcWriteBarrier@@Base>
 4c20a73:	48 8d 05 06 b9 08 01 	lea    0x108b906(%rip),%rax        # 5cac380 <type:uKbinQcm@@Base>
 4c20a7a:	e8 61 fa 2c fd       	call   1ef04e0 <runtime.newobject@@Base>
 4c20a7f:	48 89 44 24 40       	mov    %rax,0x40(%rsp)
 4c20a84:	48 8d 05 b5 0d bb 00 	lea    0xbb0db5(%rip),%rax        # 57d1840 <type:[2]string@@Base>
 4c20a8b:	e8 50 fa 2c fd       	call   1ef04e0 <runtime.newobject@@Base>
 4c20a90:	48 c7 40 08 04 00 00 	movq   $0x4,0x8(%rax)
 4c20a97:	00 
 4c20a98:	48 8d 0d 31 5c 01 00 	lea    0x15c31(%rip),%rcx        # 4c366d0 <_IO_stdin_used@@Base+0x36d0>
 4c20a9f:	48 89 08             	mov    %rcx,(%rax)
 4c20aa2:	48 c7 40 18 07 00 00 	movq   $0x7,0x18(%rax)
 4c20aa9:	00 
 4c20aaa:	48 8d 15 66 10 04 00 	lea    0x41066(%rip),%rdx        # 4c61b17 <_IO_stdin_used@@Base+0x2eb17>
 4c20ab1:	48 89 50 10          	mov    %rdx,0x10(%rax)
 4c20ab5:	48 8b 7c 24 40       	mov    0x40(%rsp),%rdi
 4c20aba:	48 c7 47 08 02 00 00 	movq   $0x2,0x8(%rdi)
 4c20ac1:	00 
 4c20ac2:	48 c7 47 10 02 00 00 	movq   $0x2,0x10(%rdi)
 4c20ac9:	00 
 4c20aca:	83 3d 8f ae 25 03 00 	cmpl   $0x0,0x325ae8f(%rip)        # 7e7b960 <runtime.writeBarrier@@Base>
 4c20ad1:	75 10                	jne    4c20ae3 <github.com/lasselj/timebeat/interactive/daemon.CreateCommands@@Base+0x103>
 4c20ad3:	48 89 07             	mov    %rax,(%rdi)
 4c20ad6:	48 8d 1d f3 b9 2c 01 	lea    0x12cb9f3(%rip),%rbx        # 5eec4d0 <github.com/lasselj/timebeat/interactive/daemon.ShowVersion·f@@Base>
 4c20add:	48 89 5f 18          	mov    %rbx,0x18(%rdi)
 4c20ae1:	eb 18                	jmp    4c20afb <github.com/lasselj/timebeat/interactive/daemon.CreateCommands@@Base+0x11b>
 4c20ae3:	e8 18 5b 33 fd       	call   1f56600 <runtime.gcWriteBarrier@@Base>
 4c20ae8:	48 8d 5f 18          	lea    0x18(%rdi),%rbx
 4c20aec:	48 89 df             	mov    %rbx,%rdi
 4c20aef:	48 8d 35 da b9 2c 01 	lea    0x12cb9da(%rip),%rsi        # 5eec4d0 <github.com/lasselj/timebeat/interactive/daemon.ShowVersion·f@@Base>
 4c20af6:	e8 65 5c 33 fd       	call   1f56760 <runtime.gcWriteBarrierSI@@Base>
 4c20afb:	48 8d 05 7e b8 08 01 	lea    0x108b87e(%rip),%rax        # 5cac380 <type:uKbinQcm@@Base>
 4c20b02:	e8 d9 f9 2c fd       	call   1ef04e0 <runtime.newobject@@Base>
 4c20b07:	48 89 84 24 50 01 00 	mov    %rax,0x150(%rsp)
 4c20b0e:	00 
 4c20b0f:	48 8d 05 2a 0d bb 00 	lea    0xbb0d2a(%rip),%rax        # 57d1840 <type:[2]string@@Base>
 4c20b16:	e8 c5 f9 2c fd       	call   1ef04e0 <runtime.newobject@@Base>
 4c20b1b:	48 c7 40 08 04 00 00 	movq   $0x4,0x8(%rax)
 4c20b22:	00 
 4c20b23:	48 8d 0d a6 5b 01 00 	lea    0x15ba6(%rip),%rcx        # 4c366d0 <_IO_stdin_used@@Base+0x36d0>
 4c20b2a:	48 89 08             	mov    %rcx,(%rax)
 4c20b2d:	48 c7 40 18 04 00 00 	movq   $0x4,0x18(%rax)
 4c20b34:	00 
 4c20b35:	48 8d 15 c8 57 01 00 	lea    0x157c8(%rip),%rdx        # 4c36304 <_IO_stdin_used@@Base+0x3304>
 4c20b3c:	48 89 50 10          	mov    %rdx,0x10(%rax)
 4c20b40:	48 8b bc 24 50 01 00 	mov    0x150(%rsp),%rdi
 4c20b47:	00 
 4c20b48:	48 c7 47 08 02 00 00 	movq   $0x2,0x8(%rdi)
 4c20b4f:	00 
 4c20b50:	48 c7 47 10 02 00 00 	movq   $0x2,0x10(%rdi)
 4c20b57:	00 
 4c20b58:	83 3d 01 ae 25 03 00 	cmpl   $0x0,0x325ae01(%rip)        # 7e7b960 <runtime.writeBarrier@@Base>
 4c20b5f:	90                   	nop
 4c20b60:	75 10                	jne    4c20b72 <github.com/lasselj/timebeat/interactive/daemon.CreateCommands@@Base+0x192>
 4c20b62:	48 89 07             	mov    %rax,(%rdi)
 4c20b65:	48 8d 15 5c b9 2c 01 	lea    0x12cb95c(%rip),%rdx        # 5eec4c8 <github.com/lasselj/timebeat/interactive/daemon.ShowHelp·f@@Base>
 4c20b6c:	48 89 57 18          	mov    %rdx,0x18(%rdi)
 4c20b70:	eb 18                	jmp    4c20b8a <github.com/lasselj/timebeat/interactive/daemon.CreateCommands@@Base+0x1aa>
 4c20b72:	e8 89 5a 33 fd       	call   1f56600 <runtime.gcWriteBarrier@@Base>
 4c20b77:	48 8d 57 18          	lea    0x18(%rdi),%rdx
 4c20b7b:	48 89 d7             	mov    %rdx,%rdi
 4c20b7e:	48 8d 1d 43 b9 2c 01 	lea    0x12cb943(%rip),%rbx        # 5eec4c8 <github.com/lasselj/timebeat/interactive/daemon.ShowHelp·f@@Base>
 4c20b85:	e8 b6 5b 33 fd       	call   1f56740 <runtime.gcWriteBarrierBX@@Base>
 4c20b8a:	48 8d 05 ef b7 08 01 	lea    0x108b7ef(%rip),%rax        # 5cac380 <type:uKbinQcm@@Base>
 4c20b91:	e8 4a f9 2c fd       	call   1ef04e0 <runtime.newobject@@Base>
 4c20b96:	48 89 84 24 f0 00 00 	mov    %rax,0xf0(%rsp)
 4c20b9d:	00 
 4c20b9e:	48 8d 05 1b 32 bb 00 	lea    0xbb321b(%rip),%rax        # 57d3dc0 <type:[3]string@@Base>
 4c20ba5:	e8 36 f9 2c fd       	call   1ef04e0 <runtime.newobject@@Base>
 4c20baa:	48 c7 40 08 04 00 00 	movq   $0x4,0x8(%rax)
 4c20bb1:	00 
 4c20bb2:	48 8d 0d 17 5b 01 00 	lea    0x15b17(%rip),%rcx        # 4c366d0 <_IO_stdin_used@@Base+0x36d0>
 4c20bb9:	48 89 08             	mov    %rcx,(%rax)
 4c20bbc:	48 c7 40 18 03 00 00 	movq   $0x3,0x18(%rax)
 4c20bc3:	00 
 4c20bc4:	48 8d 15 80 32 01 00 	lea    0x13280(%rip),%rdx        # 4c33e4b <_IO_stdin_used@@Base+0xe4b>
 4c20bcb:	48 89 50 10          	mov    %rdx,0x10(%rax)
 4c20bcf:	48 c7 40 28 07 00 00 	movq   $0x7,0x28(%rax)
 4c20bd6:	00 
 4c20bd7:	48 8d 1d a9 fa 03 00 	lea    0x3faa9(%rip),%rbx        # 4c60687 <_IO_stdin_used@@Base+0x2d687>
 4c20bde:	48 89 58 20          	mov    %rbx,0x20(%rax)
 4c20be2:	48 8b bc 24 f0 00 00 	mov    0xf0(%rsp),%rdi
 4c20be9:	00 
 4c20bea:	48 c7 47 08 03 00 00 	movq   $0x3,0x8(%rdi)
 4c20bf1:	00 
 4c20bf2:	48 c7 47 10 03 00 00 	movq   $0x3,0x10(%rdi)
 4c20bf9:	00 
 4c20bfa:	83 3d 5f ad 25 03 00 	cmpl   $0x0,0x325ad5f(%rip)        # 7e7b960 <runtime.writeBarrier@@Base>
 4c20c01:	75 10                	jne    4c20c13 <github.com/lasselj/timebeat/interactive/daemon.CreateCommands@@Base+0x233>
 4c20c03:	48 89 07             	mov    %rax,(%rdi)
 4c20c06:	48 8d 1d cb b6 2c 01 	lea    0x12cb6cb(%rip),%rbx        # 5eec2d8 <github.com/lasselj/timebeat/interactive/api.GetPHCDevices·f@@Base>
 4c20c0d:	48 89 5f 18          	mov    %rbx,0x18(%rdi)
 4c20c11:	eb 18                	jmp    4c20c2b <github.com/lasselj/timebeat/interactive/daemon.CreateCommands@@Base+0x24b>
 4c20c13:	e8 e8 59 33 fd       	call   1f56600 <runtime.gcWriteBarrier@@Base>
 4c20c18:	48 8d 5f 18          	lea    0x18(%rdi),%rbx
 4c20c1c:	48 89 df             	mov    %rbx,%rdi
 4c20c1f:	48 8d 35 b2 b6 2c 01 	lea    0x12cb6b2(%rip),%rsi        # 5eec2d8 <github.com/lasselj/timebeat/interactive/api.GetPHCDevices·f@@Base>
 4c20c26:	e8 35 5b 33 fd       	call   1f56760 <runtime.gcWriteBarrierSI@@Base>
 4c20c2b:	48 8d 05 4e b7 08 01 	lea    0x108b74e(%rip),%rax        # 5cac380 <type:uKbinQcm@@Base>
 4c20c32:	e8 a9 f8 2c fd       	call   1ef04e0 <runtime.newobject@@Base>
 4c20c37:	48 89 84 24 f8 00 00 	mov    %rax,0xf8(%rsp)
 4c20c3e:	00 
 4c20c3f:	48 8d 05 fa 50 bb 00 	lea    0xbb50fa(%rip),%rax        # 57d5d40 <type:[4]string@@Base>
 4c20c46:	e8 95 f8 2c fd       	call   1ef04e0 <runtime.newobject@@Base>
 4c20c4b:	48 c7 40 08 04 00 00 	movq   $0x4,0x8(%rax)
 4c20c52:	00 
 4c20c53:	48 8d 0d 76 5a 01 00 	lea    0x15a76(%rip),%rcx        # 4c366d0 <_IO_stdin_used@@Base+0x36d0>
 4c20c5a:	48 89 08             	mov    %rcx,(%rax)
 4c20c5d:	48 c7 40 18 03 00 00 	movq   $0x3,0x18(%rax)
 4c20c64:	00 
 4c20c65:	48 8d 15 df 31 01 00 	lea    0x131df(%rip),%rdx        # 4c33e4b <_IO_stdin_used@@Base+0xe4b>
 4c20c6c:	48 89 50 10          	mov    %rdx,0x10(%rax)
 4c20c70:	48 c7 40 28 06 00 00 	movq   $0x6,0x28(%rax)
 4c20c77:	00 
 4c20c78:	48 8d 1d 24 d4 03 00 	lea    0x3d424(%rip),%rbx        # 4c5e0a3 <_IO_stdin_used@@Base+0x2b0a3>
 4c20c7f:	48 89 58 20          	mov    %rbx,0x20(%rax)
 4c20c83:	48 c7 40 38 03 00 00 	movq   $0x3,0x38(%rax)
 4c20c8a:	00 
 4c20c8b:	48 8d 35 cb 31 01 00 	lea    0x131cb(%rip),%rsi        # 4c33e5d <_IO_stdin_used@@Base+0xe5d>
 4c20c92:	48 89 70 30          	mov    %rsi,0x30(%rax)
 4c20c96:	48 8b bc 24 f8 00 00 	mov    0xf8(%rsp),%rdi
 4c20c9d:	00 
 4c20c9e:	48 c7 47 08 04 00 00 	movq   $0x4,0x8(%rdi)
 4c20ca5:	00 
 4c20ca6:	48 c7 47 10 04 00 00 	movq   $0x4,0x10(%rdi)
 4c20cad:	00 
 4c20cae:	83 3d ab ac 25 03 00 	cmpl   $0x0,0x325acab(%rip)        # 7e7b960 <runtime.writeBarrier@@Base>
 4c20cb5:	75 10                	jne    4c20cc7 <github.com/lasselj/timebeat/interactive/daemon.CreateCommands@@Base+0x2e7>
 4c20cb7:	48 89 07             	mov    %rax,(%rdi)
 4c20cba:	48 8d 35 0f b6 2c 01 	lea    0x12cb60f(%rip),%rsi        # 5eec2d0 <github.com/lasselj/timebeat/interactive/api.GetPHCDevicePin·f@@Base>
 4c20cc1:	48 89 77 18          	mov    %rsi,0x18(%rdi)
 4c20cc5:	eb 18                	jmp    4c20cdf <github.com/lasselj/timebeat/interactive/daemon.CreateCommands@@Base+0x2ff>
 4c20cc7:	e8 34 59 33 fd       	call   1f56600 <runtime.gcWriteBarrier@@Base>
 4c20ccc:	48 8d 77 18          	lea    0x18(%rdi),%rsi
 4c20cd0:	48 89 f7             	mov    %rsi,%rdi
 4c20cd3:	4c 8d 05 f6 b5 2c 01 	lea    0x12cb5f6(%rip),%r8        # 5eec2d0 <github.com/lasselj/timebeat/interactive/api.GetPHCDevicePin·f@@Base>
 4c20cda:	e8 a1 5a 33 fd       	call   1f56780 <runtime.gcWriteBarrierR8@@Base>
 4c20cdf:	48 8d 05 9a b6 08 01 	lea    0x108b69a(%rip),%rax        # 5cac380 <type:uKbinQcm@@Base>
 4c20ce6:	e8 f5 f7 2c fd       	call   1ef04e0 <runtime.newobject@@Base>
 4c20ceb:	48 89 84 24 d0 01 00 	mov    %rax,0x1d0(%rsp)
 4c20cf2:	00 
 4c20cf3:	48 8d 05 46 50 bb 00 	lea    0xbb5046(%rip),%rax        # 57d5d40 <type:[4]string@@Base>
 4c20cfa:	e8 e1 f7 2c fd       	call   1ef04e0 <runtime.newobject@@Base>
 4c20cff:	48 c7 40 08 03 00 00 	movq   $0x3,0x8(%rax)
 4c20d06:	00 
 4c20d07:	48 8d 0d d6 31 01 00 	lea    0x131d6(%rip),%rcx        # 4c33ee4 <_IO_stdin_used@@Base+0xee4>
 4c20d0e:	48 89 08             	mov    %rcx,(%rax)
 4c20d11:	48 c7 40 18 03 00 00 	movq   $0x3,0x18(%rax)
 4c20d18:	00 
 4c20d19:	48 8d 15 2b 31 01 00 	lea    0x1312b(%rip),%rdx        # 4c33e4b <_IO_stdin_used@@Base+0xe4b>
 4c20d20:	48 89 50 10          	mov    %rdx,0x10(%rax)
 4c20d24:	48 c7 40 28 06 00 00 	movq   $0x6,0x28(%rax)
 4c20d2b:	00 
 4c20d2c:	48 8d 1d 70 d3 03 00 	lea    0x3d370(%rip),%rbx        # 4c5e0a3 <_IO_stdin_used@@Base+0x2b0a3>
 4c20d33:	48 89 58 20          	mov    %rbx,0x20(%rax)
 4c20d37:	48 c7 40 38 03 00 00 	movq   $0x3,0x38(%rax)
 4c20d3e:	00 
 4c20d3f:	48 8d 35 32 31 01 00 	lea    0x13132(%rip),%rsi        # 4c33e78 <_IO_stdin_used@@Base+0xe78>
 4c20d46:	48 89 70 30          	mov    %rsi,0x30(%rax)
 4c20d4a:	48 8b bc 24 d0 01 00 	mov    0x1d0(%rsp),%rdi
 4c20d51:	00 
 4c20d52:	48 c7 47 08 04 00 00 	movq   $0x4,0x8(%rdi)
 4c20d59:	00 
 4c20d5a:	48 c7 47 10 04 00 00 	movq   $0x4,0x10(%rdi)
 4c20d61:	00 
 4c20d62:	83 3d f7 ab 25 03 00 	cmpl   $0x0,0x325abf7(%rip)        # 7e7b960 <runtime.writeBarrier@@Base>
 4c20d69:	75 15                	jne    4c20d80 <github.com/lasselj/timebeat/interactive/daemon.CreateCommands@@Base+0x3a0>
 4c20d6b:	48 89 07             	mov    %rax,(%rdi)
 4c20d6e:	48 8d 35 5b b6 2c 01 	lea    0x12cb65b(%rip),%rsi        # 5eec3d0 <github.com/lasselj/timebeat/interactive/api.SetPHCDevicePPS·f@@Base>
 4c20d75:	48 89 77 18          	mov    %rsi,0x18(%rdi)
 4c20d79:	eb 1d                	jmp    4c20d98 <github.com/lasselj/timebeat/interactive/daemon.CreateCommands@@Base+0x3b8>
 4c20d7b:	0f 1f 44 00 00       	nopl   0x0(%rax,%rax,1)
 4c20d80:	e8 7b 58 33 fd       	call   1f56600 <runtime.gcWriteBarrier@@Base>
 4c20d85:	48 8d 77 18          	lea    0x18(%rdi),%rsi
 4c20d89:	48 89 f7             	mov    %rsi,%rdi
 4c20d8c:	4c 8d 05 3d b6 2c 01 	lea    0x12cb63d(%rip),%r8        # 5eec3d0 <github.com/lasselj/timebeat/interactive/api.SetPHCDevicePPS·f@@Base>
 4c20d93:	e8 e8 59 33 fd       	call   1f56780 <runtime.gcWriteBarrierR8@@Base>
 4c20d98:	48 8d 05 e1 b5 08 01 	lea    0x108b5e1(%rip),%rax        # 5cac380 <type:uKbinQcm@@Base>
 4c20d9f:	90                   	nop
 4c20da0:	e8 3b f7 2c fd       	call   1ef04e0 <runtime.newobject@@Base>
 4c20da5:	48 89 84 24 e0 01 00 	mov    %rax,0x1e0(%rsp)
 4c20dac:	00 
 4c20dad:	48 8d 05 8c 4f bb 00 	lea    0xbb4f8c(%rip),%rax        # 57d5d40 <type:[4]string@@Base>
 4c20db4:	e8 27 f7 2c fd       	call   1ef04e0 <runtime.newobject@@Base>
 4c20db9:	48 c7 40 08 03 00 00 	movq   $0x3,0x8(%rax)
 4c20dc0:	00 
 4c20dc1:	48 8d 0d 1c 31 01 00 	lea    0x1311c(%rip),%rcx        # 4c33ee4 <_IO_stdin_used@@Base+0xee4>
 4c20dc8:	48 89 08             	mov    %rcx,(%rax)
 4c20dcb:	48 c7 40 18 03 00 00 	movq   $0x3,0x18(%rax)
 4c20dd2:	00 
 4c20dd3:	48 8d 15 71 30 01 00 	lea    0x13071(%rip),%rdx        # 4c33e4b <_IO_stdin_used@@Base+0xe4b>
 4c20dda:	48 89 50 10          	mov    %rdx,0x10(%rax)
 4c20dde:	48 c7 40 28 06 00 00 	movq   $0x6,0x28(%rax)
 4c20de5:	00 
 4c20de6:	48 8d 1d b6 d2 03 00 	lea    0x3d2b6(%rip),%rbx        # 4c5e0a3 <_IO_stdin_used@@Base+0x2b0a3>
 4c20ded:	48 89 58 20          	mov    %rbx,0x20(%rax)
 4c20df1:	48 c7 40 38 05 00 00 	movq   $0x5,0x38(%rax)
 4c20df8:	00 
 4c20df9:	48 8d 35 05 36 02 00 	lea    0x23605(%rip),%rsi        # 4c44405 <_IO_stdin_used@@Base+0x11405>
 4c20e00:	48 89 70 30          	mov    %rsi,0x30(%rax)
 4c20e04:	48 8b bc 24 e0 01 00 	mov    0x1e0(%rsp),%rdi
 4c20e0b:	00 
 4c20e0c:	48 c7 47 08 04 00 00 	movq   $0x4,0x8(%rdi)
 4c20e13:	00 
 4c20e14:	48 c7 47 10 04 00 00 	movq   $0x4,0x10(%rdi)
 4c20e1b:	00 
 4c20e1c:	83 3d 3d ab 25 03 00 	cmpl   $0x0,0x325ab3d(%rip)        # 7e7b960 <runtime.writeBarrier@@Base>
 4c20e23:	75 10                	jne    4c20e35 <github.com/lasselj/timebeat/interactive/daemon.CreateCommands@@Base+0x455>
 4c20e25:	48 89 07             	mov    %rax,(%rdi)
 4c20e28:	48 8d 35 91 b5 2c 01 	lea    0x12cb591(%rip),%rsi        # 5eec3c0 <github.com/lasselj/timebeat/interactive/api.SetPHCDeviceExtts·f@@Base>
 4c20e2f:	48 89 77 18          	mov    %rsi,0x18(%rdi)
 4c20e33:	eb 18                	jmp    4c20e4d <github.com/lasselj/timebeat/interactive/daemon.CreateCommands@@Base+0x46d>
 4c20e35:	e8 c6 57 33 fd       	call   1f56600 <runtime.gcWriteBarrier@@Base>
 4c20e3a:	48 8d 77 18          	lea    0x18(%rdi),%rsi
 4c20e3e:	48 89 f7             	mov    %rsi,%rdi
 4c20e41:	4c 8d 05 78 b5 2c 01 	lea    0x12cb578(%rip),%r8        # 5eec3c0 <github.com/lasselj/timebeat/interactive/api.SetPHCDeviceExtts·f@@Base>
 4c20e48:	e8 33 59 33 fd       	call   1f56780 <runtime.gcWriteBarrierR8@@Base>
 4c20e4d:	48 8d 05 2c b5 08 01 	lea    0x108b52c(%rip),%rax        # 5cac380 <type:uKbinQcm@@Base>
 4c20e54:	e8 87 f6 2c fd       	call   1ef04e0 <runtime.newobject@@Base>
 4c20e59:	48 89 84 24 d8 01 00 	mov    %rax,0x1d8(%rsp)
 4c20e60:	00 
 4c20e61:	48 8d 05 d8 4e bb 00 	lea    0xbb4ed8(%rip),%rax        # 57d5d40 <type:[4]string@@Base>
 4c20e68:	e8 73 f6 2c fd       	call   1ef04e0 <runtime.newobject@@Base>
 4c20e6d:	48 c7 40 08 03 00 00 	movq   $0x3,0x8(%rax)
 4c20e74:	00 
 4c20e75:	48 8d 0d 68 30 01 00 	lea    0x13068(%rip),%rcx        # 4c33ee4 <_IO_stdin_used@@Base+0xee4>
 4c20e7c:	48 89 08             	mov    %rcx,(%rax)
 4c20e7f:	48 c7 40 18 03 00 00 	movq   $0x3,0x18(%rax)
 4c20e86:	00 
 4c20e87:	48 8d 15 bd 2f 01 00 	lea    0x12fbd(%rip),%rdx        # 4c33e4b <_IO_stdin_used@@Base+0xe4b>
 4c20e8e:	48 89 50 10          	mov    %rdx,0x10(%rax)
 4c20e92:	48 c7 40 28 06 00 00 	movq   $0x6,0x28(%rax)
 4c20e99:	00 
 4c20e9a:	48 8d 15 02 d2 03 00 	lea    0x3d202(%rip),%rdx        # 4c5e0a3 <_IO_stdin_used@@Base+0x2b0a3>
 4c20ea1:	48 89 50 20          	mov    %rdx,0x20(%rax)
 4c20ea5:	48 c7 40 38 09 00 00 	movq   $0x9,0x38(%rax)
 4c20eac:	00 
 4c20ead:	48 8d 15 ff 4f 04 00 	lea    0x44fff(%rip),%rdx        # 4c65eb3 <_IO_stdin_used@@Base+0x32eb3>
 4c20eb4:	48 89 50 30          	mov    %rdx,0x30(%rax)
 4c20eb8:	48 8b bc 24 d8 01 00 	mov    0x1d8(%rsp),%rdi
 4c20ebf:	00 
 4c20ec0:	48 c7 47 08 04 00 00 	movq   $0x4,0x8(%rdi)
 4c20ec7:	00 
 4c20ec8:	48 c7 47 10 04 00 00 	movq   $0x4,0x10(%rdi)
 4c20ecf:	00 
 4c20ed0:	83 3d 89 aa 25 03 00 	cmpl   $0x0,0x325aa89(%rip)        # 7e7b960 <runtime.writeBarrier@@Base>
 4c20ed7:	75 10                	jne    4c20ee9 <github.com/lasselj/timebeat/interactive/daemon.CreateCommands@@Base+0x509>
 4c20ed9:	48 89 07             	mov    %rax,(%rdi)
 4c20edc:	48 8d 1d e5 b4 2c 01 	lea    0x12cb4e5(%rip),%rbx        # 5eec3c8 <github.com/lasselj/timebeat/interactive/api.SetPHCDeviceFrequency·f@@Base>
 4c20ee3:	48 89 5f 18          	mov    %rbx,0x18(%rdi)
 4c20ee7:	eb 1c                	jmp    4c20f05 <github.com/lasselj/timebeat/interactive/daemon.CreateCommands@@Base+0x525>
 4c20ee9:	e8 12 57 33 fd       	call   1f56600 <runtime.gcWriteBarrier@@Base>
 4c20eee:	48 8d 5f 18          	lea    0x18(%rdi),%rbx
 4c20ef2:	48 89 df             	mov    %rbx,%rdi
 4c20ef5:	48 8d 35 cc b4 2c 01 	lea    0x12cb4cc(%rip),%rsi        # 5eec3c8 <github.com/lasselj/timebeat/interactive/api.SetPHCDeviceFrequency·f@@Base>
 4c20efc:	0f 1f 40 00          	nopl   0x0(%rax)
 4c20f00:	e8 5b 58 33 fd       	call   1f56760 <runtime.gcWriteBarrierSI@@Base>
 4c20f05:	48 8d 05 74 b4 08 01 	lea    0x108b474(%rip),%rax        # 5cac380 <type:uKbinQcm@@Base>
 4c20f0c:	e8 cf f5 2c fd       	call   1ef04e0 <runtime.newobject@@Base>
 4c20f11:	48 89 44 24 58       	mov    %rax,0x58(%rsp)
 4c20f16:	48 8d 05 a3 2e bb 00 	lea    0xbb2ea3(%rip),%rax        # 57d3dc0 <type:[3]string@@Base>
 4c20f1d:	0f 1f 00             	nopl   (%rax)
 4c20f20:	e8 bb f5 2c fd       	call   1ef04e0 <runtime.newobject@@Base>
 4c20f25:	48 c7 40 08 04 00 00 	movq   $0x4,0x8(%rax)
 4c20f2c:	00 
 4c20f2d:	48 8d 0d 9c 57 01 00 	lea    0x1579c(%rip),%rcx        # 4c366d0 <_IO_stdin_used@@Base+0x36d0>
 4c20f34:	48 89 08             	mov    %rcx,(%rax)
 4c20f37:	48 c7 40 18 07 00 00 	movq   $0x7,0x18(%rax)
 4c20f3e:	00 
 4c20f3f:	48 8d 15 51 08 04 00 	lea    0x40851(%rip),%rdx        # 4c61797 <_IO_stdin_used@@Base+0x2e797>
 4c20f46:	48 89 50 10          	mov    %rdx,0x10(%rax)
 4c20f4a:	48 c7 40 28 07 00 00 	movq   $0x7,0x28(%rax)
 4c20f51:	00 
 4c20f52:	48 8d 1d 50 07 04 00 	lea    0x40750(%rip),%rbx        # 4c616a9 <_IO_stdin_used@@Base+0x2e6a9>
 4c20f59:	48 89 58 20          	mov    %rbx,0x20(%rax)
 4c20f5d:	48 8b 7c 24 58       	mov    0x58(%rsp),%rdi
 4c20f62:	48 c7 47 08 03 00 00 	movq   $0x3,0x8(%rdi)
 4c20f69:	00 
 4c20f6a:	48 c7 47 10 03 00 00 	movq   $0x3,0x10(%rdi)
 4c20f71:	00 
 4c20f72:	83 3d e7 a9 25 03 00 	cmpl   $0x0,0x325a9e7(%rip)        # 7e7b960 <runtime.writeBarrier@@Base>
 4c20f79:	75 10                	jne    4c20f8b <github.com/lasselj/timebeat/interactive/daemon.CreateCommands@@Base+0x5ab>
 4c20f7b:	48 89 07             	mov    %rax,(%rdi)
 4c20f7e:	48 8d 1d a3 b3 2c 01 	lea    0x12cb3a3(%rip),%rbx        # 5eec328 <github.com/lasselj/timebeat/interactive/api.GetPTPSquaredServerPeers·f@@Base>
 4c20f85:	48 89 5f 18          	mov    %rbx,0x18(%rdi)
 4c20f89:	eb 1a                	jmp    4c20fa5 <github.com/lasselj/timebeat/interactive/daemon.CreateCommands@@Base+0x5c5>
 4c20f8b:	e8 70 56 33 fd       	call   1f56600 <runtime.gcWriteBarrier@@Base>
 4c20f90:	48 8d 5f 18          	lea    0x18(%rdi),%rbx
 4c20f94:	48 89 df             	mov    %rbx,%rdi
 4c20f97:	48 8d 35 8a b3 2c 01 	lea    0x12cb38a(%rip),%rsi        # 5eec328 <github.com/lasselj/timebeat/interactive/api.GetPTPSquaredServerPeers·f@@Base>
 4c20f9e:	66 90                	xchg   %ax,%ax
 4c20fa0:	e8 bb 57 33 fd       	call   1f56760 <runtime.gcWriteBarrierSI@@Base>
 4c20fa5:	48 8d 05 d4 b3 08 01 	lea    0x108b3d4(%rip),%rax        # 5cac380 <type:uKbinQcm@@Base>
 4c20fac:	e8 2f f5 2c fd       	call   1ef04e0 <runtime.newobject@@Base>
 4c20fb1:	48 89 44 24 78       	mov    %rax,0x78(%rsp)
 4c20fb6:	48 8d 05 03 2e bb 00 	lea    0xbb2e03(%rip),%rax        # 57d3dc0 <type:[3]string@@Base>
 4c20fbd:	0f 1f 00             	nopl   (%rax)
 4c20fc0:	e8 1b f5 2c fd       	call   1ef04e0 <runtime.newobject@@Base>
 4c20fc5:	48 c7 40 08 04 00 00 	movq   $0x4,0x8(%rax)
 4c20fcc:	00 
 4c20fcd:	48 8d 0d fc 56 01 00 	lea    0x156fc(%rip),%rcx        # 4c366d0 <_IO_stdin_used@@Base+0x36d0>
 4c20fd4:	48 89 08             	mov    %rcx,(%rax)
 4c20fd7:	48 c7 40 18 07 00 00 	movq   $0x7,0x18(%rax)
 4c20fde:	00 
 4c20fdf:	48 8d 15 b1 07 04 00 	lea    0x407b1(%rip),%rdx        # 4c61797 <_IO_stdin_used@@Base+0x2e797>
 4c20fe6:	48 89 50 10          	mov    %rdx,0x10(%rax)
 4c20fea:	48 c7 40 28 07 00 00 	movq   $0x7,0x28(%rax)
 4c20ff1:	00 
 4c20ff2:	48 8d 1d 14 f5 03 00 	lea    0x3f514(%rip),%rbx        # 4c6050d <_IO_stdin_used@@Base+0x2d50d>
 4c20ff9:	48 89 58 20          	mov    %rbx,0x20(%rax)
 4c20ffd:	48 8b 7c 24 78       	mov    0x78(%rsp),%rdi
 4c21002:	48 c7 47 08 03 00 00 	movq   $0x3,0x8(%rdi)
 4c21009:	00 
 4c2100a:	48 c7 47 10 03 00 00 	movq   $0x3,0x10(%rdi)
 4c21011:	00 
 4c21012:	83 3d 47 a9 25 03 00 	cmpl   $0x0,0x325a947(%rip)        # 7e7b960 <runtime.writeBarrier@@Base>
 4c21019:	75 10                	jne    4c2102b <github.com/lasselj/timebeat/interactive/daemon.CreateCommands@@Base+0x64b>
 4c2101b:	48 89 07             	mov    %rax,(%rdi)
 4c2101e:	48 8d 35 e3 b2 2c 01 	lea    0x12cb2e3(%rip),%rsi        # 5eec308 <github.com/lasselj/timebeat/interactive/api.GetPTPSquaredClientPeers·f@@Base>
 4c21025:	48 89 77 18          	mov    %rsi,0x18(%rdi)
 4c21029:	eb 1a                	jmp    4c21045 <github.com/lasselj/timebeat/interactive/daemon.CreateCommands@@Base+0x665>
 4c2102b:	e8 d0 55 33 fd       	call   1f56600 <runtime.gcWriteBarrier@@Base>
 4c21030:	48 8d 77 18          	lea    0x18(%rdi),%rsi
 4c21034:	48 89 f7             	mov    %rsi,%rdi
 4c21037:	4c 8d 05 ca b2 2c 01 	lea    0x12cb2ca(%rip),%r8        # 5eec308 <github.com/lasselj/timebeat/interactive/api.GetPTPSquaredClientPeers·f@@Base>
 4c2103e:	66 90                	xchg   %ax,%ax
 4c21040:	e8 3b 57 33 fd       	call   1f56780 <runtime.gcWriteBarrierR8@@Base>
 4c21045:	48 8d 05 34 b3 08 01 	lea    0x108b334(%rip),%rax        # 5cac380 <type:uKbinQcm@@Base>
 4c2104c:	e8 8f f4 2c fd       	call   1ef04e0 <runtime.newobject@@Base>
 4c21051:	48 89 44 24 60       	mov    %rax,0x60(%rsp)
 4c21056:	48 8d 05 63 2d bb 00 	lea    0xbb2d63(%rip),%rax        # 57d3dc0 <type:[3]string@@Base>
 4c2105d:	0f 1f 00             	nopl   (%rax)
 4c21060:	e8 7b f4 2c fd       	call   1ef04e0 <runtime.newobject@@Base>
 4c21065:	48 c7 40 08 04 00 00 	movq   $0x4,0x8(%rax)
 4c2106c:	00 
 4c2106d:	48 8d 0d 5c 56 01 00 	lea    0x1565c(%rip),%rcx        # 4c366d0 <_IO_stdin_used@@Base+0x36d0>
 4c21074:	48 89 08             	mov    %rcx,(%rax)
 4c21077:	48 c7 40 18 07 00 00 	movq   $0x7,0x18(%rax)
 4c2107e:	00 
 4c2107f:	48 8d 15 11 07 04 00 	lea    0x40711(%rip),%rdx        # 4c61797 <_IO_stdin_used@@Base+0x2e797>
 4c21086:	48 89 50 10          	mov    %rdx,0x10(%rax)
 4c2108a:	48 c7 40 28 05 00 00 	movq   $0x5,0x28(%rax)
 4c21091:	00 
 4c21092:	48 8d 1d d3 3a 02 00 	lea    0x23ad3(%rip),%rbx        # 4c44b6c <_IO_stdin_used@@Base+0x11b6c>
 4c21099:	48 89 58 20          	mov    %rbx,0x20(%rax)
 4c2109d:	48 8b 7c 24 60       	mov    0x60(%rsp),%rdi
 4c210a2:	48 c7 47 08 03 00 00 	movq   $0x3,0x8(%rdi)
 4c210a9:	00 
 4c210aa:	48 c7 47 10 03 00 00 	movq   $0x3,0x10(%rdi)
 4c210b1:	00 
 4c210b2:	83 3d a7 a8 25 03 00 	cmpl   $0x0,0x325a8a7(%rip)        # 7e7b960 <runtime.writeBarrier@@Base>
 4c210b9:	75 10                	jne    4c210cb <github.com/lasselj/timebeat/interactive/daemon.CreateCommands@@Base+0x6eb>
 4c210bb:	48 89 07             	mov    %rax,(%rdi)
 4c210be:	48 8d 1d 5b b2 2c 01 	lea    0x12cb25b(%rip),%rbx        # 5eec320 <github.com/lasselj/timebeat/interactive/api.GetPTPSquaredSeatStats·f@@Base>
 4c210c5:	48 89 5f 18          	mov    %rbx,0x18(%rdi)
 4c210c9:	eb 1a                	jmp    4c210e5 <github.com/lasselj/timebeat/interactive/daemon.CreateCommands@@Base+0x705>
 4c210cb:	e8 30 55 33 fd       	call   1f56600 <runtime.gcWriteBarrier@@Base>
 4c210d0:	48 8d 5f 18          	lea    0x18(%rdi),%rbx
 4c210d4:	48 89 df             	mov    %rbx,%rdi
 4c210d7:	48 8d 35 42 b2 2c 01 	lea    0x12cb242(%rip),%rsi        # 5eec320 <github.com/lasselj/timebeat/interactive/api.GetPTPSquaredSeatStats·f@@Base>
 4c210de:	66 90                	xchg   %ax,%ax
 4c210e0:	e8 7b 56 33 fd       	call   1f56760 <runtime.gcWriteBarrierSI@@Base>
 4c210e5:	48 8d 05 94 b2 08 01 	lea    0x108b294(%rip),%rax        # 5cac380 <type:uKbinQcm@@Base>
 4c210ec:	e8 ef f3 2c fd       	call   1ef04e0 <runtime.newobject@@Base>
 4c210f1:	48 89 84 24 80 00 00 	mov    %rax,0x80(%rsp)
 4c210f8:	00 
 4c210f9:	48 8d 05 c0 2c bb 00 	lea    0xbb2cc0(%rip),%rax        # 57d3dc0 <type:[3]string@@Base>
 4c21100:	e8 db f3 2c fd       	call   1ef04e0 <runtime.newobject@@Base>
 4c21105:	48 c7 40 08 04 00 00 	movq   $0x4,0x8(%rax)
 4c2110c:	00 
 4c2110d:	48 8d 0d bc 55 01 00 	lea    0x155bc(%rip),%rcx        # 4c366d0 <_IO_stdin_used@@Base+0x36d0>
 4c21114:	48 89 08             	mov    %rcx,(%rax)
 4c21117:	48 c7 40 18 07 00 00 	movq   $0x7,0x18(%rax)
 4c2111e:	00 
 4c2111f:	48 8d 15 71 06 04 00 	lea    0x40671(%rip),%rdx        # 4c61797 <_IO_stdin_used@@Base+0x2e797>
 4c21126:	48 89 50 10          	mov    %rdx,0x10(%rax)
 4c2112a:	48 c7 40 28 08 00 00 	movq   $0x8,0x28(%rax)
 4c21131:	00 
 4c21132:	48 8d 1d c4 1d 04 00 	lea    0x41dc4(%rip),%rbx        # 4c62efd <_IO_stdin_used@@Base+0x2fefd>
 4c21139:	48 89 58 20          	mov    %rbx,0x20(%rax)
 4c2113d:	48 8b bc 24 80 00 00 	mov    0x80(%rsp),%rdi
 4c21144:	00 
 4c21145:	48 c7 47 08 03 00 00 	movq   $0x3,0x8(%rdi)
 4c2114c:	00 
 4c2114d:	48 c7 47 10 03 00 00 	movq   $0x3,0x10(%rdi)
 4c21154:	00 
 4c21155:	83 3d 04 a8 25 03 00 	cmpl   $0x0,0x325a804(%rip)        # 7e7b960 <runtime.writeBarrier@@Base>
 4c2115c:	75 10                	jne    4c2116e <github.com/lasselj/timebeat/interactive/daemon.CreateCommands@@Base+0x78e>
 4c2115e:	48 89 07             	mov    %rax,(%rdi)
 4c21161:	48 8d 1d 98 b1 2c 01 	lea    0x12cb198(%rip),%rbx        # 5eec300 <github.com/lasselj/timebeat/interactive/api.GetPTPSquaredCapacityStats·f@@Base>
 4c21168:	48 89 5f 18          	mov    %rbx,0x18(%rdi)
 4c2116c:	eb 18                	jmp    4c21186 <github.com/lasselj/timebeat/interactive/daemon.CreateCommands@@Base+0x7a6>
 4c2116e:	e8 8d 54 33 fd       	call   1f56600 <runtime.gcWriteBarrier@@Base>
 4c21173:	48 8d 5f 18          	lea    0x18(%rdi),%rbx
 4c21177:	48 89 df             	mov    %rbx,%rdi
 4c2117a:	48 8d 35 7f b1 2c 01 	lea    0x12cb17f(%rip),%rsi        # 5eec300 <github.com/lasselj/timebeat/interactive/api.GetPTPSquaredCapacityStats·f@@Base>
 4c21181:	e8 da 55 33 fd       	call   1f56760 <runtime.gcWriteBarrierSI@@Base>
 4c21186:	48 8d 05 f3 b1 08 01 	lea    0x108b1f3(%rip),%rax        # 5cac380 <type:uKbinQcm@@Base>
 4c2118d:	e8 4e f3 2c fd       	call   1ef04e0 <runtime.newobject@@Base>
 4c21192:	48 89 44 24 70       	mov    %rax,0x70(%rsp)
 4c21197:	48 8d 05 22 2c bb 00 	lea    0xbb2c22(%rip),%rax        # 57d3dc0 <type:[3]string@@Base>
 4c2119e:	66 90                	xchg   %ax,%ax
 4c211a0:	e8 3b f3 2c fd       	call   1ef04e0 <runtime.newobject@@Base>
 4c211a5:	48 c7 40 08 04 00 00 	movq   $0x4,0x8(%rax)
 4c211ac:	00 
 4c211ad:	48 8d 0d 1c 55 01 00 	lea    0x1551c(%rip),%rcx        # 4c366d0 <_IO_stdin_used@@Base+0x36d0>
 4c211b4:	48 89 08             	mov    %rcx,(%rax)
 4c211b7:	48 c7 40 18 07 00 00 	movq   $0x7,0x18(%rax)
 4c211be:	00 
 4c211bf:	48 8d 15 d1 05 04 00 	lea    0x405d1(%rip),%rdx        # 4c61797 <_IO_stdin_used@@Base+0x2e797>
 4c211c6:	48 89 50 10          	mov    %rdx,0x10(%rax)
 4c211ca:	48 c7 40 28 07 00 00 	movq   $0x7,0x28(%rax)
 4c211d1:	00 
 4c211d2:	48 8d 1d a2 fe 03 00 	lea    0x3fea2(%rip),%rbx        # 4c6107b <_IO_stdin_used@@Base+0x2e07b>
 4c211d9:	48 89 58 20          	mov    %rbx,0x20(%rax)
 4c211dd:	48 8b 7c 24 70       	mov    0x70(%rsp),%rdi
 4c211e2:	48 c7 47 08 03 00 00 	movq   $0x3,0x8(%rdi)
 4c211e9:	00 
 4c211ea:	48 c7 47 10 03 00 00 	movq   $0x3,0x10(%rdi)
 4c211f1:	00 
 4c211f2:	83 3d 67 a7 25 03 00 	cmpl   $0x0,0x325a767(%rip)        # 7e7b960 <runtime.writeBarrier@@Base>
 4c211f9:	75 10                	jne    4c2120b <github.com/lasselj/timebeat/interactive/daemon.CreateCommands@@Base+0x82b>
 4c211fb:	48 89 07             	mov    %rax,(%rdi)
 4c211fe:	48 8d 1d 0b b1 2c 01 	lea    0x12cb10b(%rip),%rbx        # 5eec310 <github.com/lasselj/timebeat/interactive/api.GetPTPSquaredNetworkStats·f@@Base>
 4c21205:	48 89 5f 18          	mov    %rbx,0x18(%rdi)
 4c21209:	eb 1a                	jmp    4c21225 <github.com/lasselj/timebeat/interactive/daemon.CreateCommands@@Base+0x845>
 4c2120b:	e8 f0 53 33 fd       	call   1f56600 <runtime.gcWriteBarrier@@Base>
 4c21210:	48 8d 5f 18          	lea    0x18(%rdi),%rbx
 4c21214:	48 89 df             	mov    %rbx,%rdi
 4c21217:	48 8d 35 f2 b0 2c 01 	lea    0x12cb0f2(%rip),%rsi        # 5eec310 <github.com/lasselj/timebeat/interactive/api.GetPTPSquaredNetworkStats·f@@Base>
 4c2121e:	66 90                	xchg   %ax,%ax
 4c21220:	e8 3b 55 33 fd       	call   1f56760 <runtime.gcWriteBarrierSI@@Base>
 4c21225:	48 8d 05 54 b1 08 01 	lea    0x108b154(%rip),%rax        # 5cac380 <type:uKbinQcm@@Base>
 4c2122c:	e8 af f2 2c fd       	call   1ef04e0 <runtime.newobject@@Base>
 4c21231:	48 89 44 24 68       	mov    %rax,0x68(%rsp)
 4c21236:	48 8d 05 83 2b bb 00 	lea    0xbb2b83(%rip),%rax        # 57d3dc0 <type:[3]string@@Base>
 4c2123d:	0f 1f 00             	nopl   (%rax)
 4c21240:	e8 9b f2 2c fd       	call   1ef04e0 <runtime.newobject@@Base>
 4c21245:	48 c7 40 08 04 00 00 	movq   $0x4,0x8(%rax)
 4c2124c:	00 
 4c2124d:	48 8d 0d 7c 54 01 00 	lea    0x1547c(%rip),%rcx        # 4c366d0 <_IO_stdin_used@@Base+0x36d0>
 4c21254:	48 89 08             	mov    %rcx,(%rax)
 4c21257:	48 c7 40 18 07 00 00 	movq   $0x7,0x18(%rax)
 4c2125e:	00 
 4c2125f:	48 8d 15 31 05 04 00 	lea    0x40531(%rip),%rdx        # 4c61797 <_IO_stdin_used@@Base+0x2e797>
 4c21266:	48 89 50 10          	mov    %rdx,0x10(%rax)
 4c2126a:	48 c7 40 28 0c 00 00 	movq   $0xc,0x28(%rax)
 4c21271:	00 
 4c21272:	48 8d 15 e6 fd 04 00 	lea    0x4fde6(%rip),%rdx        # 4c7105f <_IO_stdin_used@@Base+0x3e05f>
 4c21279:	48 89 50 20          	mov    %rdx,0x20(%rax)
 4c2127d:	48 8b 7c 24 68       	mov    0x68(%rsp),%rdi
 4c21282:	48 c7 47 08 03 00 00 	movq   $0x3,0x8(%rdi)
 4c21289:	00 
 4c2128a:	48 c7 47 10 03 00 00 	movq   $0x3,0x10(%rdi)
 4c21291:	00 
 4c21292:	83 3d c7 a6 25 03 00 	cmpl   $0x0,0x325a6c7(%rip)        # 7e7b960 <runtime.writeBarrier@@Base>
 4c21299:	75 10                	jne    4c212ab <github.com/lasselj/timebeat/interactive/daemon.CreateCommands@@Base+0x8cb>
 4c2129b:	48 89 07             	mov    %rax,(%rdi)
 4c2129e:	48 8d 15 73 b0 2c 01 	lea    0x12cb073(%rip),%rdx        # 5eec318 <github.com/lasselj/timebeat/interactive/api.GetPTPSquaredReservationStats·f@@Base>
 4c212a5:	48 89 57 18          	mov    %rdx,0x18(%rdi)
 4c212a9:	eb 1a                	jmp    4c212c5 <github.com/lasselj/timebeat/interactive/daemon.CreateCommands@@Base+0x8e5>
 4c212ab:	e8 50 53 33 fd       	call   1f56600 <runtime.gcWriteBarrier@@Base>
 4c212b0:	48 8d 57 18          	lea    0x18(%rdi),%rdx
 4c212b4:	48 89 d7             	mov    %rdx,%rdi
 4c212b7:	48 8d 1d 5a b0 2c 01 	lea    0x12cb05a(%rip),%rbx        # 5eec318 <github.com/lasselj/timebeat/interactive/api.GetPTPSquaredReservationStats·f@@Base>
 4c212be:	66 90                	xchg   %ax,%ax
 4c212c0:	e8 7b 54 33 fd       	call   1f56740 <runtime.gcWriteBarrierBX@@Base>
 4c212c5:	48 8d 05 b4 b0 08 01 	lea    0x108b0b4(%rip),%rax        # 5cac380 <type:uKbinQcm@@Base>
 4c212cc:	e8 0f f2 2c fd       	call   1ef04e0 <runtime.newobject@@Base>
 4c212d1:	48 89 84 24 90 00 00 	mov    %rax,0x90(%rsp)
 4c212d8:	00 
 4c212d9:	48 8d 05 e0 2a bb 00 	lea    0xbb2ae0(%rip),%rax        # 57d3dc0 <type:[3]string@@Base>
 4c212e0:	e8 fb f1 2c fd       	call   1ef04e0 <runtime.newobject@@Base>
 4c212e5:	48 c7 40 08 04 00 00 	movq   $0x4,0x8(%rax)
 4c212ec:	00 
 4c212ed:	48 8d 0d dc 53 01 00 	lea    0x153dc(%rip),%rcx        # 4c366d0 <_IO_stdin_used@@Base+0x36d0>
 4c212f4:	48 89 08             	mov    %rcx,(%rax)
 4c212f7:	48 c7 40 18 03 00 00 	movq   $0x3,0x18(%rax)
 4c212fe:	00 
 4c212ff:	48 8d 15 84 2b 01 00 	lea    0x12b84(%rip),%rdx        # 4c33e8a <_IO_stdin_used@@Base+0xe8a>
 4c21306:	48 89 50 10          	mov    %rdx,0x10(%rax)
 4c2130a:	48 c7 40 28 07 00 00 	movq   $0x7,0x28(%rax)
 4c21311:	00 
 4c21312:	48 8d 1d 2a 04 04 00 	lea    0x4042a(%rip),%rbx        # 4c61743 <_IO_stdin_used@@Base+0x2e743>
 4c21319:	48 89 58 20          	mov    %rbx,0x20(%rax)
 4c2131d:	48 8b bc 24 90 00 00 	mov    0x90(%rsp),%rdi
 4c21324:	00 
 4c21325:	48 c7 47 08 03 00 00 	movq   $0x3,0x8(%rdi)
 4c2132c:	00 
 4c2132d:	48 c7 47 10 03 00 00 	movq   $0x3,0x10(%rdi)
 4c21334:	00 
 4c21335:	83 3d 24 a6 25 03 00 	cmpl   $0x0,0x325a624(%rip)        # 7e7b960 <runtime.writeBarrier@@Base>
 4c2133c:	75 10                	jne    4c2134e <github.com/lasselj/timebeat/interactive/daemon.CreateCommands@@Base+0x96e>
 4c2133e:	48 89 07             	mov    %rax,(%rdi)
 4c21341:	48 8d 1d b0 af 2c 01 	lea    0x12cafb0(%rip),%rbx        # 5eec2f8 <github.com/lasselj/timebeat/interactive/api.GetPTPSockets·f@@Base>
 4c21348:	48 89 5f 18          	mov    %rbx,0x18(%rdi)
 4c2134c:	eb 18                	jmp    4c21366 <github.com/lasselj/timebeat/interactive/daemon.CreateCommands@@Base+0x986>
 4c2134e:	e8 ad 52 33 fd       	call   1f56600 <runtime.gcWriteBarrier@@Base>
 4c21353:	48 8d 5f 18          	lea    0x18(%rdi),%rbx
 4c21357:	48 89 df             	mov    %rbx,%rdi
 4c2135a:	48 8d 35 97 af 2c 01 	lea    0x12caf97(%rip),%rsi        # 5eec2f8 <github.com/lasselj/timebeat/interactive/api.GetPTPSockets·f@@Base>
 4c21361:	e8 fa 53 33 fd       	call   1f56760 <runtime.gcWriteBarrierSI@@Base>
 4c21366:	48 8d 05 13 b0 08 01 	lea    0x108b013(%rip),%rax        # 5cac380 <type:uKbinQcm@@Base>
 4c2136d:	e8 6e f1 2c fd       	call   1ef04e0 <runtime.newobject@@Base>
 4c21372:	48 89 84 24 98 00 00 	mov    %rax,0x98(%rsp)
 4c21379:	00 
 4c2137a:	48 8d 05 3f 2a bb 00 	lea    0xbb2a3f(%rip),%rax        # 57d3dc0 <type:[3]string@@Base>
 4c21381:	e8 5a f1 2c fd       	call   1ef04e0 <runtime.newobject@@Base>
 4c21386:	48 c7 40 08 04 00 00 	movq   $0x4,0x8(%rax)
 4c2138d:	00 
 4c2138e:	48 8d 0d 3b 53 01 00 	lea    0x1533b(%rip),%rcx        # 4c366d0 <_IO_stdin_used@@Base+0x36d0>
 4c21395:	48 89 08             	mov    %rcx,(%rax)
 4c21398:	48 c7 40 18 03 00 00 	movq   $0x3,0x18(%rax)
 4c2139f:	00 
 4c213a0:	48 8d 15 e3 2a 01 00 	lea    0x12ae3(%rip),%rdx        # 4c33e8a <_IO_stdin_used@@Base+0xe8a>
 4c213a7:	48 89 50 10          	mov    %rdx,0x10(%rax)
 4c213ab:	48 c7 40 28 05 00 00 	movq   $0x5,0x28(%rax)
 4c213b2:	00 
 4c213b3:	48 8d 1d c3 35 02 00 	lea    0x235c3(%rip),%rbx        # 4c4497d <_IO_stdin_used@@Base+0x1197d>
 4c213ba:	48 89 58 20          	mov    %rbx,0x20(%rax)
 4c213be:	48 8b bc 24 98 00 00 	mov    0x98(%rsp),%rdi
 4c213c5:	00 
 4c213c6:	48 c7 47 08 03 00 00 	movq   $0x3,0x8(%rdi)
 4c213cd:	00 
 4c213ce:	48 c7 47 10 03 00 00 	movq   $0x3,0x10(%rdi)
 4c213d5:	00 
 4c213d6:	83 3d 83 a5 25 03 00 	cmpl   $0x0,0x325a583(%rip)        # 7e7b960 <runtime.writeBarrier@@Base>
 4c213dd:	75 10                	jne    4c213ef <github.com/lasselj/timebeat/interactive/daemon.CreateCommands@@Base+0xa0f>
 4c213df:	48 89 07             	mov    %rax,(%rdi)
 4c213e2:	48 8d 1d 07 af 2c 01 	lea    0x12caf07(%rip),%rbx        # 5eec2f0 <github.com/lasselj/timebeat/interactive/api.GetPTPClients·f@@Base>
 4c213e9:	48 89 5f 18          	mov    %rbx,0x18(%rdi)
 4c213ed:	eb 18                	jmp    4c21407 <github.com/lasselj/timebeat/interactive/daemon.CreateCommands@@Base+0xa27>
 4c213ef:	e8 0c 52 33 fd       	call   1f56600 <runtime.gcWriteBarrier@@Base>
 4c213f4:	48 8d 5f 18          	lea    0x18(%rdi),%rbx
 4c213f8:	48 89 df             	mov    %rbx,%rdi
 4c213fb:	48 8d 35 ee ae 2c 01 	lea    0x12caeee(%rip),%rsi        # 5eec2f0 <github.com/lasselj/timebeat/interactive/api.GetPTPClients·f@@Base>
 4c21402:	e8 59 53 33 fd       	call   1f56760 <runtime.gcWriteBarrierSI@@Base>
 4c21407:	48 8d 05 72 af 08 01 	lea    0x108af72(%rip),%rax        # 5cac380 <type:uKbinQcm@@Base>
 4c2140e:	e8 cd f0 2c fd       	call   1ef04e0 <runtime.newobject@@Base>
 4c21413:	48 89 84 24 a8 00 00 	mov    %rax,0xa8(%rsp)
 4c2141a:	00 
 4c2141b:	48 8d 05 1e 49 bb 00 	lea    0xbb491e(%rip),%rax        # 57d5d40 <type:[4]string@@Base>
 4c21422:	e8 b9 f0 2c fd       	call   1ef04e0 <runtime.newobject@@Base>
 4c21427:	48 c7 40 08 04 00 00 	movq   $0x4,0x8(%rax)
 4c2142e:	00 
 4c2142f:	48 8d 0d 9a 52 01 00 	lea    0x1529a(%rip),%rcx        # 4c366d0 <_IO_stdin_used@@Base+0x36d0>
 4c21436:	48 89 08             	mov    %rcx,(%rax)
 4c21439:	48 c7 40 18 03 00 00 	movq   $0x3,0x18(%rax)
 4c21440:	00 
 4c21441:	48 8d 15 42 2a 01 00 	lea    0x12a42(%rip),%rdx        # 4c33e8a <_IO_stdin_used@@Base+0xe8a>
 4c21448:	48 89 50 10          	mov    %rdx,0x10(%rax)
 4c2144c:	48 c7 40 28 04 00 00 	movq   $0x4,0x28(%rax)
 4c21453:	00 
 4c21454:	48 8d 1d 31 51 01 00 	lea    0x15131(%rip),%rbx        # 4c3658c <_IO_stdin_used@@Base+0x358c>
 4c2145b:	48 89 58 20          	mov    %rbx,0x20(%rax)
 4c2145f:	48 c7 40 38 0c 00 00 	movq   $0xc,0x38(%rax)
 4c21466:	00 
 4c21467:	48 8d 35 f1 fe 04 00 	lea    0x4fef1(%rip),%rsi        # 4c7135f <_IO_stdin_used@@Base+0x3e35f>
 4c2146e:	48 89 70 30          	mov    %rsi,0x30(%rax)
 4c21472:	48 8b bc 24 a8 00 00 	mov    0xa8(%rsp),%rdi
 4c21479:	00 
 4c2147a:	48 c7 47 08 04 00 00 	movq   $0x4,0x8(%rdi)
 4c21481:	00 
 4c21482:	48 c7 47 10 04 00 00 	movq   $0x4,0x10(%rdi)
 4c21489:	00 
 4c2148a:	83 3d cf a4 25 03 00 	cmpl   $0x0,0x325a4cf(%rip)        # 7e7b960 <runtime.writeBarrier@@Base>
 4c21491:	75 10                	jne    4c214a3 <github.com/lasselj/timebeat/interactive/daemon.CreateCommands@@Base+0xac3>
 4c21493:	48 89 07             	mov    %rax,(%rdi)
 4c21496:	48 8d 35 4b ae 2c 01 	lea    0x12cae4b(%rip),%rsi        # 5eec2e8 <github.com/lasselj/timebeat/interactive/api.GetPTPClientSubscriptions·f@@Base>
 4c2149d:	48 89 77 18          	mov    %rsi,0x18(%rdi)
 4c214a1:	eb 18                	jmp    4c214bb <github.com/lasselj/timebeat/interactive/daemon.CreateCommands@@Base+0xadb>
 4c214a3:	e8 58 51 33 fd       	call   1f56600 <runtime.gcWriteBarrier@@Base>
 4c214a8:	48 8d 77 18          	lea    0x18(%rdi),%rsi
 4c214ac:	48 89 f7             	mov    %rsi,%rdi
 4c214af:	4c 8d 05 32 ae 2c 01 	lea    0x12cae32(%rip),%r8        # 5eec2e8 <github.com/lasselj/timebeat/interactive/api.GetPTPClientSubscriptions·f@@Base>
 4c214b6:	e8 c5 52 33 fd       	call   1f56780 <runtime.gcWriteBarrierR8@@Base>
 4c214bb:	48 8d 05 be ae 08 01 	lea    0x108aebe(%rip),%rax        # 5cac380 <type:uKbinQcm@@Base>
 4c214c2:	e8 19 f0 2c fd       	call   1ef04e0 <runtime.newobject@@Base>
 4c214c7:	48 89 84 24 d8 00 00 	mov    %rax,0xd8(%rsp)
 4c214ce:	00 
 4c214cf:	48 8d 05 6a 48 bb 00 	lea    0xbb486a(%rip),%rax        # 57d5d40 <type:[4]string@@Base>
 4c214d6:	e8 05 f0 2c fd       	call   1ef04e0 <runtime.newobject@@Base>
 4c214db:	48 c7 40 08 04 00 00 	movq   $0x4,0x8(%rax)
 4c214e2:	00 
 4c214e3:	48 8d 0d e6 51 01 00 	lea    0x151e6(%rip),%rcx        # 4c366d0 <_IO_stdin_used@@Base+0x36d0>
 4c214ea:	48 89 08             	mov    %rcx,(%rax)
 4c214ed:	48 c7 40 18 03 00 00 	movq   $0x3,0x18(%rax)
 4c214f4:	00 
 4c214f5:	48 8d 15 8e 29 01 00 	lea    0x1298e(%rip),%rdx        # 4c33e8a <_IO_stdin_used@@Base+0xe8a>
 4c214fc:	48 89 50 10          	mov    %rdx,0x10(%rax)
 4c21500:	48 c7 40 28 04 00 00 	movq   $0x4,0x28(%rax)
 4c21507:	00 
 4c21508:	48 8d 1d 7d 50 01 00 	lea    0x1507d(%rip),%rbx        # 4c3658c <_IO_stdin_used@@Base+0x358c>
 4c2150f:	48 89 58 20          	mov    %rbx,0x20(%rax)
 4c21513:	48 c7 40 38 03 00 00 	movq   $0x3,0x38(%rax)
 4c2151a:	00 
 4c2151b:	48 8d 35 6a 27 01 00 	lea    0x1276a(%rip),%rsi        # 4c33c8c <_IO_stdin_used@@Base+0xc8c>
 4c21522:	48 89 70 30          	mov    %rsi,0x30(%rax)
 4c21526:	48 8b bc 24 d8 00 00 	mov    0xd8(%rsp),%rdi
 4c2152d:	00 
 4c2152e:	48 c7 47 08 04 00 00 	movq   $0x4,0x8(%rdi)
 4c21535:	00 
 4c21536:	48 c7 47 10 04 00 00 	movq   $0x4,0x10(%rdi)
 4c2153d:	00 
 4c2153e:	83 3d 1b a4 25 03 00 	cmpl   $0x0,0x325a41b(%rip)        # 7e7b960 <runtime.writeBarrier@@Base>
 4c21545:	75 10                	jne    4c21557 <github.com/lasselj/timebeat/interactive/daemon.CreateCommands@@Base+0xb77>
 4c21547:	48 89 07             	mov    %rax,(%rdi)
 4c2154a:	48 8d 35 8f ad 2c 01 	lea    0x12cad8f(%rip),%rsi        # 5eec2e0 <github.com/lasselj/timebeat/interactive/api.GetPTPClientEos·f@@Base>
 4c21551:	48 89 77 18          	mov    %rsi,0x18(%rdi)
 4c21555:	eb 18                	jmp    4c2156f <github.com/lasselj/timebeat/interactive/daemon.CreateCommands@@Base+0xb8f>
 4c21557:	e8 a4 50 33 fd       	call   1f56600 <runtime.gcWriteBarrier@@Base>
 4c2155c:	48 8d 77 18          	lea    0x18(%rdi),%rsi
 4c21560:	48 89 f7             	mov    %rsi,%rdi
 4c21563:	4c 8d 05 76 ad 2c 01 	lea    0x12cad76(%rip),%r8        # 5eec2e0 <github.com/lasselj/timebeat/interactive/api.GetPTPClientEos·f@@Base>
 4c2156a:	e8 11 52 33 fd       	call   1f56780 <runtime.gcWriteBarrierR8@@Base>
 4c2156f:	48 8d 05 0a ae 08 01 	lea    0x108ae0a(%rip),%rax        # 5cac380 <type:uKbinQcm@@Base>
 4c21576:	e8 65 ef 2c fd       	call   1ef04e0 <runtime.newobject@@Base>
 4c2157b:	48 89 84 24 88 00 00 	mov    %rax,0x88(%rsp)
 4c21582:	00 
 4c21583:	48 8d 05 36 28 bb 00 	lea    0xbb2836(%rip),%rax        # 57d3dc0 <type:[3]string@@Base>
 4c2158a:	e8 51 ef 2c fd       	call   1ef04e0 <runtime.newobject@@Base>
 4c2158f:	48 c7 40 08 04 00 00 	movq   $0x4,0x8(%rax)
 4c21596:	00 
 4c21597:	48 8d 0d 32 51 01 00 	lea    0x15132(%rip),%rcx        # 4c366d0 <_IO_stdin_used@@Base+0x36d0>
 4c2159e:	48 89 08             	mov    %rcx,(%rax)
 4c215a1:	48 c7 40 18 05 00 00 	movq   $0x5,0x18(%rax)
 4c215a8:	00 
 4c215a9:	48 8d 15 d0 35 02 00 	lea    0x235d0(%rip),%rdx        # 4c44b80 <_IO_stdin_used@@Base+0x11b80>
 4c215b0:	48 89 50 10          	mov    %rdx,0x10(%rax)
 4c215b4:	48 c7 40 28 07 00 00 	movq   $0x7,0x28(%rax)
 4c215bb:	00 
 4c215bc:	48 8d 15 9c 01 04 00 	lea    0x4019c(%rip),%rdx        # 4c6175f <_IO_stdin_used@@Base+0x2e75f>
 4c215c3:	48 89 50 20          	mov    %rdx,0x20(%rax)
 4c215c7:	48 8b bc 24 88 00 00 	mov    0x88(%rsp),%rdi
 4c215ce:	00 
 4c215cf:	48 c7 47 08 03 00 00 	movq   $0x3,0x8(%rdi)
 4c215d6:	00 
 4c215d7:	48 c7 47 10 03 00 00 	movq   $0x3,0x10(%rdi)
 4c215de:	00 
 4c215df:	83 3d 7a a3 25 03 00 	cmpl   $0x0,0x325a37a(%rip)        # 7e7b960 <runtime.writeBarrier@@Base>
 4c215e6:	75 10                	jne    4c215f8 <github.com/lasselj/timebeat/interactive/daemon.CreateCommands@@Base+0xc18>
 4c215e8:	48 89 07             	mov    %rax,(%rdi)
 4c215eb:	48 8d 15 3e ad 2c 01 	lea    0x12cad3e(%rip),%rdx        # 5eec330 <github.com/lasselj/timebeat/interactive/api.GetServoSources·f@@Base>
 4c215f2:	48 89 57 18          	mov    %rdx,0x18(%rdi)
 4c215f6:	eb 18                	jmp    4c21610 <github.com/lasselj/timebeat/interactive/daemon.CreateCommands@@Base+0xc30>
 4c215f8:	e8 03 50 33 fd       	call   1f56600 <runtime.gcWriteBarrier@@Base>
 4c215fd:	48 8d 57 18          	lea    0x18(%rdi),%rdx
 4c21601:	48 89 d7             	mov    %rdx,%rdi
 4c21604:	48 8d 1d 25 ad 2c 01 	lea    0x12cad25(%rip),%rbx        # 5eec330 <github.com/lasselj/timebeat/interactive/api.GetServoSources·f@@Base>
 4c2160b:	e8 30 51 33 fd       	call   1f56740 <runtime.gcWriteBarrierBX@@Base>
 4c21610:	48 8d 05 69 ad 08 01 	lea    0x108ad69(%rip),%rax        # 5cac380 <type:uKbinQcm@@Base>
 4c21617:	e8 c4 ee 2c fd       	call   1ef04e0 <runtime.newobject@@Base>
 4c2161c:	48 89 84 24 58 01 00 	mov    %rax,0x158(%rsp)
 4c21623:	00 
 4c21624:	48 8d 05 95 27 bb 00 	lea    0xbb2795(%rip),%rax        # 57d3dc0 <type:[3]string@@Base>
 4c2162b:	e8 b0 ee 2c fd       	call   1ef04e0 <runtime.newobject@@Base>
 4c21630:	48 c7 40 08 04 00 00 	movq   $0x4,0x8(%rax)
 4c21637:	00 
 4c21638:	48 8d 0d 91 50 01 00 	lea    0x15091(%rip),%rcx        # 4c366d0 <_IO_stdin_used@@Base+0x36d0>
 4c2163f:	48 89 08             	mov    %rcx,(%rax)
 4c21642:	48 c7 40 18 0d 00 00 	movq   $0xd,0x18(%rax)
 4c21649:	00 
 4c2164a:	48 8d 15 07 b0 05 00 	lea    0x5b007(%rip),%rdx        # 4c7c658 <_IO_stdin_used@@Base+0x49658>
 4c21651:	48 89 50 10          	mov    %rdx,0x10(%rax)
 4c21655:	48 c7 40 28 0b 00 00 	movq   $0xb,0x28(%rax)
 4c2165c:	00 
 4c2165d:	48 8d 15 53 bb 04 00 	lea    0x4bb53(%rip),%rdx        # 4c6d1b7 <_IO_stdin_used@@Base+0x3a1b7>
 4c21664:	48 89 50 20          	mov    %rdx,0x20(%rax)
 4c21668:	48 8b bc 24 58 01 00 	mov    0x158(%rsp),%rdi
 4c2166f:	00 
 4c21670:	48 c7 47 08 03 00 00 	movq   $0x3,0x8(%rdi)
 4c21677:	00 
 4c21678:	48 c7 47 10 03 00 00 	movq   $0x3,0x10(%rdi)
 4c2167f:	00 
 4c21680:	83 3d d9 a2 25 03 00 	cmpl   $0x0,0x325a2d9(%rip)        # 7e7b960 <runtime.writeBarrier@@Base>
 4c21687:	75 10                	jne    4c21699 <github.com/lasselj/timebeat/interactive/daemon.CreateCommands@@Base+0xcb9>
 4c21689:	48 89 07             	mov    %rax,(%rdi)
 4c2168c:	48 8d 15 2d ac 2c 01 	lea    0x12cac2d(%rip),%rdx        # 5eec2c0 <github.com/lasselj/timebeat/interactive/api.GetConfigurationTimeSources·f@@Base>
 4c21693:	48 89 57 18          	mov    %rdx,0x18(%rdi)
 4c21697:	eb 18                	jmp    4c216b1 <github.com/lasselj/timebeat/interactive/daemon.CreateCommands@@Base+0xcd1>
 4c21699:	e8 62 4f 33 fd       	call   1f56600 <runtime.gcWriteBarrier@@Base>
 4c2169e:	48 8d 57 18          	lea    0x18(%rdi),%rdx
 4c216a2:	48 89 d7             	mov    %rdx,%rdi
 4c216a5:	48 8d 1d 14 ac 2c 01 	lea    0x12cac14(%rip),%rbx        # 5eec2c0 <github.com/lasselj/timebeat/interactive/api.GetConfigurationTimeSources·f@@Base>
 4c216ac:	e8 8f 50 33 fd       	call   1f56740 <runtime.gcWriteBarrierBX@@Base>
 4c216b1:	48 8d 05 c8 ac 08 01 	lea    0x108acc8(%rip),%rax        # 5cac380 <type:uKbinQcm@@Base>
 4c216b8:	e8 23 ee 2c fd       	call   1ef04e0 <runtime.newobject@@Base>
 4c216bd:	48 89 84 24 c0 01 00 	mov    %rax,0x1c0(%rsp)
 4c216c4:	00 
 4c216c5:	48 8d 05 54 57 bb 00 	lea    0xbb5754(%rip),%rax        # 57d6e20 <type:[5]string@@Base>
 4c216cc:	e8 0f ee 2c fd       	call   1ef04e0 <runtime.newobject@@Base>
 4c216d1:	48 c7 40 08 03 00 00 	movq   $0x3,0x8(%rax)
 4c216d8:	00 
 4c216d9:	48 8d 0d 04 28 01 00 	lea    0x12804(%rip),%rcx        # 4c33ee4 <_IO_stdin_used@@Base+0xee4>
 4c216e0:	48 89 08             	mov    %rcx,(%rax)
 4c216e3:	48 c7 40 18 03 00 00 	movq   $0x3,0x18(%rax)
 4c216ea:	00 
 4c216eb:	48 8d 15 98 27 01 00 	lea    0x12798(%rip),%rdx        # 4c33e8a <_IO_stdin_used@@Base+0xe8a>
 4c216f2:	48 89 50 10          	mov    %rdx,0x10(%rax)
 4c216f6:	48 c7 40 28 06 00 00 	movq   $0x6,0x28(%rax)
 4c216fd:	00 
 4c216fe:	48 8d 1d aa d2 03 00 	lea    0x3d2aa(%rip),%rbx        # 4c5e9af <_IO_stdin_used@@Base+0x2b9af>
 4c21705:	48 89 58 20          	mov    %rbx,0x20(%rax)
 4c21709:	48 c7 40 38 05 00 00 	movq   $0x5,0x38(%rax)
 4c21710:	00 
 4c21711:	48 8d 35 49 35 02 00 	lea    0x23549(%rip),%rsi        # 4c44c61 <_IO_stdin_used@@Base+0x11c61>
 4c21718:	48 89 70 30          	mov    %rsi,0x30(%rax)
 4c2171c:	48 c7 40 48 06 00 00 	movq   $0x6,0x48(%rax)
 4c21723:	00 
 4c21724:	48 8d 3d 4a ca 03 00 	lea    0x3ca4a(%rip),%rdi        # 4c5e175 <_IO_stdin_used@@Base+0x2b175>
 4c2172b:	48 89 78 40          	mov    %rdi,0x40(%rax)
 4c2172f:	48 8b bc 24 c0 01 00 	mov    0x1c0(%rsp),%rdi
 4c21736:	00 
 4c21737:	48 c7 47 08 05 00 00 	movq   $0x5,0x8(%rdi)
 4c2173e:	00 
 4c2173f:	48 c7 47 10 05 00 00 	movq   $0x5,0x10(%rdi)
 4c21746:	00 
 4c21747:	83 3d 12 a2 25 03 00 	cmpl   $0x0,0x325a212(%rip)        # 7e7b960 <runtime.writeBarrier@@Base>
 4c2174e:	75 12                	jne    4c21762 <github.com/lasselj/timebeat/interactive/daemon.CreateCommands@@Base+0xd82>
 4c21750:	48 89 07             	mov    %rax,(%rdi)
 4c21753:	4c 8d 05 ee ab 2c 01 	lea    0x12cabee(%rip),%r8        # 5eec348 <github.com/lasselj/timebeat/interactive/api.SetEnableDispatchStatistics·f@@Base>
 4c2175a:	4c 89 47 18          	mov    %r8,0x18(%rdi)
 4c2175e:	66 90                	xchg   %ax,%ax
 4c21760:	eb 18                	jmp    4c2177a <github.com/lasselj/timebeat/interactive/daemon.CreateCommands@@Base+0xd9a>
 4c21762:	e8 99 4e 33 fd       	call   1f56600 <runtime.gcWriteBarrier@@Base>
 4c21767:	4c 8d 47 18          	lea    0x18(%rdi),%r8
 4c2176b:	4c 89 c7             	mov    %r8,%rdi
 4c2176e:	4c 8d 0d d3 ab 2c 01 	lea    0x12cabd3(%rip),%r9        # 5eec348 <github.com/lasselj/timebeat/interactive/api.SetEnableDispatchStatistics·f@@Base>
 4c21775:	e8 26 50 33 fd       	call   1f567a0 <runtime.gcWriteBarrierR9@@Base>
 4c2177a:	48 8d 05 ff ab 08 01 	lea    0x108abff(%rip),%rax        # 5cac380 <type:uKbinQcm@@Base>
 4c21781:	e8 5a ed 2c fd       	call   1ef04e0 <runtime.newobject@@Base>
 4c21786:	48 89 84 24 c8 01 00 	mov    %rax,0x1c8(%rsp)
 4c2178d:	00 
 4c2178e:	48 8d 05 8b 56 bb 00 	lea    0xbb568b(%rip),%rax        # 57d6e20 <type:[5]string@@Base>
 4c21795:	e8 46 ed 2c fd       	call   1ef04e0 <runtime.newobject@@Base>
 4c2179a:	48 c7 40 08 03 00 00 	movq   $0x3,0x8(%rax)
 4c217a1:	00 
 4c217a2:	48 8d 0d 3b 27 01 00 	lea    0x1273b(%rip),%rcx        # 4c33ee4 <_IO_stdin_used@@Base+0xee4>
 4c217a9:	48 89 08             	mov    %rcx,(%rax)
 4c217ac:	48 c7 40 18 03 00 00 	movq   $0x3,0x18(%rax)
 4c217b3:	00 
 4c217b4:	48 8d 15 cf 26 01 00 	lea    0x126cf(%rip),%rdx        # 4c33e8a <_IO_stdin_used@@Base+0xe8a>
 4c217bb:	48 89 50 10          	mov    %rdx,0x10(%rax)
 4c217bf:	48 c7 40 28 06 00 00 	movq   $0x6,0x28(%rax)
 4c217c6:	00 
 4c217c7:	48 8d 1d e1 d1 03 00 	lea    0x3d1e1(%rip),%rbx        # 4c5e9af <_IO_stdin_used@@Base+0x2b9af>
 4c217ce:	48 89 58 20          	mov    %rbx,0x20(%rax)
 4c217d2:	48 c7 40 38 05 00 00 	movq   $0x5,0x38(%rax)
 4c217d9:	00 
 4c217da:	48 8d 35 80 34 02 00 	lea    0x23480(%rip),%rsi        # 4c44c61 <_IO_stdin_used@@Base+0x11c61>
 4c217e1:	48 89 70 30          	mov    %rsi,0x30(%rax)
 4c217e5:	48 c7 40 48 07 00 00 	movq   $0x7,0x48(%rax)
 4c217ec:	00 
 4c217ed:	48 8d 3d bd ee 03 00 	lea    0x3eebd(%rip),%rdi        # 4c606b1 <_IO_stdin_used@@Base+0x2d6b1>
 4c217f4:	48 89 78 40          	mov    %rdi,0x40(%rax)
 4c217f8:	48 8b bc 24 c8 01 00 	mov    0x1c8(%rsp),%rdi
 4c217ff:	00 
 4c21800:	48 c7 47 08 05 00 00 	movq   $0x5,0x8(%rdi)
 4c21807:	00 
 4c21808:	48 c7 47 10 05 00 00 	movq   $0x5,0x10(%rdi)
 4c2180f:	00 
 4c21810:	83 3d 49 a1 25 03 00 	cmpl   $0x0,0x325a149(%rip)        # 7e7b960 <runtime.writeBarrier@@Base>
 4c21817:	75 10                	jne    4c21829 <github.com/lasselj/timebeat/interactive/daemon.CreateCommands@@Base+0xe49>
 4c21819:	48 89 07             	mov    %rax,(%rdi)
 4c2181c:	4c 8d 05 1d ab 2c 01 	lea    0x12cab1d(%rip),%r8        # 5eec340 <github.com/lasselj/timebeat/interactive/api.SetDisableDispatchStatistics·f@@Base>
 4c21823:	4c 89 47 18          	mov    %r8,0x18(%rdi)
 4c21827:	eb 1c                	jmp    4c21845 <github.com/lasselj/timebeat/interactive/daemon.CreateCommands@@Base+0xe65>
 4c21829:	e8 d2 4d 33 fd       	call   1f56600 <runtime.gcWriteBarrier@@Base>
 4c2182e:	4c 8d 47 18          	lea    0x18(%rdi),%r8
 4c21832:	4c 89 c7             	mov    %r8,%rdi
 4c21835:	4c 8d 0d 04 ab 2c 01 	lea    0x12cab04(%rip),%r9        # 5eec340 <github.com/lasselj/timebeat/interactive/api.SetDisableDispatchStatistics·f@@Base>
 4c2183c:	0f 1f 40 00          	nopl   0x0(%rax)
 4c21840:	e8 5b 4f 33 fd       	call   1f567a0 <runtime.gcWriteBarrierR9@@Base>
 4c21845:	48 8d 05 34 ab 08 01 	lea    0x108ab34(%rip),%rax        # 5cac380 <type:uKbinQcm@@Base>
 4c2184c:	e8 8f ec 2c fd       	call   1ef04e0 <runtime.newobject@@Base>
 4c21851:	48 89 84 24 e0 00 00 	mov    %rax,0xe0(%rsp)
 4c21858:	00 
 4c21859:	48 8d 05 e0 44 bb 00 	lea    0xbb44e0(%rip),%rax        # 57d5d40 <type:[4]string@@Base>
 4c21860:	e8 7b ec 2c fd       	call   1ef04e0 <runtime.newobject@@Base>
 4c21865:	48 c7 40 08 04 00 00 	movq   $0x4,0x8(%rax)
 4c2186c:	00 
 4c2186d:	48 8d 0d 5c 4e 01 00 	lea    0x14e5c(%rip),%rcx        # 4c366d0 <_IO_stdin_used@@Base+0x36d0>
 4c21874:	48 89 08             	mov    %rcx,(%rax)
 4c21877:	48 c7 40 18 03 00 00 	movq   $0x3,0x18(%rax)
 4c2187e:	00 
 4c2187f:	48 8d 15 04 26 01 00 	lea    0x12604(%rip),%rdx        # 4c33e8a <_IO_stdin_used@@Base+0xe8a>
 4c21886:	48 89 50 10          	mov    %rdx,0x10(%rax)
 4c2188a:	48 c7 40 28 06 00 00 	movq   $0x6,0x28(%rax)
 4c21891:	00 
 4c21892:	48 8d 1d 16 d1 03 00 	lea    0x3d116(%rip),%rbx        # 4c5e9af <_IO_stdin_used@@Base+0x2b9af>
 4c21899:	48 89 58 20          	mov    %rbx,0x20(%rax)
 4c2189d:	48 c7 40 38 05 00 00 	movq   $0x5,0x38(%rax)
 4c218a4:	00 
 4c218a5:	48 8d 1d b5 33 02 00 	lea    0x233b5(%rip),%rbx        # 4c44c61 <_IO_stdin_used@@Base+0x11c61>
 4c218ac:	48 89 58 30          	mov    %rbx,0x30(%rax)
 4c218b0:	48 8b bc 24 e0 00 00 	mov    0xe0(%rsp),%rdi
 4c218b7:	00 
 4c218b8:	48 c7 47 08 04 00 00 	movq   $0x4,0x8(%rdi)
 4c218bf:	00 
 4c218c0:	48 c7 47 10 04 00 00 	movq   $0x4,0x10(%rdi)
 4c218c7:	00 
 4c218c8:	83 3d 91 a0 25 03 00 	cmpl   $0x0,0x325a091(%rip)        # 7e7b960 <runtime.writeBarrier@@Base>
 4c218cf:	75 11                	jne    4c218e2 <github.com/lasselj/timebeat/interactive/daemon.CreateCommands@@Base+0xf02>
 4c218d1:	48 89 07             	mov    %rax,(%rdi)
 4c218d4:	48 8d 1d ed a9 2c 01 	lea    0x12ca9ed(%rip),%rbx        # 5eec2c8 <github.com/lasselj/timebeat/interactive/api.GetDispatchStatistics·f@@Base>
 4c218db:	48 89 5f 18          	mov    %rbx,0x18(%rdi)
 4c218df:	90                   	nop
 4c218e0:	eb 18                	jmp    4c218fa <github.com/lasselj/timebeat/interactive/daemon.CreateCommands@@Base+0xf1a>
 4c218e2:	e8 19 4d 33 fd       	call   1f56600 <runtime.gcWriteBarrier@@Base>
 4c218e7:	48 8d 5f 18          	lea    0x18(%rdi),%rbx
 4c218eb:	48 89 df             	mov    %rbx,%rdi
 4c218ee:	48 8d 35 d3 a9 2c 01 	lea    0x12ca9d3(%rip),%rsi        # 5eec2c8 <github.com/lasselj/timebeat/interactive/api.GetDispatchStatistics·f@@Base>
 4c218f5:	e8 66 4e 33 fd       	call   1f56760 <runtime.gcWriteBarrierSI@@Base>
 4c218fa:	48 8d 05 7f aa 08 01 	lea    0x108aa7f(%rip),%rax        # 5cac380 <type:uKbinQcm@@Base>
 4c21901:	e8 da eb 2c fd       	call   1ef04e0 <runtime.newobject@@Base>
 4c21906:	48 89 84 24 60 01 00 	mov    %rax,0x160(%rsp)
 4c2190d:	00 
 4c2190e:	48 8d 05 ab 24 bb 00 	lea    0xbb24ab(%rip),%rax        # 57d3dc0 <type:[3]string@@Base>
 4c21915:	e8 c6 eb 2c fd       	call   1ef04e0 <runtime.newobject@@Base>
 4c2191a:	48 c7 40 08 04 00 00 	movq   $0x4,0x8(%rax)
 4c21921:	00 
 4c21922:	48 8d 0d a7 4d 01 00 	lea    0x14da7(%rip),%rcx        # 4c366d0 <_IO_stdin_used@@Base+0x36d0>
 4c21929:	48 89 08             	mov    %rcx,(%rax)
 4c2192c:	48 c7 40 18 06 00 00 	movq   $0x6,0x18(%rax)
 4c21933:	00 
 4c21934:	48 8d 15 72 c6 03 00 	lea    0x3c672(%rip),%rdx        # 4c5dfad <_IO_stdin_used@@Base+0x2afad>
 4c2193b:	48 89 50 10          	mov    %rdx,0x10(%rax)
 4c2193f:	48 c7 40 28 06 00 00 	movq   $0x6,0x28(%rax)
 4c21946:	00 
 4c21947:	48 8d 1d bf cf 03 00 	lea    0x3cfbf(%rip),%rbx        # 4c5e90d <_IO_stdin_used@@Base+0x2b90d>
 4c2194e:	48 89 58 20          	mov    %rbx,0x20(%rax)
 4c21952:	48 8b bc 24 60 01 00 	mov    0x160(%rsp),%rdi
 4c21959:	00 
 4c2195a:	48 c7 47 08 03 00 00 	movq   $0x3,0x8(%rdi)
 4c21961:	00 
 4c21962:	48 c7 47 10 03 00 00 	movq   $0x3,0x10(%rdi)
 4c21969:	00 
 4c2196a:	83 3d ef 9f 25 03 00 	cmpl   $0x0,0x3259fef(%rip)        # 7e7b960 <runtime.writeBarrier@@Base>
 4c21971:	75 10                	jne    4c21983 <github.com/lasselj/timebeat/interactive/daemon.CreateCommands@@Base+0xfa3>
 4c21973:	48 89 07             	mov    %rax,(%rdi)
 4c21976:	48 8d 1d 3b a9 2c 01 	lea    0x12ca93b(%rip),%rbx        # 5eec2b8 <github.com/lasselj/timebeat/interactive/api.GetAllClockOffsets·f@@Base>
 4c2197d:	48 89 5f 18          	mov    %rbx,0x18(%rdi)
 4c21981:	eb 18                	jmp    4c2199b <github.com/lasselj/timebeat/interactive/daemon.CreateCommands@@Base+0xfbb>
 4c21983:	e8 78 4c 33 fd       	call   1f56600 <runtime.gcWriteBarrier@@Base>
 4c21988:	48 8d 5f 18          	lea    0x18(%rdi),%rbx
 4c2198c:	48 89 df             	mov    %rbx,%rdi
 4c2198f:	48 8d 35 22 a9 2c 01 	lea    0x12ca922(%rip),%rsi        # 5eec2b8 <github.com/lasselj/timebeat/interactive/api.GetAllClockOffsets·f@@Base>
 4c21996:	e8 c5 4d 33 fd       	call   1f56760 <runtime.gcWriteBarrierSI@@Base>
 4c2199b:	48 8d 05 de a9 08 01 	lea    0x108a9de(%rip),%rax        # 5cac380 <type:uKbinQcm@@Base>
 4c219a2:	e8 39 eb 2c fd       	call   1ef04e0 <runtime.newobject@@Base>
 4c219a7:	48 89 44 24 48       	mov    %rax,0x48(%rsp)
 4c219ac:	48 8d 05 0d 24 bb 00 	lea    0xbb240d(%rip),%rax        # 57d3dc0 <type:[3]string@@Base>
 4c219b3:	e8 28 eb 2c fd       	call   1ef04e0 <runtime.newobject@@Base>
 4c219b8:	48 c7 40 08 04 00 00 	movq   $0x4,0x8(%rax)
 4c219bf:	00 
 4c219c0:	48 8d 0d 09 4d 01 00 	lea    0x14d09(%rip),%rcx        # 4c366d0 <_IO_stdin_used@@Base+0x36d0>
 4c219c7:	48 89 08             	mov    %rcx,(%rax)
 4c219ca:	48 c7 40 18 04 00 00 	movq   $0x4,0x18(%rax)
 4c219d1:	00 
 4c219d2:	48 8d 15 93 4d 01 00 	lea    0x14d93(%rip),%rdx        # 4c3676c <_IO_stdin_used@@Base+0x376c>
 4c219d9:	48 89 50 10          	mov    %rdx,0x10(%rax)
 4c219dd:	48 c7 40 28 07 00 00 	movq   $0x7,0x28(%rax)
 4c219e4:	00 
 4c219e5:	48 8d 1d 21 eb 03 00 	lea    0x3eb21(%rip),%rbx        # 4c6050d <_IO_stdin_used@@Base+0x2d50d>
 4c219ec:	48 89 58 20          	mov    %rbx,0x20(%rax)
 4c219f0:	48 8b 7c 24 48       	mov    0x48(%rsp),%rdi
 4c219f5:	48 c7 47 08 03 00 00 	movq   $0x3,0x8(%rdi)
 4c219fc:	00 
 4c219fd:	48 c7 47 10 03 00 00 	movq   $0x3,0x10(%rdi)
 4c21a04:	00 
 4c21a05:	83 3d 54 9f 25 03 00 	cmpl   $0x0,0x3259f54(%rip)        # 7e7b960 <runtime.writeBarrier@@Base>
 4c21a0c:	75 12                	jne    4c21a20 <github.com/lasselj/timebeat/interactive/daemon.CreateCommands@@Base+0x1040>
 4c21a0e:	48 89 07             	mov    %rax,(%rdi)
 4c21a11:	48 8d 1d 20 a9 2c 01 	lea    0x12ca920(%rip),%rbx        # 5eec338 <github.com/lasselj/timebeat/interactive/api.GetTaasClients·f@@Base>
 4c21a18:	48 89 5f 18          	mov    %rbx,0x18(%rdi)
 4c21a1c:	eb 1a                	jmp    4c21a38 <github.com/lasselj/timebeat/interactive/daemon.CreateCommands@@Base+0x1058>
 4c21a1e:	66 90                	xchg   %ax,%ax
 4c21a20:	e8 db 4b 33 fd       	call   1f56600 <runtime.gcWriteBarrier@@Base>
 4c21a25:	48 8d 5f 18          	lea    0x18(%rdi),%rbx
 4c21a29:	48 89 df             	mov    %rbx,%rdi
 4c21a2c:	48 8d 35 05 a9 2c 01 	lea    0x12ca905(%rip),%rsi        # 5eec338 <github.com/lasselj/timebeat/interactive/api.GetTaasClients·f@@Base>
 4c21a33:	e8 28 4d 33 fd       	call   1f56760 <runtime.gcWriteBarrierSI@@Base>
 4c21a38:	48 8d 05 41 a9 08 01 	lea    0x108a941(%rip),%rax        # 5cac380 <type:uKbinQcm@@Base>
 4c21a3f:	90                   	nop
 4c21a40:	e8 9b ea 2c fd       	call   1ef04e0 <runtime.newobject@@Base>
 4c21a45:	48 89 84 24 68 01 00 	mov    %rax,0x168(%rsp)
 4c21a4c:	00 
 4c21a4d:	48 8d 05 ec 42 bb 00 	lea    0xbb42ec(%rip),%rax        # 57d5d40 <type:[4]string@@Base>
 4c21a54:	e8 87 ea 2c fd       	call   1ef04e0 <runtime.newobject@@Base>
 4c21a59:	48 c7 40 08 03 00 00 	movq   $0x3,0x8(%rax)
 4c21a60:	00 
 4c21a61:	48 8d 0d 7c 24 01 00 	lea    0x1247c(%rip),%rcx        # 4c33ee4 <_IO_stdin_used@@Base+0xee4>
 4c21a68:	48 89 08             	mov    %rcx,(%rax)
 4c21a6b:	48 c7 40 18 04 00 00 	movq   $0x4,0x18(%rax)
 4c21a72:	00 
 4c21a73:	48 8d 15 f2 4c 01 00 	lea    0x14cf2(%rip),%rdx        # 4c3676c <_IO_stdin_used@@Base+0x376c>
 4c21a7a:	48 89 50 10          	mov    %rdx,0x10(%rax)
 4c21a7e:	48 c7 40 28 06 00 00 	movq   $0x6,0x28(%rax)
 4c21a85:	00 
 4c21a86:	48 8d 1d 14 c5 03 00 	lea    0x3c514(%rip),%rbx        # 4c5dfa1 <_IO_stdin_used@@Base+0x2afa1>
 4c21a8d:	48 89 58 20          	mov    %rbx,0x20(%rax)
 4c21a91:	48 c7 40 38 06 00 00 	movq   $0x6,0x38(%rax)
 4c21a98:	00 
 4c21a99:	48 8d 35 eb c5 03 00 	lea    0x3c5eb(%rip),%rsi        # 4c5e08b <_IO_stdin_used@@Base+0x2b08b>
 4c21aa0:	48 89 70 30          	mov    %rsi,0x30(%rax)
 4c21aa4:	48 8b bc 24 68 01 00 	mov    0x168(%rsp),%rdi
 4c21aab:	00 
 4c21aac:	48 c7 47 08 04 00 00 	movq   $0x4,0x8(%rdi)
 4c21ab3:	00 
 4c21ab4:	48 c7 47 10 04 00 00 	movq   $0x4,0x10(%rdi)
 4c21abb:	00 
 4c21abc:	83 3d 9d 9e 25 03 00 	cmpl   $0x0,0x3259e9d(%rip)        # 7e7b960 <runtime.writeBarrier@@Base>
 4c21ac3:	75 10                	jne    4c21ad5 <github.com/lasselj/timebeat/interactive/daemon.CreateCommands@@Base+0x10f5>
 4c21ac5:	48 89 07             	mov    %rax,(%rdi)
 4c21ac8:	4c 8d 05 51 a9 2c 01 	lea    0x12ca951(%rip),%r8        # 5eec420 <github.com/lasselj/timebeat/interactive/api.SetTaasClientDelete·f@@Base>
 4c21acf:	4c 89 47 18          	mov    %r8,0x18(%rdi)
 4c21ad3:	eb 18                	jmp    4c21aed <github.com/lasselj/timebeat/interactive/daemon.CreateCommands@@Base+0x110d>
 4c21ad5:	e8 26 4b 33 fd       	call   1f56600 <runtime.gcWriteBarrier@@Base>
 4c21ada:	4c 8d 47 18          	lea    0x18(%rdi),%r8
 4c21ade:	4c 89 c7             	mov    %r8,%rdi
 4c21ae1:	4c 8d 0d 38 a9 2c 01 	lea    0x12ca938(%rip),%r9        # 5eec420 <github.com/lasselj/timebeat/interactive/api.SetTaasClientDelete·f@@Base>
 4c21ae8:	e8 b3 4c 33 fd       	call   1f567a0 <runtime.gcWriteBarrierR9@@Base>
 4c21aed:	48 8d 05 8c a8 08 01 	lea    0x108a88c(%rip),%rax        # 5cac380 <type:uKbinQcm@@Base>
 4c21af4:	e8 e7 e9 2c fd       	call   1ef04e0 <runtime.newobject@@Base>
 4c21af9:	48 89 84 24 70 01 00 	mov    %rax,0x170(%rsp)
 4c21b00:	00 
 4c21b01:	48 8d 05 38 42 bb 00 	lea    0xbb4238(%rip),%rax        # 57d5d40 <type:[4]string@@Base>
 4c21b08:	e8 d3 e9 2c fd       	call   1ef04e0 <runtime.newobject@@Base>
 4c21b0d:	48 c7 40 08 03 00 00 	movq   $0x3,0x8(%rax)
 4c21b14:	00 
 4c21b15:	48 8d 0d c8 23 01 00 	lea    0x123c8(%rip),%rcx        # 4c33ee4 <_IO_stdin_used@@Base+0xee4>
 4c21b1c:	48 89 08             	mov    %rcx,(%rax)
 4c21b1f:	48 c7 40 18 04 00 00 	movq   $0x4,0x18(%rax)
 4c21b26:	00 
 4c21b27:	48 8d 15 3e 4c 01 00 	lea    0x14c3e(%rip),%rdx        # 4c3676c <_IO_stdin_used@@Base+0x376c>
 4c21b2e:	48 89 50 10          	mov    %rdx,0x10(%rax)
 4c21b32:	48 c7 40 28 06 00 00 	movq   $0x6,0x28(%rax)
 4c21b39:	00 
 4c21b3a:	48 8d 15 60 c4 03 00 	lea    0x3c460(%rip),%rdx        # 4c5dfa1 <_IO_stdin_used@@Base+0x2afa1>
 4c21b41:	48 89 50 20          	mov    %rdx,0x20(%rax)
 4c21b45:	48 c7 40 38 03 00 00 	movq   $0x3,0x38(%rax)
 4c21b4c:	00 
 4c21b4d:	48 8d 15 2d 20 01 00 	lea    0x1202d(%rip),%rdx        # 4c33b81 <_IO_stdin_used@@Base+0xb81>
 4c21b54:	48 89 50 30          	mov    %rdx,0x30(%rax)
 4c21b58:	48 8b bc 24 70 01 00 	mov    0x170(%rsp),%rdi
 4c21b5f:	00 
 4c21b60:	48 c7 47 08 04 00 00 	movq   $0x4,0x8(%rdi)
 4c21b67:	00 
 4c21b68:	48 c7 47 10 04 00 00 	movq   $0x4,0x10(%rdi)
 4c21b6f:	00 
 4c21b70:	83 3d e9 9d 25 03 00 	cmpl   $0x0,0x3259de9(%rip)        # 7e7b960 <runtime.writeBarrier@@Base>
 4c21b77:	75 10                	jne    4c21b89 <github.com/lasselj/timebeat/interactive/daemon.CreateCommands@@Base+0x11a9>
 4c21b79:	48 89 07             	mov    %rax,(%rdi)
 4c21b7c:	48 8d 1d 95 a8 2c 01 	lea    0x12ca895(%rip),%rbx        # 5eec418 <github.com/lasselj/timebeat/interactive/api.SetTaasClientAdd·f@@Base>
 4c21b83:	48 89 5f 18          	mov    %rbx,0x18(%rdi)
 4c21b87:	eb 1c                	jmp    4c21ba5 <github.com/lasselj/timebeat/interactive/daemon.CreateCommands@@Base+0x11c5>
 4c21b89:	e8 72 4a 33 fd       	call   1f56600 <runtime.gcWriteBarrier@@Base>
 4c21b8e:	48 8d 5f 18          	lea    0x18(%rdi),%rbx
 4c21b92:	48 89 df             	mov    %rbx,%rdi
 4c21b95:	48 8d 35 7c a8 2c 01 	lea    0x12ca87c(%rip),%rsi        # 5eec418 <github.com/lasselj/timebeat/interactive/api.SetTaasClientAdd·f@@Base>
 4c21b9c:	0f 1f 40 00          	nopl   0x0(%rax)
 4c21ba0:	e8 bb 4b 33 fd       	call   1f56760 <runtime.gcWriteBarrierSI@@Base>
 4c21ba5:	48 8d 05 d4 a7 08 01 	lea    0x108a7d4(%rip),%rax        # 5cac380 <type:uKbinQcm@@Base>
 4c21bac:	e8 2f e9 2c fd       	call   1ef04e0 <runtime.newobject@@Base>
 4c21bb1:	48 89 84 24 78 01 00 	mov    %rax,0x178(%rsp)
 4c21bb8:	00 
 4c21bb9:	48 8d 05 80 41 bb 00 	lea    0xbb4180(%rip),%rax        # 57d5d40 <type:[4]string@@Base>
 4c21bc0:	e8 1b e9 2c fd       	call   1ef04e0 <runtime.newobject@@Base>
 4c21bc5:	48 c7 40 08 03 00 00 	movq   $0x3,0x8(%rax)
 4c21bcc:	00 
 4c21bcd:	48 8d 0d 10 23 01 00 	lea    0x12310(%rip),%rcx        # 4c33ee4 <_IO_stdin_used@@Base+0xee4>
 4c21bd4:	48 89 08             	mov    %rcx,(%rax)
 4c21bd7:	48 c7 40 18 03 00 00 	movq   $0x3,0x18(%rax)
 4c21bde:	00 
 4c21bdf:	48 8d 15 a4 22 01 00 	lea    0x122a4(%rip),%rdx        # 4c33e8a <_IO_stdin_used@@Base+0xe8a>
 4c21be6:	48 89 50 10          	mov    %rdx,0x10(%rax)
 4c21bea:	48 c7 40 28 04 00 00 	movq   $0x4,0x28(%rax)
 4c21bf1:	00 
 4c21bf2:	48 8d 1d 93 49 01 00 	lea    0x14993(%rip),%rbx        # 4c3658c <_IO_stdin_used@@Base+0x358c>
 4c21bf9:	48 89 58 20          	mov    %rbx,0x20(%rax)
 4c21bfd:	48 c7 40 38 09 00 00 	movq   $0x9,0x38(%rax)
 4c21c04:	00 
 4c21c05:	48 8d 35 81 50 04 00 	lea    0x45081(%rip),%rsi        # 4c66c8d <_IO_stdin_used@@Base+0x33c8d>
 4c21c0c:	48 89 70 30          	mov    %rsi,0x30(%rax)
 4c21c10:	48 8b bc 24 78 01 00 	mov    0x178(%rsp),%rdi
 4c21c17:	00 
 4c21c18:	48 c7 47 08 04 00 00 	movq   $0x4,0x8(%rdi)
 4c21c1f:	00 
 4c21c20:	48 c7 47 10 04 00 00 	movq   $0x4,0x10(%rdi)
 4c21c27:	00 
 4c21c28:	83 3d 31 9d 25 03 00 	cmpl   $0x0,0x3259d31(%rip)        # 7e7b960 <runtime.writeBarrier@@Base>
 4c21c2f:	75 11                	jne    4c21c42 <github.com/lasselj/timebeat/interactive/daemon.CreateCommands@@Base+0x1262>
 4c21c31:	48 89 07             	mov    %rax,(%rdi)
 4c21c34:	4c 8d 05 9d a7 2c 01 	lea    0x12ca79d(%rip),%r8        # 5eec3d8 <github.com/lasselj/timebeat/interactive/api.SetPTPClientSimulator·f@@Base>
 4c21c3b:	4c 89 47 18          	mov    %r8,0x18(%rdi)
 4c21c3f:	90                   	nop
 4c21c40:	eb 18                	jmp    4c21c5a <github.com/lasselj/timebeat/interactive/daemon.CreateCommands@@Base+0x127a>
 4c21c42:	e8 b9 49 33 fd       	call   1f56600 <runtime.gcWriteBarrier@@Base>
 4c21c47:	4c 8d 47 18          	lea    0x18(%rdi),%r8
 4c21c4b:	4c 89 c7             	mov    %r8,%rdi
 4c21c4e:	4c 8d 0d 83 a7 2c 01 	lea    0x12ca783(%rip),%r9        # 5eec3d8 <github.com/lasselj/timebeat/interactive/api.SetPTPClientSimulator·f@@Base>
 4c21c55:	e8 46 4b 33 fd       	call   1f567a0 <runtime.gcWriteBarrierR9@@Base>
 4c21c5a:	48 8d 05 1f a7 08 01 	lea    0x108a71f(%rip),%rax        # 5cac380 <type:uKbinQcm@@Base>
 4c21c61:	e8 7a e8 2c fd       	call   1ef04e0 <runtime.newobject@@Base>
 4c21c66:	48 89 84 24 b0 00 00 	mov    %rax,0xb0(%rsp)
 4c21c6d:	00 
 4c21c6e:	48 8d 05 cb 40 bb 00 	lea    0xbb40cb(%rip),%rax        # 57d5d40 <type:[4]string@@Base>
 4c21c75:	e8 66 e8 2c fd       	call   1ef04e0 <runtime.newobject@@Base>
 4c21c7a:	48 c7 40 08 04 00 00 	movq   $0x4,0x8(%rax)
 4c21c81:	00 
 4c21c82:	48 8d 0d 47 4a 01 00 	lea    0x14a47(%rip),%rcx        # 4c366d0 <_IO_stdin_used@@Base+0x36d0>
 4c21c89:	48 89 08             	mov    %rcx,(%rax)
 4c21c8c:	48 c7 40 18 03 00 00 	movq   $0x3,0x18(%rax)
 4c21c93:	00 
 4c21c94:	48 8d 15 ef 21 01 00 	lea    0x121ef(%rip),%rdx        # 4c33e8a <_IO_stdin_used@@Base+0xe8a>
 4c21c9b:	48 89 50 10          	mov    %rdx,0x10(%rax)
 4c21c9f:	48 c7 40 28 04 00 00 	movq   $0x4,0x28(%rax)
 4c21ca6:	00 
 4c21ca7:	48 8d 1d de 48 01 00 	lea    0x148de(%rip),%rbx        # 4c3658c <_IO_stdin_used@@Base+0x358c>
 4c21cae:	48 89 58 20          	mov    %rbx,0x20(%rax)
 4c21cb2:	48 c7 40 38 09 00 00 	movq   $0x9,0x38(%rax)
 4c21cb9:	00 
 4c21cba:	48 8d 35 cc 4f 04 00 	lea    0x44fcc(%rip),%rsi        # 4c66c8d <_IO_stdin_used@@Base+0x33c8d>
 4c21cc1:	48 89 70 30          	mov    %rsi,0x30(%rax)
 4c21cc5:	48 8b bc 24 b0 00 00 	mov    0xb0(%rsp),%rdi
 4c21ccc:	00 
 4c21ccd:	48 c7 47 08 04 00 00 	movq   $0x4,0x8(%rdi)
 4c21cd4:	00 
 4c21cd5:	48 c7 47 10 04 00 00 	movq   $0x4,0x10(%rdi)
 4c21cdc:	00 
 4c21cdd:	83 3d 7c 9c 25 03 00 	cmpl   $0x0,0x3259c7c(%rip)        # 7e7b960 <runtime.writeBarrier@@Base>
 4c21ce4:	75 10                	jne    4c21cf6 <github.com/lasselj/timebeat/interactive/daemon.CreateCommands@@Base+0x1316>
 4c21ce6:	48 89 07             	mov    %rax,(%rdi)
 4c21ce9:	48 8d 35 88 a7 2c 01 	lea    0x12ca788(%rip),%rsi        # 5eec478 <github.com/lasselj/timebeat/interactive/api.ShowPTPClientSimulator·f@@Base>
 4c21cf0:	48 89 77 18          	mov    %rsi,0x18(%rdi)
 4c21cf4:	eb 18                	jmp    4c21d0e <github.com/lasselj/timebeat/interactive/daemon.CreateCommands@@Base+0x132e>
 4c21cf6:	e8 05 49 33 fd       	call   1f56600 <runtime.gcWriteBarrier@@Base>
 4c21cfb:	48 8d 77 18          	lea    0x18(%rdi),%rsi
 4c21cff:	48 89 f7             	mov    %rsi,%rdi
 4c21d02:	4c 8d 05 6f a7 2c 01 	lea    0x12ca76f(%rip),%r8        # 5eec478 <github.com/lasselj/timebeat/interactive/api.ShowPTPClientSimulator·f@@Base>
 4c21d09:	e8 72 4a 33 fd       	call   1f56780 <runtime.gcWriteBarrierR8@@Base>
 4c21d0e:	48 8d 05 6b a6 08 01 	lea    0x108a66b(%rip),%rax        # 5cac380 <type:uKbinQcm@@Base>
 4c21d15:	e8 c6 e7 2c fd       	call   1ef04e0 <runtime.newobject@@Base>
 4c21d1a:	48 89 84 24 b8 01 00 	mov    %rax,0x1b8(%rsp)
 4c21d21:	00 
 4c21d22:	48 8d 05 f7 50 bb 00 	lea    0xbb50f7(%rip),%rax        # 57d6e20 <type:[5]string@@Base>
 4c21d29:	e8 b2 e7 2c fd       	call   1ef04e0 <runtime.newobject@@Base>
 4c21d2e:	48 c7 40 08 03 00 00 	movq   $0x3,0x8(%rax)
 4c21d35:	00 
 4c21d36:	48 8d 0d a7 21 01 00 	lea    0x121a7(%rip),%rcx        # 4c33ee4 <_IO_stdin_used@@Base+0xee4>
 4c21d3d:	48 89 08             	mov    %rcx,(%rax)
 4c21d40:	48 c7 40 18 03 00 00 	movq   $0x3,0x18(%rax)
 4c21d47:	00 
 4c21d48:	48 8d 15 3b 21 01 00 	lea    0x1213b(%rip),%rdx        # 4c33e8a <_IO_stdin_used@@Base+0xe8a>
 4c21d4f:	48 89 50 10          	mov    %rdx,0x10(%rax)
 4c21d53:	48 c7 40 28 04 00 00 	movq   $0x4,0x28(%rax)
 4c21d5a:	00 
 4c21d5b:	48 8d 1d 2a 48 01 00 	lea    0x1482a(%rip),%rbx        # 4c3658c <_IO_stdin_used@@Base+0x358c>
 4c21d62:	48 89 58 20          	mov    %rbx,0x20(%rax)
 4c21d66:	48 c7 40 38 08 00 00 	movq   $0x8,0x38(%rax)
 4c21d6d:	00 
 4c21d6e:	48 8d 35 b0 0f 04 00 	lea    0x40fb0(%rip),%rsi        # 4c62d25 <_IO_stdin_used@@Base+0x2fd25>
 4c21d75:	48 89 70 30          	mov    %rsi,0x30(%rax)
 4c21d79:	48 c7 40 48 06 00 00 	movq   $0x6,0x48(%rax)
 4c21d80:	00 
 4c21d81:	48 8d 35 ab d2 03 00 	lea    0x3d2ab(%rip),%rsi        # 4c5f033 <_IO_stdin_used@@Base+0x2c033>
 4c21d88:	48 89 70 40          	mov    %rsi,0x40(%rax)
 4c21d8c:	48 8b bc 24 b8 01 00 	mov    0x1b8(%rsp),%rdi
 4c21d93:	00 
 4c21d94:	48 c7 47 08 05 00 00 	movq   $0x5,0x8(%rdi)
 4c21d9b:	00 
 4c21d9c:	48 c7 47 10 05 00 00 	movq   $0x5,0x10(%rdi)
 4c21da3:	00 
 4c21da4:	83 3d b5 9b 25 03 00 	cmpl   $0x0,0x3259bb5(%rip)        # 7e7b960 <runtime.writeBarrier@@Base>
 4c21dab:	75 13                	jne    4c21dc0 <github.com/lasselj/timebeat/interactive/daemon.CreateCommands@@Base+0x13e0>
 4c21dad:	48 89 07             	mov    %rax,(%rdi)
 4c21db0:	48 8d 35 29 a6 2c 01 	lea    0x12ca629(%rip),%rsi        # 5eec3e0 <github.com/lasselj/timebeat/interactive/api.SetPTPPeerAnnounceUpdate·f@@Base>
 4c21db7:	48 89 77 18          	mov    %rsi,0x18(%rdi)
 4c21dbb:	eb 1b                	jmp    4c21dd8 <github.com/lasselj/timebeat/interactive/daemon.CreateCommands@@Base+0x13f8>
 4c21dbd:	0f 1f 00             	nopl   (%rax)
 4c21dc0:	e8 3b 48 33 fd       	call   1f56600 <runtime.gcWriteBarrier@@Base>
 4c21dc5:	48 8d 77 18          	lea    0x18(%rdi),%rsi
 4c21dc9:	48 89 f7             	mov    %rsi,%rdi
 4c21dcc:	4c 8d 05 0d a6 2c 01 	lea    0x12ca60d(%rip),%r8        # 5eec3e0 <github.com/lasselj/timebeat/interactive/api.SetPTPPeerAnnounceUpdate·f@@Base>
 4c21dd3:	e8 a8 49 33 fd       	call   1f56780 <runtime.gcWriteBarrierR8@@Base>
 4c21dd8:	48 8d 05 a1 a5 08 01 	lea    0x108a5a1(%rip),%rax        # 5cac380 <type:uKbinQcm@@Base>
 4c21ddf:	90                   	nop
 4c21de0:	e8 fb e6 2c fd       	call   1ef04e0 <runtime.newobject@@Base>
 4c21de5:	48 89 84 24 80 01 00 	mov    %rax,0x180(%rsp)
 4c21dec:	00 
 4c21ded:	48 8d 05 4c 3f bb 00 	lea    0xbb3f4c(%rip),%rax        # 57d5d40 <type:[4]string@@Base>
 4c21df4:	e8 e7 e6 2c fd       	call   1ef04e0 <runtime.newobject@@Base>
 4c21df9:	48 c7 40 08 03 00 00 	movq   $0x3,0x8(%rax)
 4c21e00:	00 
 4c21e01:	48 8d 0d dc 20 01 00 	lea    0x120dc(%rip),%rcx        # 4c33ee4 <_IO_stdin_used@@Base+0xee4>
 4c21e08:	48 89 08             	mov    %rcx,(%rax)
 4c21e0b:	48 c7 40 18 03 00 00 	movq   $0x3,0x18(%rax)
 4c21e12:	00 
 4c21e13:	48 8d 15 70 20 01 00 	lea    0x12070(%rip),%rdx        # 4c33e8a <_IO_stdin_used@@Base+0xe8a>
 4c21e1a:	48 89 50 10          	mov    %rdx,0x10(%rax)
 4c21e1e:	48 c7 40 28 04 00 00 	movq   $0x4,0x28(%rax)
 4c21e25:	00 
 4c21e26:	48 8d 1d 5f 47 01 00 	lea    0x1475f(%rip),%rbx        # 4c3658c <_IO_stdin_used@@Base+0x358c>
 4c21e2d:	48 89 58 20          	mov    %rbx,0x20(%rax)
 4c21e31:	48 c7 40 38 0b 00 00 	movq   $0xb,0x38(%rax)
 4c21e38:	00 
 4c21e39:	48 8d 35 24 aa 04 00 	lea    0x4aa24(%rip),%rsi        # 4c6c864 <_IO_stdin_used@@Base+0x39864>
 4c21e40:	48 89 70 30          	mov    %rsi,0x30(%rax)
 4c21e44:	48 8b bc 24 80 01 00 	mov    0x180(%rsp),%rdi
 4c21e4b:	00 
 4c21e4c:	48 c7 47 08 04 00 00 	movq   $0x4,0x8(%rdi)
 4c21e53:	00 
 4c21e54:	48 c7 47 10 04 00 00 	movq   $0x4,0x10(%rdi)
 4c21e5b:	00 
 4c21e5c:	83 3d fd 9a 25 03 00 	cmpl   $0x0,0x3259afd(%rip)        # 7e7b960 <runtime.writeBarrier@@Base>
 4c21e63:	75 10                	jne    4c21e75 <github.com/lasselj/timebeat/interactive/daemon.CreateCommands@@Base+0x1495>
 4c21e65:	48 89 07             	mov    %rax,(%rdi)
 4c21e68:	48 8d 35 e1 a4 2c 01 	lea    0x12ca4e1(%rip),%rsi        # 5eec350 <github.com/lasselj/timebeat/interactive/api.SetMonitorOnly·f@@Base>
 4c21e6f:	48 89 77 18          	mov    %rsi,0x18(%rdi)
 4c21e73:	eb 18                	jmp    4c21e8d <github.com/lasselj/timebeat/interactive/daemon.CreateCommands@@Base+0x14ad>
 4c21e75:	e8 86 47 33 fd       	call   1f56600 <runtime.gcWriteBarrier@@Base>
 4c21e7a:	48 8d 77 18          	lea    0x18(%rdi),%rsi
 4c21e7e:	48 89 f7             	mov    %rsi,%rdi
 4c21e81:	4c 8d 05 c8 a4 2c 01 	lea    0x12ca4c8(%rip),%r8        # 5eec350 <github.com/lasselj/timebeat/interactive/api.SetMonitorOnly·f@@Base>
 4c21e88:	e8 f3 48 33 fd       	call   1f56780 <runtime.gcWriteBarrierR8@@Base>
 4c21e8d:	48 8d 05 ec a4 08 01 	lea    0x108a4ec(%rip),%rax        # 5cac380 <type:uKbinQcm@@Base>
 4c21e94:	e8 47 e6 2c fd       	call   1ef04e0 <runtime.newobject@@Base>
 4c21e99:	48 89 84 24 a0 00 00 	mov    %rax,0xa0(%rsp)
 4c21ea0:	00 
 4c21ea1:	48 8d 05 98 3e bb 00 	lea    0xbb3e98(%rip),%rax        # 57d5d40 <type:[4]string@@Base>
 4c21ea8:	e8 33 e6 2c fd       	call   1ef04e0 <runtime.newobject@@Base>
 4c21ead:	48 c7 40 08 04 00 00 	movq   $0x4,0x8(%rax)
 4c21eb4:	00 
 4c21eb5:	48 8d 0d 14 48 01 00 	lea    0x14814(%rip),%rcx        # 4c366d0 <_IO_stdin_used@@Base+0x36d0>
 4c21ebc:	48 89 08             	mov    %rcx,(%rax)
 4c21ebf:	48 c7 40 18 03 00 00 	movq   $0x3,0x18(%rax)
 4c21ec6:	00 
 4c21ec7:	48 8d 15 bc 1f 01 00 	lea    0x11fbc(%rip),%rdx        # 4c33e8a <_IO_stdin_used@@Base+0xe8a>
 4c21ece:	48 89 50 10          	mov    %rdx,0x10(%rax)
 4c21ed2:	48 c7 40 28 04 00 00 	movq   $0x4,0x28(%rax)
 4c21ed9:	00 
 4c21eda:	48 8d 1d ab 46 01 00 	lea    0x146ab(%rip),%rbx        # 4c3658c <_IO_stdin_used@@Base+0x358c>
 4c21ee1:	48 89 58 20          	mov    %rbx,0x20(%rax)
 4c21ee5:	48 c7 40 38 09 00 00 	movq   $0x9,0x38(%rax)
 4c21eec:	00 
 4c21eed:	48 8d 35 4e 50 04 00 	lea    0x4504e(%rip),%rsi        # 4c66f42 <_IO_stdin_used@@Base+0x33f42>
 4c21ef4:	48 89 70 30          	mov    %rsi,0x30(%rax)
 4c21ef8:	48 8b bc 24 a0 00 00 	mov    0xa0(%rsp),%rdi
 4c21eff:	00 
 4c21f00:	48 c7 47 08 04 00 00 	movq   $0x4,0x8(%rdi)
 4c21f07:	00 
 4c21f08:	48 c7 47 10 04 00 00 	movq   $0x4,0x10(%rdi)
 4c21f0f:	00 
 4c21f10:	83 3d 49 9a 25 03 00 	cmpl   $0x0,0x3259a49(%rip)        # 7e7b960 <runtime.writeBarrier@@Base>
 4c21f17:	75 10                	jne    4c21f29 <github.com/lasselj/timebeat/interactive/daemon.CreateCommands@@Base+0x1549>
 4c21f19:	48 89 07             	mov    %rax,(%rdi)
 4c21f1c:	48 8d 35 85 a5 2c 01 	lea    0x12ca585(%rip),%rsi        # 5eec4a8 <github.com/lasselj/timebeat/interactive/api.ShowPTPServerTimeslots·f@@Base>
 4c21f23:	48 89 77 18          	mov    %rsi,0x18(%rdi)
 4c21f27:	eb 1c                	jmp    4c21f45 <github.com/lasselj/timebeat/interactive/daemon.CreateCommands@@Base+0x1565>
 4c21f29:	e8 d2 46 33 fd       	call   1f56600 <runtime.gcWriteBarrier@@Base>
 4c21f2e:	48 8d 77 18          	lea    0x18(%rdi),%rsi
 4c21f32:	48 89 f7             	mov    %rsi,%rdi
 4c21f35:	4c 8d 05 6c a5 2c 01 	lea    0x12ca56c(%rip),%r8        # 5eec4a8 <github.com/lasselj/timebeat/interactive/api.ShowPTPServerTimeslots·f@@Base>
 4c21f3c:	0f 1f 40 00          	nopl   0x0(%rax)
 4c21f40:	e8 3b 48 33 fd       	call   1f56780 <runtime.gcWriteBarrierR8@@Base>
 4c21f45:	48 8d 05 34 a4 08 01 	lea    0x108a434(%rip),%rax        # 5cac380 <type:uKbinQcm@@Base>
 4c21f4c:	e8 8f e5 2c fd       	call   1ef04e0 <runtime.newobject@@Base>
 4c21f51:	48 89 84 24 40 01 00 	mov    %rax,0x140(%rsp)
 4c21f58:	00 
 4c21f59:	48 8d 05 60 1e bb 00 	lea    0xbb1e60(%rip),%rax        # 57d3dc0 <type:[3]string@@Base>
 4c21f60:	e8 7b e5 2c fd       	call   1ef04e0 <runtime.newobject@@Base>
 4c21f65:	48 c7 40 08 04 00 00 	movq   $0x4,0x8(%rax)
 4c21f6c:	00 
 4c21f6d:	48 8d 0d 5c 47 01 00 	lea    0x1475c(%rip),%rcx        # 4c366d0 <_IO_stdin_used@@Base+0x36d0>
 4c21f74:	48 89 08             	mov    %rcx,(%rax)
 4c21f77:	48 c7 40 18 06 00 00 	movq   $0x6,0x18(%rax)
 4c21f7e:	00 
 4c21f7f:	48 8d 15 6f c9 03 00 	lea    0x3c96f(%rip),%rdx        # 4c5e8f5 <_IO_stdin_used@@Base+0x2b8f5>
 4c21f86:	48 89 50 10          	mov    %rdx,0x10(%rax)
 4c21f8a:	48 c7 40 28 09 00 00 	movq   $0x9,0x28(%rax)
 4c21f91:	00 
 4c21f92:	48 8d 1d 97 4f 04 00 	lea    0x44f97(%rip),%rbx        # 4c66f30 <_IO_stdin_used@@Base+0x33f30>
 4c21f99:	48 89 58 20          	mov    %rbx,0x20(%rax)
 4c21f9d:	48 8b bc 24 40 01 00 	mov    0x140(%rsp),%rdi
 4c21fa4:	00 
 4c21fa5:	48 c7 47 08 03 00 00 	movq   $0x3,0x8(%rdi)
 4c21fac:	00 
 4c21fad:	48 c7 47 10 03 00 00 	movq   $0x3,0x10(%rdi)
 4c21fb4:	00 
 4c21fb5:	83 3d a4 99 25 03 00 	cmpl   $0x0,0x32599a4(%rip)        # 7e7b960 <runtime.writeBarrier@@Base>
 4c21fbc:	75 10                	jne    4c21fce <github.com/lasselj/timebeat/interactive/daemon.CreateCommands@@Base+0x15ee>
 4c21fbe:	48 89 07             	mov    %rax,(%rdi)
 4c21fc1:	48 8d 1d 60 a4 2c 01 	lea    0x12ca460(%rip),%rbx        # 5eec428 <github.com/lasselj/timebeat/interactive/api.ShowOcpTapTimecards·f@@Base>
 4c21fc8:	48 89 5f 18          	mov    %rbx,0x18(%rdi)
 4c21fcc:	eb 18                	jmp    4c21fe6 <github.com/lasselj/timebeat/interactive/daemon.CreateCommands@@Base+0x1606>
 4c21fce:	e8 2d 46 33 fd       	call   1f56600 <runtime.gcWriteBarrier@@Base>
 4c21fd3:	48 8d 5f 18          	lea    0x18(%rdi),%rbx
 4c21fd7:	48 89 df             	mov    %rbx,%rdi
 4c21fda:	48 8d 35 47 a4 2c 01 	lea    0x12ca447(%rip),%rsi        # 5eec428 <github.com/lasselj/timebeat/interactive/api.ShowOcpTapTimecards·f@@Base>
 4c21fe1:	e8 7a 47 33 fd       	call   1f56760 <runtime.gcWriteBarrierSI@@Base>
 4c21fe6:	48 8d 05 93 a3 08 01 	lea    0x108a393(%rip),%rax        # 5cac380 <type:uKbinQcm@@Base>
 4c21fed:	e8 ee e4 2c fd       	call   1ef04e0 <runtime.newobject@@Base>
 4c21ff2:	48 89 84 24 48 01 00 	mov    %rax,0x148(%rsp)
 4c21ff9:	00 
 4c21ffa:	48 8d 05 bf 1d bb 00 	lea    0xbb1dbf(%rip),%rax        # 57d3dc0 <type:[3]string@@Base>
 4c22001:	e8 da e4 2c fd       	call   1ef04e0 <runtime.newobject@@Base>
 4c22006:	48 c7 40 08 04 00 00 	movq   $0x4,0x8(%rax)
 4c2200d:	00 
 4c2200e:	48 8d 0d bb 46 01 00 	lea    0x146bb(%rip),%rcx        # 4c366d0 <_IO_stdin_used@@Base+0x36d0>
 4c22015:	48 89 08             	mov    %rcx,(%rax)
 4c22018:	48 c7 40 18 06 00 00 	movq   $0x6,0x18(%rax)
 4c2201f:	00 
 4c22020:	48 8d 15 ce c8 03 00 	lea    0x3c8ce(%rip),%rdx        # 4c5e8f5 <_IO_stdin_used@@Base+0x2b8f5>
 4c22027:	48 89 50 10          	mov    %rdx,0x10(%rax)
 4c2202b:	48 c7 40 28 08 00 00 	movq   $0x8,0x28(%rax)
 4c22032:	00 
 4c22033:	48 8d 1d 9b 21 04 00 	lea    0x4219b(%rip),%rbx        # 4c641d5 <_IO_stdin_used@@Base+0x311d5>
 4c2203a:	48 89 58 20          	mov    %rbx,0x20(%rax)
 4c2203e:	48 8b bc 24 48 01 00 	mov    0x148(%rsp),%rdi
 4c22045:	00 
 4c22046:	48 c7 47 08 03 00 00 	movq   $0x3,0x8(%rdi)
 4c2204d:	00 
 4c2204e:	48 c7 47 10 03 00 00 	movq   $0x3,0x10(%rdi)
 4c22055:	00 
 4c22056:	83 3d 03 99 25 03 00 	cmpl   $0x0,0x3259903(%rip)        # 7e7b960 <runtime.writeBarrier@@Base>
 4c2205d:	75 10                	jne    4c2206f <github.com/lasselj/timebeat/interactive/daemon.CreateCommands@@Base+0x168f>
 4c2205f:	48 89 07             	mov    %rax,(%rdi)
 4c22062:	48 8d 35 c7 a3 2c 01 	lea    0x12ca3c7(%rip),%rsi        # 5eec430 <github.com/lasselj/timebeat/interactive/api.ShowOcpTapTimecard·f@@Base>
 4c22069:	48 89 77 18          	mov    %rsi,0x18(%rdi)
 4c2206d:	eb 18                	jmp    4c22087 <github.com/lasselj/timebeat/interactive/daemon.CreateCommands@@Base+0x16a7>
 4c2206f:	e8 8c 45 33 fd       	call   1f56600 <runtime.gcWriteBarrier@@Base>
 4c22074:	48 8d 77 18          	lea    0x18(%rdi),%rsi
 4c22078:	48 89 f7             	mov    %rsi,%rdi
 4c2207b:	4c 8d 05 ae a3 2c 01 	lea    0x12ca3ae(%rip),%r8        # 5eec430 <github.com/lasselj/timebeat/interactive/api.ShowOcpTapTimecard·f@@Base>
 4c22082:	e8 f9 46 33 fd       	call   1f56780 <runtime.gcWriteBarrierR8@@Base>
 4c22087:	48 8d 05 f2 a2 08 01 	lea    0x108a2f2(%rip),%rax        # 5cac380 <type:uKbinQcm@@Base>
 4c2208e:	e8 4d e4 2c fd       	call   1ef04e0 <runtime.newobject@@Base>
 4c22093:	48 89 84 24 40 02 00 	mov    %rax,0x240(%rsp)
 4c2209a:	00 
 4c2209b:	48 8d 05 9e 3c bb 00 	lea    0xbb3c9e(%rip),%rax        # 57d5d40 <type:[4]string@@Base>
 4c220a2:	e8 39 e4 2c fd       	call   1ef04e0 <runtime.newobject@@Base>
 4c220a7:	48 c7 40 08 03 00 00 	movq   $0x3,0x8(%rax)
 4c220ae:	00 
 4c220af:	48 8d 0d 2e 1e 01 00 	lea    0x11e2e(%rip),%rcx        # 4c33ee4 <_IO_stdin_used@@Base+0xee4>
 4c220b6:	48 89 08             	mov    %rcx,(%rax)
 4c220b9:	48 c7 40 18 06 00 00 	movq   $0x6,0x18(%rax)
 4c220c0:	00 
 4c220c1:	48 8d 15 2d c8 03 00 	lea    0x3c82d(%rip),%rdx        # 4c5e8f5 <_IO_stdin_used@@Base+0x2b8f5>
 4c220c8:	48 89 50 10          	mov    %rdx,0x10(%rax)
 4c220cc:	48 c7 40 28 08 00 00 	movq   $0x8,0x28(%rax)
 4c220d3:	00 
 4c220d4:	48 8d 1d fa 20 04 00 	lea    0x420fa(%rip),%rbx        # 4c641d5 <_IO_stdin_used@@Base+0x311d5>
 4c220db:	48 89 58 20          	mov    %rbx,0x20(%rax)
 4c220df:	48 c7 40 38 03 00 00 	movq   $0x3,0x38(%rax)
 4c220e6:	00 
 4c220e7:	48 8d 35 08 1e 01 00 	lea    0x11e08(%rip),%rsi        # 4c33ef6 <_IO_stdin_used@@Base+0xef6>
 4c220ee:	48 89 70 30          	mov    %rsi,0x30(%rax)
 4c220f2:	48 8b bc 24 40 02 00 	mov    0x240(%rsp),%rdi
 4c220f9:	00 
 4c220fa:	48 c7 47 08 04 00 00 	movq   $0x4,0x8(%rdi)
 4c22101:	00 
 4c22102:	48 c7 47 10 04 00 00 	movq   $0x4,0x10(%rdi)
 4c22109:	00 
 4c2210a:	83 3d 4f 98 25 03 00 	cmpl   $0x0,0x325984f(%rip)        # 7e7b960 <runtime.writeBarrier@@Base>
 4c22111:	75 10                	jne    4c22123 <github.com/lasselj/timebeat/interactive/daemon.CreateCommands@@Base+0x1743>
 4c22113:	48 89 07             	mov    %rax,(%rdi)
 4c22116:	48 8d 35 43 a2 2c 01 	lea    0x12ca243(%rip),%rsi        # 5eec360 <github.com/lasselj/timebeat/interactive/api.SetOcpTapTimecardSMA·f@@Base>
 4c2211d:	48 89 77 18          	mov    %rsi,0x18(%rdi)
 4c22121:	eb 18                	jmp    4c2213b <github.com/lasselj/timebeat/interactive/daemon.CreateCommands@@Base+0x175b>
 4c22123:	e8 d8 44 33 fd       	call   1f56600 <runtime.gcWriteBarrier@@Base>
 4c22128:	48 8d 77 18          	lea    0x18(%rdi),%rsi
 4c2212c:	48 89 f7             	mov    %rsi,%rdi
 4c2212f:	4c 8d 05 2a a2 2c 01 	lea    0x12ca22a(%rip),%r8        # 5eec360 <github.com/lasselj/timebeat/interactive/api.SetOcpTapTimecardSMA·f@@Base>
 4c22136:	e8 45 46 33 fd       	call   1f56780 <runtime.gcWriteBarrierR8@@Base>
 4c2213b:	48 8d 05 3e a2 08 01 	lea    0x108a23e(%rip),%rax        # 5cac380 <type:uKbinQcm@@Base>
 4c22142:	e8 99 e3 2c fd       	call   1ef04e0 <runtime.newobject@@Base>
 4c22147:	48 89 84 24 30 02 00 	mov    %rax,0x230(%rsp)
 4c2214e:	00 
 4c2214f:	48 8d 05 ea 3b bb 00 	lea    0xbb3bea(%rip),%rax        # 57d5d40 <type:[4]string@@Base>
 4c22156:	e8 85 e3 2c fd       	call   1ef04e0 <runtime.newobject@@Base>
 4c2215b:	48 c7 40 08 03 00 00 	movq   $0x3,0x8(%rax)
 4c22162:	00 
 4c22163:	48 8d 0d 7a 1d 01 00 	lea    0x11d7a(%rip),%rcx        # 4c33ee4 <_IO_stdin_used@@Base+0xee4>
 4c2216a:	48 89 08             	mov    %rcx,(%rax)
 4c2216d:	48 c7 40 18 06 00 00 	movq   $0x6,0x18(%rax)
 4c22174:	00 
 4c22175:	48 8d 15 79 c7 03 00 	lea    0x3c779(%rip),%rdx        # 4c5e8f5 <_IO_stdin_used@@Base+0x2b8f5>
 4c2217c:	48 89 50 10          	mov    %rdx,0x10(%rax)
 4c22180:	48 c7 40 28 08 00 00 	movq   $0x8,0x28(%rax)
 4c22187:	00 
 4c22188:	48 8d 1d 46 20 04 00 	lea    0x42046(%rip),%rbx        # 4c641d5 <_IO_stdin_used@@Base+0x311d5>
 4c2218f:	48 89 58 20          	mov    %rbx,0x20(%rax)
 4c22193:	48 c7 40 38 0e 00 00 	movq   $0xe,0x38(%rax)
 4c2219a:	00 
 4c2219b:	48 8d 35 0a 1e 0b 00 	lea    0xb1e0a(%rip),%rsi        # 4cd3fac <_IO_stdin_used@@Base+0xa0fac>
 4c221a2:	48 89 70 30          	mov    %rsi,0x30(%rax)
 4c221a6:	48 8b bc 24 30 02 00 	mov    0x230(%rsp),%rdi
 4c221ad:	00 
 4c221ae:	48 c7 47 08 04 00 00 	movq   $0x4,0x8(%rdi)
 4c221b5:	00 
 4c221b6:	48 c7 47 10 04 00 00 	movq   $0x4,0x10(%rdi)
 4c221bd:	00 
 4c221be:	83 3d 9b 97 25 03 00 	cmpl   $0x0,0x325979b(%rip)        # 7e7b960 <runtime.writeBarrier@@Base>
 4c221c5:	75 10                	jne    4c221d7 <github.com/lasselj/timebeat/interactive/daemon.CreateCommands@@Base+0x17f7>
 4c221c7:	48 89 07             	mov    %rax,(%rdi)
 4c221ca:	48 8d 35 9f a1 2c 01 	lea    0x12ca19f(%rip),%rsi        # 5eec370 <github.com/lasselj/timebeat/interactive/api.SetOcpTapTimecardUtcTaiOffset·f@@Base>
 4c221d1:	48 89 77 18          	mov    %rsi,0x18(%rdi)
 4c221d5:	eb 18                	jmp    4c221ef <github.com/lasselj/timebeat/interactive/daemon.CreateCommands@@Base+0x180f>
 4c221d7:	e8 24 44 33 fd       	call   1f56600 <runtime.gcWriteBarrier@@Base>
 4c221dc:	48 8d 77 18          	lea    0x18(%rdi),%rsi
 4c221e0:	48 89 f7             	mov    %rsi,%rdi
 4c221e3:	4c 8d 05 86 a1 2c 01 	lea    0x12ca186(%rip),%r8        # 5eec370 <github.com/lasselj/timebeat/interactive/api.SetOcpTapTimecardUtcTaiOffset·f@@Base>
 4c221ea:	e8 91 45 33 fd       	call   1f56780 <runtime.gcWriteBarrierR8@@Base>
 4c221ef:	48 8d 05 8a a1 08 01 	lea    0x108a18a(%rip),%rax        # 5cac380 <type:uKbinQcm@@Base>
 4c221f6:	e8 e5 e2 2c fd       	call   1ef04e0 <runtime.newobject@@Base>
 4c221fb:	48 89 84 24 38 02 00 	mov    %rax,0x238(%rsp)
 4c22202:	00 
 4c22203:	48 8d 05 36 3b bb 00 	lea    0xbb3b36(%rip),%rax        # 57d5d40 <type:[4]string@@Base>
 4c2220a:	e8 d1 e2 2c fd       	call   1ef04e0 <runtime.newobject@@Base>
 4c2220f:	48 c7 40 08 03 00 00 	movq   $0x3,0x8(%rax)
 4c22216:	00 
 4c22217:	48 8d 0d c6 1c 01 00 	lea    0x11cc6(%rip),%rcx        # 4c33ee4 <_IO_stdin_used@@Base+0xee4>
 4c2221e:	48 89 08             	mov    %rcx,(%rax)
 4c22221:	48 c7 40 18 06 00 00 	movq   $0x6,0x18(%rax)
 4c22228:	00 
 4c22229:	48 8d 15 c5 c6 03 00 	lea    0x3c6c5(%rip),%rdx        # 4c5e8f5 <_IO_stdin_used@@Base+0x2b8f5>
 4c22230:	48 89 50 10          	mov    %rdx,0x10(%rax)
 4c22234:	48 c7 40 28 08 00 00 	movq   $0x8,0x28(%rax)
 4c2223b:	00 
 4c2223c:	48 8d 1d 92 1f 04 00 	lea    0x41f92(%rip),%rbx        # 4c641d5 <_IO_stdin_used@@Base+0x311d5>
 4c22243:	48 89 58 20          	mov    %rbx,0x20(%rax)
 4c22247:	48 c7 40 38 10 00 00 	movq   $0x10,0x38(%rax)
 4c2224e:	00 
 4c2224f:	48 8d 35 aa 9d 0c 00 	lea    0xc9daa(%rip),%rsi        # 4cec000 <_IO_stdin_used@@Base+0xb9000>
 4c22256:	48 89 70 30          	mov    %rsi,0x30(%rax)
 4c2225a:	48 8b bc 24 38 02 00 	mov    0x238(%rsp),%rdi
 4c22261:	00 
 4c22262:	48 c7 47 08 04 00 00 	movq   $0x4,0x8(%rdi)
 4c22269:	00 
 4c2226a:	48 c7 47 10 04 00 00 	movq   $0x4,0x10(%rdi)
 4c22271:	00 
 4c22272:	83 3d e7 96 25 03 00 	cmpl   $0x0,0x32596e7(%rip)        # 7e7b960 <runtime.writeBarrier@@Base>
 4c22279:	75 10                	jne    4c2228b <github.com/lasselj/timebeat/interactive/daemon.CreateCommands@@Base+0x18ab>
 4c2227b:	48 89 07             	mov    %rax,(%rdi)
 4c2227e:	48 8d 35 e3 a0 2c 01 	lea    0x12ca0e3(%rip),%rsi        # 5eec368 <github.com/lasselj/timebeat/interactive/api.SetOcpTapTimecardTsWindowAdjust·f@@Base>
 4c22285:	48 89 77 18          	mov    %rsi,0x18(%rdi)
 4c22289:	eb 1a                	jmp    4c222a5 <github.com/lasselj/timebeat/interactive/daemon.CreateCommands@@Base+0x18c5>
 4c2228b:	e8 70 43 33 fd       	call   1f56600 <runtime.gcWriteBarrier@@Base>
 4c22290:	48 8d 77 18          	lea    0x18(%rdi),%rsi
 4c22294:	48 89 f7             	mov    %rsi,%rdi
 4c22297:	4c 8d 05 ca a0 2c 01 	lea    0x12ca0ca(%rip),%r8        # 5eec368 <github.com/lasselj/timebeat/interactive/api.SetOcpTapTimecardTsWindowAdjust·f@@Base>
 4c2229e:	66 90                	xchg   %ax,%ax
 4c222a0:	e8 db 44 33 fd       	call   1f56780 <runtime.gcWriteBarrierR8@@Base>
 4c222a5:	48 8d 05 d4 a0 08 01 	lea    0x108a0d4(%rip),%rax        # 5cac380 <type:uKbinQcm@@Base>
 4c222ac:	e8 2f e2 2c fd       	call   1ef04e0 <runtime.newobject@@Base>
 4c222b1:	48 89 84 24 48 02 00 	mov    %rax,0x248(%rsp)
 4c222b8:	00 
 4c222b9:	48 8d 05 80 3a bb 00 	lea    0xbb3a80(%rip),%rax        # 57d5d40 <type:[4]string@@Base>
 4c222c0:	e8 1b e2 2c fd       	call   1ef04e0 <runtime.newobject@@Base>
 4c222c5:	48 c7 40 08 03 00 00 	movq   $0x3,0x8(%rax)
 4c222cc:	00 
 4c222cd:	48 8d 0d 10 1c 01 00 	lea    0x11c10(%rip),%rcx        # 4c33ee4 <_IO_stdin_used@@Base+0xee4>
 4c222d4:	48 89 08             	mov    %rcx,(%rax)
 4c222d7:	48 c7 40 18 06 00 00 	movq   $0x6,0x18(%rax)
 4c222de:	00 
 4c222df:	48 8d 15 0f c6 03 00 	lea    0x3c60f(%rip),%rdx        # 4c5e8f5 <_IO_stdin_used@@Base+0x2b8f5>
 4c222e6:	48 89 50 10          	mov    %rdx,0x10(%rax)
 4c222ea:	48 c7 40 28 08 00 00 	movq   $0x8,0x28(%rax)
 4c222f1:	00 
 4c222f2:	48 8d 15 dc 1e 04 00 	lea    0x41edc(%rip),%rdx        # 4c641d5 <_IO_stdin_used@@Base+0x311d5>
 4c222f9:	48 89 50 20          	mov    %rdx,0x20(%rax)
 4c222fd:	48 c7 40 38 0b 00 00 	movq   $0xb,0x38(%rax)
 4c22304:	00 
 4c22305:	48 8d 15 90 a1 04 00 	lea    0x4a190(%rip),%rdx        # 4c6c49c <_IO_stdin_used@@Base+0x3949c>
 4c2230c:	48 89 50 30          	mov    %rdx,0x30(%rax)
 4c22310:	48 8b bc 24 48 02 00 	mov    0x248(%rsp),%rdi
 4c22317:	00 
 4c22318:	48 c7 47 08 04 00 00 	movq   $0x4,0x8(%rdi)
 4c2231f:	00 
 4c22320:	48 c7 47 10 04 00 00 	movq   $0x4,0x10(%rdi)
 4c22327:	00 
 4c22328:	83 3d 31 96 25 03 00 	cmpl   $0x0,0x3259631(%rip)        # 7e7b960 <runtime.writeBarrier@@Base>
 4c2232f:	75 11                	jne    4c22342 <github.com/lasselj/timebeat/interactive/daemon.CreateCommands@@Base+0x1962>
 4c22331:	48 89 07             	mov    %rax,(%rdi)
 4c22334:	48 8d 15 1d a0 2c 01 	lea    0x12ca01d(%rip),%rdx        # 5eec358 <github.com/lasselj/timebeat/interactive/api.SetOcpTapTimecardIrigBMode·f@@Base>
 4c2233b:	48 89 57 18          	mov    %rdx,0x18(%rdi)
 4c2233f:	90                   	nop
 4c22340:	eb 18                	jmp    4c2235a <github.com/lasselj/timebeat/interactive/daemon.CreateCommands@@Base+0x197a>
 4c22342:	e8 b9 42 33 fd       	call   1f56600 <runtime.gcWriteBarrier@@Base>
 4c22347:	48 8d 57 18          	lea    0x18(%rdi),%rdx
 4c2234b:	48 89 d7             	mov    %rdx,%rdi
 4c2234e:	48 8d 1d 03 a0 2c 01 	lea    0x12ca003(%rip),%rbx        # 5eec358 <github.com/lasselj/timebeat/interactive/api.SetOcpTapTimecardIrigBMode·f@@Base>
 4c22355:	e8 e6 43 33 fd       	call   1f56740 <runtime.gcWriteBarrierBX@@Base>
 4c2235a:	48 8d 05 1f a0 08 01 	lea    0x108a01f(%rip),%rax        # 5cac380 <type:uKbinQcm@@Base>
 4c22361:	e8 7a e1 2c fd       	call   1ef04e0 <runtime.newobject@@Base>
 4c22366:	48 89 84 24 c8 00 00 	mov    %rax,0xc8(%rsp)
 4c2236d:	00 
 4c2236e:	48 8d 05 ab 4a bb 00 	lea    0xbb4aab(%rip),%rax        # 57d6e20 <type:[5]string@@Base>
 4c22375:	e8 66 e1 2c fd       	call   1ef04e0 <runtime.newobject@@Base>
 4c2237a:	48 c7 40 08 04 00 00 	movq   $0x4,0x8(%rax)
 4c22381:	00 
 4c22382:	48 8d 0d 47 43 01 00 	lea    0x14347(%rip),%rcx        # 4c366d0 <_IO_stdin_used@@Base+0x36d0>
 4c22389:	48 89 08             	mov    %rcx,(%rax)
 4c2238c:	48 c7 40 18 03 00 00 	movq   $0x3,0x18(%rax)
 4c22393:	00 
 4c22394:	48 8d 15 ef 1a 01 00 	lea    0x11aef(%rip),%rdx        # 4c33e8a <_IO_stdin_used@@Base+0xe8a>
 4c2239b:	48 89 50 10          	mov    %rdx,0x10(%rax)
 4c2239f:	48 c7 40 28 04 00 00 	movq   $0x4,0x28(%rax)
 4c223a6:	00 
 4c223a7:	48 8d 1d de 41 01 00 	lea    0x141de(%rip),%rbx        # 4c3658c <_IO_stdin_used@@Base+0x358c>
 4c223ae:	48 89 58 20          	mov    %rbx,0x20(%rax)
 4c223b2:	48 c7 40 38 04 00 00 	movq   $0x4,0x38(%rax)
 4c223b9:	00 
 4c223ba:	48 8d 35 97 3f 01 00 	lea    0x13f97(%rip),%rsi        # 4c36358 <_IO_stdin_used@@Base+0x3358>
 4c223c1:	48 89 70 30          	mov    %rsi,0x30(%rax)
 4c223c5:	48 c7 40 48 04 00 00 	movq   $0x4,0x48(%rax)
 4c223cc:	00 
 4c223cd:	48 8d 3d 84 3d 01 00 	lea    0x13d84(%rip),%rdi        # 4c36158 <_IO_stdin_used@@Base+0x3158>
 4c223d4:	48 89 78 40          	mov    %rdi,0x40(%rax)
 4c223d8:	4c 8b 84 24 c8 00 00 	mov    0xc8(%rsp),%r8
 4c223df:	00 
 4c223e0:	49 c7 40 08 05 00 00 	movq   $0x5,0x8(%r8)
 4c223e7:	00 
 4c223e8:	49 c7 40 10 05 00 00 	movq   $0x5,0x10(%r8)
 4c223ef:	00 
 4c223f0:	83 3d 69 95 25 03 00 	cmpl   $0x0,0x3259569(%rip)        # 7e7b960 <runtime.writeBarrier@@Base>
 4c223f7:	75 10                	jne    4c22409 <github.com/lasselj/timebeat/interactive/daemon.CreateCommands@@Base+0x1a29>
 4c223f9:	49 89 00             	mov    %rax,(%r8)
 4c223fc:	4c 8d 0d 8d a0 2c 01 	lea    0x12ca08d(%rip),%r9        # 5eec490 <github.com/lasselj/timebeat/interactive/api.ShowPTPPeerInfoData·f@@Base>
 4c22403:	4d 89 48 18          	mov    %r9,0x18(%r8)
 4c22407:	eb 1c                	jmp    4c22425 <github.com/lasselj/timebeat/interactive/daemon.CreateCommands@@Base+0x1a45>
 4c22409:	4c 89 c7             	mov    %r8,%rdi
 4c2240c:	e8 ef 41 33 fd       	call   1f56600 <runtime.gcWriteBarrier@@Base>
 4c22411:	4c 8d 4f 18          	lea    0x18(%rdi),%r9
 4c22415:	4c 89 cf             	mov    %r9,%rdi
 4c22418:	4c 8d 05 71 a0 2c 01 	lea    0x12ca071(%rip),%r8        # 5eec490 <github.com/lasselj/timebeat/interactive/api.ShowPTPPeerInfoData·f@@Base>
 4c2241f:	90                   	nop
 4c22420:	e8 5b 43 33 fd       	call   1f56780 <runtime.gcWriteBarrierR8@@Base>
 4c22425:	48 8d 05 54 9f 08 01 	lea    0x1089f54(%rip),%rax        # 5cac380 <type:uKbinQcm@@Base>
 4c2242c:	e8 af e0 2c fd       	call   1ef04e0 <runtime.newobject@@Base>
 4c22431:	48 89 84 24 b8 00 00 	mov    %rax,0xb8(%rsp)
 4c22438:	00 
 4c22439:	48 8d 05 e0 49 bb 00 	lea    0xbb49e0(%rip),%rax        # 57d6e20 <type:[5]string@@Base>
 4c22440:	e8 9b e0 2c fd       	call   1ef04e0 <runtime.newobject@@Base>
 4c22445:	48 c7 40 08 04 00 00 	movq   $0x4,0x8(%rax)
 4c2244c:	00 
 4c2244d:	48 8d 0d 7c 42 01 00 	lea    0x1427c(%rip),%rcx        # 4c366d0 <_IO_stdin_used@@Base+0x36d0>
 4c22454:	48 89 08             	mov    %rcx,(%rax)
 4c22457:	48 c7 40 18 03 00 00 	movq   $0x3,0x18(%rax)
 4c2245e:	00 
 4c2245f:	48 8d 15 24 1a 01 00 	lea    0x11a24(%rip),%rdx        # 4c33e8a <_IO_stdin_used@@Base+0xe8a>
 4c22466:	48 89 50 10          	mov    %rdx,0x10(%rax)
 4c2246a:	48 c7 40 28 04 00 00 	movq   $0x4,0x28(%rax)
 4c22471:	00 
 4c22472:	48 8d 1d 13 41 01 00 	lea    0x14113(%rip),%rbx        # 4c3658c <_IO_stdin_used@@Base+0x358c>
 4c22479:	48 89 58 20          	mov    %rbx,0x20(%rax)
 4c2247d:	48 c7 40 38 04 00 00 	movq   $0x4,0x38(%rax)
 4c22484:	00 
 4c22485:	48 8d 35 cc 3e 01 00 	lea    0x13ecc(%rip),%rsi        # 4c36358 <_IO_stdin_used@@Base+0x3358>
 4c2248c:	48 89 70 30          	mov    %rsi,0x30(%rax)
 4c22490:	48 c7 40 48 08 00 00 	movq   $0x8,0x48(%rax)
 4c22497:	00 
 4c22498:	48 8d 3d 56 11 04 00 	lea    0x41156(%rip),%rdi        # 4c635f5 <_IO_stdin_used@@Base+0x305f5>
 4c2249f:	48 89 78 40          	mov    %rdi,0x40(%rax)
 4c224a3:	4c 8b 84 24 b8 00 00 	mov    0xb8(%rsp),%r8
 4c224aa:	00 
 4c224ab:	49 c7 40 08 05 00 00 	movq   $0x5,0x8(%r8)
 4c224b2:	00 
 4c224b3:	49 c7 40 10 05 00 00 	movq   $0x5,0x10(%r8)
 4c224ba:	00 
 4c224bb:	83 3d 9e 94 25 03 00 	cmpl   $0x0,0x325949e(%rip)        # 7e7b960 <runtime.writeBarrier@@Base>
 4c224c2:	75 10                	jne    4c224d4 <github.com/lasselj/timebeat/interactive/daemon.CreateCommands@@Base+0x1af4>
 4c224c4:	49 89 00             	mov    %rax,(%r8)
 4c224c7:	4c 8d 0d d2 9f 2c 01 	lea    0x12c9fd2(%rip),%r9        # 5eec4a0 <github.com/lasselj/timebeat/interactive/api.ShowPTPPeerInfoJSONData·f@@Base>
 4c224ce:	4d 89 48 18          	mov    %r9,0x18(%r8)
 4c224d2:	eb 1b                	jmp    4c224ef <github.com/lasselj/timebeat/interactive/daemon.CreateCommands@@Base+0x1b0f>
 4c224d4:	4c 89 c7             	mov    %r8,%rdi
 4c224d7:	e8 24 41 33 fd       	call   1f56600 <runtime.gcWriteBarrier@@Base>
 4c224dc:	4c 8d 4f 18          	lea    0x18(%rdi),%r9
 4c224e0:	4c 89 cf             	mov    %r9,%rdi
 4c224e3:	4c 8d 05 b6 9f 2c 01 	lea    0x12c9fb6(%rip),%r8        # 5eec4a0 <github.com/lasselj/timebeat/interactive/api.ShowPTPPeerInfoJSONData·f@@Base>
 4c224ea:	e8 91 42 33 fd       	call   1f56780 <runtime.gcWriteBarrierR8@@Base>
 4c224ef:	48 8d 05 8a 9e 08 01 	lea    0x1089e8a(%rip),%rax        # 5cac380 <type:uKbinQcm@@Base>
 4c224f6:	e8 e5 df 2c fd       	call   1ef04e0 <runtime.newobject@@Base>
 4c224fb:	48 89 84 24 a0 01 00 	mov    %rax,0x1a0(%rsp)
 4c22502:	00 
 4c22503:	48 8d 05 16 49 bb 00 	lea    0xbb4916(%rip),%rax        # 57d6e20 <type:[5]string@@Base>
 4c2250a:	e8 d1 df 2c fd       	call   1ef04e0 <runtime.newobject@@Base>
 4c2250f:	48 c7 40 08 03 00 00 	movq   $0x3,0x8(%rax)
 4c22516:	00 
 4c22517:	48 8d 0d c6 19 01 00 	lea    0x119c6(%rip),%rcx        # 4c33ee4 <_IO_stdin_used@@Base+0xee4>
 4c2251e:	48 89 08             	mov    %rcx,(%rax)
 4c22521:	48 c7 40 18 03 00 00 	movq   $0x3,0x18(%rax)
 4c22528:	00 
 4c22529:	48 8d 15 5a 19 01 00 	lea    0x1195a(%rip),%rdx        # 4c33e8a <_IO_stdin_used@@Base+0xe8a>
 4c22530:	48 89 50 10          	mov    %rdx,0x10(%rax)
 4c22534:	48 c7 40 28 04 00 00 	movq   $0x4,0x28(%rax)
 4c2253b:	00 
 4c2253c:	48 8d 1d 49 40 01 00 	lea    0x14049(%rip),%rbx        # 4c3658c <_IO_stdin_used@@Base+0x358c>
 4c22543:	48 89 58 20          	mov    %rbx,0x20(%rax)
 4c22547:	48 c7 40 38 04 00 00 	movq   $0x4,0x38(%rax)
 4c2254e:	00 
 4c2254f:	48 8d 35 02 3e 01 00 	lea    0x13e02(%rip),%rsi        # 4c36358 <_IO_stdin_used@@Base+0x3358>
 4c22556:	48 89 70 30          	mov    %rsi,0x30(%rax)
 4c2255a:	48 c7 40 48 04 00 00 	movq   $0x4,0x48(%rax)
 4c22561:	00 
 4c22562:	48 8d 3d ef 3b 01 00 	lea    0x13bef(%rip),%rdi        # 4c36158 <_IO_stdin_used@@Base+0x3158>
 4c22569:	48 89 78 40          	mov    %rdi,0x40(%rax)
 4c2256d:	48 8b bc 24 a0 01 00 	mov    0x1a0(%rsp),%rdi
 4c22574:	00 
 4c22575:	48 c7 47 08 05 00 00 	movq   $0x5,0x8(%rdi)
 4c2257c:	00 
 4c2257d:	48 c7 47 10 05 00 00 	movq   $0x5,0x10(%rdi)
 4c22584:	00 
 4c22585:	83 3d d4 93 25 03 00 	cmpl   $0x0,0x32593d4(%rip)        # 7e7b960 <runtime.writeBarrier@@Base>
 4c2258c:	75 12                	jne    4c225a0 <github.com/lasselj/timebeat/interactive/daemon.CreateCommands@@Base+0x1bc0>
 4c2258e:	48 89 07             	mov    %rax,(%rdi)
 4c22591:	4c 8d 05 60 9e 2c 01 	lea    0x12c9e60(%rip),%r8        # 5eec3f8 <github.com/lasselj/timebeat/interactive/api.SetPTPPeerInfoData·f@@Base>
 4c22598:	4c 89 47 18          	mov    %r8,0x18(%rdi)
 4c2259c:	eb 1a                	jmp    4c225b8 <github.com/lasselj/timebeat/interactive/daemon.CreateCommands@@Base+0x1bd8>
 4c2259e:	66 90                	xchg   %ax,%ax
 4c225a0:	e8 5b 40 33 fd       	call   1f56600 <runtime.gcWriteBarrier@@Base>
 4c225a5:	4c 8d 47 18          	lea    0x18(%rdi),%r8
 4c225a9:	4c 89 c7             	mov    %r8,%rdi
 4c225ac:	4c 8d 0d 45 9e 2c 01 	lea    0x12c9e45(%rip),%r9        # 5eec3f8 <github.com/lasselj/timebeat/interactive/api.SetPTPPeerInfoData·f@@Base>
 4c225b3:	e8 e8 41 33 fd       	call   1f567a0 <runtime.gcWriteBarrierR9@@Base>
 4c225b8:	48 8d 05 c1 9d 08 01 	lea    0x1089dc1(%rip),%rax        # 5cac380 <type:uKbinQcm@@Base>
 4c225bf:	90                   	nop
 4c225c0:	e8 1b df 2c fd       	call   1ef04e0 <runtime.newobject@@Base>
 4c225c5:	48 89 84 24 88 01 00 	mov    %rax,0x188(%rsp)
 4c225cc:	00 
 4c225cd:	48 8d 05 4c 48 bb 00 	lea    0xbb484c(%rip),%rax        # 57d6e20 <type:[5]string@@Base>
 4c225d4:	e8 07 df 2c fd       	call   1ef04e0 <runtime.newobject@@Base>
 4c225d9:	48 c7 40 08 03 00 00 	movq   $0x3,0x8(%rax)
 4c225e0:	00 
 4c225e1:	48 8d 0d fc 18 01 00 	lea    0x118fc(%rip),%rcx        # 4c33ee4 <_IO_stdin_used@@Base+0xee4>
 4c225e8:	48 89 08             	mov    %rcx,(%rax)
 4c225eb:	48 c7 40 18 03 00 00 	movq   $0x3,0x18(%rax)
 4c225f2:	00 
 4c225f3:	48 8d 15 90 18 01 00 	lea    0x11890(%rip),%rdx        # 4c33e8a <_IO_stdin_used@@Base+0xe8a>
 4c225fa:	48 89 50 10          	mov    %rdx,0x10(%rax)
 4c225fe:	48 c7 40 28 04 00 00 	movq   $0x4,0x28(%rax)
 4c22605:	00 
 4c22606:	48 8d 1d 7f 3f 01 00 	lea    0x13f7f(%rip),%rbx        # 4c3658c <_IO_stdin_used@@Base+0x358c>
 4c2260d:	48 89 58 20          	mov    %rbx,0x20(%rax)
 4c22611:	48 c7 40 38 04 00 00 	movq   $0x4,0x38(%rax)
 4c22618:	00 
 4c22619:	48 8d 35 38 3d 01 00 	lea    0x13d38(%rip),%rsi        # 4c36358 <_IO_stdin_used@@Base+0x3358>
 4c22620:	48 89 70 30          	mov    %rsi,0x30(%rax)
 4c22624:	48 c7 40 48 08 00 00 	movq   $0x8,0x48(%rax)
 4c2262b:	00 
 4c2262c:	48 8d 3d c2 0f 04 00 	lea    0x40fc2(%rip),%rdi        # 4c635f5 <_IO_stdin_used@@Base+0x305f5>
 4c22633:	48 89 78 40          	mov    %rdi,0x40(%rax)
 4c22637:	48 8b bc 24 88 01 00 	mov    0x188(%rsp),%rdi
 4c2263e:	00 
 4c2263f:	48 c7 47 08 05 00 00 	movq   $0x5,0x8(%rdi)
 4c22646:	00 
 4c22647:	48 c7 47 10 05 00 00 	movq   $0x5,0x10(%rdi)
 4c2264e:	00 
 4c2264f:	83 3d 0a 93 25 03 00 	cmpl   $0x0,0x325930a(%rip)        # 7e7b960 <runtime.writeBarrier@@Base>
 4c22656:	75 10                	jne    4c22668 <github.com/lasselj/timebeat/interactive/daemon.CreateCommands@@Base+0x1c88>
 4c22658:	48 89 07             	mov    %rax,(%rdi)
 4c2265b:	4c 8d 05 ae 9d 2c 01 	lea    0x12c9dae(%rip),%r8        # 5eec410 <github.com/lasselj/timebeat/interactive/api.SetPTPPeerInfoJSONData·f@@Base>
 4c22662:	4c 89 47 18          	mov    %r8,0x18(%rdi)
 4c22666:	eb 1d                	jmp    4c22685 <github.com/lasselj/timebeat/interactive/daemon.CreateCommands@@Base+0x1ca5>
 4c22668:	e8 93 3f 33 fd       	call   1f56600 <runtime.gcWriteBarrier@@Base>
 4c2266d:	4c 8d 47 18          	lea    0x18(%rdi),%r8
 4c22671:	4c 89 c7             	mov    %r8,%rdi
 4c22674:	4c 8d 0d 95 9d 2c 01 	lea    0x12c9d95(%rip),%r9        # 5eec410 <github.com/lasselj/timebeat/interactive/api.SetPTPPeerInfoJSONData·f@@Base>
 4c2267b:	0f 1f 44 00 00       	nopl   0x0(%rax,%rax,1)
 4c22680:	e8 1b 41 33 fd       	call   1f567a0 <runtime.gcWriteBarrierR9@@Base>
 4c22685:	48 8d 05 f4 9c 08 01 	lea    0x1089cf4(%rip),%rax        # 5cac380 <type:uKbinQcm@@Base>
 4c2268c:	e8 4f de 2c fd       	call   1ef04e0 <runtime.newobject@@Base>
 4c22691:	48 89 84 24 d0 00 00 	mov    %rax,0xd0(%rsp)
 4c22698:	00 
 4c22699:	48 8d 05 80 47 bb 00 	lea    0xbb4780(%rip),%rax        # 57d6e20 <type:[5]string@@Base>
 4c226a0:	e8 3b de 2c fd       	call   1ef04e0 <runtime.newobject@@Base>
 4c226a5:	48 c7 40 08 04 00 00 	movq   $0x4,0x8(%rax)
 4c226ac:	00 
 4c226ad:	48 8d 0d 1c 40 01 00 	lea    0x1401c(%rip),%rcx        # 4c366d0 <_IO_stdin_used@@Base+0x36d0>
 4c226b4:	48 89 08             	mov    %rcx,(%rax)
 4c226b7:	48 c7 40 18 03 00 00 	movq   $0x3,0x18(%rax)
 4c226be:	00 
 4c226bf:	48 8d 15 c4 17 01 00 	lea    0x117c4(%rip),%rdx        # 4c33e8a <_IO_stdin_used@@Base+0xe8a>
 4c226c6:	48 89 50 10          	mov    %rdx,0x10(%rax)
 4c226ca:	48 c7 40 28 04 00 00 	movq   $0x4,0x28(%rax)
 4c226d1:	00 
 4c226d2:	48 8d 1d b3 3e 01 00 	lea    0x13eb3(%rip),%rbx        # 4c3658c <_IO_stdin_used@@Base+0x358c>
 4c226d9:	48 89 58 20          	mov    %rbx,0x20(%rax)
 4c226dd:	48 c7 40 38 04 00 00 	movq   $0x4,0x38(%rax)
 4c226e4:	00 
 4c226e5:	48 8d 35 6c 3c 01 00 	lea    0x13c6c(%rip),%rsi        # 4c36358 <_IO_stdin_used@@Base+0x3358>
 4c226ec:	48 89 70 30          	mov    %rsi,0x30(%rax)
 4c226f0:	48 c7 40 48 0c 00 00 	movq   $0xc,0x48(%rax)
 4c226f7:	00 
 4c226f8:	48 8d 3d 48 d1 04 00 	lea    0x4d148(%rip),%rdi        # 4c6f847 <_IO_stdin_used@@Base+0x3c847>
 4c226ff:	48 89 78 40          	mov    %rdi,0x40(%rax)
 4c22703:	4c 8b 84 24 d0 00 00 	mov    0xd0(%rsp),%r8
 4c2270a:	00 
 4c2270b:	49 c7 40 08 05 00 00 	movq   $0x5,0x8(%r8)
 4c22712:	00 
 4c22713:	49 c7 40 10 05 00 00 	movq   $0x5,0x10(%r8)
 4c2271a:	00 
 4c2271b:	83 3d 3e 92 25 03 00 	cmpl   $0x0,0x325923e(%rip)        # 7e7b960 <runtime.writeBarrier@@Base>
 4c22722:	75 10                	jne    4c22734 <github.com/lasselj/timebeat/interactive/daemon.CreateCommands@@Base+0x1d54>
 4c22724:	49 89 00             	mov    %rax,(%r8)
 4c22727:	4c 8d 0d 5a 9d 2c 01 	lea    0x12c9d5a(%rip),%r9        # 5eec488 <github.com/lasselj/timebeat/interactive/api.ShowPTPPeerInfoAssociations·f@@Base>
 4c2272e:	4d 89 48 18          	mov    %r9,0x18(%r8)
 4c22732:	eb 1b                	jmp    4c2274f <github.com/lasselj/timebeat/interactive/daemon.CreateCommands@@Base+0x1d6f>
 4c22734:	4c 89 c7             	mov    %r8,%rdi
 4c22737:	e8 c4 3e 33 fd       	call   1f56600 <runtime.gcWriteBarrier@@Base>
 4c2273c:	4c 8d 4f 18          	lea    0x18(%rdi),%r9
 4c22740:	4c 89 cf             	mov    %r9,%rdi
 4c22743:	4c 8d 05 3e 9d 2c 01 	lea    0x12c9d3e(%rip),%r8        # 5eec488 <github.com/lasselj/timebeat/interactive/api.ShowPTPPeerInfoAssociations·f@@Base>
 4c2274a:	e8 31 40 33 fd       	call   1f56780 <runtime.gcWriteBarrierR8@@Base>
 4c2274f:	48 8d 05 2a 9c 08 01 	lea    0x1089c2a(%rip),%rax        # 5cac380 <type:uKbinQcm@@Base>
 4c22756:	e8 85 dd 2c fd       	call   1ef04e0 <runtime.newobject@@Base>
 4c2275b:	48 89 84 24 c0 00 00 	mov    %rax,0xc0(%rsp)
 4c22762:	00 
 4c22763:	48 8d 05 b6 46 bb 00 	lea    0xbb46b6(%rip),%rax        # 57d6e20 <type:[5]string@@Base>
 4c2276a:	e8 71 dd 2c fd       	call   1ef04e0 <runtime.newobject@@Base>
 4c2276f:	48 c7 40 08 04 00 00 	movq   $0x4,0x8(%rax)
 4c22776:	00 
 4c22777:	48 8d 0d 52 3f 01 00 	lea    0x13f52(%rip),%rcx        # 4c366d0 <_IO_stdin_used@@Base+0x36d0>
 4c2277e:	48 89 08             	mov    %rcx,(%rax)
 4c22781:	48 c7 40 18 03 00 00 	movq   $0x3,0x18(%rax)
 4c22788:	00 
 4c22789:	48 8d 15 fa 16 01 00 	lea    0x116fa(%rip),%rdx        # 4c33e8a <_IO_stdin_used@@Base+0xe8a>
 4c22790:	48 89 50 10          	mov    %rdx,0x10(%rax)
 4c22794:	48 c7 40 28 04 00 00 	movq   $0x4,0x28(%rax)
 4c2279b:	00 
 4c2279c:	48 8d 1d e9 3d 01 00 	lea    0x13de9(%rip),%rbx        # 4c3658c <_IO_stdin_used@@Base+0x358c>
 4c227a3:	48 89 58 20          	mov    %rbx,0x20(%rax)
 4c227a7:	48 c7 40 38 04 00 00 	movq   $0x4,0x38(%rax)
 4c227ae:	00 
 4c227af:	48 8d 35 a2 3b 01 00 	lea    0x13ba2(%rip),%rsi        # 4c36358 <_IO_stdin_used@@Base+0x3358>
 4c227b6:	48 89 70 30          	mov    %rsi,0x30(%rax)
 4c227ba:	48 c7 40 48 10 00 00 	movq   $0x10,0x48(%rax)
 4c227c1:	00 
 4c227c2:	48 8d 3d f7 8a 0c 00 	lea    0xc8af7(%rip),%rdi        # 4ceb2c0 <_IO_stdin_used@@Base+0xb82c0>
 4c227c9:	48 89 78 40          	mov    %rdi,0x40(%rax)
 4c227cd:	4c 8b 84 24 c0 00 00 	mov    0xc0(%rsp),%r8
 4c227d4:	00 
 4c227d5:	49 c7 40 08 05 00 00 	movq   $0x5,0x8(%r8)
 4c227dc:	00 
 4c227dd:	49 c7 40 10 05 00 00 	movq   $0x5,0x10(%r8)
 4c227e4:	00 
 4c227e5:	83 3d 74 91 25 03 00 	cmpl   $0x0,0x3259174(%rip)        # 7e7b960 <runtime.writeBarrier@@Base>
 4c227ec:	75 10                	jne    4c227fe <github.com/lasselj/timebeat/interactive/daemon.CreateCommands@@Base+0x1e1e>
 4c227ee:	49 89 00             	mov    %rax,(%r8)
 4c227f1:	4c 8d 0d a0 9c 2c 01 	lea    0x12c9ca0(%rip),%r9        # 5eec498 <github.com/lasselj/timebeat/interactive/api.ShowPTPPeerInfoJSONAssociations·f@@Base>
 4c227f8:	4d 89 48 18          	mov    %r9,0x18(%r8)
 4c227fc:	eb 1b                	jmp    4c22819 <github.com/lasselj/timebeat/interactive/daemon.CreateCommands@@Base+0x1e39>
 4c227fe:	4c 89 c7             	mov    %r8,%rdi
 4c22801:	e8 fa 3d 33 fd       	call   1f56600 <runtime.gcWriteBarrier@@Base>
 4c22806:	4c 8d 4f 18          	lea    0x18(%rdi),%r9
 4c2280a:	4c 89 cf             	mov    %r9,%rdi
 4c2280d:	4c 8d 05 84 9c 2c 01 	lea    0x12c9c84(%rip),%r8        # 5eec498 <github.com/lasselj/timebeat/interactive/api.ShowPTPPeerInfoJSONAssociations·f@@Base>
 4c22814:	e8 67 3f 33 fd       	call   1f56780 <runtime.gcWriteBarrierR8@@Base>
 4c22819:	48 8d 05 60 9b 08 01 	lea    0x1089b60(%rip),%rax        # 5cac380 <type:uKbinQcm@@Base>
 4c22820:	e8 bb dc 2c fd       	call   1ef04e0 <runtime.newobject@@Base>
 4c22825:	48 89 84 24 b0 01 00 	mov    %rax,0x1b0(%rsp)
 4c2282c:	00 
 4c2282d:	48 8d 05 8c 54 bb 00 	lea    0xbb548c(%rip),%rax        # 57d7cc0 <type:[6]string@@Base>
 4c22834:	e8 a7 dc 2c fd       	call   1ef04e0 <runtime.newobject@@Base>
 4c22839:	48 c7 40 08 03 00 00 	movq   $0x3,0x8(%rax)
 4c22840:	00 
 4c22841:	48 8d 0d 9c 16 01 00 	lea    0x1169c(%rip),%rcx        # 4c33ee4 <_IO_stdin_used@@Base+0xee4>
 4c22848:	48 89 08             	mov    %rcx,(%rax)
 4c2284b:	48 c7 40 18 03 00 00 	movq   $0x3,0x18(%rax)
 4c22852:	00 
 4c22853:	48 8d 15 30 16 01 00 	lea    0x11630(%rip),%rdx        # 4c33e8a <_IO_stdin_used@@Base+0xe8a>
 4c2285a:	48 89 50 10          	mov    %rdx,0x10(%rax)
 4c2285e:	48 c7 40 28 04 00 00 	movq   $0x4,0x28(%rax)
 4c22865:	00 
 4c22866:	48 8d 1d 1f 3d 01 00 	lea    0x13d1f(%rip),%rbx        # 4c3658c <_IO_stdin_used@@Base+0x358c>
 4c2286d:	48 89 58 20          	mov    %rbx,0x20(%rax)
 4c22871:	48 c7 40 38 04 00 00 	movq   $0x4,0x38(%rax)
 4c22878:	00 
 4c22879:	48 8d 35 d8 3a 01 00 	lea    0x13ad8(%rip),%rsi        # 4c36358 <_IO_stdin_used@@Base+0x3358>
 4c22880:	48 89 70 30          	mov    %rsi,0x30(%rax)
 4c22884:	48 c7 40 48 0c 00 00 	movq   $0xc,0x48(%rax)
 4c2288b:	00 
 4c2288c:	48 8d 3d b4 cf 04 00 	lea    0x4cfb4(%rip),%rdi        # 4c6f847 <_IO_stdin_used@@Base+0x3c847>
 4c22893:	48 89 78 40          	mov    %rdi,0x40(%rax)
 4c22897:	48 c7 40 58 03 00 00 	movq   $0x3,0x58(%rax)
 4c2289e:	00 
 4c2289f:	4c 8d 05 db 12 01 00 	lea    0x112db(%rip),%r8        # 4c33b81 <_IO_stdin_used@@Base+0xb81>
 4c228a6:	4c 89 40 50          	mov    %r8,0x50(%rax)
 4c228aa:	4c 8b 8c 24 b0 01 00 	mov    0x1b0(%rsp),%r9
 4c228b1:	00 
 4c228b2:	49 c7 41 08 06 00 00 	movq   $0x6,0x8(%r9)
 4c228b9:	00 
 4c228ba:	49 c7 41 10 06 00 00 	movq   $0x6,0x10(%r9)
 4c228c1:	00 
 4c228c2:	83 3d 97 90 25 03 00 	cmpl   $0x0,0x3259097(%rip)        # 7e7b960 <runtime.writeBarrier@@Base>
 4c228c9:	75 10                	jne    4c228db <github.com/lasselj/timebeat/interactive/daemon.CreateCommands@@Base+0x1efb>
 4c228cb:	49 89 01             	mov    %rax,(%r9)
 4c228ce:	4c 8d 15 13 9b 2c 01 	lea    0x12c9b13(%rip),%r10        # 5eec3e8 <github.com/lasselj/timebeat/interactive/api.SetPTPPeerInfoAssociationsAdd·f@@Base>
 4c228d5:	4d 89 51 18          	mov    %r10,0x18(%r9)
 4c228d9:	eb 1d                	jmp    4c228f8 <github.com/lasselj/timebeat/interactive/daemon.CreateCommands@@Base+0x1f18>
 4c228db:	4c 89 cf             	mov    %r9,%rdi
 4c228de:	66 90                	xchg   %ax,%ax
 4c228e0:	e8 1b 3d 33 fd       	call   1f56600 <runtime.gcWriteBarrier@@Base>
 4c228e5:	4c 8d 57 18          	lea    0x18(%rdi),%r10
 4c228e9:	4c 89 d7             	mov    %r10,%rdi
 4c228ec:	4c 8d 0d f5 9a 2c 01 	lea    0x12c9af5(%rip),%r9        # 5eec3e8 <github.com/lasselj/timebeat/interactive/api.SetPTPPeerInfoAssociationsAdd·f@@Base>
 4c228f3:	e8 a8 3e 33 fd       	call   1f567a0 <runtime.gcWriteBarrierR9@@Base>
 4c228f8:	48 8d 05 81 9a 08 01 	lea    0x1089a81(%rip),%rax        # 5cac380 <type:uKbinQcm@@Base>
 4c228ff:	90                   	nop
 4c22900:	e8 db db 2c fd       	call   1ef04e0 <runtime.newobject@@Base>
 4c22905:	48 89 84 24 a8 01 00 	mov    %rax,0x1a8(%rsp)
 4c2290c:	00 
 4c2290d:	48 8d 05 ac 53 bb 00 	lea    0xbb53ac(%rip),%rax        # 57d7cc0 <type:[6]string@@Base>
 4c22914:	e8 c7 db 2c fd       	call   1ef04e0 <runtime.newobject@@Base>
 4c22919:	48 c7 40 08 03 00 00 	movq   $0x3,0x8(%rax)
 4c22920:	00 
 4c22921:	48 8d 0d bc 15 01 00 	lea    0x115bc(%rip),%rcx        # 4c33ee4 <_IO_stdin_used@@Base+0xee4>
 4c22928:	48 89 08             	mov    %rcx,(%rax)
 4c2292b:	48 c7 40 18 03 00 00 	movq   $0x3,0x18(%rax)
 4c22932:	00 
 4c22933:	48 8d 15 50 15 01 00 	lea    0x11550(%rip),%rdx        # 4c33e8a <_IO_stdin_used@@Base+0xe8a>
 4c2293a:	48 89 50 10          	mov    %rdx,0x10(%rax)
 4c2293e:	48 c7 40 28 04 00 00 	movq   $0x4,0x28(%rax)
 4c22945:	00 
 4c22946:	48 8d 1d 3f 3c 01 00 	lea    0x13c3f(%rip),%rbx        # 4c3658c <_IO_stdin_used@@Base+0x358c>
 4c2294d:	48 89 58 20          	mov    %rbx,0x20(%rax)
 4c22951:	48 c7 40 38 04 00 00 	movq   $0x4,0x38(%rax)
 4c22958:	00 
 4c22959:	48 8d 35 f8 39 01 00 	lea    0x139f8(%rip),%rsi        # 4c36358 <_IO_stdin_used@@Base+0x3358>
 4c22960:	48 89 70 30          	mov    %rsi,0x30(%rax)
 4c22964:	48 c7 40 48 0c 00 00 	movq   $0xc,0x48(%rax)
 4c2296b:	00 
 4c2296c:	48 8d 3d d4 ce 04 00 	lea    0x4ced4(%rip),%rdi        # 4c6f847 <_IO_stdin_used@@Base+0x3c847>
 4c22973:	48 89 78 40          	mov    %rdi,0x40(%rax)
 4c22977:	48 c7 40 58 06 00 00 	movq   $0x6,0x58(%rax)
 4c2297e:	00 
 4c2297f:	48 8d 3d 05 b7 03 00 	lea    0x3b705(%rip),%rdi        # 4c5e08b <_IO_stdin_used@@Base+0x2b08b>
 4c22986:	48 89 78 50          	mov    %rdi,0x50(%rax)
 4c2298a:	4c 8b 84 24 a8 01 00 	mov    0x1a8(%rsp),%r8
 4c22991:	00 
 4c22992:	49 c7 40 08 06 00 00 	movq   $0x6,0x8(%r8)
 4c22999:	00 
 4c2299a:	49 c7 40 10 06 00 00 	movq   $0x6,0x10(%r8)
 4c229a1:	00 
 4c229a2:	83 3d b7 8f 25 03 00 	cmpl   $0x0,0x3258fb7(%rip)        # 7e7b960 <runtime.writeBarrier@@Base>
 4c229a9:	75 10                	jne    4c229bb <github.com/lasselj/timebeat/interactive/daemon.CreateCommands@@Base+0x1fdb>
 4c229ab:	49 89 00             	mov    %rax,(%r8)
 4c229ae:	4c 8d 0d 3b 9a 2c 01 	lea    0x12c9a3b(%rip),%r9        # 5eec3f0 <github.com/lasselj/timebeat/interactive/api.SetPTPPeerInfoAssociationsDelete·f@@Base>
 4c229b5:	4d 89 48 18          	mov    %r9,0x18(%r8)
 4c229b9:	eb 1d                	jmp    4c229d8 <github.com/lasselj/timebeat/interactive/daemon.CreateCommands@@Base+0x1ff8>
 4c229bb:	4c 89 c7             	mov    %r8,%rdi
 4c229be:	66 90                	xchg   %ax,%ax
 4c229c0:	e8 3b 3c 33 fd       	call   1f56600 <runtime.gcWriteBarrier@@Base>
 4c229c5:	4c 8d 4f 18          	lea    0x18(%rdi),%r9
 4c229c9:	4c 89 cf             	mov    %r9,%rdi
 4c229cc:	4c 8d 05 1d 9a 2c 01 	lea    0x12c9a1d(%rip),%r8        # 5eec3f0 <github.com/lasselj/timebeat/interactive/api.SetPTPPeerInfoAssociationsDelete·f@@Base>
 4c229d3:	e8 a8 3d 33 fd       	call   1f56780 <runtime.gcWriteBarrierR8@@Base>
 4c229d8:	48 8d 05 a1 99 08 01 	lea    0x10899a1(%rip),%rax        # 5cac380 <type:uKbinQcm@@Base>
 4c229df:	90                   	nop
 4c229e0:	e8 fb da 2c fd       	call   1ef04e0 <runtime.newobject@@Base>
 4c229e5:	48 89 84 24 98 01 00 	mov    %rax,0x198(%rsp)
 4c229ec:	00 
 4c229ed:	48 8d 05 cc 52 bb 00 	lea    0xbb52cc(%rip),%rax        # 57d7cc0 <type:[6]string@@Base>
 4c229f4:	e8 e7 da 2c fd       	call   1ef04e0 <runtime.newobject@@Base>
 4c229f9:	48 c7 40 08 03 00 00 	movq   $0x3,0x8(%rax)
 4c22a00:	00 
 4c22a01:	48 8d 0d dc 14 01 00 	lea    0x114dc(%rip),%rcx        # 4c33ee4 <_IO_stdin_used@@Base+0xee4>
 4c22a08:	48 89 08             	mov    %rcx,(%rax)
 4c22a0b:	48 c7 40 18 03 00 00 	movq   $0x3,0x18(%rax)
 4c22a12:	00 
 4c22a13:	48 8d 15 70 14 01 00 	lea    0x11470(%rip),%rdx        # 4c33e8a <_IO_stdin_used@@Base+0xe8a>
 4c22a1a:	48 89 50 10          	mov    %rdx,0x10(%rax)
 4c22a1e:	48 c7 40 28 04 00 00 	movq   $0x4,0x28(%rax)
 4c22a25:	00 
 4c22a26:	48 8d 1d 5f 3b 01 00 	lea    0x13b5f(%rip),%rbx        # 4c3658c <_IO_stdin_used@@Base+0x358c>
 4c22a2d:	48 89 58 20          	mov    %rbx,0x20(%rax)
 4c22a31:	48 c7 40 38 04 00 00 	movq   $0x4,0x38(%rax)
 4c22a38:	00 
 4c22a39:	48 8d 35 18 39 01 00 	lea    0x13918(%rip),%rsi        # 4c36358 <_IO_stdin_used@@Base+0x3358>
 4c22a40:	48 89 70 30          	mov    %rsi,0x30(%rax)
 4c22a44:	48 c7 40 48 10 00 00 	movq   $0x10,0x48(%rax)
 4c22a4b:	00 
 4c22a4c:	48 8d 3d 6d 88 0c 00 	lea    0xc886d(%rip),%rdi        # 4ceb2c0 <_IO_stdin_used@@Base+0xb82c0>
 4c22a53:	48 89 78 40          	mov    %rdi,0x40(%rax)
 4c22a57:	48 c7 40 58 03 00 00 	movq   $0x3,0x58(%rax)
 4c22a5e:	00 
 4c22a5f:	4c 8d 05 1b 11 01 00 	lea    0x1111b(%rip),%r8        # 4c33b81 <_IO_stdin_used@@Base+0xb81>
 4c22a66:	4c 89 40 50          	mov    %r8,0x50(%rax)
 4c22a6a:	4c 8b 84 24 98 01 00 	mov    0x198(%rsp),%r8
 4c22a71:	00 
 4c22a72:	49 c7 40 08 06 00 00 	movq   $0x6,0x8(%r8)
 4c22a79:	00 
 4c22a7a:	49 c7 40 10 06 00 00 	movq   $0x6,0x10(%r8)
 4c22a81:	00 
 4c22a82:	83 3d d7 8e 25 03 00 	cmpl   $0x0,0x3258ed7(%rip)        # 7e7b960 <runtime.writeBarrier@@Base>
 4c22a89:	75 10                	jne    4c22a9b <github.com/lasselj/timebeat/interactive/daemon.CreateCommands@@Base+0x20bb>
 4c22a8b:	49 89 00             	mov    %rax,(%r8)
 4c22a8e:	4c 8d 0d 6b 99 2c 01 	lea    0x12c996b(%rip),%r9        # 5eec400 <github.com/lasselj/timebeat/interactive/api.SetPTPPeerInfoJSONAssociationsAdd·f@@Base>
 4c22a95:	4d 89 48 18          	mov    %r9,0x18(%r8)
 4c22a99:	eb 1d                	jmp    4c22ab8 <github.com/lasselj/timebeat/interactive/daemon.CreateCommands@@Base+0x20d8>
 4c22a9b:	4c 89 c7             	mov    %r8,%rdi
 4c22a9e:	66 90                	xchg   %ax,%ax
 4c22aa0:	e8 5b 3b 33 fd       	call   1f56600 <runtime.gcWriteBarrier@@Base>
 4c22aa5:	4c 8d 4f 18          	lea    0x18(%rdi),%r9
 4c22aa9:	4c 89 cf             	mov    %r9,%rdi
 4c22aac:	4c 8d 05 4d 99 2c 01 	lea    0x12c994d(%rip),%r8        # 5eec400 <github.com/lasselj/timebeat/interactive/api.SetPTPPeerInfoJSONAssociationsAdd·f@@Base>
 4c22ab3:	e8 c8 3c 33 fd       	call   1f56780 <runtime.gcWriteBarrierR8@@Base>
 4c22ab8:	48 8d 05 c1 98 08 01 	lea    0x10898c1(%rip),%rax        # 5cac380 <type:uKbinQcm@@Base>
 4c22abf:	90                   	nop
 4c22ac0:	e8 1b da 2c fd       	call   1ef04e0 <runtime.newobject@@Base>
 4c22ac5:	48 89 84 24 90 01 00 	mov    %rax,0x190(%rsp)
 4c22acc:	00 
 4c22acd:	48 8d 05 ec 51 bb 00 	lea    0xbb51ec(%rip),%rax        # 57d7cc0 <type:[6]string@@Base>
 4c22ad4:	e8 07 da 2c fd       	call   1ef04e0 <runtime.newobject@@Base>
 4c22ad9:	48 c7 40 08 03 00 00 	movq   $0x3,0x8(%rax)
 4c22ae0:	00 
 4c22ae1:	48 8d 0d fc 13 01 00 	lea    0x113fc(%rip),%rcx        # 4c33ee4 <_IO_stdin_used@@Base+0xee4>
 4c22ae8:	48 89 08             	mov    %rcx,(%rax)
 4c22aeb:	48 c7 40 18 03 00 00 	movq   $0x3,0x18(%rax)
 4c22af2:	00 
 4c22af3:	48 8d 15 90 13 01 00 	lea    0x11390(%rip),%rdx        # 4c33e8a <_IO_stdin_used@@Base+0xe8a>
 4c22afa:	48 89 50 10          	mov    %rdx,0x10(%rax)
 4c22afe:	48 c7 40 28 04 00 00 	movq   $0x4,0x28(%rax)
 4c22b05:	00 
 4c22b06:	48 8d 1d 7f 3a 01 00 	lea    0x13a7f(%rip),%rbx        # 4c3658c <_IO_stdin_used@@Base+0x358c>
 4c22b0d:	48 89 58 20          	mov    %rbx,0x20(%rax)
 4c22b11:	48 c7 40 38 04 00 00 	movq   $0x4,0x38(%rax)
 4c22b18:	00 
 4c22b19:	48 8d 1d 38 38 01 00 	lea    0x13838(%rip),%rbx        # 4c36358 <_IO_stdin_used@@Base+0x3358>
 4c22b20:	48 89 58 30          	mov    %rbx,0x30(%rax)
 4c22b24:	48 c7 40 48 10 00 00 	movq   $0x10,0x48(%rax)
 4c22b2b:	00 
 4c22b2c:	48 8d 1d 8d 87 0c 00 	lea    0xc878d(%rip),%rbx        # 4ceb2c0 <_IO_stdin_used@@Base+0xb82c0>
 4c22b33:	48 89 58 40          	mov    %rbx,0x40(%rax)
 4c22b37:	48 c7 40 58 06 00 00 	movq   $0x6,0x58(%rax)
 4c22b3e:	00 
 4c22b3f:	48 8d 1d 45 b5 03 00 	lea    0x3b545(%rip),%rbx        # 4c5e08b <_IO_stdin_used@@Base+0x2b08b>
 4c22b46:	48 89 58 50          	mov    %rbx,0x50(%rax)
 4c22b4a:	48 8b bc 24 90 01 00 	mov    0x190(%rsp),%rdi
 4c22b51:	00 
 4c22b52:	48 c7 47 08 06 00 00 	movq   $0x6,0x8(%rdi)
 4c22b59:	00 
 4c22b5a:	48 c7 47 10 06 00 00 	movq   $0x6,0x10(%rdi)
 4c22b61:	00 
 4c22b62:	83 3d f7 8d 25 03 00 	cmpl   $0x0,0x3258df7(%rip)        # 7e7b960 <runtime.writeBarrier@@Base>
 4c22b69:	75 15                	jne    4c22b80 <github.com/lasselj/timebeat/interactive/daemon.CreateCommands@@Base+0x21a0>
 4c22b6b:	48 89 07             	mov    %rax,(%rdi)
 4c22b6e:	48 8d 1d 93 98 2c 01 	lea    0x12c9893(%rip),%rbx        # 5eec408 <github.com/lasselj/timebeat/interactive/api.SetPTPPeerInfoJSONAssociationsDelete·f@@Base>
 4c22b75:	48 89 5f 18          	mov    %rbx,0x18(%rdi)
 4c22b79:	eb 1d                	jmp    4c22b98 <github.com/lasselj/timebeat/interactive/daemon.CreateCommands@@Base+0x21b8>
 4c22b7b:	0f 1f 44 00 00       	nopl   0x0(%rax,%rax,1)
 4c22b80:	e8 7b 3a 33 fd       	call   1f56600 <runtime.gcWriteBarrier@@Base>
 4c22b85:	48 8d 5f 18          	lea    0x18(%rdi),%rbx
 4c22b89:	48 89 df             	mov    %rbx,%rdi
 4c22b8c:	48 8d 35 75 98 2c 01 	lea    0x12c9875(%rip),%rsi        # 5eec408 <github.com/lasselj/timebeat/interactive/api.SetPTPPeerInfoJSONAssociationsDelete·f@@Base>
 4c22b93:	e8 c8 3b 33 fd       	call   1f56760 <runtime.gcWriteBarrierSI@@Base>
 4c22b98:	48 8d 05 e1 97 08 01 	lea    0x10897e1(%rip),%rax        # 5cac380 <type:uKbinQcm@@Base>
 4c22b9f:	90                   	nop
 4c22ba0:	e8 3b d9 2c fd       	call   1ef04e0 <runtime.newobject@@Base>
 4c22ba5:	48 89 84 24 e8 00 00 	mov    %rax,0xe8(%rsp)
 4c22bac:	00 
 4c22bad:	48 8d 05 8c 31 bb 00 	lea    0xbb318c(%rip),%rax        # 57d5d40 <type:[4]string@@Base>
 4c22bb4:	e8 27 d9 2c fd       	call   1ef04e0 <runtime.newobject@@Base>
 4c22bb9:	48 c7 40 08 04 00 00 	movq   $0x4,0x8(%rax)
 4c22bc0:	00 
 4c22bc1:	48 8d 0d 08 3b 01 00 	lea    0x13b08(%rip),%rcx        # 4c366d0 <_IO_stdin_used@@Base+0x36d0>
 4c22bc8:	48 89 08             	mov    %rcx,(%rax)
 4c22bcb:	48 c7 40 18 03 00 00 	movq   $0x3,0x18(%rax)
 4c22bd2:	00 
 4c22bd3:	48 8d 15 b0 12 01 00 	lea    0x112b0(%rip),%rdx        # 4c33e8a <_IO_stdin_used@@Base+0xe8a>
 4c22bda:	48 89 50 10          	mov    %rdx,0x10(%rax)
 4c22bde:	48 c7 40 28 07 00 00 	movq   $0x7,0x28(%rax)
 4c22be5:	00 
 4c22be6:	48 8d 15 2c dd 03 00 	lea    0x3dd2c(%rip),%rdx        # 4c60919 <_IO_stdin_used@@Base+0x2d919>
 4c22bed:	48 89 50 20          	mov    %rdx,0x20(%rax)
 4c22bf1:	48 c7 40 38 06 00 00 	movq   $0x6,0x38(%rax)
 4c22bf8:	00 
 4c22bf9:	48 8d 15 ad b3 03 00 	lea    0x3b3ad(%rip),%rdx        # 4c5dfad <_IO_stdin_used@@Base+0x2afad>
 4c22c00:	48 89 50 30          	mov    %rdx,0x30(%rax)
 4c22c04:	48 8b bc 24 e8 00 00 	mov    0xe8(%rsp),%rdi
 4c22c0b:	00 
 4c22c0c:	48 c7 47 08 04 00 00 	movq   $0x4,0x8(%rdi)
 4c22c13:	00 
 4c22c14:	48 c7 47 10 04 00 00 	movq   $0x4,0x10(%rdi)
 4c22c1b:	00 
 4c22c1c:	83 3d 3d 8d 25 03 00 	cmpl   $0x0,0x3258d3d(%rip)        # 7e7b960 <runtime.writeBarrier@@Base>
 4c22c23:	75 10                	jne    4c22c35 <github.com/lasselj/timebeat/interactive/daemon.CreateCommands@@Base+0x2255>
 4c22c25:	48 89 07             	mov    %rax,(%rdi)
 4c22c28:	48 8d 15 51 98 2c 01 	lea    0x12c9851(%rip),%rdx        # 5eec480 <github.com/lasselj/timebeat/interactive/api.ShowPTPForeignClocks·f@@Base>
 4c22c2f:	48 89 57 18          	mov    %rdx,0x18(%rdi)
 4c22c33:	eb 18                	jmp    4c22c4d <github.com/lasselj/timebeat/interactive/daemon.CreateCommands@@Base+0x226d>
 4c22c35:	e8 c6 39 33 fd       	call   1f56600 <runtime.gcWriteBarrier@@Base>
 4c22c3a:	48 8d 57 18          	lea    0x18(%rdi),%rdx
 4c22c3e:	48 89 d7             	mov    %rdx,%rdi
 4c22c41:	48 8d 1d 38 98 2c 01 	lea    0x12c9838(%rip),%rbx        # 5eec480 <github.com/lasselj/timebeat/interactive/api.ShowPTPForeignClocks·f@@Base>
 4c22c48:	e8 f3 3a 33 fd       	call   1f56740 <runtime.gcWriteBarrierBX@@Base>
 4c22c4d:	48 8d 05 2c 97 08 01 	lea    0x108972c(%rip),%rax        # 5cac380 <type:uKbinQcm@@Base>
 4c22c54:	e8 87 d8 2c fd       	call   1ef04e0 <runtime.newobject@@Base>
 4c22c59:	48 89 84 24 e8 01 00 	mov    %rax,0x1e8(%rsp)
 4c22c60:	00 
 4c22c61:	48 8d 05 b8 41 bb 00 	lea    0xbb41b8(%rip),%rax        # 57d6e20 <type:[5]string@@Base>
 4c22c68:	e8 73 d8 2c fd       	call   1ef04e0 <runtime.newobject@@Base>
 4c22c6d:	48 c7 40 08 03 00 00 	movq   $0x3,0x8(%rax)
 4c22c74:	00 
 4c22c75:	48 8d 0d 68 12 01 00 	lea    0x11268(%rip),%rcx        # 4c33ee4 <_IO_stdin_used@@Base+0xee4>
 4c22c7c:	48 89 08             	mov    %rcx,(%rax)
 4c22c7f:	48 c7 40 18 0c 00 00 	movq   $0xc,0x18(%rax)
 4c22c86:	00 
 4c22c87:	48 8d 15 99 df 04 00 	lea    0x4df99(%rip),%rdx        # 4c70c27 <_IO_stdin_used@@Base+0x3dc27>
 4c22c8e:	48 89 50 10          	mov    %rdx,0x10(%rax)
 4c22c92:	48 c7 40 28 03 00 00 	movq   $0x3,0x28(%rax)
 4c22c99:	00 
 4c22c9a:	48 8d 1d 34 12 01 00 	lea    0x11234(%rip),%rbx        # 4c33ed5 <_IO_stdin_used@@Base+0xed5>
 4c22ca1:	48 89 58 20          	mov    %rbx,0x20(%rax)
 4c22ca5:	48 c7 40 38 08 00 00 	movq   $0x8,0x38(%rax)
 4c22cac:	00 
 4c22cad:	48 8d 35 49 06 04 00 	lea    0x40649(%rip),%rsi        # 4c632fd <_IO_stdin_used@@Base+0x302fd>
 4c22cb4:	48 89 70 30          	mov    %rsi,0x30(%rax)
 4c22cb8:	48 c7 40 48 05 00 00 	movq   $0x5,0x48(%rax)
 4c22cbf:	00 
 4c22cc0:	48 8d 3d 9d 17 02 00 	lea    0x2179d(%rip),%rdi        # 4c44464 <_IO_stdin_used@@Base+0x11464>
 4c22cc7:	48 89 78 40          	mov    %rdi,0x40(%rax)
 4c22ccb:	4c 8b 84 24 e8 01 00 	mov    0x1e8(%rsp),%r8
 4c22cd2:	00 
 4c22cd3:	49 c7 40 08 05 00 00 	movq   $0x5,0x8(%r8)
 4c22cda:	00 
 4c22cdb:	49 c7 40 10 05 00 00 	movq   $0x5,0x10(%r8)
 4c22ce2:	00 
 4c22ce3:	83 3d 76 8c 25 03 00 	cmpl   $0x0,0x3258c76(%rip)        # 7e7b960 <runtime.writeBarrier@@Base>
 4c22cea:	75 10                	jne    4c22cfc <github.com/lasselj/timebeat/interactive/daemon.CreateCommands@@Base+0x231c>
 4c22cec:	49 89 00             	mov    %rax,(%r8)
 4c22cef:	4c 8d 0d c2 96 2c 01 	lea    0x12c96c2(%rip),%r9        # 5eec3b8 <github.com/lasselj/timebeat/interactive/api.SetOpentimecardSbcFirmwareFlash·f@@Base>
 4c22cf6:	4d 89 48 18          	mov    %r9,0x18(%r8)
 4c22cfa:	eb 1c                	jmp    4c22d18 <github.com/lasselj/timebeat/interactive/daemon.CreateCommands@@Base+0x2338>
 4c22cfc:	4c 89 c7             	mov    %r8,%rdi
 4c22cff:	90                   	nop
 4c22d00:	e8 fb 38 33 fd       	call   1f56600 <runtime.gcWriteBarrier@@Base>
 4c22d05:	4c 8d 4f 18          	lea    0x18(%rdi),%r9
 4c22d09:	4c 89 cf             	mov    %r9,%rdi
 4c22d0c:	4c 8d 05 a5 96 2c 01 	lea    0x12c96a5(%rip),%r8        # 5eec3b8 <github.com/lasselj/timebeat/interactive/api.SetOpentimecardSbcFirmwareFlash·f@@Base>
 4c22d13:	e8 68 3a 33 fd       	call   1f56780 <runtime.gcWriteBarrierR8@@Base>
 4c22d18:	48 8d 05 61 96 08 01 	lea    0x1089661(%rip),%rax        # 5cac380 <type:uKbinQcm@@Base>
 4c22d1f:	90                   	nop
 4c22d20:	e8 bb d7 2c fd       	call   1ef04e0 <runtime.newobject@@Base>
 4c22d25:	48 89 84 24 f0 01 00 	mov    %rax,0x1f0(%rsp)
 4c22d2c:	00 
 4c22d2d:	48 8d 05 ec 40 bb 00 	lea    0xbb40ec(%rip),%rax        # 57d6e20 <type:[5]string@@Base>
 4c22d34:	e8 a7 d7 2c fd       	call   1ef04e0 <runtime.newobject@@Base>
 4c22d39:	48 c7 40 08 03 00 00 	movq   $0x3,0x8(%rax)
 4c22d40:	00 
 4c22d41:	48 8d 0d 9c 11 01 00 	lea    0x1119c(%rip),%rcx        # 4c33ee4 <_IO_stdin_used@@Base+0xee4>
 4c22d48:	48 89 08             	mov    %rcx,(%rax)
 4c22d4b:	48 c7 40 18 0c 00 00 	movq   $0xc,0x18(%rax)
 4c22d52:	00 
 4c22d53:	48 8d 15 cd de 04 00 	lea    0x4decd(%rip),%rdx        # 4c70c27 <_IO_stdin_used@@Base+0x3dc27>
 4c22d5a:	48 89 50 10          	mov    %rdx,0x10(%rax)
 4c22d5e:	48 c7 40 28 03 00 00 	movq   $0x3,0x28(%rax)
 4c22d65:	00 
 4c22d66:	48 8d 1d 68 11 01 00 	lea    0x11168(%rip),%rbx        # 4c33ed5 <_IO_stdin_used@@Base+0xed5>
 4c22d6d:	48 89 58 20          	mov    %rbx,0x20(%rax)
 4c22d71:	48 c7 40 38 08 00 00 	movq   $0x8,0x38(%rax)
 4c22d78:	00 
 4c22d79:	48 8d 35 0d 02 04 00 	lea    0x4020d(%rip),%rsi        # 4c62f8d <_IO_stdin_used@@Base+0x2ff8d>
 4c22d80:	48 89 70 30          	mov    %rsi,0x30(%rax)
 4c22d84:	48 c7 40 48 05 00 00 	movq   $0x5,0x48(%rax)
 4c22d8b:	00 
 4c22d8c:	48 8d 3d 2a 1d 02 00 	lea    0x21d2a(%rip),%rdi        # 4c44abd <_IO_stdin_used@@Base+0x11abd>
 4c22d93:	48 89 78 40          	mov    %rdi,0x40(%rax)
 4c22d97:	4c 8b 84 24 f0 01 00 	mov    0x1f0(%rsp),%r8
 4c22d9e:	00 
 4c22d9f:	49 c7 40 08 05 00 00 	movq   $0x5,0x8(%r8)
 4c22da6:	00 
 4c22da7:	49 c7 40 10 05 00 00 	movq   $0x5,0x10(%r8)
 4c22dae:	00 
 4c22daf:	83 3d aa 8b 25 03 00 	cmpl   $0x0,0x3258baa(%rip)        # 7e7b960 <runtime.writeBarrier@@Base>
 4c22db6:	75 10                	jne    4c22dc8 <github.com/lasselj/timebeat/interactive/daemon.CreateCommands@@Base+0x23e8>
 4c22db8:	49 89 00             	mov    %rax,(%r8)
 4c22dbb:	4c 8d 0d ee 95 2c 01 	lea    0x12c95ee(%rip),%r9        # 5eec3b0 <github.com/lasselj/timebeat/interactive/api.SetOpentimecardSbcClockgenReset·f@@Base>
 4c22dc2:	4d 89 48 18          	mov    %r9,0x18(%r8)
 4c22dc6:	eb 1d                	jmp    4c22de5 <github.com/lasselj/timebeat/interactive/daemon.CreateCommands@@Base+0x2405>
 4c22dc8:	4c 89 c7             	mov    %r8,%rdi
 4c22dcb:	e8 30 38 33 fd       	call   1f56600 <runtime.gcWriteBarrier@@Base>
 4c22dd0:	4c 8d 4f 18          	lea    0x18(%rdi),%r9
 4c22dd4:	4c 89 cf             	mov    %r9,%rdi
 4c22dd7:	4c 8d 05 d2 95 2c 01 	lea    0x12c95d2(%rip),%r8        # 5eec3b0 <github.com/lasselj/timebeat/interactive/api.SetOpentimecardSbcClockgenReset·f@@Base>
 4c22dde:	66 90                	xchg   %ax,%ax
 4c22de0:	e8 9b 39 33 fd       	call   1f56780 <runtime.gcWriteBarrierR8@@Base>
 4c22de5:	48 8d 05 94 95 08 01 	lea    0x1089594(%rip),%rax        # 5cac380 <type:uKbinQcm@@Base>
 4c22dec:	e8 ef d6 2c fd       	call   1ef04e0 <runtime.newobject@@Base>
 4c22df1:	48 89 84 24 18 02 00 	mov    %rax,0x218(%rsp)
 4c22df8:	00 
 4c22df9:	48 8d 05 20 55 bb 00 	lea    0xbb5520(%rip),%rax        # 57d8320 <type:[7]string@@Base>
 4c22e00:	e8 db d6 2c fd       	call   1ef04e0 <runtime.newobject@@Base>
 4c22e05:	48 c7 40 08 03 00 00 	movq   $0x3,0x8(%rax)
 4c22e0c:	00 
 4c22e0d:	48 8d 0d d0 10 01 00 	lea    0x110d0(%rip),%rcx        # 4c33ee4 <_IO_stdin_used@@Base+0xee4>
 4c22e14:	48 89 08             	mov    %rcx,(%rax)
 4c22e17:	48 c7 40 18 0c 00 00 	movq   $0xc,0x18(%rax)
 4c22e1e:	00 
 4c22e1f:	48 8d 15 01 de 04 00 	lea    0x4de01(%rip),%rdx        # 4c70c27 <_IO_stdin_used@@Base+0x3dc27>
 4c22e26:	48 89 50 10          	mov    %rdx,0x10(%rax)
 4c22e2a:	48 c7 40 28 03 00 00 	movq   $0x3,0x28(%rax)
 4c22e31:	00 
 4c22e32:	48 8d 1d 9c 10 01 00 	lea    0x1109c(%rip),%rbx        # 4c33ed5 <_IO_stdin_used@@Base+0xed5>
 4c22e39:	48 89 58 20          	mov    %rbx,0x20(%rax)
 4c22e3d:	48 c7 40 38 08 00 00 	movq   $0x8,0x38(%rax)
 4c22e44:	00 
 4c22e45:	48 8d 35 41 01 04 00 	lea    0x40141(%rip),%rsi        # 4c62f8d <_IO_stdin_used@@Base+0x2ff8d>
 4c22e4c:	48 89 70 30          	mov    %rsi,0x30(%rax)
 4c22e50:	48 c7 40 48 04 00 00 	movq   $0x4,0x48(%rax)
 4c22e57:	00 
 4c22e58:	48 8d 3d 51 33 01 00 	lea    0x13351(%rip),%rdi        # 4c361b0 <_IO_stdin_used@@Base+0x31b0>
 4c22e5f:	48 89 78 40          	mov    %rdi,0x40(%rax)
 4c22e63:	48 c7 40 58 03 00 00 	movq   $0x3,0x58(%rax)
 4c22e6a:	00 
 4c22e6b:	4c 8d 05 41 0e 01 00 	lea    0x10e41(%rip),%r8        # 4c33cb3 <_IO_stdin_used@@Base+0xcb3>
 4c22e72:	4c 89 40 50          	mov    %r8,0x50(%rax)
 4c22e76:	48 c7 40 68 04 00 00 	movq   $0x4,0x68(%rax)
 4c22e7d:	00 
 4c22e7e:	4c 8d 05 f7 33 01 00 	lea    0x133f7(%rip),%r8        # 4c3627c <_IO_stdin_used@@Base+0x327c>
 4c22e85:	4c 89 40 60          	mov    %r8,0x60(%rax)
 4c22e89:	4c 8b 84 24 18 02 00 	mov    0x218(%rsp),%r8
 4c22e90:	00 
 4c22e91:	49 c7 40 08 07 00 00 	movq   $0x7,0x8(%r8)
 4c22e98:	00 
 4c22e99:	49 c7 40 10 07 00 00 	movq   $0x7,0x10(%r8)
 4c22ea0:	00 
 4c22ea1:	83 3d b8 8a 25 03 00 	cmpl   $0x0,0x3258ab8(%rip)        # 7e7b960 <runtime.writeBarrier@@Base>
 4c22ea8:	75 10                	jne    4c22eba <github.com/lasselj/timebeat/interactive/daemon.CreateCommands@@Base+0x24da>
 4c22eaa:	49 89 00             	mov    %rax,(%r8)
 4c22ead:	4c 8d 0d cc 94 2c 01 	lea    0x12c94cc(%rip),%r9        # 5eec380 <github.com/lasselj/timebeat/interactive/api.SetOpentimecardSbcClockgenDpllFodFreq·f@@Base>
 4c22eb4:	4d 89 48 18          	mov    %r9,0x18(%r8)
 4c22eb8:	eb 1e                	jmp    4c22ed8 <github.com/lasselj/timebeat/interactive/daemon.CreateCommands@@Base+0x24f8>
 4c22eba:	4c 89 c7             	mov    %r8,%rdi
 4c22ebd:	0f 1f 00             	nopl   (%rax)
 4c22ec0:	e8 3b 37 33 fd       	call   1f56600 <runtime.gcWriteBarrier@@Base>
 4c22ec5:	4c 8d 4f 18          	lea    0x18(%rdi),%r9
 4c22ec9:	4c 89 cf             	mov    %r9,%rdi
 4c22ecc:	4c 8d 05 ad 94 2c 01 	lea    0x12c94ad(%rip),%r8        # 5eec380 <github.com/lasselj/timebeat/interactive/api.SetOpentimecardSbcClockgenDpllFodFreq·f@@Base>
 4c22ed3:	e8 a8 38 33 fd       	call   1f56780 <runtime.gcWriteBarrierR8@@Base>
 4c22ed8:	48 8d 05 a1 94 08 01 	lea    0x10894a1(%rip),%rax        # 5cac380 <type:uKbinQcm@@Base>
 4c22edf:	90                   	nop
 4c22ee0:	e8 fb d5 2c fd       	call   1ef04e0 <runtime.newobject@@Base>
 4c22ee5:	48 89 84 24 00 02 00 	mov    %rax,0x200(%rsp)
 4c22eec:	00 
 4c22eed:	48 8d 05 cc 4d bb 00 	lea    0xbb4dcc(%rip),%rax        # 57d7cc0 <type:[6]string@@Base>
 4c22ef4:	e8 e7 d5 2c fd       	call   1ef04e0 <runtime.newobject@@Base>
 4c22ef9:	48 c7 40 08 03 00 00 	movq   $0x3,0x8(%rax)
 4c22f00:	00 
 4c22f01:	48 8d 0d dc 0f 01 00 	lea    0x10fdc(%rip),%rcx        # 4c33ee4 <_IO_stdin_used@@Base+0xee4>
 4c22f08:	48 89 08             	mov    %rcx,(%rax)
 4c22f0b:	48 c7 40 18 0c 00 00 	movq   $0xc,0x18(%rax)
 4c22f12:	00 
 4c22f13:	48 8d 15 0d dd 04 00 	lea    0x4dd0d(%rip),%rdx        # 4c70c27 <_IO_stdin_used@@Base+0x3dc27>
 4c22f1a:	48 89 50 10          	mov    %rdx,0x10(%rax)
 4c22f1e:	48 c7 40 28 03 00 00 	movq   $0x3,0x28(%rax)
 4c22f25:	00 
 4c22f26:	48 8d 1d a8 0f 01 00 	lea    0x10fa8(%rip),%rbx        # 4c33ed5 <_IO_stdin_used@@Base+0xed5>
 4c22f2d:	48 89 58 20          	mov    %rbx,0x20(%rax)
 4c22f31:	48 c7 40 38 08 00 00 	movq   $0x8,0x38(%rax)
 4c22f38:	00 
 4c22f39:	48 8d 35 4d 00 04 00 	lea    0x4004d(%rip),%rsi        # 4c62f8d <_IO_stdin_used@@Base+0x2ff8d>
 4c22f40:	48 89 70 30          	mov    %rsi,0x30(%rax)
 4c22f44:	48 c7 40 48 06 00 00 	movq   $0x6,0x48(%rax)
 4c22f4b:	00 
 4c22f4c:	48 8d 3d 4a ba 03 00 	lea    0x3ba4a(%rip),%rdi        # 4c5e99d <_IO_stdin_used@@Base+0x2b99d>
 4c22f53:	48 89 78 40          	mov    %rdi,0x40(%rax)
 4c22f57:	48 c7 40 58 03 00 00 	movq   $0x3,0x58(%rax)
 4c22f5e:	00 
 4c22f5f:	4c 8d 05 e4 0c 01 00 	lea    0x10ce4(%rip),%r8        # 4c33c4a <_IO_stdin_used@@Base+0xc4a>
 4c22f66:	4c 89 40 50          	mov    %r8,0x50(%rax)
 4c22f6a:	4c 8b 84 24 00 02 00 	mov    0x200(%rsp),%r8
 4c22f71:	00 
 4c22f72:	49 c7 40 08 06 00 00 	movq   $0x6,0x8(%r8)
 4c22f79:	00 
 4c22f7a:	49 c7 40 10 06 00 00 	movq   $0x6,0x10(%r8)
 4c22f81:	00 
 4c22f82:	83 3d d7 89 25 03 00 	cmpl   $0x0,0x32589d7(%rip)        # 7e7b960 <runtime.writeBarrier@@Base>
 4c22f89:	75 10                	jne    4c22f9b <github.com/lasselj/timebeat/interactive/daemon.CreateCommands@@Base+0x25bb>
 4c22f8b:	49 89 00             	mov    %rax,(%r8)
 4c22f8e:	4c 8d 0d 0b 94 2c 01 	lea    0x12c940b(%rip),%r9        # 5eec3a0 <github.com/lasselj/timebeat/interactive/api.SetOpentimecardSbcClockgenOutputDiv·f@@Base>
 4c22f95:	4d 89 48 18          	mov    %r9,0x18(%r8)
 4c22f99:	eb 1d                	jmp    4c22fb8 <github.com/lasselj/timebeat/interactive/daemon.CreateCommands@@Base+0x25d8>
 4c22f9b:	4c 89 c7             	mov    %r8,%rdi
 4c22f9e:	66 90                	xchg   %ax,%ax
 4c22fa0:	e8 5b 36 33 fd       	call   1f56600 <runtime.gcWriteBarrier@@Base>
 4c22fa5:	4c 8d 4f 18          	lea    0x18(%rdi),%r9
 4c22fa9:	4c 89 cf             	mov    %r9,%rdi
 4c22fac:	4c 8d 05 ed 93 2c 01 	lea    0x12c93ed(%rip),%r8        # 5eec3a0 <github.com/lasselj/timebeat/interactive/api.SetOpentimecardSbcClockgenOutputDiv·f@@Base>
 4c22fb3:	e8 c8 37 33 fd       	call   1f56780 <runtime.gcWriteBarrierR8@@Base>
 4c22fb8:	48 8d 05 c1 93 08 01 	lea    0x10893c1(%rip),%rax        # 5cac380 <type:uKbinQcm@@Base>
 4c22fbf:	90                   	nop
 4c22fc0:	e8 1b d5 2c fd       	call   1ef04e0 <runtime.newobject@@Base>
 4c22fc5:	48 89 84 24 f8 01 00 	mov    %rax,0x1f8(%rsp)
 4c22fcc:	00 
 4c22fcd:	48 8d 05 ec 4c bb 00 	lea    0xbb4cec(%rip),%rax        # 57d7cc0 <type:[6]string@@Base>
 4c22fd4:	e8 07 d5 2c fd       	call   1ef04e0 <runtime.newobject@@Base>
 4c22fd9:	48 c7 40 08 03 00 00 	movq   $0x3,0x8(%rax)
 4c22fe0:	00 
 4c22fe1:	48 8d 0d fc 0e 01 00 	lea    0x10efc(%rip),%rcx        # 4c33ee4 <_IO_stdin_used@@Base+0xee4>
 4c22fe8:	48 89 08             	mov    %rcx,(%rax)
 4c22feb:	48 c7 40 18 0c 00 00 	movq   $0xc,0x18(%rax)
 4c22ff2:	00 
 4c22ff3:	48 8d 15 2d dc 04 00 	lea    0x4dc2d(%rip),%rdx        # 4c70c27 <_IO_stdin_used@@Base+0x3dc27>
 4c22ffa:	48 89 50 10          	mov    %rdx,0x10(%rax)
 4c22ffe:	48 c7 40 28 03 00 00 	movq   $0x3,0x28(%rax)
 4c23005:	00 
 4c23006:	48 8d 1d c8 0e 01 00 	lea    0x10ec8(%rip),%rbx        # 4c33ed5 <_IO_stdin_used@@Base+0xed5>
 4c2300d:	48 89 58 20          	mov    %rbx,0x20(%rax)
 4c23011:	48 c7 40 38 08 00 00 	movq   $0x8,0x38(%rax)
 4c23018:	00 
 4c23019:	48 8d 35 6d ff 03 00 	lea    0x3ff6d(%rip),%rsi        # 4c62f8d <_IO_stdin_used@@Base+0x2ff8d>
 4c23020:	48 89 70 30          	mov    %rsi,0x30(%rax)
 4c23024:	48 c7 40 48 06 00 00 	movq   $0x6,0x48(%rax)
 4c2302b:	00 
 4c2302c:	48 8d 3d 6a b9 03 00 	lea    0x3b96a(%rip),%rdi        # 4c5e99d <_IO_stdin_used@@Base+0x2b99d>
 4c23033:	48 89 78 40          	mov    %rdi,0x40(%rax)
 4c23037:	48 c7 40 58 0d 00 00 	movq   $0xd,0x58(%rax)
 4c2303e:	00 
 4c2303f:	48 8d 3d 75 98 05 00 	lea    0x59875(%rip),%rdi        # 4c7c8bb <_IO_stdin_used@@Base+0x498bb>
 4c23046:	48 89 78 50          	mov    %rdi,0x50(%rax)
 4c2304a:	48 8b bc 24 f8 01 00 	mov    0x1f8(%rsp),%rdi
 4c23051:	00 
 4c23052:	48 c7 47 08 06 00 00 	movq   $0x6,0x8(%rdi)
 4c23059:	00 
 4c2305a:	48 c7 47 10 06 00 00 	movq   $0x6,0x10(%rdi)
 4c23061:	00 
 4c23062:	83 3d f7 88 25 03 00 	cmpl   $0x0,0x32588f7(%rip)        # 7e7b960 <runtime.writeBarrier@@Base>
 4c23069:	75 15                	jne    4c23080 <github.com/lasselj/timebeat/interactive/daemon.CreateCommands@@Base+0x26a0>
 4c2306b:	48 89 07             	mov    %rax,(%rdi)
 4c2306e:	4c 8d 05 33 93 2c 01 	lea    0x12c9333(%rip),%r8        # 5eec3a8 <github.com/lasselj/timebeat/interactive/api.SetOpentimecardSbcClockgenOutputDutyCycleHigh·f@@Base>
 4c23075:	4c 89 47 18          	mov    %r8,0x18(%rdi)
 4c23079:	eb 1d                	jmp    4c23098 <github.com/lasselj/timebeat/interactive/daemon.CreateCommands@@Base+0x26b8>
 4c2307b:	0f 1f 44 00 00       	nopl   0x0(%rax,%rax,1)
 4c23080:	e8 7b 35 33 fd       	call   1f56600 <runtime.gcWriteBarrier@@Base>
 4c23085:	4c 8d 47 18          	lea    0x18(%rdi),%r8
 4c23089:	4c 89 c7             	mov    %r8,%rdi
 4c2308c:	4c 8d 0d 15 93 2c 01 	lea    0x12c9315(%rip),%r9        # 5eec3a8 <github.com/lasselj/timebeat/interactive/api.SetOpentimecardSbcClockgenOutputDutyCycleHigh·f@@Base>
 4c23093:	e8 08 37 33 fd       	call   1f567a0 <runtime.gcWriteBarrierR9@@Base>
 4c23098:	48 8d 05 e1 92 08 01 	lea    0x10892e1(%rip),%rax        # 5cac380 <type:uKbinQcm@@Base>
 4c2309f:	90                   	nop
 4c230a0:	e8 3b d4 2c fd       	call   1ef04e0 <runtime.newobject@@Base>
 4c230a5:	48 89 84 24 30 01 00 	mov    %rax,0x130(%rsp)
 4c230ac:	00 
 4c230ad:	48 8d 05 0c 4c bb 00 	lea    0xbb4c0c(%rip),%rax        # 57d7cc0 <type:[6]string@@Base>
 4c230b4:	e8 27 d4 2c fd       	call   1ef04e0 <runtime.newobject@@Base>
 4c230b9:	48 c7 40 08 04 00 00 	movq   $0x4,0x8(%rax)
 4c230c0:	00 
 4c230c1:	48 8d 0d 08 36 01 00 	lea    0x13608(%rip),%rcx        # 4c366d0 <_IO_stdin_used@@Base+0x36d0>
 4c230c8:	48 89 08             	mov    %rcx,(%rax)
 4c230cb:	48 c7 40 18 0c 00 00 	movq   $0xc,0x18(%rax)
 4c230d2:	00 
 4c230d3:	48 8d 15 4d db 04 00 	lea    0x4db4d(%rip),%rdx        # 4c70c27 <_IO_stdin_used@@Base+0x3dc27>
 4c230da:	48 89 50 10          	mov    %rdx,0x10(%rax)
 4c230de:	48 c7 40 28 03 00 00 	movq   $0x3,0x28(%rax)
 4c230e5:	00 
 4c230e6:	48 8d 1d e8 0d 01 00 	lea    0x10de8(%rip),%rbx        # 4c33ed5 <_IO_stdin_used@@Base+0xed5>
 4c230ed:	48 89 58 20          	mov    %rbx,0x20(%rax)
 4c230f1:	48 c7 40 38 08 00 00 	movq   $0x8,0x38(%rax)
 4c230f8:	00 
 4c230f9:	48 8d 35 8d fe 03 00 	lea    0x3fe8d(%rip),%rsi        # 4c62f8d <_IO_stdin_used@@Base+0x2ff8d>
 4c23100:	48 89 70 30          	mov    %rsi,0x30(%rax)
 4c23104:	48 c7 40 48 04 00 00 	movq   $0x4,0x48(%rax)
 4c2310b:	00 
 4c2310c:	48 8d 3d 9d 30 01 00 	lea    0x1309d(%rip),%rdi        # 4c361b0 <_IO_stdin_used@@Base+0x31b0>
 4c23113:	48 89 78 40          	mov    %rdi,0x40(%rax)
 4c23117:	48 c7 40 58 06 00 00 	movq   $0x6,0x58(%rax)
 4c2311e:	00 
 4c2311f:	4c 8d 05 09 bd 03 00 	lea    0x3bd09(%rip),%r8        # 4c5ee2f <_IO_stdin_used@@Base+0x2be2f>
 4c23126:	4c 89 40 50          	mov    %r8,0x50(%rax)
 4c2312a:	4c 8b 8c 24 30 01 00 	mov    0x130(%rsp),%r9
 4c23131:	00 
 4c23132:	49 c7 41 08 06 00 00 	movq   $0x6,0x8(%r9)
 4c23139:	00 
 4c2313a:	49 c7 41 10 06 00 00 	movq   $0x6,0x10(%r9)
 4c23141:	00 
 4c23142:	83 3d 17 88 25 03 00 	cmpl   $0x0,0x3258817(%rip)        # 7e7b960 <runtime.writeBarrier@@Base>
 4c23149:	75 10                	jne    4c2315b <github.com/lasselj/timebeat/interactive/daemon.CreateCommands@@Base+0x277b>
 4c2314b:	49 89 01             	mov    %rax,(%r9)
 4c2314e:	4c 8d 15 eb 92 2c 01 	lea    0x12c92eb(%rip),%r10        # 5eec440 <github.com/lasselj/timebeat/interactive/api.ShowOpentimecardSbcClockgenDpllStatus·f@@Base>
 4c23155:	4d 89 51 18          	mov    %r10,0x18(%r9)
 4c23159:	eb 1d                	jmp    4c23178 <github.com/lasselj/timebeat/interactive/daemon.CreateCommands@@Base+0x2798>
 4c2315b:	4c 89 cf             	mov    %r9,%rdi
 4c2315e:	66 90                	xchg   %ax,%ax
 4c23160:	e8 9b 34 33 fd       	call   1f56600 <runtime.gcWriteBarrier@@Base>
 4c23165:	4c 8d 57 18          	lea    0x18(%rdi),%r10
 4c23169:	4c 89 d7             	mov    %r10,%rdi
 4c2316c:	4c 8d 0d cd 92 2c 01 	lea    0x12c92cd(%rip),%r9        # 5eec440 <github.com/lasselj/timebeat/interactive/api.ShowOpentimecardSbcClockgenDpllStatus·f@@Base>
 4c23173:	e8 28 36 33 fd       	call   1f567a0 <runtime.gcWriteBarrierR9@@Base>
 4c23178:	48 8d 05 01 92 08 01 	lea    0x1089201(%rip),%rax        # 5cac380 <type:uKbinQcm@@Base>
 4c2317f:	90                   	nop
 4c23180:	e8 5b d3 2c fd       	call   1ef04e0 <runtime.newobject@@Base>
 4c23185:	48 89 84 24 10 02 00 	mov    %rax,0x210(%rsp)
 4c2318c:	00 
 4c2318d:	48 8d 05 2c 4b bb 00 	lea    0xbb4b2c(%rip),%rax        # 57d7cc0 <type:[6]string@@Base>
 4c23194:	e8 47 d3 2c fd       	call   1ef04e0 <runtime.newobject@@Base>
 4c23199:	48 c7 40 08 03 00 00 	movq   $0x3,0x8(%rax)
 4c231a0:	00 
 4c231a1:	48 8d 0d 3c 0d 01 00 	lea    0x10d3c(%rip),%rcx        # 4c33ee4 <_IO_stdin_used@@Base+0xee4>
 4c231a8:	48 89 08             	mov    %rcx,(%rax)
 4c231ab:	48 c7 40 18 0c 00 00 	movq   $0xc,0x18(%rax)
 4c231b2:	00 
 4c231b3:	48 8d 15 6d da 04 00 	lea    0x4da6d(%rip),%rdx        # 4c70c27 <_IO_stdin_used@@Base+0x3dc27>
 4c231ba:	48 89 50 10          	mov    %rdx,0x10(%rax)
 4c231be:	48 c7 40 28 03 00 00 	movq   $0x3,0x28(%rax)
 4c231c5:	00 
 4c231c6:	48 8d 1d 08 0d 01 00 	lea    0x10d08(%rip),%rbx        # 4c33ed5 <_IO_stdin_used@@Base+0xed5>
 4c231cd:	48 89 58 20          	mov    %rbx,0x20(%rax)
 4c231d1:	48 c7 40 38 08 00 00 	movq   $0x8,0x38(%rax)
 4c231d8:	00 
 4c231d9:	48 8d 35 ad fd 03 00 	lea    0x3fdad(%rip),%rsi        # 4c62f8d <_IO_stdin_used@@Base+0x2ff8d>
 4c231e0:	48 89 70 30          	mov    %rsi,0x30(%rax)
 4c231e4:	48 c7 40 48 04 00 00 	movq   $0x4,0x48(%rax)
 4c231eb:	00 
 4c231ec:	48 8d 3d bd 2f 01 00 	lea    0x12fbd(%rip),%rdi        # 4c361b0 <_IO_stdin_used@@Base+0x31b0>
 4c231f3:	48 89 78 40          	mov    %rdi,0x40(%rax)
 4c231f7:	48 c7 40 58 06 00 00 	movq   $0x6,0x58(%rax)
 4c231fe:	00 
 4c231ff:	4c 8d 05 c9 b8 03 00 	lea    0x3b8c9(%rip),%r8        # 4c5eacf <_IO_stdin_used@@Base+0x2bacf>
 4c23206:	4c 89 40 50          	mov    %r8,0x50(%rax)
 4c2320a:	4c 8b 84 24 10 02 00 	mov    0x210(%rsp),%r8
 4c23211:	00 
 4c23212:	49 c7 40 08 06 00 00 	movq   $0x6,0x8(%r8)
 4c23219:	00 
 4c2321a:	49 c7 40 10 06 00 00 	movq   $0x6,0x10(%r8)
 4c23221:	00 
 4c23222:	83 3d 37 87 25 03 00 	cmpl   $0x0,0x3258737(%rip)        # 7e7b960 <runtime.writeBarrier@@Base>
 4c23229:	75 10                	jne    4c2323b <github.com/lasselj/timebeat/interactive/daemon.CreateCommands@@Base+0x285b>
 4c2322b:	49 89 00             	mov    %rax,(%r8)
 4c2322e:	4c 8d 0d 63 91 2c 01 	lea    0x12c9163(%rip),%r9        # 5eec398 <github.com/lasselj/timebeat/interactive/api.SetOpentimecardSbcClockgenExecuteDpllPullIn·f@@Base>
 4c23235:	4d 89 48 18          	mov    %r9,0x18(%r8)
 4c23239:	eb 1d                	jmp    4c23258 <github.com/lasselj/timebeat/interactive/daemon.CreateCommands@@Base+0x2878>
 4c2323b:	4c 89 c7             	mov    %r8,%rdi
 4c2323e:	66 90                	xchg   %ax,%ax
 4c23240:	e8 bb 33 33 fd       	call   1f56600 <runtime.gcWriteBarrier@@Base>
 4c23245:	4c 8d 4f 18          	lea    0x18(%rdi),%r9
 4c23249:	4c 89 cf             	mov    %r9,%rdi
 4c2324c:	4c 8d 05 45 91 2c 01 	lea    0x12c9145(%rip),%r8        # 5eec398 <github.com/lasselj/timebeat/interactive/api.SetOpentimecardSbcClockgenExecuteDpllPullIn·f@@Base>
 4c23253:	e8 28 35 33 fd       	call   1f56780 <runtime.gcWriteBarrierR8@@Base>
 4c23258:	48 8d 05 21 91 08 01 	lea    0x1089121(%rip),%rax        # 5cac380 <type:uKbinQcm@@Base>
 4c2325f:	90                   	nop
 4c23260:	e8 7b d2 2c fd       	call   1ef04e0 <runtime.newobject@@Base>
 4c23265:	48 89 84 24 28 01 00 	mov    %rax,0x128(%rsp)
 4c2326c:	00 
 4c2326d:	48 8d 05 4c 4a bb 00 	lea    0xbb4a4c(%rip),%rax        # 57d7cc0 <type:[6]string@@Base>
 4c23274:	e8 67 d2 2c fd       	call   1ef04e0 <runtime.newobject@@Base>
 4c23279:	48 c7 40 08 04 00 00 	movq   $0x4,0x8(%rax)
 4c23280:	00 
 4c23281:	48 8d 0d 48 34 01 00 	lea    0x13448(%rip),%rcx        # 4c366d0 <_IO_stdin_used@@Base+0x36d0>
 4c23288:	48 89 08             	mov    %rcx,(%rax)
 4c2328b:	48 c7 40 18 0c 00 00 	movq   $0xc,0x18(%rax)
 4c23292:	00 
 4c23293:	48 8d 15 8d d9 04 00 	lea    0x4d98d(%rip),%rdx        # 4c70c27 <_IO_stdin_used@@Base+0x3dc27>
 4c2329a:	48 89 50 10          	mov    %rdx,0x10(%rax)
 4c2329e:	48 c7 40 28 03 00 00 	movq   $0x3,0x28(%rax)
 4c232a5:	00 
 4c232a6:	48 8d 1d 28 0c 01 00 	lea    0x10c28(%rip),%rbx        # 4c33ed5 <_IO_stdin_used@@Base+0xed5>
 4c232ad:	48 89 58 20          	mov    %rbx,0x20(%rax)
 4c232b1:	48 c7 40 38 08 00 00 	movq   $0x8,0x38(%rax)
 4c232b8:	00 
 4c232b9:	48 8d 35 cd fc 03 00 	lea    0x3fccd(%rip),%rsi        # 4c62f8d <_IO_stdin_used@@Base+0x2ff8d>
 4c232c0:	48 89 70 30          	mov    %rsi,0x30(%rax)
 4c232c4:	48 c7 40 48 05 00 00 	movq   $0x5,0x48(%rax)
 4c232cb:	00 
 4c232cc:	48 8d 3d e0 12 02 00 	lea    0x212e0(%rip),%rdi        # 4c445b3 <_IO_stdin_used@@Base+0x115b3>
 4c232d3:	48 89 78 40          	mov    %rdi,0x40(%rax)
 4c232d7:	48 c7 40 58 06 00 00 	movq   $0x6,0x58(%rax)
 4c232de:	00 
 4c232df:	48 8d 3d 49 bb 03 00 	lea    0x3bb49(%rip),%rdi        # 4c5ee2f <_IO_stdin_used@@Base+0x2be2f>
 4c232e6:	48 89 78 50          	mov    %rdi,0x50(%rax)
 4c232ea:	4c 8b 84 24 28 01 00 	mov    0x128(%rsp),%r8
 4c232f1:	00 
 4c232f2:	49 c7 40 08 06 00 00 	movq   $0x6,0x8(%r8)
 4c232f9:	00 
 4c232fa:	49 c7 40 10 06 00 00 	movq   $0x6,0x10(%r8)
 4c23301:	00 
 4c23302:	83 3d 57 86 25 03 00 	cmpl   $0x0,0x3258657(%rip)        # 7e7b960 <runtime.writeBarrier@@Base>
 4c23309:	75 10                	jne    4c2331b <github.com/lasselj/timebeat/interactive/daemon.CreateCommands@@Base+0x293b>
 4c2330b:	49 89 00             	mov    %rax,(%r8)
 4c2330e:	4c 8d 0d 33 91 2c 01 	lea    0x12c9133(%rip),%r9        # 5eec448 <github.com/lasselj/timebeat/interactive/api.ShowOpentimecardSbcClockgenInputStatus·f@@Base>
 4c23315:	4d 89 48 18          	mov    %r9,0x18(%r8)
 4c23319:	eb 1d                	jmp    4c23338 <github.com/lasselj/timebeat/interactive/daemon.CreateCommands@@Base+0x2958>
 4c2331b:	4c 89 c7             	mov    %r8,%rdi
 4c2331e:	66 90                	xchg   %ax,%ax
 4c23320:	e8 db 32 33 fd       	call   1f56600 <runtime.gcWriteBarrier@@Base>
 4c23325:	4c 8d 4f 18          	lea    0x18(%rdi),%r9
 4c23329:	4c 89 cf             	mov    %r9,%rdi
 4c2332c:	4c 8d 05 15 91 2c 01 	lea    0x12c9115(%rip),%r8        # 5eec448 <github.com/lasselj/timebeat/interactive/api.ShowOpentimecardSbcClockgenInputStatus·f@@Base>
 4c23333:	e8 48 34 33 fd       	call   1f56780 <runtime.gcWriteBarrierR8@@Base>
 4c23338:	48 8d 05 41 90 08 01 	lea    0x1089041(%rip),%rax        # 5cac380 <type:uKbinQcm@@Base>
 4c2333f:	90                   	nop
 4c23340:	e8 9b d1 2c fd       	call   1ef04e0 <runtime.newobject@@Base>
 4c23345:	48 89 84 24 10 01 00 	mov    %rax,0x110(%rsp)
 4c2334c:	00 
 4c2334d:	48 8d 05 cc 3a bb 00 	lea    0xbb3acc(%rip),%rax        # 57d6e20 <type:[5]string@@Base>
 4c23354:	e8 87 d1 2c fd       	call   1ef04e0 <runtime.newobject@@Base>
 4c23359:	48 c7 40 08 04 00 00 	movq   $0x4,0x8(%rax)
 4c23360:	00 
 4c23361:	48 8d 0d 68 33 01 00 	lea    0x13368(%rip),%rcx        # 4c366d0 <_IO_stdin_used@@Base+0x36d0>
 4c23368:	48 89 08             	mov    %rcx,(%rax)
 4c2336b:	48 c7 40 18 0c 00 00 	movq   $0xc,0x18(%rax)
 4c23372:	00 
 4c23373:	48 8d 15 ad d8 04 00 	lea    0x4d8ad(%rip),%rdx        # 4c70c27 <_IO_stdin_used@@Base+0x3dc27>
 4c2337a:	48 89 50 10          	mov    %rdx,0x10(%rax)
 4c2337e:	48 c7 40 28 03 00 00 	movq   $0x3,0x28(%rax)
 4c23385:	00 
 4c23386:	48 8d 1d 48 0b 01 00 	lea    0x10b48(%rip),%rbx        # 4c33ed5 <_IO_stdin_used@@Base+0xed5>
 4c2338d:	48 89 58 20          	mov    %rbx,0x20(%rax)
 4c23391:	48 c7 40 38 04 00 00 	movq   $0x4,0x38(%rax)
 4c23398:	00 
 4c23399:	48 8d 35 24 2f 01 00 	lea    0x12f24(%rip),%rsi        # 4c362c4 <_IO_stdin_used@@Base+0x32c4>
 4c233a0:	48 89 70 30          	mov    %rsi,0x30(%rax)
 4c233a4:	48 c7 40 48 04 00 00 	movq   $0x4,0x48(%rax)
 4c233ab:	00 
 4c233ac:	48 8d 3d c9 32 01 00 	lea    0x132c9(%rip),%rdi        # 4c3667c <_IO_stdin_used@@Base+0x367c>
 4c233b3:	48 89 78 40          	mov    %rdi,0x40(%rax)
 4c233b7:	48 8b bc 24 10 01 00 	mov    0x110(%rsp),%rdi
 4c233be:	00 
 4c233bf:	48 c7 47 08 05 00 00 	movq   $0x5,0x8(%rdi)
 4c233c6:	00 
 4c233c7:	48 c7 47 10 05 00 00 	movq   $0x5,0x10(%rdi)
 4c233ce:	00 
 4c233cf:	83 3d 8a 85 25 03 00 	cmpl   $0x0,0x325858a(%rip)        # 7e7b960 <runtime.writeBarrier@@Base>
 4c233d6:	75 10                	jne    4c233e8 <github.com/lasselj/timebeat/interactive/daemon.CreateCommands@@Base+0x2a08>
 4c233d8:	48 89 07             	mov    %rax,(%rdi)
 4c233db:	4c 8d 05 7e 90 2c 01 	lea    0x12c907e(%rip),%r8        # 5eec460 <github.com/lasselj/timebeat/interactive/api.ShowOpentimecardSbcGnssSats·f@@Base>
 4c233e2:	4c 89 47 18          	mov    %r8,0x18(%rdi)
 4c233e6:	eb 1d                	jmp    4c23405 <github.com/lasselj/timebeat/interactive/daemon.CreateCommands@@Base+0x2a25>
 4c233e8:	e8 13 32 33 fd       	call   1f56600 <runtime.gcWriteBarrier@@Base>
 4c233ed:	4c 8d 47 18          	lea    0x18(%rdi),%r8
 4c233f1:	4c 89 c7             	mov    %r8,%rdi
 4c233f4:	4c 8d 0d 65 90 2c 01 	lea    0x12c9065(%rip),%r9        # 5eec460 <github.com/lasselj/timebeat/interactive/api.ShowOpentimecardSbcGnssSats·f@@Base>
 4c233fb:	0f 1f 44 00 00       	nopl   0x0(%rax,%rax,1)
 4c23400:	e8 9b 33 33 fd       	call   1f567a0 <runtime.gcWriteBarrierR9@@Base>
 4c23405:	48 8d 05 74 8f 08 01 	lea    0x1088f74(%rip),%rax        # 5cac380 <type:uKbinQcm@@Base>
 4c2340c:	e8 cf d0 2c fd       	call   1ef04e0 <runtime.newobject@@Base>
 4c23411:	48 89 84 24 28 02 00 	mov    %rax,0x228(%rsp)
 4c23418:	00 
 4c23419:	48 8d 05 00 3a bb 00 	lea    0xbb3a00(%rip),%rax        # 57d6e20 <type:[5]string@@Base>
 4c23420:	e8 bb d0 2c fd       	call   1ef04e0 <runtime.newobject@@Base>
 4c23425:	48 c7 40 08 03 00 00 	movq   $0x3,0x8(%rax)
 4c2342c:	00 
 4c2342d:	48 8d 0d b0 0a 01 00 	lea    0x10ab0(%rip),%rcx        # 4c33ee4 <_IO_stdin_used@@Base+0xee4>
 4c23434:	48 89 08             	mov    %rcx,(%rax)
 4c23437:	48 c7 40 18 0c 00 00 	movq   $0xc,0x18(%rax)
 4c2343e:	00 
 4c2343f:	48 8d 15 e1 d7 04 00 	lea    0x4d7e1(%rip),%rdx        # 4c70c27 <_IO_stdin_used@@Base+0x3dc27>
 4c23446:	48 89 50 10          	mov    %rdx,0x10(%rax)
 4c2344a:	48 c7 40 28 07 00 00 	movq   $0x7,0x28(%rax)
 4c23451:	00 
 4c23452:	48 8d 1d 11 db 03 00 	lea    0x3db11(%rip),%rbx        # 4c60f6a <_IO_stdin_used@@Base+0x2df6a>
 4c23459:	48 89 58 20          	mov    %rbx,0x20(%rax)
 4c2345d:	48 c7 40 38 08 00 00 	movq   $0x8,0x38(%rax)
 4c23464:	00 
 4c23465:	48 8d 1d 91 fe 03 00 	lea    0x3fe91(%rip),%rbx        # 4c632fd <_IO_stdin_used@@Base+0x302fd>
 4c2346c:	48 89 58 30          	mov    %rbx,0x30(%rax)
 4c23470:	48 c7 40 48 05 00 00 	movq   $0x5,0x48(%rax)
 4c23477:	00 
 4c23478:	48 8d 1d e5 0f 02 00 	lea    0x20fe5(%rip),%rbx        # 4c44464 <_IO_stdin_used@@Base+0x11464>
 4c2347f:	48 89 58 40          	mov    %rbx,0x40(%rax)
 4c23483:	48 8b bc 24 28 02 00 	mov    0x228(%rsp),%rdi
 4c2348a:	00 
 4c2348b:	48 c7 47 08 05 00 00 	movq   $0x5,0x8(%rdi)
 4c23492:	00 
 4c23493:	48 c7 47 10 05 00 00 	movq   $0x5,0x10(%rdi)
 4c2349a:	00 
 4c2349b:	83 3d be 84 25 03 00 	cmpl   $0x0,0x32584be(%rip)        # 7e7b960 <runtime.writeBarrier@@Base>
 4c234a2:	75 10                	jne    4c234b4 <github.com/lasselj/timebeat/interactive/daemon.CreateCommands@@Base+0x2ad4>
 4c234a4:	48 89 07             	mov    %rax,(%rdi)
 4c234a7:	48 8d 1d ca 8e 2c 01 	lea    0x12c8eca(%rip),%rbx        # 5eec378 <github.com/lasselj/timebeat/interactive/api.SetOpentimecardMiniPtFirmwareFlash·f@@Base>
 4c234ae:	48 89 5f 18          	mov    %rbx,0x18(%rdi)
 4c234b2:	eb 18                	jmp    4c234cc <github.com/lasselj/timebeat/interactive/daemon.CreateCommands@@Base+0x2aec>
 4c234b4:	e8 47 31 33 fd       	call   1f56600 <runtime.gcWriteBarrier@@Base>
 4c234b9:	48 8d 5f 18          	lea    0x18(%rdi),%rbx
 4c234bd:	48 89 df             	mov    %rbx,%rdi
 4c234c0:	48 8d 35 b1 8e 2c 01 	lea    0x12c8eb1(%rip),%rsi        # 5eec378 <github.com/lasselj/timebeat/interactive/api.SetOpentimecardMiniPtFirmwareFlash·f@@Base>
 4c234c7:	e8 94 32 33 fd       	call   1f56760 <runtime.gcWriteBarrierSI@@Base>
 4c234cc:	48 8d 05 ad 8e 08 01 	lea    0x1088ead(%rip),%rax        # 5cac380 <type:uKbinQcm@@Base>
 4c234d3:	e8 08 d0 2c fd       	call   1ef04e0 <runtime.newobject@@Base>
 4c234d8:	48 89 84 24 20 02 00 	mov    %rax,0x220(%rsp)
 4c234df:	00 
 4c234e0:	48 8d 05 d9 47 bb 00 	lea    0xbb47d9(%rip),%rax        # 57d7cc0 <type:[6]string@@Base>
 4c234e7:	e8 f4 cf 2c fd       	call   1ef04e0 <runtime.newobject@@Base>
 4c234ec:	48 c7 40 08 03 00 00 	movq   $0x3,0x8(%rax)
 4c234f3:	00 
 4c234f4:	48 8d 0d e9 09 01 00 	lea    0x109e9(%rip),%rcx        # 4c33ee4 <_IO_stdin_used@@Base+0xee4>
 4c234fb:	48 89 08             	mov    %rcx,(%rax)
 4c234fe:	48 c7 40 18 0c 00 00 	movq   $0xc,0x18(%rax)
 4c23505:	00 
 4c23506:	48 8d 15 1a d7 04 00 	lea    0x4d71a(%rip),%rdx        # 4c70c27 <_IO_stdin_used@@Base+0x3dc27>
 4c2350d:	48 89 50 10          	mov    %rdx,0x10(%rax)
 4c23511:	48 c7 40 28 03 00 00 	movq   $0x3,0x28(%rax)
 4c23518:	00 
 4c23519:	48 8d 1d b5 09 01 00 	lea    0x109b5(%rip),%rbx        # 4c33ed5 <_IO_stdin_used@@Base+0xed5>
 4c23520:	48 89 58 20          	mov    %rbx,0x20(%rax)
 4c23524:	48 c7 40 38 08 00 00 	movq   $0x8,0x38(%rax)
 4c2352b:	00 
 4c2352c:	48 8d 35 5a fa 03 00 	lea    0x3fa5a(%rip),%rsi        # 4c62f8d <_IO_stdin_used@@Base+0x2ff8d>
 4c23533:	48 89 70 30          	mov    %rsi,0x30(%rax)
 4c23537:	48 c7 40 48 04 00 00 	movq   $0x4,0x48(%rax)
 4c2353e:	00 
 4c2353f:	48 8d 3d 6a 2c 01 00 	lea    0x12c6a(%rip),%rdi        # 4c361b0 <_IO_stdin_used@@Base+0x31b0>
 4c23546:	48 89 78 40          	mov    %rdi,0x40(%rax)
 4c2354a:	48 c7 40 58 09 00 00 	movq   $0x9,0x58(%rax)
 4c23551:	00 
 4c23552:	4c 8d 05 72 23 04 00 	lea    0x42372(%rip),%r8        # 4c658cb <_IO_stdin_used@@Base+0x328cb>
 4c23559:	4c 89 40 50          	mov    %r8,0x50(%rax)
 4c2355d:	4c 8b 84 24 20 02 00 	mov    0x220(%rsp),%r8
 4c23564:	00 
 4c23565:	49 c7 40 08 06 00 00 	movq   $0x6,0x8(%r8)
 4c2356c:	00 
 4c2356d:	49 c7 40 10 06 00 00 	movq   $0x6,0x10(%r8)
 4c23574:	00 
 4c23575:	83 3d e4 83 25 03 00 	cmpl   $0x0,0x32583e4(%rip)        # 7e7b960 <runtime.writeBarrier@@Base>
 4c2357c:	75 10                	jne    4c2358e <github.com/lasselj/timebeat/interactive/daemon.CreateCommands@@Base+0x2bae>
 4c2357e:	49 89 00             	mov    %rax,(%r8)
 4c23581:	4c 8d 0d 08 8e 2c 01 	lea    0x12c8e08(%rip),%r9        # 5eec390 <github.com/lasselj/timebeat/interactive/api.SetOpentimecardSbcClockgenExecuteDpllBandwidth·f@@Base>
 4c23588:	4d 89 48 18          	mov    %r9,0x18(%r8)
 4c2358c:	eb 1b                	jmp    4c235a9 <github.com/lasselj/timebeat/interactive/daemon.CreateCommands@@Base+0x2bc9>
 4c2358e:	4c 89 c7             	mov    %r8,%rdi
 4c23591:	e8 6a 30 33 fd       	call   1f56600 <runtime.gcWriteBarrier@@Base>
 4c23596:	4c 8d 4f 18          	lea    0x18(%rdi),%r9
 4c2359a:	4c 89 cf             	mov    %r9,%rdi
 4c2359d:	4c 8d 05 ec 8d 2c 01 	lea    0x12c8dec(%rip),%r8        # 5eec390 <github.com/lasselj/timebeat/interactive/api.SetOpentimecardSbcClockgenExecuteDpllBandwidth·f@@Base>
 4c235a4:	e8 d7 31 33 fd       	call   1f56780 <runtime.gcWriteBarrierR8@@Base>
 4c235a9:	48 8d 05 d0 8d 08 01 	lea    0x1088dd0(%rip),%rax        # 5cac380 <type:uKbinQcm@@Base>
 4c235b0:	e8 2b cf 2c fd       	call   1ef04e0 <runtime.newobject@@Base>
 4c235b5:	48 89 84 24 38 01 00 	mov    %rax,0x138(%rsp)
 4c235bc:	00 
 4c235bd:	48 8d 05 fc 46 bb 00 	lea    0xbb46fc(%rip),%rax        # 57d7cc0 <type:[6]string@@Base>
 4c235c4:	e8 17 cf 2c fd       	call   1ef04e0 <runtime.newobject@@Base>
 4c235c9:	48 c7 40 08 04 00 00 	movq   $0x4,0x8(%rax)
 4c235d0:	00 
 4c235d1:	48 8d 0d f8 30 01 00 	lea    0x130f8(%rip),%rcx        # 4c366d0 <_IO_stdin_used@@Base+0x36d0>
 4c235d8:	48 89 08             	mov    %rcx,(%rax)
 4c235db:	48 c7 40 18 0c 00 00 	movq   $0xc,0x18(%rax)
 4c235e2:	00 
 4c235e3:	48 8d 15 3d d6 04 00 	lea    0x4d63d(%rip),%rdx        # 4c70c27 <_IO_stdin_used@@Base+0x3dc27>
 4c235ea:	48 89 50 10          	mov    %rdx,0x10(%rax)
 4c235ee:	48 c7 40 28 03 00 00 	movq   $0x3,0x28(%rax)
 4c235f5:	00 
 4c235f6:	48 8d 1d d8 08 01 00 	lea    0x108d8(%rip),%rbx        # 4c33ed5 <_IO_stdin_used@@Base+0xed5>
 4c235fd:	48 89 58 20          	mov    %rbx,0x20(%rax)
 4c23601:	48 c7 40 38 08 00 00 	movq   $0x8,0x38(%rax)
 4c23608:	00 
 4c23609:	48 8d 35 7d f9 03 00 	lea    0x3f97d(%rip),%rsi        # 4c62f8d <_IO_stdin_used@@Base+0x2ff8d>
 4c23610:	48 89 70 30          	mov    %rsi,0x30(%rax)
 4c23614:	48 c7 40 48 06 00 00 	movq   $0x6,0x48(%rax)
 4c2361b:	00 
 4c2361c:	48 8d 3d ba a9 03 00 	lea    0x3a9ba(%rip),%rdi        # 4c5dfdd <_IO_stdin_used@@Base+0x2afdd>
 4c23623:	48 89 78 40          	mov    %rdi,0x40(%rax)
 4c23627:	48 c7 40 58 06 00 00 	movq   $0x6,0x58(%rax)
 4c2362e:	00 
 4c2362f:	48 8d 3d f9 b7 03 00 	lea    0x3b7f9(%rip),%rdi        # 4c5ee2f <_IO_stdin_used@@Base+0x2be2f>
 4c23636:	48 89 78 50          	mov    %rdi,0x50(%rax)
 4c2363a:	48 8b bc 24 38 01 00 	mov    0x138(%rsp),%rdi
 4c23641:	00 
 4c23642:	48 c7 47 08 06 00 00 	movq   $0x6,0x8(%rdi)
 4c23649:	00 
 4c2364a:	48 c7 47 10 06 00 00 	movq   $0x6,0x10(%rdi)
 4c23651:	00 
 4c23652:	83 3d 07 83 25 03 00 	cmpl   $0x0,0x3258307(%rip)        # 7e7b960 <runtime.writeBarrier@@Base>
 4c23659:	75 10                	jne    4c2366b <github.com/lasselj/timebeat/interactive/daemon.CreateCommands@@Base+0x2c8b>
 4c2365b:	48 89 07             	mov    %rax,(%rdi)
 4c2365e:	4c 8d 05 d3 8d 2c 01 	lea    0x12c8dd3(%rip),%r8        # 5eec438 <github.com/lasselj/timebeat/interactive/api.ShowOpentimecardSbcClockgenConfigStatus·f@@Base>
 4c23665:	4c 89 47 18          	mov    %r8,0x18(%rdi)
 4c23669:	eb 1a                	jmp    4c23685 <github.com/lasselj/timebeat/interactive/daemon.CreateCommands@@Base+0x2ca5>
 4c2366b:	e8 90 2f 33 fd       	call   1f56600 <runtime.gcWriteBarrier@@Base>
 4c23670:	4c 8d 47 18          	lea    0x18(%rdi),%r8
 4c23674:	4c 89 c7             	mov    %r8,%rdi
 4c23677:	4c 8d 0d ba 8d 2c 01 	lea    0x12c8dba(%rip),%r9        # 5eec438 <github.com/lasselj/timebeat/interactive/api.ShowOpentimecardSbcClockgenConfigStatus·f@@Base>
 4c2367e:	66 90                	xchg   %ax,%ax
 4c23680:	e8 1b 31 33 fd       	call   1f567a0 <runtime.gcWriteBarrierR9@@Base>
 4c23685:	48 8d 05 f4 8c 08 01 	lea    0x1088cf4(%rip),%rax        # 5cac380 <type:uKbinQcm@@Base>
 4c2368c:	e8 4f ce 2c fd       	call   1ef04e0 <runtime.newobject@@Base>
 4c23691:	48 89 84 24 20 01 00 	mov    %rax,0x120(%rsp)
 4c23698:	00 
 4c23699:	48 8d 05 80 37 bb 00 	lea    0xbb3780(%rip),%rax        # 57d6e20 <type:[5]string@@Base>
 4c236a0:	e8 3b ce 2c fd       	call   1ef04e0 <runtime.newobject@@Base>
 4c236a5:	48 c7 40 08 04 00 00 	movq   $0x4,0x8(%rax)
 4c236ac:	00 
 4c236ad:	48 8d 0d 1c 30 01 00 	lea    0x1301c(%rip),%rcx        # 4c366d0 <_IO_stdin_used@@Base+0x36d0>
 4c236b4:	48 89 08             	mov    %rcx,(%rax)
 4c236b7:	48 c7 40 18 0c 00 00 	movq   $0xc,0x18(%rax)
 4c236be:	00 
 4c236bf:	48 8d 15 61 d5 04 00 	lea    0x4d561(%rip),%rdx        # 4c70c27 <_IO_stdin_used@@Base+0x3dc27>
 4c236c6:	48 89 50 10          	mov    %rdx,0x10(%rax)
 4c236ca:	48 c7 40 28 03 00 00 	movq   $0x3,0x28(%rax)
 4c236d1:	00 
 4c236d2:	48 8d 1d fc 07 01 00 	lea    0x107fc(%rip),%rbx        # 4c33ed5 <_IO_stdin_used@@Base+0xed5>
 4c236d9:	48 89 58 20          	mov    %rbx,0x20(%rax)
 4c236dd:	48 c7 40 38 08 00 00 	movq   $0x8,0x38(%rax)
 4c236e4:	00 
 4c236e5:	48 8d 35 a1 f8 03 00 	lea    0x3f8a1(%rip),%rsi        # 4c62f8d <_IO_stdin_used@@Base+0x2ff8d>
 4c236ec:	48 89 70 30          	mov    %rsi,0x30(%rax)
 4c236f0:	48 c7 40 48 07 00 00 	movq   $0x7,0x48(%rax)
 4c236f7:	00 
 4c236f8:	48 8d 3d 18 e4 03 00 	lea    0x3e418(%rip),%rdi        # 4c61b17 <_IO_stdin_used@@Base+0x2eb17>
 4c236ff:	48 89 78 40          	mov    %rdi,0x40(%rax)
 4c23703:	48 8b bc 24 20 01 00 	mov    0x120(%rsp),%rdi
 4c2370a:	00 
 4c2370b:	48 c7 47 08 05 00 00 	movq   $0x5,0x8(%rdi)
 4c23712:	00 
 4c23713:	48 c7 47 10 05 00 00 	movq   $0x5,0x10(%rdi)
 4c2371a:	00 
 4c2371b:	83 3d 3e 82 25 03 00 	cmpl   $0x0,0x325823e(%rip)        # 7e7b960 <runtime.writeBarrier@@Base>
 4c23722:	75 10                	jne    4c23734 <github.com/lasselj/timebeat/interactive/daemon.CreateCommands@@Base+0x2d54>
 4c23724:	48 89 07             	mov    %rax,(%rdi)
 4c23727:	4c 8d 05 22 8d 2c 01 	lea    0x12c8d22(%rip),%r8        # 5eec450 <github.com/lasselj/timebeat/interactive/api.ShowOpentimecardSbcClockgenVersion·f@@Base>
 4c2372e:	4c 89 47 18          	mov    %r8,0x18(%rdi)
 4c23732:	eb 18                	jmp    4c2374c <github.com/lasselj/timebeat/interactive/daemon.CreateCommands@@Base+0x2d6c>
 4c23734:	e8 c7 2e 33 fd       	call   1f56600 <runtime.gcWriteBarrier@@Base>
 4c23739:	4c 8d 47 18          	lea    0x18(%rdi),%r8
 4c2373d:	4c 89 c7             	mov    %r8,%rdi
 4c23740:	4c 8d 0d 09 8d 2c 01 	lea    0x12c8d09(%rip),%r9        # 5eec450 <github.com/lasselj/timebeat/interactive/api.ShowOpentimecardSbcClockgenVersion·f@@Base>
 4c23747:	e8 54 30 33 fd       	call   1f567a0 <runtime.gcWriteBarrierR9@@Base>
 4c2374c:	48 8d 05 2d 8c 08 01 	lea    0x1088c2d(%rip),%rax        # 5cac380 <type:uKbinQcm@@Base>
 4c23753:	e8 88 cd 2c fd       	call   1ef04e0 <runtime.newobject@@Base>
 4c23758:	48 89 84 24 18 01 00 	mov    %rax,0x118(%rsp)
 4c2375f:	00 
 4c23760:	48 8d 05 59 45 bb 00 	lea    0xbb4559(%rip),%rax        # 57d7cc0 <type:[6]string@@Base>
 4c23767:	e8 74 cd 2c fd       	call   1ef04e0 <runtime.newobject@@Base>
 4c2376c:	48 c7 40 08 04 00 00 	movq   $0x4,0x8(%rax)
 4c23773:	00 
 4c23774:	48 8d 0d 55 2f 01 00 	lea    0x12f55(%rip),%rcx        # 4c366d0 <_IO_stdin_used@@Base+0x36d0>
 4c2377b:	48 89 08             	mov    %rcx,(%rax)
 4c2377e:	48 c7 40 18 0c 00 00 	movq   $0xc,0x18(%rax)
 4c23785:	00 
 4c23786:	48 8d 15 9a d4 04 00 	lea    0x4d49a(%rip),%rdx        # 4c70c27 <_IO_stdin_used@@Base+0x3dc27>
 4c2378d:	48 89 50 10          	mov    %rdx,0x10(%rax)
 4c23791:	48 c7 40 28 03 00 00 	movq   $0x3,0x28(%rax)
 4c23798:	00 
 4c23799:	48 8d 1d 35 07 01 00 	lea    0x10735(%rip),%rbx        # 4c33ed5 <_IO_stdin_used@@Base+0xed5>
 4c237a0:	48 89 58 20          	mov    %rbx,0x20(%rax)
 4c237a4:	48 c7 40 38 03 00 00 	movq   $0x3,0x38(%rax)
 4c237ab:	00 
 4c237ac:	48 8d 35 e5 04 01 00 	lea    0x104e5(%rip),%rsi        # 4c33c98 <_IO_stdin_used@@Base+0xc98>
 4c237b3:	48 89 70 30          	mov    %rsi,0x30(%rax)
 4c237b7:	48 c7 40 48 04 00 00 	movq   $0x4,0x48(%rax)
 4c237be:	00 
 4c237bf:	48 8d 35 6a 30 01 00 	lea    0x1306a(%rip),%rsi        # 4c36830 <_IO_stdin_used@@Base+0x3830>
 4c237c6:	48 89 70 40          	mov    %rsi,0x40(%rax)
 4c237ca:	48 c7 40 58 0b 00 00 	movq   $0xb,0x58(%rax)
 4c237d1:	00 
 4c237d2:	48 8d 35 5c 86 04 00 	lea    0x4865c(%rip),%rsi        # 4c6be35 <_IO_stdin_used@@Base+0x38e35>
 4c237d9:	48 89 70 50          	mov    %rsi,0x50(%rax)
 4c237dd:	48 8b bc 24 18 01 00 	mov    0x118(%rsp),%rdi
 4c237e4:	00 
 4c237e5:	48 c7 47 08 06 00 00 	movq   $0x6,0x8(%rdi)
 4c237ec:	00 
 4c237ed:	48 c7 47 10 06 00 00 	movq   $0x6,0x10(%rdi)
 4c237f4:	00 
 4c237f5:	83 3d 64 81 25 03 00 	cmpl   $0x0,0x3258164(%rip)        # 7e7b960 <runtime.writeBarrier@@Base>
 4c237fc:	75 10                	jne    4c2380e <github.com/lasselj/timebeat/interactive/daemon.CreateCommands@@Base+0x2e2e>
 4c237fe:	48 89 07             	mov    %rax,(%rdi)
 4c23801:	48 8d 35 50 8c 2c 01 	lea    0x12c8c50(%rip),%rsi        # 5eec458 <github.com/lasselj/timebeat/interactive/api.ShowOpentimecardSbcEthVlanDefaultTag·f@@Base>
 4c23808:	48 89 77 18          	mov    %rsi,0x18(%rdi)
 4c2380c:	eb 18                	jmp    4c23826 <github.com/lasselj/timebeat/interactive/daemon.CreateCommands@@Base+0x2e46>
 4c2380e:	e8 ed 2d 33 fd       	call   1f56600 <runtime.gcWriteBarrier@@Base>
 4c23813:	48 8d 77 18          	lea    0x18(%rdi),%rsi
 4c23817:	48 89 f7             	mov    %rsi,%rdi
 4c2381a:	4c 8d 05 37 8c 2c 01 	lea    0x12c8c37(%rip),%r8        # 5eec458 <github.com/lasselj/timebeat/interactive/api.ShowOpentimecardSbcEthVlanDefaultTag·f@@Base>
 4c23821:	e8 5a 2f 33 fd       	call   1f56780 <runtime.gcWriteBarrierR8@@Base>
 4c23826:	48 8d 05 53 8b 08 01 	lea    0x1088b53(%rip),%rax        # 5cac380 <type:uKbinQcm@@Base>
 4c2382d:	e8 ae cc 2c fd       	call   1ef04e0 <runtime.newobject@@Base>
 4c23832:	48 89 84 24 08 02 00 	mov    %rax,0x208(%rsp)
 4c23839:	00 
 4c2383a:	48 8d 05 df 4a bb 00 	lea    0xbb4adf(%rip),%rax        # 57d8320 <type:[7]string@@Base>
 4c23841:	e8 9a cc 2c fd       	call   1ef04e0 <runtime.newobject@@Base>
 4c23846:	48 c7 40 08 03 00 00 	movq   $0x3,0x8(%rax)
 4c2384d:	00 
 4c2384e:	48 8d 0d 8f 06 01 00 	lea    0x1068f(%rip),%rcx        # 4c33ee4 <_IO_stdin_used@@Base+0xee4>
 4c23855:	48 89 08             	mov    %rcx,(%rax)
 4c23858:	48 c7 40 18 0c 00 00 	movq   $0xc,0x18(%rax)
 4c2385f:	00 
 4c23860:	48 8d 0d c0 d3 04 00 	lea    0x4d3c0(%rip),%rcx        # 4c70c27 <_IO_stdin_used@@Base+0x3dc27>
 4c23867:	48 89 48 10          	mov    %rcx,0x10(%rax)
 4c2386b:	48 c7 40 28 03 00 00 	movq   $0x3,0x28(%rax)
 4c23872:	00 
 4c23873:	48 8d 15 5b 06 01 00 	lea    0x1065b(%rip),%rdx        # 4c33ed5 <_IO_stdin_used@@Base+0xed5>
 4c2387a:	48 89 50 20          	mov    %rdx,0x20(%rax)
 4c2387e:	48 c7 40 38 08 00 00 	movq   $0x8,0x38(%rax)
 4c23885:	00 
 4c23886:	48 8d 1d 00 f7 03 00 	lea    0x3f700(%rip),%rbx        # 4c62f8d <_IO_stdin_used@@Base+0x2ff8d>
 4c2388d:	48 89 58 30          	mov    %rbx,0x30(%rax)
 4c23891:	48 c7 40 48 04 00 00 	movq   $0x4,0x48(%rax)
 4c23898:	00 
 4c23899:	48 8d 1d 10 29 01 00 	lea    0x12910(%rip),%rbx        # 4c361b0 <_IO_stdin_used@@Base+0x31b0>
 4c238a0:	48 89 58 40          	mov    %rbx,0x40(%rax)
 4c238a4:	48 c7 40 58 05 00 00 	movq   $0x5,0x58(%rax)
 4c238ab:	00 
 4c238ac:	48 8d 1d 0a 12 02 00 	lea    0x2120a(%rip),%rbx        # 4c44abd <_IO_stdin_used@@Base+0x11abd>
 4c238b3:	48 89 58 50          	mov    %rbx,0x50(%rax)
 4c238b7:	48 c7 40 68 09 00 00 	movq   $0x9,0x68(%rax)
 4c238be:	00 
 4c238bf:	48 8d 1d ed 25 04 00 	lea    0x425ed(%rip),%rbx        # 4c65eb3 <_IO_stdin_used@@Base+0x32eb3>
 4c238c6:	48 89 58 60          	mov    %rbx,0x60(%rax)
 4c238ca:	48 8b bc 24 08 02 00 	mov    0x208(%rsp),%rdi
 4c238d1:	00 
 4c238d2:	48 c7 47 08 07 00 00 	movq   $0x7,0x8(%rdi)
 4c238d9:	00 
 4c238da:	48 c7 47 10 07 00 00 	movq   $0x7,0x10(%rdi)
 4c238e1:	00 
 4c238e2:	83 3d 77 80 25 03 00 	cmpl   $0x0,0x3258077(%rip)        # 7e7b960 <runtime.writeBarrier@@Base>
 4c238e9:	75 15                	jne    4c23900 <github.com/lasselj/timebeat/interactive/daemon.CreateCommands@@Base+0x2f20>
 4c238eb:	48 89 07             	mov    %rax,(%rdi)
 4c238ee:	48 8d 1d 93 8a 2c 01 	lea    0x12c8a93(%rip),%rbx        # 5eec388 <github.com/lasselj/timebeat/interactive/api.SetOpentimecardSbcClockgenDpllResetFrequency·f@@Base>
 4c238f5:	48 89 5f 18          	mov    %rbx,0x18(%rdi)
 4c238f9:	eb 1d                	jmp    4c23918 <github.com/lasselj/timebeat/interactive/daemon.CreateCommands@@Base+0x2f38>
 4c238fb:	0f 1f 44 00 00       	nopl   0x0(%rax,%rax,1)
 4c23900:	e8 fb 2c 33 fd       	call   1f56600 <runtime.gcWriteBarrier@@Base>
 4c23905:	48 8d 5f 18          	lea    0x18(%rdi),%rbx
 4c23909:	48 89 df             	mov    %rbx,%rdi
 4c2390c:	48 8d 35 75 8a 2c 01 	lea    0x12c8a75(%rip),%rsi        # 5eec388 <github.com/lasselj/timebeat/interactive/api.SetOpentimecardSbcClockgenDpllResetFrequency·f@@Base>
 4c23913:	e8 48 2e 33 fd       	call   1f56760 <runtime.gcWriteBarrierSI@@Base>
 4c23918:	48 8d 05 61 8a 08 01 	lea    0x1088a61(%rip),%rax        # 5cac380 <type:uKbinQcm@@Base>
 4c2391f:	90                   	nop
 4c23920:	e8 bb cb 2c fd       	call   1ef04e0 <runtime.newobject@@Base>
 4c23925:	48 89 84 24 00 01 00 	mov    %rax,0x100(%rsp)
 4c2392c:	00 
 4c2392d:	48 8d 05 ec 34 bb 00 	lea    0xbb34ec(%rip),%rax        # 57d6e20 <type:[5]string@@Base>
 4c23934:	e8 a7 cb 2c fd       	call   1ef04e0 <runtime.newobject@@Base>
 4c23939:	48 c7 40 08 04 00 00 	movq   $0x4,0x8(%rax)
 4c23940:	00 
 4c23941:	48 8d 0d 88 2d 01 00 	lea    0x12d88(%rip),%rcx        # 4c366d0 <_IO_stdin_used@@Base+0x36d0>
 4c23948:	48 89 08             	mov    %rcx,(%rax)
 4c2394b:	48 c7 40 18 0c 00 00 	movq   $0xc,0x18(%rax)
 4c23952:	00 
 4c23953:	48 8d 15 cd d2 04 00 	lea    0x4d2cd(%rip),%rdx        # 4c70c27 <_IO_stdin_used@@Base+0x3dc27>
 4c2395a:	48 89 50 10          	mov    %rdx,0x10(%rax)
 4c2395e:	48 c7 40 28 03 00 00 	movq   $0x3,0x28(%rax)
 4c23965:	00 
 4c23966:	48 8d 1d 68 05 01 00 	lea    0x10568(%rip),%rbx        # 4c33ed5 <_IO_stdin_used@@Base+0xed5>
 4c2396d:	48 89 58 20          	mov    %rbx,0x20(%rax)
 4c23971:	48 c7 40 38 05 00 00 	movq   $0x5,0x38(%rax)
 4c23978:	00 
 4c23979:	48 8d 35 43 10 02 00 	lea    0x21043(%rip),%rsi        # 4c449c3 <_IO_stdin_used@@Base+0x119c3>
 4c23980:	48 89 70 30          	mov    %rsi,0x30(%rax)
 4c23984:	48 c7 40 48 06 00 00 	movq   $0x6,0x48(%rax)
 4c2398b:	00 
 4c2398c:	48 8d 35 58 b3 03 00 	lea    0x3b358(%rip),%rsi        # 4c5eceb <_IO_stdin_used@@Base+0x2bceb>
 4c23993:	48 89 70 40          	mov    %rsi,0x40(%rax)
 4c23997:	48 8b bc 24 00 01 00 	mov    0x100(%rsp),%rdi
 4c2399e:	00 
 4c2399f:	48 c7 47 08 05 00 00 	movq   $0x5,0x8(%rdi)
 4c239a6:	00 
 4c239a7:	48 c7 47 10 05 00 00 	movq   $0x5,0x10(%rdi)
 4c239ae:	00 
 4c239af:	83 3d aa 7f 25 03 00 	cmpl   $0x0,0x3257faa(%rip)        # 7e7b960 <runtime.writeBarrier@@Base>
 4c239b6:	75 10                	jne    4c239c8 <github.com/lasselj/timebeat/interactive/daemon.CreateCommands@@Base+0x2fe8>
 4c239b8:	48 89 07             	mov    %rax,(%rdi)
 4c239bb:	48 8d 35 ae 8a 2c 01 	lea    0x12c8aae(%rip),%rsi        # 5eec470 <github.com/lasselj/timebeat/interactive/api.ShowOpentimecardSbcPowerSensor·f@@Base>
 4c239c2:	48 89 77 18          	mov    %rsi,0x18(%rdi)
 4c239c6:	eb 1d                	jmp    4c239e5 <github.com/lasselj/timebeat/interactive/daemon.CreateCommands@@Base+0x3005>
 4c239c8:	e8 33 2c 33 fd       	call   1f56600 <runtime.gcWriteBarrier@@Base>
 4c239cd:	48 8d 77 18          	lea    0x18(%rdi),%rsi
 4c239d1:	48 89 f7             	mov    %rsi,%rdi
 4c239d4:	4c 8d 05 95 8a 2c 01 	lea    0x12c8a95(%rip),%r8        # 5eec470 <github.com/lasselj/timebeat/interactive/api.ShowOpentimecardSbcPowerSensor·f@@Base>
 4c239db:	0f 1f 44 00 00       	nopl   0x0(%rax,%rax,1)
