# github.com/lasselj/timebeat/beater/clocksync/clients/vendors/helper/ubx.ToUBXMessage
# addr 0x4402160 size 1312 (0x520)


/mnt/c/Users/SHIWA/GitHub/TimeCard-Mini/timebeat-extracted/usr/share/timebeat/bin/timebeat:     file format elf64-x86-64


Disassembly of section .text:

0000000004402160 <github.com/lasselj/timebeat/beater/clocksync/clients/vendors/helper/ubx.ToUBXMessage@@Base>:
 4402160:	4c 8d 64 24 e0       	lea    -0x20(%rsp),%r12
 4402165:	4d 3b 66 10          	cmp    0x10(%r14),%r12
 4402169:	0f 86 d8 04 00 00    	jbe    4402647 <github.com/lasselj/timebeat/beater/clocksync/clients/vendors/helper/ubx.ToUBXMessage@@Base+0x4e7>
 440216f:	48 81 ec a0 00 00 00 	sub    $0xa0,%rsp
 4402176:	48 89 ac 24 98 00 00 	mov    %rbp,0x98(%rsp)
 440217d:	00 
 440217e:	48 8d ac 24 98 00 00 	lea    0x98(%rsp),%rbp
 4402185:	00 
 4402186:	48 89 9c 24 b0 00 00 	mov    %rbx,0xb0(%rsp)
 440218d:	00 
 440218e:	48 89 8c 24 b8 00 00 	mov    %rcx,0xb8(%rsp)
 4402195:	00 
 4402196:	48 89 84 24 a8 00 00 	mov    %rax,0xa8(%rsp)
 440219d:	00 
 440219e:	48 8d 3d a5 4f 81 03 	lea    0x3814fa5(%rip),%rdi        # 7c1714a <github.com/lasselj/timebeat/beater/clocksync/clients/vendors/helper/ubx.UBX_HEADER@@Base>
 44021a5:	be 02 00 00 00       	mov    $0x2,%esi
 44021aa:	49 89 f0             	mov    %rsi,%r8
 44021ad:	e8 2e ec c6 fd       	call   2070de0 <bytes.Index@@Base>
 44021b2:	48 83 f8 ff          	cmp    $0xffffffffffffffff,%rax
 44021b6:	0f 84 11 04 00 00    	je     44025cd <github.com/lasselj/timebeat/beater/clocksync/clients/vendors/helper/ubx.ToUBXMessage@@Base+0x46d>
 44021bc:	48 8b 84 24 a8 00 00 	mov    0xa8(%rsp),%rax
 44021c3:	00 
 44021c4:	48 8b 9c 24 b0 00 00 	mov    0xb0(%rsp),%rbx
 44021cb:	00 
 44021cc:	48 8b 8c 24 b8 00 00 	mov    0xb8(%rsp),%rcx
 44021d3:	00 
 44021d4:	48 8d 3d 6f 4f 81 03 	lea    0x3814f6f(%rip),%rdi        # 7c1714a <github.com/lasselj/timebeat/beater/clocksync/clients/vendors/helper/ubx.UBX_HEADER@@Base>
 44021db:	be 02 00 00 00       	mov    $0x2,%esi
 44021e0:	49 89 f0             	mov    %rsi,%r8
 44021e3:	e8 f8 eb c6 fd       	call   2070de0 <bytes.Index@@Base>
 44021e8:	48 89 44 24 38       	mov    %rax,0x38(%rsp)
 44021ed:	48 8d 05 2c 27 84 01 	lea    0x184272c(%rip),%rax        # 5c44920 <type:kv7bqe43@@Base>
 44021f4:	e8 e7 e2 ae fd       	call   1ef04e0 <runtime.newobject@@Base>
 44021f9:	48 8b 4c 24 38       	mov    0x38(%rsp),%rcx
 44021fe:	48 8d 51 06          	lea    0x6(%rcx),%rdx
 4402202:	4c 8b 8c 24 b8 00 00 	mov    0xb8(%rsp),%r9
 4402209:	00 
 440220a:	49 39 d1             	cmp    %rdx,%r9
 440220d:	0f 82 28 04 00 00    	jb     440263b <github.com/lasselj/timebeat/beater/clocksync/clients/vendors/helper/ubx.ToUBXMessage@@Base+0x4db>
 4402213:	48 39 d1             	cmp    %rdx,%rcx
 4402216:	0f 87 14 04 00 00    	ja     4402630 <github.com/lasselj/timebeat/beater/clocksync/clients/vendors/helper/ubx.ToUBXMessage@@Base+0x4d0>
 440221c:	48 89 54 24 48       	mov    %rdx,0x48(%rsp)
 4402221:	48 89 84 24 80 00 00 	mov    %rax,0x80(%rsp)
 4402228:	00 
 4402229:	48 8d 05 b0 ac 78 01 	lea    0x178acb0(%rip),%rax        # 5b8cee0 <type:qfCPvgog@@Base>
 4402230:	e8 ab e2 ae fd       	call   1ef04e0 <runtime.newobject@@Base>
 4402235:	48 c7 40 08 06 00 00 	movq   $0x6,0x8(%rax)
 440223c:	00 
 440223d:	48 8b 8c 24 b8 00 00 	mov    0xb8(%rsp),%rcx
 4402244:	00 
 4402245:	48 8b 54 24 38       	mov    0x38(%rsp),%rdx
 440224a:	48 29 d1             	sub    %rdx,%rcx
 440224d:	48 89 4c 24 50       	mov    %rcx,0x50(%rsp)
 4402252:	48 89 48 10          	mov    %rcx,0x10(%rax)
 4402256:	48 f7 d9             	neg    %rcx
 4402259:	48 c1 f9 3f          	sar    $0x3f,%rcx
 440225d:	48 21 d1             	and    %rdx,%rcx
 4402260:	48 8b bc 24 a8 00 00 	mov    0xa8(%rsp),%rdi
 4402267:	00 
 4402268:	48 01 f9             	add    %rdi,%rcx
 440226b:	83 3d ee 96 a7 03 00 	cmpl   $0x0,0x3a796ee(%rip)        # 7e7b960 <runtime.writeBarrier@@Base>
 4402272:	75 05                	jne    4402279 <github.com/lasselj/timebeat/beater/clocksync/clients/vendors/helper/ubx.ToUBXMessage@@Base+0x119>
 4402274:	48 89 08             	mov    %rcx,(%rax)
 4402277:	eb 0c                	jmp    4402285 <github.com/lasselj/timebeat/beater/clocksync/clients/vendors/helper/ubx.ToUBXMessage@@Base+0x125>
 4402279:	48 89 c7             	mov    %rax,%rdi
 440227c:	0f 1f 40 00          	nopl   0x0(%rax)
 4402280:	e8 7b 44 b5 fd       	call   1f56700 <runtime.gcWriteBarrierCX@@Base>
 4402285:	48 c7 40 18 00 00 00 	movq   $0x0,0x18(%rax)
 440228c:	00 
 440228d:	48 c7 40 20 ff ff ff 	movq   $0xffffffffffffffff,0x20(%rax)
 4402294:	ff 
 4402295:	48 89 c3             	mov    %rax,%rbx
 4402298:	48 8d 0d 51 1c b4 01 	lea    0x1b41c51(%rip),%rcx        # 5f43ef0 <go:itab.encoding/binary.littleEndian,encoding/binary.ByteOrder@@Base>
 440229f:	48 8d 3d ca 8d a7 03 	lea    0x3a78dca(%rip),%rdi        # 7e7b070 <runtime.zerobase@@Base>
 44022a6:	48 8d 35 b3 28 50 01 	lea    0x15028b3(%rip),%rsi        # 5904b60 <type:9lbZxTfZ@@Base>
 44022ad:	4c 8b 84 24 80 00 00 	mov    0x80(%rsp),%r8
 44022b4:	00 
 44022b5:	48 8d 05 44 b7 af 01 	lea    0x1afb744(%rip),%rax        # 5efda00 <go:itab.*bytes.Reader,io.Reader@@Base>
 44022bc:	0f 1f 40 00          	nopl   0x0(%rax)
 44022c0:	e8 fb 0c c7 fd       	call   2072fc0 <encoding/binary.Read@@Base>
 44022c5:	48 85 c0             	test   %rax,%rax
 44022c8:	0f 85 80 02 00 00    	jne    440254e <github.com/lasselj/timebeat/beater/clocksync/clients/vendors/helper/ubx.ToUBXMessage@@Base+0x3ee>
 44022ce:	48 8d 05 eb 06 71 01 	lea    0x17106eb(%rip),%rax        # 5b129c0 <type:KRegBVMg@@Base>
 44022d5:	e8 06 e2 ae fd       	call   1ef04e0 <runtime.newobject@@Base>
 44022da:	48 89 44 24 68       	mov    %rax,0x68(%rsp)
 44022df:	48 8b 8c 24 80 00 00 	mov    0x80(%rsp),%rcx
 44022e6:	00 
 44022e7:	0f b7 51 04          	movzwl 0x4(%rcx),%edx
 44022eb:	8b 09                	mov    (%rcx),%ecx
 44022ed:	89 08                	mov    %ecx,(%rax)
 44022ef:	66 89 50 04          	mov    %dx,0x4(%rax)
 44022f3:	66 85 d2             	test   %dx,%dx
 44022f6:	75 4a                	jne    4402342 <github.com/lasselj/timebeat/beater/clocksync/clients/vendors/helper/ubx.ToUBXMessage@@Base+0x1e2>
 44022f8:	66 c7 44 24 36 00 00 	movw   $0x0,0x36(%rsp)
 44022ff:	0f b6 50 02          	movzbl 0x2(%rax),%edx
 4402303:	88 54 24 36          	mov    %dl,0x36(%rsp)
 4402307:	0f b6 50 03          	movzbl 0x3(%rax),%edx
 440230b:	88 54 24 37          	mov    %dl,0x37(%rsp)
 440230f:	48 8b 1d 7a 9e a2 03 	mov    0x3a29e7a(%rip),%rbx        # 7e2c190 <github.com/lasselj/timebeat/beater/clocksync/clients/vendors/helper/ubx.UBX_MESSAGE_LENGTHS@@Base>
 4402316:	48 8d 4c 24 36       	lea    0x36(%rsp),%rcx
 440231b:	48 8d 05 3e b0 53 01 	lea    0x153b03e(%rip),%rax        # 593d360 <type:9a14+bu8@@Base>
 4402322:	e8 f9 f5 ae fd       	call   1ef1920 <runtime.mapaccess2@@Base>
 4402327:	48 8b 10             	mov    (%rax),%rdx
 440232a:	84 db                	test   %bl,%bl
 440232c:	74 0c                	je     440233a <github.com/lasselj/timebeat/beater/clocksync/clients/vendors/helper/ubx.ToUBXMessage@@Base+0x1da>
 440232e:	4c 8b 44 24 68       	mov    0x68(%rsp),%r8
 4402333:	66 41 89 50 04       	mov    %dx,0x4(%r8)
 4402338:	eb 05                	jmp    440233f <github.com/lasselj/timebeat/beater/clocksync/clients/vendors/helper/ubx.ToUBXMessage@@Base+0x1df>
 440233a:	4c 8b 44 24 68       	mov    0x68(%rsp),%r8
 440233f:	4c 89 c0             	mov    %r8,%rax
 4402342:	0f b7 48 04          	movzwl 0x4(%rax),%ecx
 4402346:	48 8b 54 24 38       	mov    0x38(%rsp),%rdx
 440234b:	4c 8d 04 0a          	lea    (%rdx,%rcx,1),%r8
 440234f:	4c 8d 0c 0a          	lea    (%rdx,%rcx,1),%r9
 4402353:	4d 8d 49 08          	lea    0x8(%r9),%r9
 4402357:	4c 8b 94 24 b0 00 00 	mov    0xb0(%rsp),%r10
 440235e:	00 
 440235f:	90                   	nop
 4402360:	4d 39 ca             	cmp    %r9,%r10
 4402363:	0f 8c 9d 01 00 00    	jl     4402506 <github.com/lasselj/timebeat/beater/clocksync/clients/vendors/helper/ubx.ToUBXMessage@@Base+0x3a6>
 4402369:	48 89 4c 24 60       	mov    %rcx,0x60(%rsp)
 440236e:	4c 89 4c 24 40       	mov    %r9,0x40(%rsp)
 4402373:	4c 89 44 24 58       	mov    %r8,0x58(%rsp)
 4402378:	48 8d 05 e1 c5 3a 01 	lea    0x13ac5e1(%rip),%rax        # 57ae960 <type:uint8@@Base>
 440237f:	48 89 cb             	mov    %rcx,%rbx
 4402382:	e8 59 40 b3 fd       	call   1f363e0 <runtime.makeslice@@Base>
 4402387:	48 8b 4c 24 60       	mov    0x60(%rsp),%rcx
 440238c:	48 8b 54 24 38       	mov    0x38(%rsp),%rdx
 4402391:	48 8d 34 0a          	lea    (%rdx,%rcx,1),%rsi
 4402395:	48 8d 76 06          	lea    0x6(%rsi),%rsi
 4402399:	48 8b bc 24 b8 00 00 	mov    0xb8(%rsp),%rdi
 44023a0:	00 
 44023a1:	48 39 f7             	cmp    %rsi,%rdi
 44023a4:	0f 82 7b 02 00 00    	jb     4402625 <github.com/lasselj/timebeat/beater/clocksync/clients/vendors/helper/ubx.ToUBXMessage@@Base+0x4c5>
 44023aa:	4c 8b 44 24 48       	mov    0x48(%rsp),%r8
 44023af:	4c 39 c6             	cmp    %r8,%rsi
 44023b2:	0f 82 62 02 00 00    	jb     440261a <github.com/lasselj/timebeat/beater/clocksync/clients/vendors/helper/ubx.ToUBXMessage@@Base+0x4ba>
 44023b8:	4c 8b 4c 24 50       	mov    0x50(%rsp),%r9
 44023bd:	49 83 c1 fa          	add    $0xfffffffffffffffa,%r9
 44023c1:	49 f7 d9             	neg    %r9
 44023c4:	49 c1 f9 3f          	sar    $0x3f,%r9
 44023c8:	4d 21 c1             	and    %r8,%r9
 44023cb:	4c 8b 84 24 a8 00 00 	mov    0xa8(%rsp),%r8
 44023d2:	00 
 44023d3:	4b 8d 1c 08          	lea    (%r8,%r9,1),%rbx
 44023d7:	48 39 d8             	cmp    %rbx,%rax
 44023da:	74 29                	je     4402405 <github.com/lasselj/timebeat/beater/clocksync/clients/vendors/helper/ubx.ToUBXMessage@@Base+0x2a5>
 44023dc:	48 89 44 24 78       	mov    %rax,0x78(%rsp)
 44023e1:	e8 ba 50 b5 fd       	call   1f574a0 <runtime.memmove@@Base>
 44023e6:	48 8b 44 24 78       	mov    0x78(%rsp),%rax
 44023eb:	48 8b 4c 24 60       	mov    0x60(%rsp),%rcx
 44023f0:	48 8b 54 24 38       	mov    0x38(%rsp),%rdx
 44023f5:	48 8b bc 24 b8 00 00 	mov    0xb8(%rsp),%rdi
 44023fc:	00 
 44023fd:	4c 8b 84 24 a8 00 00 	mov    0xa8(%rsp),%r8
 4402404:	00 
 4402405:	4c 8b 4c 24 68       	mov    0x68(%rsp),%r9
 440240a:	49 89 49 10          	mov    %rcx,0x10(%r9)
 440240e:	49 89 49 18          	mov    %rcx,0x18(%r9)
 4402412:	83 3d 47 95 a7 03 00 	cmpl   $0x0,0x3a79547(%rip)        # 7e7b960 <runtime.writeBarrier@@Base>
 4402419:	75 16                	jne    4402431 <github.com/lasselj/timebeat/beater/clocksync/clients/vendors/helper/ubx.ToUBXMessage@@Base+0x2d1>
 440241b:	49 89 41 08          	mov    %rax,0x8(%r9)
 440241f:	48 8b 8c 24 b0 00 00 	mov    0xb0(%rsp),%rcx
 4402426:	00 
 4402427:	48 8b 44 24 40       	mov    0x40(%rsp),%rax
 440242c:	48 39 c1             	cmp    %rax,%rcx
 440242f:	eb 27                	jmp    4402458 <github.com/lasselj/timebeat/beater/clocksync/clients/vendors/helper/ubx.ToUBXMessage@@Base+0x2f8>
 4402431:	4d 8d 51 08          	lea    0x8(%r9),%r10
 4402435:	4c 89 d7             	mov    %r10,%rdi
 4402438:	e8 c3 41 b5 fd       	call   1f56600 <runtime.gcWriteBarrier@@Base>
 440243d:	48 8b bc 24 b0 00 00 	mov    0xb0(%rsp),%rdi
 4402444:	00 
 4402445:	48 8b 44 24 40       	mov    0x40(%rsp),%rax
 440244a:	48 39 c7             	cmp    %rax,%rdi
 440244d:	48 89 f9             	mov    %rdi,%rcx
 4402450:	48 8b bc 24 b8 00 00 	mov    0xb8(%rsp),%rdi
 4402457:	00 
 4402458:	0f 82 b7 01 00 00    	jb     4402615 <github.com/lasselj/timebeat/beater/clocksync/clients/vendors/helper/ubx.ToUBXMessage@@Base+0x4b5>
 440245e:	4c 8b 54 24 58       	mov    0x58(%rsp),%r10
 4402463:	4c 29 d1             	sub    %r10,%rcx
 4402466:	48 8d 1c 11          	lea    (%rcx,%rdx,1),%rbx
 440246a:	48 8d 5b f8          	lea    -0x8(%rbx),%rbx
 440246e:	49 89 fb             	mov    %rdi,%r11
 4402471:	4c 29 d7             	sub    %r10,%rdi
 4402474:	4c 8d 57 f8          	lea    -0x8(%rdi),%r10
 4402478:	49 f7 da             	neg    %r10
 440247b:	49 c1 fa 3f          	sar    $0x3f,%r10
 440247f:	49 21 c2             	and    %rax,%r10
 4402482:	4d 01 c2             	add    %r8,%r10
 4402485:	48 8d 79 f8          	lea    -0x8(%rcx),%rdi
 4402489:	49 39 db             	cmp    %rbx,%r11
 440248c:	73 31                	jae    44024bf <github.com/lasselj/timebeat/beater/clocksync/clients/vendors/helper/ubx.ToUBXMessage@@Base+0x35f>
 440248e:	48 89 7c 24 60       	mov    %rdi,0x60(%rsp)
 4402493:	4c 89 54 24 70       	mov    %r10,0x70(%rsp)
 4402498:	4c 89 c0             	mov    %r8,%rax
 440249b:	4c 89 d9             	mov    %r11,%rcx
 440249e:	48 8d 35 bb c4 3a 01 	lea    0x13ac4bb(%rip),%rsi        # 57ae960 <type:uint8@@Base>
 44024a5:	e8 16 40 b3 fd       	call   1f364c0 <runtime.growslice@@Base>
 44024aa:	48 8b 54 24 38       	mov    0x38(%rsp),%rdx
 44024af:	48 8b 7c 24 60       	mov    0x60(%rsp),%rdi
 44024b4:	4c 8b 54 24 70       	mov    0x70(%rsp),%r10
 44024b9:	49 89 c0             	mov    %rax,%r8
 44024bc:	49 89 cb             	mov    %rcx,%r11
 44024bf:	4c 89 5c 24 60       	mov    %r11,0x60(%rsp)
 44024c4:	48 89 5c 24 58       	mov    %rbx,0x58(%rsp)
 44024c9:	4c 89 44 24 70       	mov    %r8,0x70(%rsp)
 44024ce:	49 8d 04 10          	lea    (%r8,%rdx,1),%rax
 44024d2:	48 89 f9             	mov    %rdi,%rcx
 44024d5:	4c 89 d3             	mov    %r10,%rbx
 44024d8:	e8 c3 4f b5 fd       	call   1f574a0 <runtime.memmove@@Base>
 44024dd:	48 8b 44 24 68       	mov    0x68(%rsp),%rax
 44024e2:	48 8b 5c 24 70       	mov    0x70(%rsp),%rbx
 44024e7:	48 8b 4c 24 58       	mov    0x58(%rsp),%rcx
 44024ec:	48 8b 7c 24 60       	mov    0x60(%rsp),%rdi
 44024f1:	31 f6                	xor    %esi,%esi
 44024f3:	45 31 c0             	xor    %r8d,%r8d
 44024f6:	48 8b ac 24 98 00 00 	mov    0x98(%rsp),%rbp
 44024fd:	00 
 44024fe:	48 81 c4 a0 00 00 00 	add    $0xa0,%rsp
 4402505:	c3                   	ret
 4402506:	48 8d 05 1d 06 a1 00 	lea    0xa1061d(%rip),%rax        # 4e12b2a <_IO_stdin_used@@Base+0x1dfb2a>
 440250d:	bb 26 00 00 00       	mov    $0x26,%ebx
 4402512:	31 c9                	xor    %ecx,%ecx
 4402514:	31 ff                	xor    %edi,%edi
 4402516:	48 89 fe             	mov    %rdi,%rsi
 4402519:	e8 42 ed be fd       	call   1ff1260 <fmt.Errorf@@Base>
 440251e:	48 8b 8c 24 b0 00 00 	mov    0xb0(%rsp),%rcx
 4402525:	00 
 4402526:	48 8b bc 24 b8 00 00 	mov    0xb8(%rsp),%rdi
 440252d:	00 
 440252e:	48 89 c6             	mov    %rax,%rsi
 4402531:	49 89 d8             	mov    %rbx,%r8
 4402534:	31 c0                	xor    %eax,%eax
 4402536:	48 8b 9c 24 a8 00 00 	mov    0xa8(%rsp),%rbx
 440253d:	00 
 440253e:	48 8b ac 24 98 00 00 	mov    0x98(%rsp),%rbp
 4402545:	00 
 4402546:	48 81 c4 a0 00 00 00 	add    $0xa0,%rsp
 440254d:	c3                   	ret
 440254e:	48 8b 48 18          	mov    0x18(%rax),%rcx
 4402552:	48 89 d8             	mov    %rbx,%rax
 4402555:	ff d1                	call   *%rcx
 4402557:	44 0f 11 bc 24 88 00 	movups %xmm15,0x88(%rsp)
 440255e:	00 00 
 4402560:	e8 fb b7 ae fd       	call   1eedd60 <runtime.convTstring@@Base>
 4402565:	48 8d 0d 34 c1 3a 01 	lea    0x13ac134(%rip),%rcx        # 57ae6a0 <type:string@@Base>
 440256c:	48 89 8c 24 88 00 00 	mov    %rcx,0x88(%rsp)
 4402573:	00 
 4402574:	48 89 84 24 90 00 00 	mov    %rax,0x90(%rsp)
 440257b:	00 
 440257c:	48 8d 05 f8 ca a0 00 	lea    0xa0caf8(%rip),%rax        # 4e0f07b <_IO_stdin_used@@Base+0x1dc07b>
 4402583:	bb 25 00 00 00       	mov    $0x25,%ebx
 4402588:	48 8d 8c 24 88 00 00 	lea    0x88(%rsp),%rcx
 440258f:	00 
 4402590:	bf 01 00 00 00       	mov    $0x1,%edi
 4402595:	48 89 fe             	mov    %rdi,%rsi
 4402598:	e8 c3 ec be fd       	call   1ff1260 <fmt.Errorf@@Base>
 440259d:	48 8b 8c 24 b0 00 00 	mov    0xb0(%rsp),%rcx
 44025a4:	00 
 44025a5:	48 8b bc 24 b8 00 00 	mov    0xb8(%rsp),%rdi
 44025ac:	00 
 44025ad:	48 89 c6             	mov    %rax,%rsi
 44025b0:	49 89 d8             	mov    %rbx,%r8
 44025b3:	31 c0                	xor    %eax,%eax
 44025b5:	48 8b 9c 24 a8 00 00 	mov    0xa8(%rsp),%rbx
 44025bc:	00 
 44025bd:	48 8b ac 24 98 00 00 	mov    0x98(%rsp),%rbp
 44025c4:	00 
 44025c5:	48 81 c4 a0 00 00 00 	add    $0xa0,%rsp
 44025cc:	c3                   	ret
 44025cd:	48 8d 05 9b c6 a0 00 	lea    0xa0c69b(%rip),%rax        # 4e0ec6f <_IO_stdin_used@@Base+0x1dbc6f>
 44025d4:	bb 25 00 00 00       	mov    $0x25,%ebx
 44025d9:	31 c9                	xor    %ecx,%ecx
 44025db:	31 ff                	xor    %edi,%edi
 44025dd:	48 89 fe             	mov    %rdi,%rsi
 44025e0:	e8 7b ec be fd       	call   1ff1260 <fmt.Errorf@@Base>
 44025e5:	48 8b 8c 24 b0 00 00 	mov    0xb0(%rsp),%rcx
 44025ec:	00 
 44025ed:	48 8b bc 24 b8 00 00 	mov    0xb8(%rsp),%rdi
 44025f4:	00 
 44025f5:	48 89 c6             	mov    %rax,%rsi
 44025f8:	49 89 d8             	mov    %rbx,%r8
 44025fb:	31 c0                	xor    %eax,%eax
 44025fd:	48 8b 9c 24 a8 00 00 	mov    0xa8(%rsp),%rbx
 4402604:	00 
 4402605:	48 8b ac 24 98 00 00 	mov    0x98(%rsp),%rbp
 440260c:	00 
 440260d:	48 81 c4 a0 00 00 00 	add    $0xa0,%rsp
 4402614:	c3                   	ret
 4402615:	e8 46 45 b5 fd       	call   1f56b60 <runtime.panicSliceB@@Base>
 440261a:	4c 89 c0             	mov    %r8,%rax
 440261d:	48 89 f1             	mov    %rsi,%rcx
 4402620:	e8 3b 45 b5 fd       	call   1f56b60 <runtime.panicSliceB@@Base>
 4402625:	48 89 f1             	mov    %rsi,%rcx
 4402628:	48 89 fa             	mov    %rdi,%rdx
 440262b:	e8 f0 44 b5 fd       	call   1f56b20 <runtime.panicSliceAcap@@Base>
 4402630:	48 89 c8             	mov    %rcx,%rax
 4402633:	48 89 d1             	mov    %rdx,%rcx
 4402636:	e8 25 45 b5 fd       	call   1f56b60 <runtime.panicSliceB@@Base>
 440263b:	48 89 d1             	mov    %rdx,%rcx
 440263e:	4c 89 ca             	mov    %r9,%rdx
 4402641:	e8 da 44 b5 fd       	call   1f56b20 <runtime.panicSliceAcap@@Base>
 4402646:	90                   	nop
 4402647:	48 89 44 24 08       	mov    %rax,0x8(%rsp)
 440264c:	48 89 5c 24 10       	mov    %rbx,0x10(%rsp)
 4402651:	48 89 4c 24 18       	mov    %rcx,0x18(%rsp)
 4402656:	e8 05 1e b5 fd       	call   1f54460 <runtime.morestack_noctxt.abi0@@Base>
 440265b:	48 8b 44 24 08       	mov    0x8(%rsp),%rax
 4402660:	48 8b 5c 24 10       	mov    0x10(%rsp),%rbx
 4402665:	48 8b 4c 24 18       	mov    0x18(%rsp),%rcx
 440266a:	e9 f1 fa ff ff       	jmp    4402160 <github.com/lasselj/timebeat/beater/clocksync/clients/vendors/helper/ubx.ToUBXMessage@@Base>
 440266f:	cc                   	int3
 4402670:	cc                   	int3
 4402671:	cc                   	int3
 4402672:	cc                   	int3
 4402673:	cc                   	int3
 4402674:	cc                   	int3
 4402675:	cc                   	int3
 4402676:	cc                   	int3
 4402677:	cc                   	int3
 4402678:	cc                   	int3
 4402679:	cc                   	int3
 440267a:	cc                   	int3
 440267b:	cc                   	int3
 440267c:	cc                   	int3
 440267d:	cc                   	int3
 440267e:	cc                   	int3
 440267f:	cc                   	int3
