# github.com/lasselj/timebeat/beater/clocksync/clients/vendors/timebeat/clock_gen/clock_gen_8A34002E.(*ClockGen8A34012).GetTimebeatClockgenConfigVersion
# addr 0x4b97aa0 size 448 (0x1c0)


/mnt/c/Users/SHIWA/GitHub/TimeCard-Mini/timebeat-extracted/usr/share/timebeat/bin/timebeat:     file format elf64-x86-64


Disassembly of section .text:

0000000004b97aa0 <github.com/lasselj/timebeat/beater/clocksync/clients/vendors/timebeat/clock_gen/clock_gen_8A34002E.(*ClockGen8A34012).GetTimebeatClockgenConfigVersion@@Base>:
 4b97aa0:	4c 8d 64 24 c8       	lea    -0x38(%rsp),%r12
 4b97aa5:	4d 3b 66 10          	cmp    0x10(%r14),%r12
 4b97aa9:	0f 86 97 01 00 00    	jbe    4b97c46 <github.com/lasselj/timebeat/beater/clocksync/clients/vendors/timebeat/clock_gen/clock_gen_8A34002E.(*ClockGen8A34012).GetTimebeatClockgenConfigVersion@@Base+0x1a6>
 4b97aaf:	48 81 ec b8 00 00 00 	sub    $0xb8,%rsp
 4b97ab6:	48 89 ac 24 b0 00 00 	mov    %rbp,0xb0(%rsp)
 4b97abd:	00 
 4b97abe:	48 8d ac 24 b0 00 00 	lea    0xb0(%rsp),%rbp
 4b97ac5:	00 
 4b97ac6:	48 8b 50 18          	mov    0x18(%rax),%rdx
 4b97aca:	48 89 54 24 28       	mov    %rdx,0x28(%rsp)
 4b97acf:	48 8d 05 8a 6e c1 00 	lea    0xc16e8a(%rip),%rax        # 57ae960 <type:uint8@@Base>
 4b97ad6:	bb 02 00 00 00       	mov    $0x2,%ebx
 4b97adb:	48 89 d9             	mov    %rbx,%rcx
 4b97ade:	66 90                	xchg   %ax,%ax
 4b97ae0:	e8 fb e8 39 fd       	call   1f363e0 <runtime.makeslice@@Base>
 4b97ae5:	48 8d 7c 24 60       	lea    0x60(%rsp),%rdi
 4b97aea:	48 8d 7f d0          	lea    -0x30(%rdi),%rdi
 4b97aee:	66 0f 1f 84 00 00 00 	nopw   0x0(%rax,%rax,1)
 4b97af5:	00 00 
 4b97af7:	66 0f 1f 84 00 00 00 	nopw   0x0(%rax,%rax,1)
 4b97afe:	00 00 
 4b97b00:	48 89 6c 24 f0       	mov    %rbp,-0x10(%rsp)
 4b97b05:	48 8d 6c 24 f0       	lea    -0x10(%rsp),%rbp
 4b97b0a:	e8 c1 f2 3b fd       	call   1f56dd0 <runtime.duffzero@@Base+0x150>
 4b97b0f:	48 8b 6d 00          	mov    0x0(%rbp),%rbp
 4b97b13:	66 c7 44 24 60 50 cf 	movw   $0xcf50,0x60(%rsp)
 4b97b1a:	48 89 44 24 68       	mov    %rax,0x68(%rsp)
 4b97b1f:	48 c7 44 24 70 02 00 	movq   $0x2,0x70(%rsp)
 4b97b26:	00 00 
 4b97b28:	48 c7 44 24 78 02 00 	movq   $0x2,0x78(%rsp)
 4b97b2f:	00 00 
 4b97b31:	48 8b 54 24 28       	mov    0x28(%rsp),%rdx
 4b97b36:	48 89 94 24 a0 00 00 	mov    %rdx,0xa0(%rsp)
 4b97b3d:	00 
 4b97b3e:	48 8b 54 24 68       	mov    0x68(%rsp),%rdx
 4b97b43:	66 c7 02 cf 50       	movw   $0x50cf,(%rdx)
 4b97b48:	90                   	nop
 4b97b49:	66 c7 84 24 80 00 00 	movw   $0x4,0x80(%rsp)
 4b97b50:	00 04 00 
 4b97b53:	48 8d 44 24 60       	lea    0x60(%rsp),%rax
 4b97b58:	e8 03 69 ff ff       	call   4b8e460 <github.com/lasselj/timebeat/beater/clocksync/clients/vendors/generic_serial_device.(*RegisterRequest).Execute@@Base>
 4b97b5d:	0f 1f 00             	nopl   (%rax)
 4b97b60:	48 85 c0             	test   %rax,%rax
 4b97b63:	74 4e                	je     4b97bb3 <github.com/lasselj/timebeat/beater/clocksync/clients/vendors/timebeat/clock_gen/clock_gen_8A34002E.(*ClockGen8A34012).GetTimebeatClockgenConfigVersion@@Base+0x113>
 4b97b65:	44 0f 11 7c 24 30    	movups %xmm15,0x30(%rsp)
 4b97b6b:	74 04                	je     4b97b71 <github.com/lasselj/timebeat/beater/clocksync/clients/vendors/timebeat/clock_gen/clock_gen_8A34002E.(*ClockGen8A34012).GetTimebeatClockgenConfigVersion@@Base+0xd1>
 4b97b6d:	48 8b 40 08          	mov    0x8(%rax),%rax
 4b97b71:	48 89 44 24 30       	mov    %rax,0x30(%rsp)
 4b97b76:	48 89 5c 24 38       	mov    %rbx,0x38(%rsp)
 4b97b7b:	48 8d 05 9c 97 27 00 	lea    0x27979c(%rip),%rax        # 4e1131e <_IO_stdin_used@@Base+0x1de31e>
 4b97b82:	bb 26 00 00 00       	mov    $0x26,%ebx
 4b97b87:	48 8d 4c 24 30       	lea    0x30(%rsp),%rcx
 4b97b8c:	bf 01 00 00 00       	mov    $0x1,%edi
 4b97b91:	48 89 fe             	mov    %rdi,%rsi
 4b97b94:	e8 c7 96 45 fd       	call   1ff1260 <fmt.Errorf@@Base>
 4b97b99:	48 89 c1             	mov    %rax,%rcx
 4b97b9c:	48 89 df             	mov    %rbx,%rdi
 4b97b9f:	31 c0                	xor    %eax,%eax
 4b97ba1:	31 db                	xor    %ebx,%ebx
 4b97ba3:	48 8b ac 24 b0 00 00 	mov    0xb0(%rsp),%rbp
 4b97baa:	00 
 4b97bab:	48 81 c4 b8 00 00 00 	add    $0xb8,%rsp
 4b97bb2:	c3                   	ret
 4b97bb3:	48 8b 94 24 88 00 00 	mov    0x88(%rsp),%rdx
 4b97bba:	00 
 4b97bbb:	48 8b 8c 24 90 00 00 	mov    0x90(%rsp),%rcx
 4b97bc2:	00 
 4b97bc3:	48 83 f9 01          	cmp    $0x1,%rcx
 4b97bc7:	76 70                	jbe    4b97c39 <github.com/lasselj/timebeat/beater/clocksync/clients/vendors/timebeat/clock_gen/clock_gen_8A34002E.(*ClockGen8A34012).GetTimebeatClockgenConfigVersion@@Base+0x199>
 4b97bc9:	44 0f b6 42 01       	movzbl 0x1(%rdx),%r8d
 4b97bce:	0f b6 12             	movzbl (%rdx),%edx
 4b97bd1:	44 0f 11 7c 24 40    	movups %xmm15,0x40(%rsp)
 4b97bd7:	44 0f 11 7c 24 50    	movups %xmm15,0x50(%rsp)
 4b97bdd:	4c 8d 0d 7c 6d c1 00 	lea    0xc16d7c(%rip),%r9        # 57ae960 <type:uint8@@Base>
 4b97be4:	4c 89 4c 24 40       	mov    %r9,0x40(%rsp)
 4b97be9:	4c 8d 15 30 45 0d 03 	lea    0x30d4530(%rip),%r10        # 7c6c120 <runtime.staticuint64s@@Base>
 4b97bf0:	4f 8d 04 c2          	lea    (%r10,%r8,8),%r8
 4b97bf4:	4c 89 44 24 48       	mov    %r8,0x48(%rsp)
 4b97bf9:	4c 89 4c 24 50       	mov    %r9,0x50(%rsp)
 4b97bfe:	49 8d 14 d2          	lea    (%r10,%rdx,8),%rdx
 4b97c02:	48 89 54 24 58       	mov    %rdx,0x58(%rsp)
 4b97c07:	48 8d 05 3c e8 24 00 	lea    0x24e83c(%rip),%rax        # 4de644a <_IO_stdin_used@@Base+0x1b344a>
 4b97c0e:	bb 1b 00 00 00       	mov    $0x1b,%ebx
 4b97c13:	48 8d 4c 24 40       	lea    0x40(%rsp),%rcx
 4b97c18:	bf 02 00 00 00       	mov    $0x2,%edi
 4b97c1d:	48 89 fe             	mov    %rdi,%rsi
 4b97c20:	e8 db cc 45 fd       	call   1ff4900 <fmt.Sprintf@@Base>
 4b97c25:	31 c9                	xor    %ecx,%ecx
 4b97c27:	31 ff                	xor    %edi,%edi
 4b97c29:	48 8b ac 24 b0 00 00 	mov    0xb0(%rsp),%rbp
 4b97c30:	00 
 4b97c31:	48 81 c4 b8 00 00 00 	add    $0xb8,%rsp
 4b97c38:	c3                   	ret
 4b97c39:	b8 01 00 00 00       	mov    $0x1,%eax
 4b97c3e:	66 90                	xchg   %ax,%ax
 4b97c40:	e8 5b ee 3b fd       	call   1f56aa0 <runtime.panicIndex@@Base>
 4b97c45:	90                   	nop
 4b97c46:	48 89 44 24 08       	mov    %rax,0x8(%rsp)
 4b97c4b:	e8 10 c8 3b fd       	call   1f54460 <runtime.morestack_noctxt.abi0@@Base>
 4b97c50:	48 8b 44 24 08       	mov    0x8(%rsp),%rax
 4b97c55:	e9 46 fe ff ff       	jmp    4b97aa0 <github.com/lasselj/timebeat/beater/clocksync/clients/vendors/timebeat/clock_gen/clock_gen_8A34002E.(*ClockGen8A34012).GetTimebeatClockgenConfigVersion@@Base>
 4b97c5a:	cc                   	int3
 4b97c5b:	cc                   	int3
 4b97c5c:	cc                   	int3
 4b97c5d:	cc                   	int3
 4b97c5e:	cc                   	int3
 4b97c5f:	cc                   	int3
