# github.com/lasselj/timebeat/beater/clocksync/clients/ptp/client.(*Validation).isMajortimerHigherOrSubstantiallyLower
# addr 0x45e25a0 size 256 (0x100)


/mnt/c/Users/SHIWA/GitHub/TimeCard-Mini/timebeat-extracted/usr/share/timebeat/bin/timebeat:     file format elf64-x86-64


Disassembly of section .text:

00000000045e25a0 <github.com/lasselj/timebeat/beater/clocksync/clients/ptp/client.(*Validation).isMajortimerHigherOrSubstantiallyLower@@Base>:
 45e25a0:	49 3b 66 10          	cmp    0x10(%r14),%rsp
 45e25a4:	0f 86 b7 00 00 00    	jbe    45e2661 <github.com/lasselj/timebeat/beater/clocksync/clients/ptp/client.(*Validation).isMajortimerHigherOrSubstantiallyLower@@Base+0xc1>
 45e25aa:	48 83 ec 68          	sub    $0x68,%rsp
 45e25ae:	48 89 6c 24 60       	mov    %rbp,0x60(%rsp)
 45e25b3:	48 8d 6c 24 60       	lea    0x60(%rsp),%rbp
 45e25b8:	48 89 bc 24 88 00 00 	mov    %rdi,0x88(%rsp)
 45e25bf:	00 
 45e25c0:	48 89 5c 24 48       	mov    %rbx,0x48(%rsp)
 45e25c5:	48 89 4c 24 40       	mov    %rcx,0x40(%rsp)
 45e25ca:	48 89 7c 24 58       	mov    %rdi,0x58(%rsp)
 45e25cf:	48 8b 50 08          	mov    0x8(%rax),%rdx
 45e25d3:	48 89 54 24 38       	mov    %rdx,0x38(%rsp)
 45e25d8:	48 8b 70 10          	mov    0x10(%rax),%rsi
 45e25dc:	48 89 74 24 30       	mov    %rsi,0x30(%rsp)
 45e25e1:	4c 8b 40 18          	mov    0x18(%rax),%r8
 45e25e5:	4c 89 44 24 50       	mov    %r8,0x50(%rsp)
 45e25ea:	48 89 d0             	mov    %rdx,%rax
 45e25ed:	48 89 f3             	mov    %rsi,%rbx
 45e25f0:	4c 89 c1             	mov    %r8,%rcx
 45e25f3:	bf 80 d9 9f 38       	mov    $0x389fd980,%edi
 45e25f8:	e8 63 8e 9e fd       	call   1fcb460 <time.Time.Add@@Base>
 45e25fd:	48 8b 7c 24 48       	mov    0x48(%rsp),%rdi
 45e2602:	48 8b 74 24 40       	mov    0x40(%rsp),%rsi
 45e2607:	4c 8b 44 24 58       	mov    0x58(%rsp),%r8
 45e260c:	e8 cf 78 9e fd       	call   1fc9ee0 <time.Time.Before@@Base>
 45e2611:	84 c0                	test   %al,%al
 45e2613:	74 07                	je     45e261c <github.com/lasselj/timebeat/beater/clocksync/clients/ptp/client.(*Validation).isMajortimerHigherOrSubstantiallyLower@@Base+0x7c>
 45e2615:	b8 01 00 00 00       	mov    $0x1,%eax
 45e261a:	eb 3b                	jmp    45e2657 <github.com/lasselj/timebeat/beater/clocksync/clients/ptp/client.(*Validation).isMajortimerHigherOrSubstantiallyLower@@Base+0xb7>
 45e261c:	48 8b 44 24 38       	mov    0x38(%rsp),%rax
 45e2621:	48 8b 5c 24 30       	mov    0x30(%rsp),%rbx
 45e2626:	48 8b 4c 24 50       	mov    0x50(%rsp),%rcx
 45e262b:	48 bf 00 a2 2f 4d ff 	movabs $0xffffffff4d2fa200,%rdi
 45e2632:	ff ff ff 
 45e2635:	e8 26 8e 9e fd       	call   1fcb460 <time.Time.Add@@Base>
 45e263a:	48 89 c7             	mov    %rax,%rdi
 45e263d:	48 89 de             	mov    %rbx,%rsi
 45e2640:	49 89 c8             	mov    %rcx,%r8
 45e2643:	48 8b 44 24 48       	mov    0x48(%rsp),%rax
 45e2648:	48 8b 5c 24 40       	mov    0x40(%rsp),%rbx
 45e264d:	48 8b 4c 24 58       	mov    0x58(%rsp),%rcx
 45e2652:	e8 89 78 9e fd       	call   1fc9ee0 <time.Time.Before@@Base>
 45e2657:	48 8b 6c 24 60       	mov    0x60(%rsp),%rbp
 45e265c:	48 83 c4 68          	add    $0x68,%rsp
 45e2660:	c3                   	ret
 45e2661:	48 89 44 24 08       	mov    %rax,0x8(%rsp)
 45e2666:	48 89 5c 24 10       	mov    %rbx,0x10(%rsp)
 45e266b:	48 89 4c 24 18       	mov    %rcx,0x18(%rsp)
 45e2670:	48 89 7c 24 20       	mov    %rdi,0x20(%rsp)
 45e2675:	e8 e6 1d 97 fd       	call   1f54460 <runtime.morestack_noctxt.abi0@@Base>
 45e267a:	48 8b 44 24 08       	mov    0x8(%rsp),%rax
 45e267f:	48 8b 5c 24 10       	mov    0x10(%rsp),%rbx
 45e2684:	48 8b 4c 24 18       	mov    0x18(%rsp),%rcx
 45e2689:	48 8b 7c 24 20       	mov    0x20(%rsp),%rdi
 45e268e:	e9 0d ff ff ff       	jmp    45e25a0 <github.com/lasselj/timebeat/beater/clocksync/clients/ptp/client.(*Validation).isMajortimerHigherOrSubstantiallyLower@@Base>
 45e2693:	cc                   	int3
 45e2694:	cc                   	int3
 45e2695:	cc                   	int3
 45e2696:	cc                   	int3
 45e2697:	cc                   	int3
 45e2698:	cc                   	int3
 45e2699:	cc                   	int3
 45e269a:	cc                   	int3
 45e269b:	cc                   	int3
 45e269c:	cc                   	int3
 45e269d:	cc                   	int3
 45e269e:	cc                   	int3
 45e269f:	cc                   	int3
