# github.com/lasselj/timebeat/beater/clocksync/clients/ptpsquared.GetNetworkStats
# addr 0x4b53360 size 3168 (0xc60)


/mnt/c/Users/SHIWA/GitHub/TimeCard-Mini/timebeat-extracted/usr/share/timebeat/bin/timebeat:     file format elf64-x86-64


Disassembly of section .text:

0000000004b53360 <github.com/lasselj/timebeat/beater/clocksync/clients/ptpsquared.GetNetworkStats@@Base>:
 4b53360:	4c 8d a4 24 88 fe ff 	lea    -0x178(%rsp),%r12
 4b53367:	ff 
 4b53368:	4d 3b 66 10          	cmp    0x10(%r14),%r12
 4b5336c:	0f 86 34 0c 00 00    	jbe    4b53fa6 <github.com/lasselj/timebeat/beater/clocksync/clients/ptpsquared.GetNetworkStats@@Base+0xc46>
 4b53372:	48 81 ec f8 01 00 00 	sub    $0x1f8,%rsp
 4b53379:	48 89 ac 24 f0 01 00 	mov    %rbp,0x1f0(%rsp)
 4b53380:	00 
 4b53381:	48 8d ac 24 f0 01 00 	lea    0x1f0(%rsp),%rbp
 4b53388:	00 
 4b53389:	44 0f 11 bc 24 10 01 	movups %xmm15,0x110(%rsp)
 4b53390:	00 00 
 4b53392:	44 0f 11 bc 24 20 01 	movups %xmm15,0x120(%rsp)
 4b53399:	00 00 
 4b5339b:	48 8d 05 34 ff 0d 00 	lea    0xdff34(%rip),%rax        # 4c332d6 <_IO_stdin_used@@Base+0x2d6>
 4b533a2:	bb 02 00 00 00       	mov    $0x2,%ebx
 4b533a7:	31 c9                	xor    %ecx,%ecx
 4b533a9:	31 ff                	xor    %edi,%edi
 4b533ab:	48 89 fe             	mov    %rdi,%rsi
 4b533ae:	e8 4d 15 4a fd       	call   1ff4900 <fmt.Sprintf@@Base>
 4b533b3:	90                   	nop
 4b533b4:	48 8b 94 24 10 01 00 	mov    0x110(%rsp),%rdx
 4b533bb:	00 
 4b533bc:	0f 1f 40 00          	nopl   0x0(%rax)
 4b533c0:	48 85 d2             	test   %rdx,%rdx
 4b533c3:	74 12                	je     4b533d7 <github.com/lasselj/timebeat/beater/clocksync/clients/ptpsquared.GetNetworkStats@@Base+0x77>
 4b533c5:	4c 8d 84 24 10 01 00 	lea    0x110(%rsp),%r8
 4b533cc:	00 
 4b533cd:	4c 39 c2             	cmp    %r8,%rdx
 4b533d0:	74 1d                	je     4b533ef <github.com/lasselj/timebeat/beater/clocksync/clients/ptpsquared.GetNetworkStats@@Base+0x8f>
 4b533d2:	e9 ba 0b 00 00       	jmp    4b53f91 <github.com/lasselj/timebeat/beater/clocksync/clients/ptpsquared.GetNetworkStats@@Base+0xc31>
 4b533d7:	48 8d 94 24 10 01 00 	lea    0x110(%rsp),%rdx
 4b533de:	00 
 4b533df:	48 89 94 24 10 01 00 	mov    %rdx,0x110(%rsp)
 4b533e6:	00 
 4b533e7:	4c 8d 84 24 10 01 00 	lea    0x110(%rsp),%r8
 4b533ee:	00 
 4b533ef:	48 8b 94 24 20 01 00 	mov    0x120(%rsp),%rdx
 4b533f6:	00 
 4b533f7:	4c 8d 0c 13          	lea    (%rbx,%rdx,1),%r9
 4b533fb:	48 8b 8c 24 28 01 00 	mov    0x128(%rsp),%rcx
 4b53402:	00 
 4b53403:	4c 8b 94 24 18 01 00 	mov    0x118(%rsp),%r10
 4b5340a:	00 
 4b5340b:	4c 39 c9             	cmp    %r9,%rcx
 4b5340e:	73 45                	jae    4b53455 <github.com/lasselj/timebeat/beater/clocksync/clients/ptpsquared.GetNetworkStats@@Base+0xf5>
 4b53410:	48 89 84 24 e0 00 00 	mov    %rax,0xe0(%rsp)
 4b53417:	00 
 4b53418:	48 89 94 24 88 00 00 	mov    %rdx,0x88(%rsp)
 4b5341f:	00 
 4b53420:	48 89 5c 24 58       	mov    %rbx,0x58(%rsp)
 4b53425:	4c 89 d0             	mov    %r10,%rax
 4b53428:	48 89 df             	mov    %rbx,%rdi
 4b5342b:	48 8d 35 2e b5 c5 00 	lea    0xc5b52e(%rip),%rsi        # 57ae960 <type:uint8@@Base>
 4b53432:	4c 89 cb             	mov    %r9,%rbx
 4b53435:	e8 86 30 3e fd       	call   1f364c0 <runtime.growslice@@Base>
 4b5343a:	48 8b 94 24 88 00 00 	mov    0x88(%rsp),%rdx
 4b53441:	00 
 4b53442:	49 89 c2             	mov    %rax,%r10
 4b53445:	49 89 d9             	mov    %rbx,%r9
 4b53448:	48 8b 84 24 e0 00 00 	mov    0xe0(%rsp),%rax
 4b5344f:	00 
 4b53450:	48 8b 5c 24 58       	mov    0x58(%rsp),%rbx
 4b53455:	48 89 8c 24 88 00 00 	mov    %rcx,0x88(%rsp)
 4b5345c:	00 
 4b5345d:	4c 89 94 24 f8 00 00 	mov    %r10,0xf8(%rsp)
 4b53464:	00 
 4b53465:	4c 89 8c 24 80 00 00 	mov    %r9,0x80(%rsp)
 4b5346c:	00 
 4b5346d:	4c 01 d2             	add    %r10,%rdx
 4b53470:	48 89 c6             	mov    %rax,%rsi
 4b53473:	48 89 d0             	mov    %rdx,%rax
 4b53476:	48 89 df             	mov    %rbx,%rdi
 4b53479:	48 89 f3             	mov    %rsi,%rbx
 4b5347c:	48 89 f9             	mov    %rdi,%rcx
 4b5347f:	90                   	nop
 4b53480:	e8 1b 40 40 fd       	call   1f574a0 <runtime.memmove@@Base>
 4b53485:	48 8b 94 24 80 00 00 	mov    0x80(%rsp),%rdx
 4b5348c:	00 
 4b5348d:	48 89 94 24 20 01 00 	mov    %rdx,0x120(%rsp)
 4b53494:	00 
 4b53495:	48 8b 94 24 88 00 00 	mov    0x88(%rsp),%rdx
 4b5349c:	00 
 4b5349d:	48 89 94 24 28 01 00 	mov    %rdx,0x128(%rsp)
 4b534a4:	00 
 4b534a5:	48 8b 94 24 f8 00 00 	mov    0xf8(%rsp),%rdx
 4b534ac:	00 
 4b534ad:	48 89 94 24 18 01 00 	mov    %rdx,0x118(%rsp)
 4b534b4:	00 
 4b534b5:	44 0f 11 bc 24 80 01 	movups %xmm15,0x180(%rsp)
 4b534bc:	00 00 
 4b534be:	44 0f 11 bc 24 90 01 	movups %xmm15,0x190(%rsp)
 4b534c5:	00 00 
 4b534c7:	44 0f 11 bc 24 a0 01 	movups %xmm15,0x1a0(%rsp)
 4b534ce:	00 00 
 4b534d0:	48 8d 15 c9 b1 c5 00 	lea    0xc5b1c9(%rip),%rdx        # 57ae6a0 <type:string@@Base>
 4b534d7:	48 89 94 24 80 01 00 	mov    %rdx,0x180(%rsp)
 4b534de:	00 
 4b534df:	48 8d 35 92 fb 39 01 	lea    0x139fb92(%rip),%rsi        # 5ef3078 <time..dict.leadingInt[string]@@Base+0x2de8>
 4b534e6:	48 89 b4 24 88 01 00 	mov    %rsi,0x188(%rsp)
 4b534ed:	00 
 4b534ee:	48 89 94 24 90 01 00 	mov    %rdx,0x190(%rsp)
 4b534f5:	00 
 4b534f6:	48 8d 35 1b fc 39 01 	lea    0x139fc1b(%rip),%rsi        # 5ef3118 <time..dict.leadingInt[string]@@Base+0x2e88>
 4b534fd:	48 89 b4 24 98 01 00 	mov    %rsi,0x198(%rsp)
 4b53504:	00 
 4b53505:	48 89 94 24 a0 01 00 	mov    %rdx,0x1a0(%rsp)
 4b5350c:	00 
 4b5350d:	48 8d 35 b4 fb 39 01 	lea    0x139fbb4(%rip),%rsi        # 5ef30c8 <time..dict.leadingInt[string]@@Base+0x2e38>
 4b53514:	48 89 b4 24 a8 01 00 	mov    %rsi,0x1a8(%rsp)
 4b5351b:	00 
 4b5351c:	48 8d 05 c6 76 27 00 	lea    0x2776c6(%rip),%rax        # 4dcabe9 <_IO_stdin_used@@Base+0x197be9>
 4b53523:	bb 15 00 00 00       	mov    $0x15,%ebx
 4b53528:	48 8d 8c 24 80 01 00 	lea    0x180(%rsp),%rcx
 4b5352f:	00 
 4b53530:	bf 03 00 00 00       	mov    $0x3,%edi
 4b53535:	48 89 fe             	mov    %rdi,%rsi
 4b53538:	e8 c3 13 4a fd       	call   1ff4900 <fmt.Sprintf@@Base>
 4b5353d:	31 c9                	xor    %ecx,%ecx
 4b5353f:	31 ff                	xor    %edi,%edi
 4b53541:	48 89 fe             	mov    %rdi,%rsi
 4b53544:	e8 b7 13 4a fd       	call   1ff4900 <fmt.Sprintf@@Base>
 4b53549:	90                   	nop
 4b5354a:	48 8b 94 24 10 01 00 	mov    0x110(%rsp),%rdx
 4b53551:	00 
 4b53552:	48 85 d2             	test   %rdx,%rdx
 4b53555:	74 13                	je     4b5356a <github.com/lasselj/timebeat/beater/clocksync/clients/ptpsquared.GetNetworkStats@@Base+0x20a>
 4b53557:	4c 8d 84 24 10 01 00 	lea    0x110(%rsp),%r8
 4b5355e:	00 
 4b5355f:	90                   	nop
 4b53560:	4c 39 c2             	cmp    %r8,%rdx
 4b53563:	74 1d                	je     4b53582 <github.com/lasselj/timebeat/beater/clocksync/clients/ptpsquared.GetNetworkStats@@Base+0x222>
 4b53565:	e9 14 0a 00 00       	jmp    4b53f7e <github.com/lasselj/timebeat/beater/clocksync/clients/ptpsquared.GetNetworkStats@@Base+0xc1e>
 4b5356a:	48 8d 94 24 10 01 00 	lea    0x110(%rsp),%rdx
 4b53571:	00 
 4b53572:	48 89 94 24 10 01 00 	mov    %rdx,0x110(%rsp)
 4b53579:	00 
 4b5357a:	4c 8d 84 24 10 01 00 	lea    0x110(%rsp),%r8
 4b53581:	00 
 4b53582:	48 8b 94 24 20 01 00 	mov    0x120(%rsp),%rdx
 4b53589:	00 
 4b5358a:	4c 8d 0c 13          	lea    (%rbx,%rdx,1),%r9
 4b5358e:	48 8b 8c 24 28 01 00 	mov    0x128(%rsp),%rcx
 4b53595:	00 
 4b53596:	4c 8b 94 24 18 01 00 	mov    0x118(%rsp),%r10
 4b5359d:	00 
 4b5359e:	66 90                	xchg   %ax,%ax
 4b535a0:	4c 39 c9             	cmp    %r9,%rcx
 4b535a3:	73 45                	jae    4b535ea <github.com/lasselj/timebeat/beater/clocksync/clients/ptpsquared.GetNetworkStats@@Base+0x28a>
 4b535a5:	48 89 94 24 88 00 00 	mov    %rdx,0x88(%rsp)
 4b535ac:	00 
 4b535ad:	48 89 5c 24 50       	mov    %rbx,0x50(%rsp)
 4b535b2:	48 89 84 24 d8 00 00 	mov    %rax,0xd8(%rsp)
 4b535b9:	00 
 4b535ba:	4c 89 d0             	mov    %r10,%rax
 4b535bd:	48 89 df             	mov    %rbx,%rdi
 4b535c0:	48 8d 35 99 b3 c5 00 	lea    0xc5b399(%rip),%rsi        # 57ae960 <type:uint8@@Base>
 4b535c7:	4c 89 cb             	mov    %r9,%rbx
 4b535ca:	e8 f1 2e 3e fd       	call   1f364c0 <runtime.growslice@@Base>
 4b535cf:	48 8b 94 24 88 00 00 	mov    0x88(%rsp),%rdx
 4b535d6:	00 
 4b535d7:	49 89 c2             	mov    %rax,%r10
 4b535da:	49 89 d9             	mov    %rbx,%r9
 4b535dd:	48 8b 84 24 d8 00 00 	mov    0xd8(%rsp),%rax
 4b535e4:	00 
 4b535e5:	48 8b 5c 24 50       	mov    0x50(%rsp),%rbx
 4b535ea:	48 89 8c 24 88 00 00 	mov    %rcx,0x88(%rsp)
 4b535f1:	00 
 4b535f2:	4c 89 8c 24 80 00 00 	mov    %r9,0x80(%rsp)
 4b535f9:	00 
 4b535fa:	4c 89 94 24 f8 00 00 	mov    %r10,0xf8(%rsp)
 4b53601:	00 
 4b53602:	4c 01 d2             	add    %r10,%rdx
 4b53605:	48 89 c6             	mov    %rax,%rsi
 4b53608:	48 89 d0             	mov    %rdx,%rax
 4b5360b:	48 89 df             	mov    %rbx,%rdi
 4b5360e:	48 89 f3             	mov    %rsi,%rbx
 4b53611:	48 89 f9             	mov    %rdi,%rcx
 4b53614:	e8 87 3e 40 fd       	call   1f574a0 <runtime.memmove@@Base>
 4b53619:	48 8b 94 24 80 00 00 	mov    0x80(%rsp),%rdx
 4b53620:	00 
 4b53621:	48 89 94 24 20 01 00 	mov    %rdx,0x120(%rsp)
 4b53628:	00 
 4b53629:	48 8b 94 24 88 00 00 	mov    0x88(%rsp),%rdx
 4b53630:	00 
 4b53631:	48 89 94 24 28 01 00 	mov    %rdx,0x128(%rsp)
 4b53638:	00 
 4b53639:	48 8b 94 24 f8 00 00 	mov    0xf8(%rsp),%rdx
 4b53640:	00 
 4b53641:	48 89 94 24 18 01 00 	mov    %rdx,0x118(%rsp)
 4b53648:	00 
 4b53649:	48 8b 15 10 8b 2d 03 	mov    0x32d8b10(%rip),%rdx        # 7e2c160 <github.com/lasselj/timebeat/beater/clocksync/clients/ptpsquared.controller@@Base>
 4b53650:	48 8b 52 30          	mov    0x30(%rdx),%rdx
 4b53654:	48 8b 32             	mov    (%rdx),%rsi
 4b53657:	48 8b 42 08          	mov    0x8(%rdx),%rax
 4b5365b:	48 8b 56 60          	mov    0x60(%rsi),%rdx
 4b5365f:	90                   	nop
 4b53660:	ff d2                	call   *%rdx
 4b53662:	48 8b 90 88 00 00 00 	mov    0x88(%rax),%rdx
 4b53669:	48 89 d8             	mov    %rbx,%rax
 4b5366c:	ff d2                	call   *%rdx
 4b5366e:	48 89 9c 24 88 00 00 	mov    %rbx,0x88(%rsp)
 4b53675:	00 
 4b53676:	31 c9                	xor    %ecx,%ecx
 4b53678:	31 d2                	xor    %edx,%edx
 4b5367a:	eb 24                	jmp    4b536a0 <github.com/lasselj/timebeat/beater/clocksync/clients/ptpsquared.GetNetworkStats@@Base+0x340>
 4b5367c:	48 8b 84 24 f0 00 00 	mov    0xf0(%rsp),%rax
 4b53683:	00 
 4b53684:	48 83 c0 10          	add    $0x10,%rax
 4b53688:	48 8b 8c 24 80 00 00 	mov    0x80(%rsp),%rcx
 4b5368f:	00 
 4b53690:	48 ff c1             	inc    %rcx
 4b53693:	48 8b 9c 24 88 00 00 	mov    0x88(%rsp),%rbx
 4b5369a:	00 
 4b5369b:	0f 1f 44 00 00       	nopl   0x0(%rax,%rax,1)
 4b536a0:	48 39 cb             	cmp    %rcx,%rbx
 4b536a3:	0f 8e 1c 07 00 00    	jle    4b53dc5 <github.com/lasselj/timebeat/beater/clocksync/clients/ptpsquared.GetNetworkStats@@Base+0xa65>
 4b536a9:	48 89 8c 24 80 00 00 	mov    %rcx,0x80(%rsp)
 4b536b0:	00 
 4b536b1:	48 89 54 24 68       	mov    %rdx,0x68(%rsp)
 4b536b6:	48 8b 0d a3 8a 2d 03 	mov    0x32d8aa3(%rip),%rcx        # 7e2c160 <github.com/lasselj/timebeat/beater/clocksync/clients/ptpsquared.controller@@Base>
 4b536bd:	48 8b 49 30          	mov    0x30(%rcx),%rcx
 4b536c1:	48 8b 11             	mov    (%rcx),%rdx
 4b536c4:	48 89 84 24 f0 00 00 	mov    %rax,0xf0(%rsp)
 4b536cb:	00 
 4b536cc:	48 8b 58 08          	mov    0x8(%rax),%rbx
 4b536d0:	48 89 5c 24 60       	mov    %rbx,0x60(%rsp)
 4b536d5:	48 8b 30             	mov    (%rax),%rsi
 4b536d8:	48 89 b4 24 e8 00 00 	mov    %rsi,0xe8(%rsp)
 4b536df:	00 
 4b536e0:	48 8b 49 08          	mov    0x8(%rcx),%rcx
 4b536e4:	48 8b 52 40          	mov    0x40(%rdx),%rdx
 4b536e8:	48 89 c8             	mov    %rcx,%rax
 4b536eb:	ff d2                	call   *%rdx
 4b536ed:	48 8b 4c 24 60       	mov    0x60(%rsp),%rcx
 4b536f2:	48 39 cb             	cmp    %rcx,%rbx
 4b536f5:	75 1e                	jne    4b53715 <github.com/lasselj/timebeat/beater/clocksync/clients/ptpsquared.GetNetworkStats@@Base+0x3b5>
 4b536f7:	48 89 c3             	mov    %rax,%rbx
 4b536fa:	48 8b 84 24 e8 00 00 	mov    0xe8(%rsp),%rax
 4b53701:	00 
 4b53702:	e8 19 04 39 fd       	call   1ee3b20 <runtime.memequal@@Base>
 4b53707:	84 c0                	test   %al,%al
 4b53709:	74 0a                	je     4b53715 <github.com/lasselj/timebeat/beater/clocksync/clients/ptpsquared.GetNetworkStats@@Base+0x3b5>
 4b5370b:	48 8b 54 24 68       	mov    0x68(%rsp),%rdx
 4b53710:	e9 67 ff ff ff       	jmp    4b5367c <github.com/lasselj/timebeat/beater/clocksync/clients/ptpsquared.GetNetworkStats@@Base+0x31c>
 4b53715:	48 8b 0d 44 8a 2d 03 	mov    0x32d8a44(%rip),%rcx        # 7e2c160 <github.com/lasselj/timebeat/beater/clocksync/clients/ptpsquared.controller@@Base>
 4b5371c:	48 8b 49 30          	mov    0x30(%rcx),%rcx
 4b53720:	48 8b 11             	mov    (%rcx),%rdx
 4b53723:	48 8b 41 08          	mov    0x8(%rcx),%rax
 4b53727:	48 8b 4a 60          	mov    0x60(%rdx),%rcx
 4b5372b:	ff d1                	call   *%rcx
 4b5372d:	48 8b 88 80 00 00 00 	mov    0x80(%rax),%rcx
 4b53734:	48 89 d8             	mov    %rbx,%rax
 4b53737:	48 8b 9c 24 e8 00 00 	mov    0xe8(%rsp),%rbx
 4b5373e:	00 
 4b5373f:	48 89 ca             	mov    %rcx,%rdx
 4b53742:	48 8b 4c 24 60       	mov    0x60(%rsp),%rcx
 4b53747:	ff d2                	call   *%rdx
 4b53749:	48 89 84 24 58 01 00 	mov    %rax,0x158(%rsp)
 4b53750:	00 
 4b53751:	48 89 9c 24 60 01 00 	mov    %rbx,0x160(%rsp)
 4b53758:	00 
 4b53759:	48 89 8c 24 68 01 00 	mov    %rcx,0x168(%rsp)
 4b53760:	00 
 4b53761:	48 89 bc 24 70 01 00 	mov    %rdi,0x170(%rsp)
 4b53768:	00 
 4b53769:	48 89 b4 24 78 01 00 	mov    %rsi,0x178(%rsp)
 4b53770:	00 
 4b53771:	48 8b 8c 24 58 01 00 	mov    0x158(%rsp),%rcx
 4b53778:	00 
 4b53779:	48 89 8c 24 30 01 00 	mov    %rcx,0x130(%rsp)
 4b53780:	00 
 4b53781:	0f 10 84 24 60 01 00 	movups 0x160(%rsp),%xmm0
 4b53788:	00 
 4b53789:	0f 11 84 24 38 01 00 	movups %xmm0,0x138(%rsp)
 4b53790:	00 
 4b53791:	0f 10 84 24 70 01 00 	movups 0x170(%rsp),%xmm0
 4b53798:	00 
 4b53799:	0f 11 84 24 48 01 00 	movups %xmm0,0x148(%rsp)
 4b537a0:	00 
 4b537a1:	48 8b 8c 24 40 01 00 	mov    0x140(%rsp),%rcx
 4b537a8:	00 
 4b537a9:	48 83 bc 24 48 01 00 	cmpq   $0x0,0x148(%rsp)
 4b537b0:	00 00 
 4b537b2:	0f 84 55 01 00 00    	je     4b5390d <github.com/lasselj/timebeat/beater/clocksync/clients/ptpsquared.GetNetworkStats@@Base+0x5ad>
 4b537b8:	48 8b 01             	mov    (%rcx),%rax
 4b537bb:	48 8b 59 08          	mov    0x8(%rcx),%rbx
 4b537bf:	90                   	nop
 4b537c0:	e8 db 1e b4 ff       	call   46956a0 <github.com/multiformats/go-multiaddr/net.ToIP@@Base>
 4b537c5:	48 85 ff             	test   %rdi,%rdi
 4b537c8:	0f 85 74 02 00 00    	jne    4b53a42 <github.com/lasselj/timebeat/beater/clocksync/clients/ptpsquared.GetNetworkStats@@Base+0x6e2>
 4b537ce:	e8 cd 00 4f fd       	call   20438a0 <net.IP.String@@Base>
 4b537d3:	44 0f 11 bc 24 00 01 	movups %xmm15,0x100(%rsp)
 4b537da:	00 00 
 4b537dc:	0f 1f 40 00          	nopl   0x0(%rax)
 4b537e0:	e8 7b a5 39 fd       	call   1eedd60 <runtime.convTstring@@Base>
 4b537e5:	48 8d 15 b4 ae c5 00 	lea    0xc5aeb4(%rip),%rdx        # 57ae6a0 <type:string@@Base>
 4b537ec:	48 89 94 24 00 01 00 	mov    %rdx,0x100(%rsp)
 4b537f3:	00 
 4b537f4:	48 89 84 24 08 01 00 	mov    %rax,0x108(%rsp)
 4b537fb:	00 
 4b537fc:	48 8d 05 cd ba 10 00 	lea    0x10bacd(%rip),%rax        # 4c5f2d0 <_IO_stdin_used@@Base+0x2c2d0>
 4b53803:	bb 07 00 00 00       	mov    $0x7,%ebx
 4b53808:	48 8d 8c 24 00 01 00 	lea    0x100(%rsp),%rcx
 4b5380f:	00 
 4b53810:	bf 01 00 00 00       	mov    $0x1,%edi
 4b53815:	48 89 fe             	mov    %rdi,%rsi
 4b53818:	e8 e3 10 4a fd       	call   1ff4900 <fmt.Sprintf@@Base>
 4b5381d:	90                   	nop
 4b5381e:	48 8b 94 24 10 01 00 	mov    0x110(%rsp),%rdx
 4b53825:	00 
 4b53826:	48 85 d2             	test   %rdx,%rdx
 4b53829:	74 12                	je     4b5383d <github.com/lasselj/timebeat/beater/clocksync/clients/ptpsquared.GetNetworkStats@@Base+0x4dd>
 4b5382b:	4c 8d 84 24 10 01 00 	lea    0x110(%rsp),%r8
 4b53832:	00 
 4b53833:	4c 39 c2             	cmp    %r8,%rdx
 4b53836:	74 1d                	je     4b53855 <github.com/lasselj/timebeat/beater/clocksync/clients/ptpsquared.GetNetworkStats@@Base+0x4f5>
 4b53838:	e9 2e 07 00 00       	jmp    4b53f6b <github.com/lasselj/timebeat/beater/clocksync/clients/ptpsquared.GetNetworkStats@@Base+0xc0b>
 4b5383d:	48 8d 94 24 10 01 00 	lea    0x110(%rsp),%rdx
 4b53844:	00 
 4b53845:	48 89 94 24 10 01 00 	mov    %rdx,0x110(%rsp)
 4b5384c:	00 
 4b5384d:	4c 8d 84 24 10 01 00 	lea    0x110(%rsp),%r8
 4b53854:	00 
 4b53855:	48 8b 94 24 20 01 00 	mov    0x120(%rsp),%rdx
 4b5385c:	00 
 4b5385d:	4c 8d 0c 13          	lea    (%rbx,%rdx,1),%r9
 4b53861:	48 8b 8c 24 28 01 00 	mov    0x128(%rsp),%rcx
 4b53868:	00 
 4b53869:	4c 8b 94 24 18 01 00 	mov    0x118(%rsp),%r10
 4b53870:	00 
 4b53871:	4c 39 c9             	cmp    %r9,%rcx
 4b53874:	73 3f                	jae    4b538b5 <github.com/lasselj/timebeat/beater/clocksync/clients/ptpsquared.GetNetworkStats@@Base+0x555>
 4b53876:	48 89 54 24 78       	mov    %rdx,0x78(%rsp)
 4b5387b:	48 89 84 24 d0 00 00 	mov    %rax,0xd0(%rsp)
 4b53882:	00 
 4b53883:	48 89 5c 24 48       	mov    %rbx,0x48(%rsp)
 4b53888:	4c 89 d0             	mov    %r10,%rax
 4b5388b:	48 89 df             	mov    %rbx,%rdi
 4b5388e:	48 8d 35 cb b0 c5 00 	lea    0xc5b0cb(%rip),%rsi        # 57ae960 <type:uint8@@Base>
 4b53895:	4c 89 cb             	mov    %r9,%rbx
 4b53898:	e8 23 2c 3e fd       	call   1f364c0 <runtime.growslice@@Base>
 4b5389d:	48 8b 54 24 78       	mov    0x78(%rsp),%rdx
 4b538a2:	49 89 c2             	mov    %rax,%r10
 4b538a5:	49 89 d9             	mov    %rbx,%r9
 4b538a8:	48 8b 84 24 d0 00 00 	mov    0xd0(%rsp),%rax
 4b538af:	00 
 4b538b0:	48 8b 5c 24 48       	mov    0x48(%rsp),%rbx
 4b538b5:	4c 89 94 24 f8 00 00 	mov    %r10,0xf8(%rsp)
 4b538bc:	00 
 4b538bd:	48 89 4c 24 78       	mov    %rcx,0x78(%rsp)
 4b538c2:	4c 89 4c 24 70       	mov    %r9,0x70(%rsp)
 4b538c7:	4c 01 d2             	add    %r10,%rdx
 4b538ca:	48 89 c6             	mov    %rax,%rsi
 4b538cd:	48 89 d0             	mov    %rdx,%rax
 4b538d0:	48 89 df             	mov    %rbx,%rdi
 4b538d3:	48 89 f3             	mov    %rsi,%rbx
 4b538d6:	48 89 f9             	mov    %rdi,%rcx
 4b538d9:	e8 c2 3b 40 fd       	call   1f574a0 <runtime.memmove@@Base>
 4b538de:	48 8b 54 24 70       	mov    0x70(%rsp),%rdx
 4b538e3:	48 89 94 24 20 01 00 	mov    %rdx,0x120(%rsp)
 4b538ea:	00 
 4b538eb:	48 8b 54 24 78       	mov    0x78(%rsp),%rdx
 4b538f0:	48 89 94 24 28 01 00 	mov    %rdx,0x128(%rsp)
 4b538f7:	00 
 4b538f8:	48 8b 94 24 f8 00 00 	mov    0xf8(%rsp),%rdx
 4b538ff:	00 
 4b53900:	48 89 94 24 18 01 00 	mov    %rdx,0x118(%rsp)
 4b53907:	00 
 4b53908:	e9 35 01 00 00       	jmp    4b53a42 <github.com/lasselj/timebeat/beater/clocksync/clients/ptpsquared.GetNetworkStats@@Base+0x6e2>
 4b5390d:	44 0f 11 bc 24 00 01 	movups %xmm15,0x100(%rsp)
 4b53914:	00 00 
 4b53916:	48 8d 15 83 ad c5 00 	lea    0xc5ad83(%rip),%rdx        # 57ae6a0 <type:string@@Base>
 4b5391d:	48 89 94 24 00 01 00 	mov    %rdx,0x100(%rsp)
 4b53924:	00 
 4b53925:	4c 8d 05 bc f7 39 01 	lea    0x139f7bc(%rip),%r8        # 5ef30e8 <time..dict.leadingInt[string]@@Base+0x2e58>
 4b5392c:	4c 89 84 24 08 01 00 	mov    %r8,0x108(%rsp)
 4b53933:	00 
 4b53934:	48 8d 05 95 b9 10 00 	lea    0x10b995(%rip),%rax        # 4c5f2d0 <_IO_stdin_used@@Base+0x2c2d0>
 4b5393b:	bb 07 00 00 00       	mov    $0x7,%ebx
 4b53940:	48 8d 8c 24 00 01 00 	lea    0x100(%rsp),%rcx
 4b53947:	00 
 4b53948:	bf 01 00 00 00       	mov    $0x1,%edi
 4b5394d:	48 89 fe             	mov    %rdi,%rsi
 4b53950:	e8 ab 0f 4a fd       	call   1ff4900 <fmt.Sprintf@@Base>
 4b53955:	90                   	nop
 4b53956:	48 8b 94 24 10 01 00 	mov    0x110(%rsp),%rdx
 4b5395d:	00 
 4b5395e:	66 90                	xchg   %ax,%ax
 4b53960:	48 85 d2             	test   %rdx,%rdx
 4b53963:	74 12                	je     4b53977 <github.com/lasselj/timebeat/beater/clocksync/clients/ptpsquared.GetNetworkStats@@Base+0x617>
 4b53965:	4c 8d 84 24 10 01 00 	lea    0x110(%rsp),%r8
 4b5396c:	00 
 4b5396d:	4c 39 c2             	cmp    %r8,%rdx
 4b53970:	74 1d                	je     4b5398f <github.com/lasselj/timebeat/beater/clocksync/clients/ptpsquared.GetNetworkStats@@Base+0x62f>
 4b53972:	e9 e1 05 00 00       	jmp    4b53f58 <github.com/lasselj/timebeat/beater/clocksync/clients/ptpsquared.GetNetworkStats@@Base+0xbf8>
 4b53977:	48 8d 94 24 10 01 00 	lea    0x110(%rsp),%rdx
 4b5397e:	00 
 4b5397f:	48 89 94 24 10 01 00 	mov    %rdx,0x110(%rsp)
 4b53986:	00 
 4b53987:	4c 8d 84 24 10 01 00 	lea    0x110(%rsp),%r8
 4b5398e:	00 
 4b5398f:	48 8b 94 24 20 01 00 	mov    0x120(%rsp),%rdx
 4b53996:	00 
 4b53997:	4c 8d 0c 13          	lea    (%rbx,%rdx,1),%r9
 4b5399b:	48 8b 8c 24 28 01 00 	mov    0x128(%rsp),%rcx
 4b539a2:	00 
 4b539a3:	4c 8b 94 24 18 01 00 	mov    0x118(%rsp),%r10
 4b539aa:	00 
 4b539ab:	4c 39 c9             	cmp    %r9,%rcx
 4b539ae:	73 3f                	jae    4b539ef <github.com/lasselj/timebeat/beater/clocksync/clients/ptpsquared.GetNetworkStats@@Base+0x68f>
 4b539b0:	48 89 54 24 78       	mov    %rdx,0x78(%rsp)
 4b539b5:	48 89 5c 24 40       	mov    %rbx,0x40(%rsp)
 4b539ba:	48 89 84 24 c8 00 00 	mov    %rax,0xc8(%rsp)
 4b539c1:	00 
 4b539c2:	4c 89 d0             	mov    %r10,%rax
 4b539c5:	48 89 df             	mov    %rbx,%rdi
 4b539c8:	48 8d 35 91 af c5 00 	lea    0xc5af91(%rip),%rsi        # 57ae960 <type:uint8@@Base>
 4b539cf:	4c 89 cb             	mov    %r9,%rbx
 4b539d2:	e8 e9 2a 3e fd       	call   1f364c0 <runtime.growslice@@Base>
 4b539d7:	48 8b 54 24 78       	mov    0x78(%rsp),%rdx
 4b539dc:	49 89 c2             	mov    %rax,%r10
 4b539df:	49 89 d9             	mov    %rbx,%r9
 4b539e2:	48 8b 84 24 c8 00 00 	mov    0xc8(%rsp),%rax
 4b539e9:	00 
 4b539ea:	48 8b 5c 24 40       	mov    0x40(%rsp),%rbx
 4b539ef:	4c 89 4c 24 78       	mov    %r9,0x78(%rsp)
 4b539f4:	48 89 4c 24 70       	mov    %rcx,0x70(%rsp)
 4b539f9:	4c 89 94 24 f8 00 00 	mov    %r10,0xf8(%rsp)
 4b53a00:	00 
 4b53a01:	4c 01 d2             	add    %r10,%rdx
 4b53a04:	48 89 c6             	mov    %rax,%rsi
 4b53a07:	48 89 d0             	mov    %rdx,%rax
 4b53a0a:	48 89 df             	mov    %rbx,%rdi
 4b53a0d:	48 89 f3             	mov    %rsi,%rbx
 4b53a10:	48 89 f9             	mov    %rdi,%rcx
 4b53a13:	e8 88 3a 40 fd       	call   1f574a0 <runtime.memmove@@Base>
 4b53a18:	48 8b 54 24 78       	mov    0x78(%rsp),%rdx
 4b53a1d:	48 89 94 24 20 01 00 	mov    %rdx,0x120(%rsp)
 4b53a24:	00 
 4b53a25:	48 8b 54 24 70       	mov    0x70(%rsp),%rdx
 4b53a2a:	48 89 94 24 28 01 00 	mov    %rdx,0x128(%rsp)
 4b53a31:	00 
 4b53a32:	48 8b 94 24 f8 00 00 	mov    0xf8(%rsp),%rdx
 4b53a39:	00 
 4b53a3a:	48 89 94 24 18 01 00 	mov    %rdx,0x118(%rsp)
 4b53a41:	00 
 4b53a42:	48 8b 0d 17 87 2d 03 	mov    0x32d8717(%rip),%rcx        # 7e2c160 <github.com/lasselj/timebeat/beater/clocksync/clients/ptpsquared.controller@@Base>
 4b53a49:	48 8b 49 30          	mov    0x30(%rcx),%rcx
 4b53a4d:	48 8b 11             	mov    (%rcx),%rdx
 4b53a50:	48 8b 41 08          	mov    0x8(%rcx),%rax
 4b53a54:	48 8b 4a 50          	mov    0x50(%rdx),%rcx
 4b53a58:	ff d1                	call   *%rcx
 4b53a5a:	48 8b 48 28          	mov    0x28(%rax),%rcx
 4b53a5e:	48 89 d8             	mov    %rbx,%rax
 4b53a61:	48 8b 9c 24 e8 00 00 	mov    0xe8(%rsp),%rbx
 4b53a68:	00 
 4b53a69:	48 89 ca             	mov    %rcx,%rdx
 4b53a6c:	48 8b 4c 24 60       	mov    0x60(%rsp),%rcx
 4b53a71:	ff d2                	call   *%rdx
 4b53a73:	44 0f 11 bc 24 b0 01 	movups %xmm15,0x1b0(%rsp)
 4b53a7a:	00 00 
 4b53a7c:	44 0f 11 bc 24 c0 01 	movups %xmm15,0x1c0(%rsp)
 4b53a83:	00 00 
 4b53a85:	44 0f 11 bc 24 d0 01 	movups %xmm15,0x1d0(%rsp)
 4b53a8c:	00 00 
 4b53a8e:	44 0f 11 bc 24 e0 01 	movups %xmm15,0x1e0(%rsp)
 4b53a95:	00 00 
 4b53a97:	48 8d 0d 09 b5 11 00 	lea    0x11b509(%rip),%rcx        # 4c6efa7 <_IO_stdin_used@@Base+0x3bfa7>
 4b53a9e:	48 89 8c 24 b0 01 00 	mov    %rcx,0x1b0(%rsp)
 4b53aa5:	00 
 4b53aa6:	48 c7 84 24 b8 01 00 	movq   $0xc,0x1b8(%rsp)
 4b53aad:	00 0c 00 00 00 
 4b53ab2:	48 8d 15 65 10 11 00 	lea    0x111065(%rip),%rdx        # 4c64b1e <_IO_stdin_used@@Base+0x31b1e>
 4b53ab9:	48 89 94 24 c0 01 00 	mov    %rdx,0x1c0(%rsp)
 4b53ac0:	00 
 4b53ac1:	48 c7 84 24 c8 01 00 	movq   $0x9,0x1c8(%rsp)
 4b53ac8:	00 09 00 00 00 
 4b53acd:	48 8d 1d 19 3d 11 00 	lea    0x113d19(%rip),%rbx        # 4c677ed <_IO_stdin_used@@Base+0x347ed>
 4b53ad4:	48 89 9c 24 d0 01 00 	mov    %rbx,0x1d0(%rsp)
 4b53adb:	00 
 4b53adc:	48 c7 84 24 d8 01 00 	movq   $0xa,0x1d8(%rsp)
 4b53ae3:	00 0a 00 00 00 
 4b53ae8:	48 8d 35 62 79 12 00 	lea    0x127962(%rip),%rsi        # 4c7b451 <_IO_stdin_used@@Base+0x48451>
 4b53aef:	48 89 b4 24 e0 01 00 	mov    %rsi,0x1e0(%rsp)
 4b53af6:	00 
 4b53af7:	48 c7 84 24 e8 01 00 	movq   $0xd,0x1e8(%rsp)
 4b53afe:	00 0d 00 00 00 
 4b53b03:	48 83 f8 04          	cmp    $0x4,%rax
 4b53b07:	72 0e                	jb     4b53b17 <github.com/lasselj/timebeat/beater/clocksync/clients/ptpsquared.GetNetworkStats@@Base+0x7b7>
 4b53b09:	bf 0e 00 00 00       	mov    $0xe,%edi
 4b53b0e:	4c 8d 05 e5 a6 12 00 	lea    0x12a6e5(%rip),%r8        # 4c7e1fa <_IO_stdin_used@@Base+0x4b1fa>
 4b53b15:	eb 14                	jmp    4b53b2b <github.com/lasselj/timebeat/beater/clocksync/clients/ptpsquared.GetNetworkStats@@Base+0x7cb>
 4b53b17:	48 c1 e0 04          	shl    $0x4,%rax
 4b53b1b:	48 8b bc 04 b8 01 00 	mov    0x1b8(%rsp,%rax,1),%rdi
 4b53b22:	00 
 4b53b23:	4c 8b 84 04 b0 01 00 	mov    0x1b0(%rsp,%rax,1),%r8
 4b53b2a:	00 
 4b53b2b:	44 0f 11 bc 24 00 01 	movups %xmm15,0x100(%rsp)
 4b53b32:	00 00 
 4b53b34:	4c 89 c0             	mov    %r8,%rax
 4b53b37:	48 89 fb             	mov    %rdi,%rbx
 4b53b3a:	e8 21 a2 39 fd       	call   1eedd60 <runtime.convTstring@@Base>
 4b53b3f:	48 8d 0d 5a ab c5 00 	lea    0xc5ab5a(%rip),%rcx        # 57ae6a0 <type:string@@Base>
 4b53b46:	48 89 8c 24 00 01 00 	mov    %rcx,0x100(%rsp)
 4b53b4d:	00 
 4b53b4e:	48 89 84 24 08 01 00 	mov    %rax,0x108(%rsp)
 4b53b55:	00 
 4b53b56:	48 8d 05 73 b7 10 00 	lea    0x10b773(%rip),%rax        # 4c5f2d0 <_IO_stdin_used@@Base+0x2c2d0>
 4b53b5d:	bb 07 00 00 00       	mov    $0x7,%ebx
 4b53b62:	bf 01 00 00 00       	mov    $0x1,%edi
 4b53b67:	48 89 fe             	mov    %rdi,%rsi
 4b53b6a:	48 8d 8c 24 00 01 00 	lea    0x100(%rsp),%rcx
 4b53b71:	00 
 4b53b72:	e8 89 0d 4a fd       	call   1ff4900 <fmt.Sprintf@@Base>
 4b53b77:	90                   	nop
 4b53b78:	48 8b 8c 24 10 01 00 	mov    0x110(%rsp),%rcx
 4b53b7f:	00 
 4b53b80:	48 85 c9             	test   %rcx,%rcx
 4b53b83:	74 12                	je     4b53b97 <github.com/lasselj/timebeat/beater/clocksync/clients/ptpsquared.GetNetworkStats@@Base+0x837>
 4b53b85:	48 8d 94 24 10 01 00 	lea    0x110(%rsp),%rdx
 4b53b8c:	00 
 4b53b8d:	48 39 d1             	cmp    %rdx,%rcx
 4b53b90:	74 15                	je     4b53ba7 <github.com/lasselj/timebeat/beater/clocksync/clients/ptpsquared.GetNetworkStats@@Base+0x847>
 4b53b92:	e9 ae 03 00 00       	jmp    4b53f45 <github.com/lasselj/timebeat/beater/clocksync/clients/ptpsquared.GetNetworkStats@@Base+0xbe5>
 4b53b97:	48 8d 94 24 10 01 00 	lea    0x110(%rsp),%rdx
 4b53b9e:	00 
 4b53b9f:	48 89 94 24 10 01 00 	mov    %rdx,0x110(%rsp)
 4b53ba6:	00 
 4b53ba7:	4c 8b 84 24 20 01 00 	mov    0x120(%rsp),%r8
 4b53bae:	00 
 4b53baf:	4e 8d 0c 03          	lea    (%rbx,%r8,1),%r9
 4b53bb3:	48 8b 8c 24 28 01 00 	mov    0x128(%rsp),%rcx
 4b53bba:	00 
 4b53bbb:	4c 8b 94 24 18 01 00 	mov    0x118(%rsp),%r10
 4b53bc2:	00 
 4b53bc3:	4c 39 c9             	cmp    %r9,%rcx
 4b53bc6:	73 3f                	jae    4b53c07 <github.com/lasselj/timebeat/beater/clocksync/clients/ptpsquared.GetNetworkStats@@Base+0x8a7>
 4b53bc8:	4c 89 44 24 78       	mov    %r8,0x78(%rsp)
 4b53bcd:	48 89 5c 24 38       	mov    %rbx,0x38(%rsp)
 4b53bd2:	48 89 84 24 c0 00 00 	mov    %rax,0xc0(%rsp)
 4b53bd9:	00 
 4b53bda:	4c 89 d0             	mov    %r10,%rax
 4b53bdd:	48 89 df             	mov    %rbx,%rdi
 4b53be0:	48 8d 35 79 ad c5 00 	lea    0xc5ad79(%rip),%rsi        # 57ae960 <type:uint8@@Base>
 4b53be7:	4c 89 cb             	mov    %r9,%rbx
 4b53bea:	e8 d1 28 3e fd       	call   1f364c0 <runtime.growslice@@Base>
 4b53bef:	4c 8b 44 24 78       	mov    0x78(%rsp),%r8
 4b53bf4:	49 89 c2             	mov    %rax,%r10
 4b53bf7:	49 89 d9             	mov    %rbx,%r9
 4b53bfa:	48 8b 84 24 c0 00 00 	mov    0xc0(%rsp),%rax
 4b53c01:	00 
 4b53c02:	48 8b 5c 24 38       	mov    0x38(%rsp),%rbx
 4b53c07:	48 89 4c 24 78       	mov    %rcx,0x78(%rsp)
 4b53c0c:	4c 89 4c 24 70       	mov    %r9,0x70(%rsp)
 4b53c11:	4c 89 94 24 f8 00 00 	mov    %r10,0xf8(%rsp)
 4b53c18:	00 
 4b53c19:	4b 8d 14 02          	lea    (%r10,%r8,1),%rdx
 4b53c1d:	48 89 c6             	mov    %rax,%rsi
 4b53c20:	48 89 d0             	mov    %rdx,%rax
 4b53c23:	48 89 df             	mov    %rbx,%rdi
 4b53c26:	48 89 f3             	mov    %rsi,%rbx
 4b53c29:	48 89 f9             	mov    %rdi,%rcx
 4b53c2c:	e8 6f 38 40 fd       	call   1f574a0 <runtime.memmove@@Base>
 4b53c31:	48 8b 54 24 70       	mov    0x70(%rsp),%rdx
 4b53c36:	48 89 94 24 20 01 00 	mov    %rdx,0x120(%rsp)
 4b53c3d:	00 
 4b53c3e:	48 8b 54 24 78       	mov    0x78(%rsp),%rdx
 4b53c43:	48 89 94 24 28 01 00 	mov    %rdx,0x128(%rsp)
 4b53c4a:	00 
 4b53c4b:	48 8b 94 24 f8 00 00 	mov    0xf8(%rsp),%rdx
 4b53c52:	00 
 4b53c53:	48 89 94 24 18 01 00 	mov    %rdx,0x118(%rsp)
 4b53c5a:	00 
 4b53c5b:	48 8d 84 24 90 00 00 	lea    0x90(%rsp),%rax
 4b53c62:	00 
 4b53c63:	48 8b 9c 24 e8 00 00 	mov    0xe8(%rsp),%rbx
 4b53c6a:	00 
 4b53c6b:	48 8b 4c 24 60       	mov    0x60(%rsp),%rcx
 4b53c70:	e8 4b 6c 3e fd       	call   1f3a8c0 <runtime.stringtoslicebyte@@Base>
 4b53c75:	90                   	nop
 4b53c76:	48 8b 3d cb 8b 2d 03 	mov    0x32d8bcb(%rip),%rdi        # 7e2c848 <github.com/mr-tron/base58/base58.BTCAlphabet@@Base>
 4b53c7d:	0f 1f 00             	nopl   (%rax)
 4b53c80:	e8 5b df a9 ff       	call   45f1be0 <github.com/mr-tron/base58/base58.FastBase58EncodingAlphabet@@Base>
 4b53c85:	44 0f 11 bc 24 00 01 	movups %xmm15,0x100(%rsp)
 4b53c8c:	00 00 
 4b53c8e:	e8 cd a0 39 fd       	call   1eedd60 <runtime.convTstring@@Base>
 4b53c93:	48 8d 15 06 aa c5 00 	lea    0xc5aa06(%rip),%rdx        # 57ae6a0 <type:string@@Base>
 4b53c9a:	48 89 94 24 00 01 00 	mov    %rdx,0x100(%rsp)
 4b53ca1:	00 
 4b53ca2:	48 89 84 24 08 01 00 	mov    %rax,0x108(%rsp)
 4b53ca9:	00 
 4b53caa:	48 8d 05 50 b6 10 00 	lea    0x10b650(%rip),%rax        # 4c5f301 <_IO_stdin_used@@Base+0x2c301>
 4b53cb1:	bb 07 00 00 00       	mov    $0x7,%ebx
 4b53cb6:	48 8d 8c 24 00 01 00 	lea    0x100(%rsp),%rcx
 4b53cbd:	00 
 4b53cbe:	bf 01 00 00 00       	mov    $0x1,%edi
 4b53cc3:	48 89 fe             	mov    %rdi,%rsi
 4b53cc6:	e8 35 0c 4a fd       	call   1ff4900 <fmt.Sprintf@@Base>
 4b53ccb:	90                   	nop
 4b53ccc:	48 8b 94 24 10 01 00 	mov    0x110(%rsp),%rdx
 4b53cd3:	00 
 4b53cd4:	48 85 d2             	test   %rdx,%rdx
 4b53cd7:	74 12                	je     4b53ceb <github.com/lasselj/timebeat/beater/clocksync/clients/ptpsquared.GetNetworkStats@@Base+0x98b>
 4b53cd9:	4c 8d 84 24 10 01 00 	lea    0x110(%rsp),%r8
 4b53ce0:	00 
 4b53ce1:	4c 39 c2             	cmp    %r8,%rdx
 4b53ce4:	74 1d                	je     4b53d03 <github.com/lasselj/timebeat/beater/clocksync/clients/ptpsquared.GetNetworkStats@@Base+0x9a3>
 4b53ce6:	e9 44 02 00 00       	jmp    4b53f2f <github.com/lasselj/timebeat/beater/clocksync/clients/ptpsquared.GetNetworkStats@@Base+0xbcf>
 4b53ceb:	48 8d 94 24 10 01 00 	lea    0x110(%rsp),%rdx
 4b53cf2:	00 
 4b53cf3:	48 89 94 24 10 01 00 	mov    %rdx,0x110(%rsp)
 4b53cfa:	00 
 4b53cfb:	4c 8d 84 24 10 01 00 	lea    0x110(%rsp),%r8
 4b53d02:	00 
 4b53d03:	48 8b 94 24 20 01 00 	mov    0x120(%rsp),%rdx
 4b53d0a:	00 
 4b53d0b:	4c 8d 0c 13          	lea    (%rbx,%rdx,1),%r9
 4b53d0f:	48 8b 8c 24 28 01 00 	mov    0x128(%rsp),%rcx
 4b53d16:	00 
 4b53d17:	4c 8b 94 24 18 01 00 	mov    0x118(%rsp),%r10
 4b53d1e:	00 
 4b53d1f:	90                   	nop
 4b53d20:	4c 39 c9             	cmp    %r9,%rcx
 4b53d23:	73 3f                	jae    4b53d64 <github.com/lasselj/timebeat/beater/clocksync/clients/ptpsquared.GetNetworkStats@@Base+0xa04>
 4b53d25:	48 89 54 24 78       	mov    %rdx,0x78(%rsp)
 4b53d2a:	48 89 5c 24 30       	mov    %rbx,0x30(%rsp)
 4b53d2f:	48 89 84 24 b8 00 00 	mov    %rax,0xb8(%rsp)
 4b53d36:	00 
 4b53d37:	4c 89 d0             	mov    %r10,%rax
 4b53d3a:	48 89 df             	mov    %rbx,%rdi
 4b53d3d:	48 8d 35 1c ac c5 00 	lea    0xc5ac1c(%rip),%rsi        # 57ae960 <type:uint8@@Base>
 4b53d44:	4c 89 cb             	mov    %r9,%rbx
 4b53d47:	e8 74 27 3e fd       	call   1f364c0 <runtime.growslice@@Base>
 4b53d4c:	48 8b 54 24 78       	mov    0x78(%rsp),%rdx
 4b53d51:	49 89 c2             	mov    %rax,%r10
 4b53d54:	49 89 d9             	mov    %rbx,%r9
 4b53d57:	48 8b 84 24 b8 00 00 	mov    0xb8(%rsp),%rax
 4b53d5e:	00 
 4b53d5f:	48 8b 5c 24 30       	mov    0x30(%rsp),%rbx
 4b53d64:	48 89 4c 24 78       	mov    %rcx,0x78(%rsp)
 4b53d69:	4c 89 4c 24 70       	mov    %r9,0x70(%rsp)
 4b53d6e:	4c 89 94 24 f8 00 00 	mov    %r10,0xf8(%rsp)
 4b53d75:	00 
 4b53d76:	4c 01 d2             	add    %r10,%rdx
 4b53d79:	48 89 c6             	mov    %rax,%rsi
 4b53d7c:	48 89 d0             	mov    %rdx,%rax
 4b53d7f:	48 89 df             	mov    %rbx,%rdi
 4b53d82:	48 89 f3             	mov    %rsi,%rbx
 4b53d85:	48 89 f9             	mov    %rdi,%rcx
 4b53d88:	e8 13 37 40 fd       	call   1f574a0 <runtime.memmove@@Base>
 4b53d8d:	48 8b 54 24 70       	mov    0x70(%rsp),%rdx
 4b53d92:	48 89 94 24 20 01 00 	mov    %rdx,0x120(%rsp)
 4b53d99:	00 
 4b53d9a:	48 8b 54 24 78       	mov    0x78(%rsp),%rdx
 4b53d9f:	48 89 94 24 28 01 00 	mov    %rdx,0x128(%rsp)
 4b53da6:	00 
 4b53da7:	48 8b 94 24 f8 00 00 	mov    0xf8(%rsp),%rdx
 4b53dae:	00 
 4b53daf:	48 89 94 24 18 01 00 	mov    %rdx,0x118(%rsp)
 4b53db6:	00 
 4b53db7:	48 8b 54 24 68       	mov    0x68(%rsp),%rdx
 4b53dbc:	48 ff c2             	inc    %rdx
 4b53dbf:	90                   	nop
 4b53dc0:	e9 b7 f8 ff ff       	jmp    4b5367c <github.com/lasselj/timebeat/beater/clocksync/clients/ptpsquared.GetNetworkStats@@Base+0x31c>
 4b53dc5:	48 85 d2             	test   %rdx,%rdx
 4b53dc8:	0f 85 11 01 00 00    	jne    4b53edf <github.com/lasselj/timebeat/beater/clocksync/clients/ptpsquared.GetNetworkStats@@Base+0xb7f>
 4b53dce:	48 8d 05 64 03 28 00 	lea    0x280364(%rip),%rax        # 4dd4139 <_IO_stdin_used@@Base+0x1a1139>
 4b53dd5:	bb 17 00 00 00       	mov    $0x17,%ebx
 4b53dda:	31 c9                	xor    %ecx,%ecx
 4b53ddc:	31 ff                	xor    %edi,%edi
 4b53dde:	48 89 fe             	mov    %rdi,%rsi
 4b53de1:	e8 1a 0b 4a fd       	call   1ff4900 <fmt.Sprintf@@Base>
 4b53de6:	90                   	nop
 4b53de7:	48 8b 94 24 10 01 00 	mov    0x110(%rsp),%rdx
 4b53dee:	00 
 4b53def:	48 85 d2             	test   %rdx,%rdx
 4b53df2:	74 16                	je     4b53e0a <github.com/lasselj/timebeat/beater/clocksync/clients/ptpsquared.GetNetworkStats@@Base+0xaaa>
 4b53df4:	4c 8d 84 24 10 01 00 	lea    0x110(%rsp),%r8
 4b53dfb:	00 
 4b53dfc:	0f 1f 40 00          	nopl   0x0(%rax)
 4b53e00:	4c 39 c2             	cmp    %r8,%rdx
 4b53e03:	74 15                	je     4b53e1a <github.com/lasselj/timebeat/beater/clocksync/clients/ptpsquared.GetNetworkStats@@Base+0xaba>
 4b53e05:	e9 12 01 00 00       	jmp    4b53f1c <github.com/lasselj/timebeat/beater/clocksync/clients/ptpsquared.GetNetworkStats@@Base+0xbbc>
 4b53e0a:	48 8d 94 24 10 01 00 	lea    0x110(%rsp),%rdx
 4b53e11:	00 
 4b53e12:	48 89 94 24 10 01 00 	mov    %rdx,0x110(%rsp)
 4b53e19:	00 
 4b53e1a:	48 8b 94 24 20 01 00 	mov    0x120(%rsp),%rdx
 4b53e21:	00 
 4b53e22:	4c 8d 04 13          	lea    (%rbx,%rdx,1),%r8
 4b53e26:	48 8b 8c 24 28 01 00 	mov    0x128(%rsp),%rcx
 4b53e2d:	00 
 4b53e2e:	4c 8b 8c 24 18 01 00 	mov    0x118(%rsp),%r9
 4b53e35:	00 
 4b53e36:	4c 39 c1             	cmp    %r8,%rcx
 4b53e39:	73 45                	jae    4b53e80 <github.com/lasselj/timebeat/beater/clocksync/clients/ptpsquared.GetNetworkStats@@Base+0xb20>
 4b53e3b:	48 89 94 24 88 00 00 	mov    %rdx,0x88(%rsp)
 4b53e42:	00 
 4b53e43:	48 89 5c 24 28       	mov    %rbx,0x28(%rsp)
 4b53e48:	48 89 84 24 b0 00 00 	mov    %rax,0xb0(%rsp)
 4b53e4f:	00 
 4b53e50:	4c 89 c8             	mov    %r9,%rax
 4b53e53:	48 89 df             	mov    %rbx,%rdi
 4b53e56:	48 8d 35 03 ab c5 00 	lea    0xc5ab03(%rip),%rsi        # 57ae960 <type:uint8@@Base>
 4b53e5d:	4c 89 c3             	mov    %r8,%rbx
 4b53e60:	e8 5b 26 3e fd       	call   1f364c0 <runtime.growslice@@Base>
 4b53e65:	48 8b 94 24 88 00 00 	mov    0x88(%rsp),%rdx
 4b53e6c:	00 
 4b53e6d:	49 89 c1             	mov    %rax,%r9
 4b53e70:	49 89 d8             	mov    %rbx,%r8
 4b53e73:	48 8b 84 24 b0 00 00 	mov    0xb0(%rsp),%rax
 4b53e7a:	00 
 4b53e7b:	48 8b 5c 24 28       	mov    0x28(%rsp),%rbx
 4b53e80:	48 89 8c 24 88 00 00 	mov    %rcx,0x88(%rsp)
 4b53e87:	00 
 4b53e88:	4c 89 84 24 80 00 00 	mov    %r8,0x80(%rsp)
 4b53e8f:	00 
 4b53e90:	4c 89 8c 24 f8 00 00 	mov    %r9,0xf8(%rsp)
 4b53e97:	00 
 4b53e98:	4c 01 ca             	add    %r9,%rdx
 4b53e9b:	48 89 c6             	mov    %rax,%rsi
 4b53e9e:	48 89 d0             	mov    %rdx,%rax
 4b53ea1:	48 89 df             	mov    %rbx,%rdi
 4b53ea4:	48 89 f3             	mov    %rsi,%rbx
 4b53ea7:	48 89 f9             	mov    %rdi,%rcx
 4b53eaa:	e8 f1 35 40 fd       	call   1f574a0 <runtime.memmove@@Base>
 4b53eaf:	48 8b 94 24 80 00 00 	mov    0x80(%rsp),%rdx
 4b53eb6:	00 
 4b53eb7:	48 89 94 24 20 01 00 	mov    %rdx,0x120(%rsp)
 4b53ebe:	00 
 4b53ebf:	48 8b 94 24 88 00 00 	mov    0x88(%rsp),%rdx
 4b53ec6:	00 
 4b53ec7:	48 89 94 24 28 01 00 	mov    %rdx,0x128(%rsp)
 4b53ece:	00 
 4b53ecf:	48 8b 94 24 f8 00 00 	mov    0xf8(%rsp),%rdx
 4b53ed6:	00 
 4b53ed7:	48 89 94 24 18 01 00 	mov    %rdx,0x118(%rsp)
 4b53ede:	00 
 4b53edf:	48 8b 84 24 18 01 00 	mov    0x118(%rsp),%rax
 4b53ee6:	00 
 4b53ee7:	48 89 c1             	mov    %rax,%rcx
 4b53eea:	48 f7 d8             	neg    %rax
 4b53eed:	48 8b 9c 24 20 01 00 	mov    0x120(%rsp),%rbx
 4b53ef4:	00 
 4b53ef5:	48 39 c3             	cmp    %rax,%rbx
 4b53ef8:	77 13                	ja     4b53f0d <github.com/lasselj/timebeat/beater/clocksync/clients/ptpsquared.GetNetworkStats@@Base+0xbad>
 4b53efa:	48 89 c8             	mov    %rcx,%rax
 4b53efd:	48 8b ac 24 f0 01 00 	mov    0x1f0(%rsp),%rbp
 4b53f04:	00 
 4b53f05:	48 81 c4 f8 01 00 00 	add    $0x1f8,%rsp
 4b53f0c:	c3                   	ret
 4b53f0d:	48 85 c9             	test   %rcx,%rcx
 4b53f10:	74 05                	je     4b53f17 <github.com/lasselj/timebeat/beater/clocksync/clients/ptpsquared.GetNetworkStats@@Base+0xbb7>
 4b53f12:	e8 09 6d 3f fd       	call   1f4ac20 <runtime.panicunsafestringlen@@Base>
 4b53f17:	e8 44 6d 3f fd       	call   1f4ac60 <runtime.panicunsafestringnilptr@@Base>
 4b53f1c:	48 8d 05 7d a7 c5 00 	lea    0xc5a77d(%rip),%rax        # 57ae6a0 <type:string@@Base>
 4b53f23:	48 8d 1d d6 8f 3a 01 	lea    0x13a8fd6(%rip),%rbx        # 5efcf00 <golang.org/x/exp/slices..dict.siftDownOrdered[github.com/libp2p/go-libp2p/core/protocol.ID]@@Base+0x28f0>
 4b53f2a:	e8 11 8e 3c fd       	call   1f1cd40 <runtime.gopanic@@Base>
 4b53f2f:	48 8d 05 6a a7 c5 00 	lea    0xc5a76a(%rip),%rax        # 57ae6a0 <type:string@@Base>
 4b53f36:	48 8d 1d c3 8f 3a 01 	lea    0x13a8fc3(%rip),%rbx        # 5efcf00 <golang.org/x/exp/slices..dict.siftDownOrdered[github.com/libp2p/go-libp2p/core/protocol.ID]@@Base+0x28f0>
 4b53f3d:	0f 1f 00             	nopl   (%rax)
 4b53f40:	e8 fb 8d 3c fd       	call   1f1cd40 <runtime.gopanic@@Base>
 4b53f45:	48 8d 05 54 a7 c5 00 	lea    0xc5a754(%rip),%rax        # 57ae6a0 <type:string@@Base>
 4b53f4c:	48 8d 1d ad 8f 3a 01 	lea    0x13a8fad(%rip),%rbx        # 5efcf00 <golang.org/x/exp/slices..dict.siftDownOrdered[github.com/libp2p/go-libp2p/core/protocol.ID]@@Base+0x28f0>
 4b53f53:	e8 e8 8d 3c fd       	call   1f1cd40 <runtime.gopanic@@Base>
 4b53f58:	48 8d 05 41 a7 c5 00 	lea    0xc5a741(%rip),%rax        # 57ae6a0 <type:string@@Base>
 4b53f5f:	48 8d 1d 9a 8f 3a 01 	lea    0x13a8f9a(%rip),%rbx        # 5efcf00 <golang.org/x/exp/slices..dict.siftDownOrdered[github.com/libp2p/go-libp2p/core/protocol.ID]@@Base+0x28f0>
 4b53f66:	e8 d5 8d 3c fd       	call   1f1cd40 <runtime.gopanic@@Base>
 4b53f6b:	48 8d 05 2e a7 c5 00 	lea    0xc5a72e(%rip),%rax        # 57ae6a0 <type:string@@Base>
 4b53f72:	48 8d 1d 87 8f 3a 01 	lea    0x13a8f87(%rip),%rbx        # 5efcf00 <golang.org/x/exp/slices..dict.siftDownOrdered[github.com/libp2p/go-libp2p/core/protocol.ID]@@Base+0x28f0>
 4b53f79:	e8 c2 8d 3c fd       	call   1f1cd40 <runtime.gopanic@@Base>
 4b53f7e:	48 8d 05 1b a7 c5 00 	lea    0xc5a71b(%rip),%rax        # 57ae6a0 <type:string@@Base>
 4b53f85:	48 8d 1d 74 8f 3a 01 	lea    0x13a8f74(%rip),%rbx        # 5efcf00 <golang.org/x/exp/slices..dict.siftDownOrdered[github.com/libp2p/go-libp2p/core/protocol.ID]@@Base+0x28f0>
 4b53f8c:	e8 af 8d 3c fd       	call   1f1cd40 <runtime.gopanic@@Base>
 4b53f91:	48 8d 05 08 a7 c5 00 	lea    0xc5a708(%rip),%rax        # 57ae6a0 <type:string@@Base>
 4b53f98:	48 8d 1d 61 8f 3a 01 	lea    0x13a8f61(%rip),%rbx        # 5efcf00 <golang.org/x/exp/slices..dict.siftDownOrdered[github.com/libp2p/go-libp2p/core/protocol.ID]@@Base+0x28f0>
 4b53f9f:	90                   	nop
 4b53fa0:	e8 9b 8d 3c fd       	call   1f1cd40 <runtime.gopanic@@Base>
 4b53fa5:	90                   	nop
 4b53fa6:	e8 b5 04 40 fd       	call   1f54460 <runtime.morestack_noctxt.abi0@@Base>
 4b53fab:	e9 b0 f3 ff ff       	jmp    4b53360 <github.com/lasselj/timebeat/beater/clocksync/clients/ptpsquared.GetNetworkStats@@Base>
 4b53fb0:	cc                   	int3
 4b53fb1:	cc                   	int3
 4b53fb2:	cc                   	int3
 4b53fb3:	cc                   	int3
 4b53fb4:	cc                   	int3
 4b53fb5:	cc                   	int3
 4b53fb6:	cc                   	int3
 4b53fb7:	cc                   	int3
 4b53fb8:	cc                   	int3
 4b53fb9:	cc                   	int3
 4b53fba:	cc                   	int3
 4b53fbb:	cc                   	int3
 4b53fbc:	cc                   	int3
 4b53fbd:	cc                   	int3
 4b53fbe:	cc                   	int3
 4b53fbf:	cc                   	int3
