# github.com/lasselj/timebeat/beater/clocksync/clients/ptpsquared.init.0
# addr 0x4b628a0 size 224 (0xe0)


/mnt/c/Users/SHIWA/GitHub/TimeCard-Mini/timebeat-extracted/usr/share/timebeat/bin/timebeat:     file format elf64-x86-64


Disassembly of section .text:

0000000004b628a0 <github.com/lasselj/timebeat/beater/clocksync/clients/ptpsquared.init.0@@Base>:
 4b628a0:	49 3b 66 10          	cmp    0x10(%r14),%rsp
 4b628a4:	0f 86 b9 00 00 00    	jbe    4b62963 <github.com/lasselj/timebeat/beater/clocksync/clients/ptpsquared.init.0@@Base+0xc3>
 4b628aa:	48 83 ec 28          	sub    $0x28,%rsp
 4b628ae:	48 89 6c 24 20       	mov    %rbp,0x20(%rsp)
 4b628b3:	48 8d 6c 24 20       	lea    0x20(%rsp),%rbp
 4b628b8:	48 8d 05 91 6c 3c 01 	lea    0x13c6c91(%rip),%rax        # 5f29550 <go:itab.*github.com/lasselj/timebeat/beater/clocksync/clients/ptpsquared.MessageData,github.com/gogo/protobuf/proto.Message@@Base>
 4b628bf:	31 db                	xor    %ebx,%ebx
 4b628c1:	48 8d 0d 4d f9 26 00 	lea    0x26f94d(%rip),%rcx        # 4dd2215 <_IO_stdin_used@@Base+0x19f215>
 4b628c8:	bf 16 00 00 00       	mov    $0x16,%edi
 4b628cd:	e8 2e ea c8 fe       	call   37f1300 <github.com/gogo/protobuf/proto.RegisterType@@Base>
 4b628d2:	48 8d 05 17 6c 3c 01 	lea    0x13c6c17(%rip),%rax        # 5f294f0 <go:itab.*github.com/lasselj/timebeat/beater/clocksync/clients/ptpsquared.Capability,github.com/gogo/protobuf/proto.Message@@Base>
 4b628d9:	31 db                	xor    %ebx,%ebx
 4b628db:	48 8d 0d 1b bd 26 00 	lea    0x26bd1b(%rip),%rcx        # 4dce5fd <_IO_stdin_used@@Base+0x19b5fd>
 4b628e2:	bf 15 00 00 00       	mov    $0x15,%edi
 4b628e7:	e8 14 ea c8 fe       	call   37f1300 <github.com/gogo/protobuf/proto.RegisterType@@Base>
 4b628ec:	48 8d 05 ed 6c 3c 01 	lea    0x13c6ced(%rip),%rax        # 5f295e0 <go:itab.*github.com/lasselj/timebeat/beater/clocksync/clients/ptpsquared.UpstreamQuality,github.com/gogo/protobuf/proto.Message@@Base>
 4b628f3:	31 db                	xor    %ebx,%ebx
 4b628f5:	48 8d 0d cc f3 27 00 	lea    0x27f3cc(%rip),%rcx        # 4de1cc8 <_IO_stdin_used@@Base+0x1aecc8>
 4b628fc:	bf 1a 00 00 00       	mov    $0x1a,%edi
 4b62901:	e8 fa e9 c8 fe       	call   37f1300 <github.com/gogo/protobuf/proto.RegisterType@@Base>
 4b62906:	48 8d 05 a3 6c 3c 01 	lea    0x13c6ca3(%rip),%rax        # 5f295b0 <go:itab.*github.com/lasselj/timebeat/beater/clocksync/clients/ptpsquared.PTPSetupPeerMessage,github.com/gogo/protobuf/proto.Message@@Base>
 4b6290d:	31 db                	xor    %ebx,%ebx
 4b6290f:	48 8d 0d f3 f5 28 00 	lea    0x28f5f3(%rip),%rcx        # 4df1f09 <_IO_stdin_used@@Base+0x1bef09>
 4b62916:	bf 1e 00 00 00       	mov    $0x1e,%edi
 4b6291b:	0f 1f 44 00 00       	nopl   0x0(%rax,%rax,1)
 4b62920:	e8 db e9 c8 fe       	call   37f1300 <github.com/gogo/protobuf/proto.RegisterType@@Base>
 4b62925:	48 8d 05 f4 6b 3c 01 	lea    0x13c6bf4(%rip),%rax        # 5f29520 <go:itab.*github.com/lasselj/timebeat/beater/clocksync/clients/ptpsquared.DMS,github.com/gogo/protobuf/proto.Message@@Base>
 4b6292c:	31 db                	xor    %ebx,%ebx
 4b6292e:	48 8d 0d 6d 0e 17 00 	lea    0x170e6d(%rip),%rcx        # 4cd37a2 <_IO_stdin_used@@Base+0xa07a2>
 4b62935:	bf 0e 00 00 00       	mov    $0xe,%edi
 4b6293a:	e8 c1 e9 c8 fe       	call   37f1300 <github.com/gogo/protobuf/proto.RegisterType@@Base>
 4b6293f:	48 8d 05 3a 6c 3c 01 	lea    0x13c6c3a(%rip),%rax        # 5f29580 <go:itab.*github.com/lasselj/timebeat/beater/clocksync/clients/ptpsquared.PTPSetupCapacityAnnounceMessage,github.com/gogo/protobuf/proto.Message@@Base>
 4b62946:	31 db                	xor    %ebx,%ebx
 4b62948:	48 8d 0d 1b ed 2b 00 	lea    0x2bed1b(%rip),%rcx        # 4e2166a <_IO_stdin_used@@Base+0x1ee66a>
 4b6294f:	bf 2a 00 00 00       	mov    $0x2a,%edi
 4b62954:	e8 a7 e9 c8 fe       	call   37f1300 <github.com/gogo/protobuf/proto.RegisterType@@Base>
 4b62959:	48 8b 6c 24 20       	mov    0x20(%rsp),%rbp
 4b6295e:	48 83 c4 28          	add    $0x28,%rsp
 4b62962:	c3                   	ret
 4b62963:	e8 f8 1a 3f fd       	call   1f54460 <runtime.morestack_noctxt.abi0@@Base>
 4b62968:	e9 33 ff ff ff       	jmp    4b628a0 <github.com/lasselj/timebeat/beater/clocksync/clients/ptpsquared.init.0@@Base>
 4b6296d:	cc                   	int3
 4b6296e:	cc                   	int3
 4b6296f:	cc                   	int3
 4b62970:	cc                   	int3
 4b62971:	cc                   	int3
 4b62972:	cc                   	int3
 4b62973:	cc                   	int3
 4b62974:	cc                   	int3
 4b62975:	cc                   	int3
 4b62976:	cc                   	int3
 4b62977:	cc                   	int3
 4b62978:	cc                   	int3
 4b62979:	cc                   	int3
 4b6297a:	cc                   	int3
 4b6297b:	cc                   	int3
 4b6297c:	cc                   	int3
 4b6297d:	cc                   	int3
 4b6297e:	cc                   	int3
 4b6297f:	cc                   	int3
