# github.com/lasselj/timebeat/beater/clocksync/clients/ptpsquared.(*NodeDiscovery).CalculateRootDistanceOrder
# addr 0x4b5b140 size 384 (0x180)


/mnt/c/Users/SHIWA/GitHub/TimeCard-Mini/timebeat-extracted/usr/share/timebeat/bin/timebeat:     file format elf64-x86-64


Disassembly of section .text:

0000000004b5b140 <github.com/lasselj/timebeat/beater/clocksync/clients/ptpsquared.(*NodeDiscovery).CalculateRootDistanceOrder@@Base>:
 4b5b140:	4c 8d a4 24 10 ff ff 	lea    -0xf0(%rsp),%r12
 4b5b147:	ff 
 4b5b148:	4d 3b 66 10          	cmp    0x10(%r14),%r12
 4b5b14c:	0f 86 52 01 00 00    	jbe    4b5b2a4 <github.com/lasselj/timebeat/beater/clocksync/clients/ptpsquared.(*NodeDiscovery).CalculateRootDistanceOrder@@Base+0x164>
 4b5b152:	48 81 ec 70 01 00 00 	sub    $0x170,%rsp
 4b5b159:	48 89 ac 24 68 01 00 	mov    %rbp,0x168(%rsp)
 4b5b160:	00 
 4b5b161:	48 8d ac 24 68 01 00 	lea    0x168(%rsp),%rbp
 4b5b168:	00 
 4b5b169:	48 89 84 24 78 01 00 	mov    %rax,0x178(%rsp)
 4b5b170:	00 
 4b5b171:	44 0f 11 7c 24 28    	movups %xmm15,0x28(%rsp)
 4b5b177:	44 0f 11 7c 24 38    	movups %xmm15,0x38(%rsp)
 4b5b17d:	44 0f 11 7c 24 48    	movups %xmm15,0x48(%rsp)
 4b5b183:	48 8d bc 24 b8 00 00 	lea    0xb8(%rsp),%rdi
 4b5b18a:	00 
 4b5b18b:	48 8d 7f f0          	lea    -0x10(%rdi),%rdi
 4b5b18f:	66 0f 1f 84 00 00 00 	nopw   0x0(%rax,%rax,1)
 4b5b196:	00 00 
 4b5b198:	0f 1f 84 00 00 00 00 	nopl   0x0(%rax,%rax,1)
 4b5b19f:	00 
 4b5b1a0:	48 89 6c 24 f0       	mov    %rbp,-0x10(%rsp)
 4b5b1a5:	48 8d 6c 24 f0       	lea    -0x10(%rsp),%rbp
 4b5b1aa:	e8 00 bc 3f fd       	call   1f56daf <runtime.duffzero@@Base+0x12f>
 4b5b1af:	48 8b 6d 00          	mov    0x0(%rbp),%rbp
 4b5b1b3:	48 8d 8c 24 b8 00 00 	lea    0xb8(%rsp),%rcx
 4b5b1ba:	00 
 4b5b1bb:	48 89 4c 24 38       	mov    %rcx,0x38(%rsp)
 4b5b1c0:	e8 bb 03 3e fd       	call   1f3b580 <runtime.fastrand@@Base>
 4b5b1c5:	89 44 24 34          	mov    %eax,0x34(%rsp)
 4b5b1c9:	48 8b 84 24 78 01 00 	mov    0x178(%rsp),%rax
 4b5b1d0:	00 
 4b5b1d1:	48 8b 48 20          	mov    0x20(%rax),%rcx
 4b5b1d5:	48 8b 59 10          	mov    0x10(%rcx),%rbx
 4b5b1d9:	48 8d 7c 24 58       	lea    0x58(%rsp),%rdi
 4b5b1de:	48 8d 7f e0          	lea    -0x20(%rdi),%rdi
 4b5b1e2:	48 89 6c 24 f0       	mov    %rbp,-0x10(%rsp)
 4b5b1e7:	48 8d 6c 24 f0       	lea    -0x10(%rsp),%rbp
 4b5b1ec:	e8 da bb 3f fd       	call   1f56dcb <runtime.duffzero@@Base+0x14b>
 4b5b1f1:	48 8b 6d 00          	mov    0x0(%rbp),%rbp
 4b5b1f5:	48 8d 4c 24 58       	lea    0x58(%rsp),%rcx
 4b5b1fa:	48 8d 05 3f 41 de 00 	lea    0xde413f(%rip),%rax        # 593f340 <type:aWDbbjFQ@@Base>
 4b5b201:	e8 ba 74 39 fd       	call   1ef26c0 <runtime.mapiterinit@@Base>
 4b5b206:	eb 0a                	jmp    4b5b212 <github.com/lasselj/timebeat/beater/clocksync/clients/ptpsquared.(*NodeDiscovery).CalculateRootDistanceOrder@@Base+0xd2>
 4b5b208:	48 8d 44 24 58       	lea    0x58(%rsp),%rax
 4b5b20d:	e8 2e 77 39 fd       	call   1ef2940 <runtime.mapiternext@@Base>
 4b5b212:	48 8b 54 24 58       	mov    0x58(%rsp),%rdx
 4b5b217:	48 85 d2             	test   %rdx,%rdx
 4b5b21a:	74 46                	je     4b5b262 <github.com/lasselj/timebeat/beater/clocksync/clients/ptpsquared.(*NodeDiscovery).CalculateRootDistanceOrder@@Base+0x122>
 4b5b21c:	48 8b 74 24 60       	mov    0x60(%rsp),%rsi
 4b5b221:	48 8b 36             	mov    (%rsi),%rsi
 4b5b224:	48 8b 0a             	mov    (%rdx),%rcx
 4b5b227:	48 8b 7a 08          	mov    0x8(%rdx),%rdi
 4b5b22b:	48 83 7e 10 00       	cmpq   $0x0,0x10(%rsi)
 4b5b230:	75 d6                	jne    4b5b208 <github.com/lasselj/timebeat/beater/clocksync/clients/ptpsquared.(*NodeDiscovery).CalculateRootDistanceOrder@@Base+0xc8>
 4b5b232:	48 8b 16             	mov    (%rsi),%rdx
 4b5b235:	48 8b 52 10          	mov    0x10(%rdx),%rdx
 4b5b239:	f3 0f 10 02          	movss  (%rdx),%xmm0
 4b5b23d:	f3 0f 11 44 24 24    	movss  %xmm0,0x24(%rsp)
 4b5b243:	48 8d 05 96 7a ec 00 	lea    0xec7a96(%rip),%rax        # 5a22ce0 <type:5XCdKkNQ@@Base>
 4b5b24a:	48 8d 5c 24 28       	lea    0x28(%rsp),%rbx
 4b5b24f:	e8 8c af 39 fd       	call   1ef61e0 <runtime.mapassign_faststr@@Base>
 4b5b254:	f3 0f 10 44 24 24    	movss  0x24(%rsp),%xmm0
 4b5b25a:	f3 0f 11 00          	movss  %xmm0,(%rax)
 4b5b25e:	66 90                	xchg   %ax,%ax
 4b5b260:	eb a6                	jmp    4b5b208 <github.com/lasselj/timebeat/beater/clocksync/clients/ptpsquared.(*NodeDiscovery).CalculateRootDistanceOrder@@Base+0xc8>
 4b5b262:	48 8d 44 24 28       	lea    0x28(%rsp),%rax
 4b5b267:	e8 d4 c3 00 00       	call   4b67640 <github.com/lasselj/timebeat/beater/clocksync/clients/ptpsquared.getSortedPairList@@Base>
 4b5b26c:	48 8b bc 24 78 01 00 	mov    0x178(%rsp),%rdi
 4b5b273:	00 
 4b5b274:	48 89 5f 48          	mov    %rbx,0x48(%rdi)
 4b5b278:	48 89 4f 50          	mov    %rcx,0x50(%rdi)
 4b5b27c:	83 3d dd 06 32 03 00 	cmpl   $0x0,0x33206dd(%rip)        # 7e7b960 <runtime.writeBarrier@@Base>
 4b5b283:	75 06                	jne    4b5b28b <github.com/lasselj/timebeat/beater/clocksync/clients/ptpsquared.(*NodeDiscovery).CalculateRootDistanceOrder@@Base+0x14b>
 4b5b285:	48 89 47 40          	mov    %rax,0x40(%rdi)
 4b5b289:	eb 09                	jmp    4b5b294 <github.com/lasselj/timebeat/beater/clocksync/clients/ptpsquared.(*NodeDiscovery).CalculateRootDistanceOrder@@Base+0x154>
 4b5b28b:	48 83 c7 40          	add    $0x40,%rdi
 4b5b28f:	e8 6c b3 3f fd       	call   1f56600 <runtime.gcWriteBarrier@@Base>
 4b5b294:	48 8b ac 24 68 01 00 	mov    0x168(%rsp),%rbp
 4b5b29b:	00 
 4b5b29c:	48 81 c4 70 01 00 00 	add    $0x170,%rsp
 4b5b2a3:	c3                   	ret
 4b5b2a4:	48 89 44 24 08       	mov    %rax,0x8(%rsp)
 4b5b2a9:	e8 b2 91 3f fd       	call   1f54460 <runtime.morestack_noctxt.abi0@@Base>
 4b5b2ae:	48 8b 44 24 08       	mov    0x8(%rsp),%rax
 4b5b2b3:	e9 88 fe ff ff       	jmp    4b5b140 <github.com/lasselj/timebeat/beater/clocksync/clients/ptpsquared.(*NodeDiscovery).CalculateRootDistanceOrder@@Base>
 4b5b2b8:	cc                   	int3
 4b5b2b9:	cc                   	int3
 4b5b2ba:	cc                   	int3
 4b5b2bb:	cc                   	int3
 4b5b2bc:	cc                   	int3
 4b5b2bd:	cc                   	int3
 4b5b2be:	cc                   	int3
 4b5b2bf:	cc                   	int3
