# github.com/lasselj/timebeat/beater/clocksync/clients/vendors/timebeat/open_timecard_mini_v2_pt/client.(*Client).decorateObservation
# addr 0x4b991c0 size 384 (0x180)


/mnt/c/Users/SHIWA/GitHub/TimeCard-Mini/timebeat-extracted/usr/share/timebeat/bin/timebeat:     file format elf64-x86-64


Disassembly of section .text:

0000000004b991c0 <github.com/lasselj/timebeat/beater/clocksync/clients/vendors/timebeat/open_timecard_mini_v2_pt/client.(*Client).decorateObservation@@Base>:
 4b991c0:	49 3b 66 10          	cmp    0x10(%r14),%rsp
 4b991c4:	0f 86 44 01 00 00    	jbe    4b9930e <github.com/lasselj/timebeat/beater/clocksync/clients/vendors/timebeat/open_timecard_mini_v2_pt/client.(*Client).decorateObservation@@Base+0x14e>
 4b991ca:	48 83 ec 40          	sub    $0x40,%rsp
 4b991ce:	48 89 6c 24 38       	mov    %rbp,0x38(%rsp)
 4b991d3:	48 8d 6c 24 38       	lea    0x38(%rsp),%rbp
 4b991d8:	48 89 44 24 48       	mov    %rax,0x48(%rsp)
 4b991dd:	48 89 5c 24 50       	mov    %rbx,0x50(%rsp)
 4b991e2:	48 c7 83 b8 00 00 00 	movq   $0x5,0xb8(%rbx)
 4b991e9:	05 00 00 00 
 4b991ed:	44 0f 11 7c 24 28    	movups %xmm15,0x28(%rsp)
 4b991f3:	48 8b 88 70 02 00 00 	mov    0x270(%rax),%rcx
 4b991fa:	48 8b 90 78 02 00 00 	mov    0x278(%rax),%rdx
 4b99201:	48 89 c8             	mov    %rcx,%rax
 4b99204:	48 89 d3             	mov    %rdx,%rbx
 4b99207:	e8 54 4b 35 fd       	call   1eedd60 <runtime.convTstring@@Base>
 4b9920c:	48 8d 0d 8d 54 c1 00 	lea    0xc1548d(%rip),%rcx        # 57ae6a0 <type:string@@Base>
 4b99213:	48 89 4c 24 28       	mov    %rcx,0x28(%rsp)
 4b99218:	48 89 44 24 30       	mov    %rax,0x30(%rsp)
 4b9921d:	48 8d 05 62 61 0c 00 	lea    0xc6162(%rip),%rax        # 4c5f386 <_IO_stdin_used@@Base+0x2c386>
 4b99224:	bb 07 00 00 00       	mov    $0x7,%ebx
 4b99229:	48 8d 4c 24 28       	lea    0x28(%rsp),%rcx
 4b9922e:	bf 01 00 00 00       	mov    $0x1,%edi
 4b99233:	48 89 fe             	mov    %rdi,%rsi
 4b99236:	e8 c5 b6 45 fd       	call   1ff4900 <fmt.Sprintf@@Base>
 4b9923b:	48 8b 7c 24 50       	mov    0x50(%rsp),%rdi
 4b99240:	48 89 5f 18          	mov    %rbx,0x18(%rdi)
 4b99244:	83 3d 15 27 2e 03 00 	cmpl   $0x0,0x32e2715(%rip)        # 7e7b960 <runtime.writeBarrier@@Base>
 4b9924b:	75 06                	jne    4b99253 <github.com/lasselj/timebeat/beater/clocksync/clients/vendors/timebeat/open_timecard_mini_v2_pt/client.(*Client).decorateObservation@@Base+0x93>
 4b9924d:	48 89 47 10          	mov    %rax,0x10(%rdi)
 4b99251:	eb 15                	jmp    4b99268 <github.com/lasselj/timebeat/beater/clocksync/clients/vendors/timebeat/open_timecard_mini_v2_pt/client.(*Client).decorateObservation@@Base+0xa8>
 4b99253:	48 8d 4f 10          	lea    0x10(%rdi),%rcx
 4b99257:	48 89 fa             	mov    %rdi,%rdx
 4b9925a:	48 89 cf             	mov    %rcx,%rdi
 4b9925d:	0f 1f 00             	nopl   (%rax)
 4b99260:	e8 9b d3 3b fd       	call   1f56600 <runtime.gcWriteBarrier@@Base>
 4b99265:	48 89 d7             	mov    %rdx,%rdi
 4b99268:	48 8b 44 24 48       	mov    0x48(%rsp),%rax
 4b9926d:	48 8b 88 08 01 00 00 	mov    0x108(%rax),%rcx
 4b99274:	48 8b 90 10 01 00 00 	mov    0x110(%rax),%rdx
 4b9927b:	48 89 57 28          	mov    %rdx,0x28(%rdi)
 4b9927f:	83 3d da 26 2e 03 00 	cmpl   $0x0,0x32e26da(%rip)        # 7e7b960 <runtime.writeBarrier@@Base>
 4b99286:	75 06                	jne    4b9928e <github.com/lasselj/timebeat/beater/clocksync/clients/vendors/timebeat/open_timecard_mini_v2_pt/client.(*Client).decorateObservation@@Base+0xce>
 4b99288:	48 89 4f 20          	mov    %rcx,0x20(%rdi)
 4b9928c:	eb 12                	jmp    4b992a0 <github.com/lasselj/timebeat/beater/clocksync/clients/vendors/timebeat/open_timecard_mini_v2_pt/client.(*Client).decorateObservation@@Base+0xe0>
 4b9928e:	48 8d 57 20          	lea    0x20(%rdi),%rdx
 4b99292:	48 89 fb             	mov    %rdi,%rbx
 4b99295:	48 89 d7             	mov    %rdx,%rdi
 4b99298:	e8 63 d4 3b fd       	call   1f56700 <runtime.gcWriteBarrierCX@@Base>
 4b9929d:	48 89 df             	mov    %rbx,%rdi
 4b992a0:	48 8b 88 60 02 00 00 	mov    0x260(%rax),%rcx
 4b992a7:	48 89 4f 40          	mov    %rcx,0x40(%rdi)
 4b992ab:	80 b8 01 01 00 00 00 	cmpb   $0x0,0x101(%rax)
 4b992b2:	74 07                	je     4b992bb <github.com/lasselj/timebeat/beater/clocksync/clients/vendors/timebeat/open_timecard_mini_v2_pt/client.(*Client).decorateObservation@@Base+0xfb>
 4b992b4:	c6 87 98 00 00 00 01 	movb   $0x1,0x98(%rdi)
 4b992bb:	48 8b 88 78 01 00 00 	mov    0x178(%rax),%rcx
 4b992c2:	48 8b 90 80 01 00 00 	mov    0x180(%rax),%rdx
 4b992c9:	48 89 97 c8 00 00 00 	mov    %rdx,0xc8(%rdi)
 4b992d0:	83 3d 89 26 2e 03 00 	cmpl   $0x0,0x32e2689(%rip)        # 7e7b960 <runtime.writeBarrier@@Base>
 4b992d7:	75 09                	jne    4b992e2 <github.com/lasselj/timebeat/beater/clocksync/clients/vendors/timebeat/open_timecard_mini_v2_pt/client.(*Client).decorateObservation@@Base+0x122>
 4b992d9:	48 89 8f c0 00 00 00 	mov    %rcx,0xc0(%rdi)
 4b992e0:	eb 15                	jmp    4b992f7 <github.com/lasselj/timebeat/beater/clocksync/clients/vendors/timebeat/open_timecard_mini_v2_pt/client.(*Client).decorateObservation@@Base+0x137>
 4b992e2:	48 8d 97 c0 00 00 00 	lea    0xc0(%rdi),%rdx
 4b992e9:	48 89 fb             	mov    %rdi,%rbx
 4b992ec:	48 89 d7             	mov    %rdx,%rdi
 4b992ef:	e8 0c d4 3b fd       	call   1f56700 <runtime.gcWriteBarrierCX@@Base>
 4b992f4:	48 89 df             	mov    %rbx,%rdi
 4b992f7:	48 8b 0f             	mov    (%rdi),%rcx
 4b992fa:	48 03 88 28 01 00 00 	add    0x128(%rax),%rcx
 4b99301:	48 89 0f             	mov    %rcx,(%rdi)
 4b99304:	48 8b 6c 24 38       	mov    0x38(%rsp),%rbp
 4b99309:	48 83 c4 40          	add    $0x40,%rsp
 4b9930d:	c3                   	ret
 4b9930e:	48 89 44 24 08       	mov    %rax,0x8(%rsp)
 4b99313:	48 89 5c 24 10       	mov    %rbx,0x10(%rsp)
 4b99318:	e8 43 b1 3b fd       	call   1f54460 <runtime.morestack_noctxt.abi0@@Base>
 4b9931d:	48 8b 44 24 08       	mov    0x8(%rsp),%rax
 4b99322:	48 8b 5c 24 10       	mov    0x10(%rsp),%rbx
 4b99327:	e9 94 fe ff ff       	jmp    4b991c0 <github.com/lasselj/timebeat/beater/clocksync/clients/vendors/timebeat/open_timecard_mini_v2_pt/client.(*Client).decorateObservation@@Base>
 4b9932c:	cc                   	int3
 4b9932d:	cc                   	int3
 4b9932e:	cc                   	int3
 4b9932f:	cc                   	int3
 4b99330:	cc                   	int3
 4b99331:	cc                   	int3
 4b99332:	cc                   	int3
 4b99333:	cc                   	int3
 4b99334:	cc                   	int3
 4b99335:	cc                   	int3
 4b99336:	cc                   	int3
 4b99337:	cc                   	int3
 4b99338:	cc                   	int3
 4b99339:	cc                   	int3
 4b9933a:	cc                   	int3
 4b9933b:	cc                   	int3
 4b9933c:	cc                   	int3
 4b9933d:	cc                   	int3
 4b9933e:	cc                   	int3
 4b9933f:	cc                   	int3
