# github.com/lasselj/timebeat/beater/clocksync/taas.(*Controller).createVLANiface
# addr 0x4be99c0 size 1120 (0x460)


/mnt/c/Users/SHIWA/GitHub/TimeCard-Mini/timebeat-extracted/usr/share/timebeat/bin/timebeat:     file format elf64-x86-64


Disassembly of section .text:

0000000004be99c0 <github.com/lasselj/timebeat/beater/clocksync/taas.(*Controller).createVLANiface@@Base>:
 4be99c0:	4c 8d a4 24 e0 fe ff 	lea    -0x120(%rsp),%r12
 4be99c7:	ff 
 4be99c8:	4d 3b 66 10          	cmp    0x10(%r14),%r12
 4be99cc:	0f 86 0f 04 00 00    	jbe    4be9de1 <github.com/lasselj/timebeat/beater/clocksync/taas.(*Controller).createVLANiface@@Base+0x421>
 4be99d2:	48 81 ec a0 01 00 00 	sub    $0x1a0,%rsp
 4be99d9:	48 89 ac 24 98 01 00 	mov    %rbp,0x198(%rsp)
 4be99e0:	00 
 4be99e1:	48 8d ac 24 98 01 00 	lea    0x198(%rsp),%rbp
 4be99e8:	00 
 4be99e9:	48 89 84 24 a8 01 00 	mov    %rax,0x1a8(%rsp)
 4be99f0:	00 
 4be99f1:	48 89 8c 24 b8 01 00 	mov    %rcx,0x1b8(%rsp)
 4be99f8:	00 
 4be99f9:	48 89 9c 24 b0 01 00 	mov    %rbx,0x1b0(%rsp)
 4be9a00:	00 
 4be9a01:	48 89 bc 24 c0 01 00 	mov    %rdi,0x1c0(%rsp)
 4be9a08:	00 
 4be9a09:	48 8b 15 e0 4f d9 02 	mov    0x2d94fe0(%rip),%rdx        # 797e9f0 <github.com/vishvananda/netlink.pkgHandle@@Base>
 4be9a10:	48 89 d0             	mov    %rdx,%rax
 4be9a13:	e8 48 79 fe ff       	call   4bd1360 <github.com/vishvananda/netlink.(*Handle).LinkByName@@Base>
 4be9a18:	48 89 44 24 38       	mov    %rax,0x38(%rsp)
 4be9a1d:	48 89 5c 24 50       	mov    %rbx,0x50(%rsp)
 4be9a22:	48 85 c9             	test   %rcx,%rcx
 4be9a25:	0f 84 9a 00 00 00    	je     4be9ac5 <github.com/lasselj/timebeat/beater/clocksync/taas.(*Controller).createVLANiface@@Base+0x105>
 4be9a2b:	48 89 7c 24 48       	mov    %rdi,0x48(%rsp)
 4be9a30:	48 89 4c 24 28       	mov    %rcx,0x28(%rsp)
 4be9a35:	44 0f 11 7c 24 70    	movups %xmm15,0x70(%rsp)
 4be9a3b:	44 0f 11 bc 24 80 00 	movups %xmm15,0x80(%rsp)
 4be9a42:	00 00 
 4be9a44:	48 8b 84 24 b0 01 00 	mov    0x1b0(%rsp),%rax
 4be9a4b:	00 
 4be9a4c:	48 8b 9c 24 b8 01 00 	mov    0x1b8(%rsp),%rbx
 4be9a53:	00 
 4be9a54:	e8 07 43 30 fd       	call   1eedd60 <runtime.convTstring@@Base>
 4be9a59:	48 8d 0d 40 4c bc 00 	lea    0xbc4c40(%rip),%rcx        # 57ae6a0 <type:string@@Base>
 4be9a60:	48 89 4c 24 70       	mov    %rcx,0x70(%rsp)
 4be9a65:	48 89 44 24 78       	mov    %rax,0x78(%rsp)
 4be9a6a:	48 8b 54 24 28       	mov    0x28(%rsp),%rdx
 4be9a6f:	48 85 d2             	test   %rdx,%rdx
 4be9a72:	74 04                	je     4be9a78 <github.com/lasselj/timebeat/beater/clocksync/taas.(*Controller).createVLANiface@@Base+0xb8>
 4be9a74:	48 8b 52 08          	mov    0x8(%rdx),%rdx
 4be9a78:	48 89 94 24 80 00 00 	mov    %rdx,0x80(%rsp)
 4be9a7f:	00 
 4be9a80:	48 8b 54 24 48       	mov    0x48(%rsp),%rdx
 4be9a85:	48 89 94 24 88 00 00 	mov    %rdx,0x88(%rsp)
 4be9a8c:	00 
 4be9a8d:	48 8d 05 f3 b3 21 00 	lea    0x21b3f3(%rip),%rax        # 4e04e87 <_IO_stdin_used@@Base+0x1d1e87>
 4be9a94:	bb 23 00 00 00       	mov    $0x23,%ebx
 4be9a99:	48 8d 4c 24 70       	lea    0x70(%rsp),%rcx
 4be9a9e:	bf 02 00 00 00       	mov    $0x2,%edi
 4be9aa3:	48 89 fe             	mov    %rdi,%rsi
 4be9aa6:	e8 55 ae 40 fd       	call   1ff4900 <fmt.Sprintf@@Base>
 4be9aab:	48 8b 94 24 a8 01 00 	mov    0x1a8(%rsp),%rdx
 4be9ab2:	00 
 4be9ab3:	4c 8b 02             	mov    (%rdx),%r8
 4be9ab6:	48 89 d9             	mov    %rbx,%rcx
 4be9ab9:	48 89 c3             	mov    %rax,%rbx
 4be9abc:	4c 89 c0             	mov    %r8,%rax
 4be9abf:	90                   	nop
 4be9ac0:	e8 9b d5 81 ff       	call   4407060 <github.com/lasselj/timebeat/beater/logging.(*Logger).Error@@Base>
 4be9ac5:	44 0f 11 bc 24 90 00 	movups %xmm15,0x90(%rsp)
 4be9acc:	00 00 
 4be9ace:	48 8d bc 24 98 00 00 	lea    0x98(%rsp),%rdi
 4be9ad5:	00 
 4be9ad6:	66 0f 1f 84 00 00 00 	nopw   0x0(%rax,%rax,1)
 4be9add:	00 00 
 4be9adf:	90                   	nop
 4be9ae0:	48 89 6c 24 f0       	mov    %rbp,-0x10(%rsp)
 4be9ae5:	48 8d 6c 24 f0       	lea    -0x10(%rsp),%rbp
 4be9aea:	e8 a5 d2 36 fd       	call   1f56d94 <runtime.duffzero@@Base+0x114>
 4be9aef:	48 8b 6d 00          	mov    0x0(%rbp),%rbp
 4be9af3:	48 c7 84 24 a0 00 00 	movq   $0xffffffffffffffff,0xa0(%rsp)
 4be9afa:	00 ff ff ff ff 
 4be9aff:	44 0f 11 7c 24 70    	movups %xmm15,0x70(%rsp)
 4be9b05:	44 0f 11 bc 24 80 00 	movups %xmm15,0x80(%rsp)
 4be9b0c:	00 00 
 4be9b0e:	48 8d 0d 8b 4b bc 00 	lea    0xbc4b8b(%rip),%rcx        # 57ae6a0 <type:string@@Base>
 4be9b15:	48 89 4c 24 70       	mov    %rcx,0x70(%rsp)
 4be9b1a:	48 8d 15 27 97 30 01 	lea    0x1309727(%rip),%rdx        # 5ef3248 <time..dict.leadingInt[string]@@Base+0x2fb8>
 4be9b21:	48 89 54 24 78       	mov    %rdx,0x78(%rsp)
 4be9b26:	48 8b 84 24 c0 01 00 	mov    0x1c0(%rsp),%rax
 4be9b2d:	00 
 4be9b2e:	e8 ad 41 30 fd       	call   1eedce0 <runtime.convT64@@Base>
 4be9b33:	48 8d 0d 26 0b bc 00 	lea    0xbc0b26(%rip),%rcx        # 57aa660 <type:int@@Base>
 4be9b3a:	48 89 8c 24 80 00 00 	mov    %rcx,0x80(%rsp)
 4be9b41:	00 
 4be9b42:	48 89 84 24 88 00 00 	mov    %rax,0x88(%rsp)
 4be9b49:	00 
 4be9b4a:	48 8d 05 9c d7 07 00 	lea    0x7d79c(%rip),%rax        # 4c672ed <_IO_stdin_used@@Base+0x342ed>
 4be9b51:	bb 0a 00 00 00       	mov    $0xa,%ebx
 4be9b56:	48 8d 4c 24 70       	lea    0x70(%rsp),%rcx
 4be9b5b:	bf 02 00 00 00       	mov    $0x2,%edi
 4be9b60:	48 89 fe             	mov    %rdi,%rsi
 4be9b63:	e8 98 ad 40 fd       	call   1ff4900 <fmt.Sprintf@@Base>
 4be9b68:	48 89 84 24 a8 00 00 	mov    %rax,0xa8(%rsp)
 4be9b6f:	00 
 4be9b70:	48 89 9c 24 b0 00 00 	mov    %rbx,0xb0(%rsp)
 4be9b77:	00 
 4be9b78:	48 8b 4c 24 38       	mov    0x38(%rsp),%rcx
 4be9b7d:	48 8b 49 18          	mov    0x18(%rcx),%rcx
 4be9b81:	48 8b 44 24 50       	mov    0x50(%rsp),%rax
 4be9b86:	ff d1                	call   *%rcx
 4be9b88:	48 8b 08             	mov    (%rax),%rcx
 4be9b8b:	48 89 8c 24 e0 00 00 	mov    %rcx,0xe0(%rsp)
 4be9b92:	00 
 4be9b93:	48 8d 05 06 26 fc 00 	lea    0xfc2606(%rip),%rax        # 5bac1a0 <type:reZMkLT6@@Base>
 4be9b9a:	e8 41 69 30 fd       	call   1ef04e0 <runtime.newobject@@Base>
 4be9b9f:	48 89 44 24 58       	mov    %rax,0x58(%rsp)
 4be9ba4:	83 3d b5 1d 29 03 00 	cmpl   $0x0,0x3291db5(%rip)        # 7e7b960 <runtime.writeBarrier@@Base>
 4be9bab:	75 2c                	jne    4be9bd9 <github.com/lasselj/timebeat/beater/clocksync/taas.(*Controller).createVLANiface@@Base+0x219>
 4be9bad:	48 8b 94 24 90 00 00 	mov    0x90(%rsp),%rdx
 4be9bb4:	00 
 4be9bb5:	48 89 10             	mov    %rdx,(%rax)
 4be9bb8:	48 8d 78 08          	lea    0x8(%rax),%rdi
 4be9bbc:	48 8d b4 24 98 00 00 	lea    0x98(%rsp),%rsi
 4be9bc3:	00 
 4be9bc4:	48 89 6c 24 f0       	mov    %rbp,-0x10(%rsp)
 4be9bc9:	48 8d 6c 24 f0       	lea    -0x10(%rsp),%rbp
 4be9bce:	e8 cd d4 36 fd       	call   1f570a0 <runtime.duffcopy@@Base+0x2a0>
 4be9bd3:	48 8b 6d 00          	mov    0x0(%rbp),%rbp
 4be9bd7:	eb 1c                	jmp    4be9bf5 <github.com/lasselj/timebeat/beater/clocksync/taas.(*Controller).createVLANiface@@Base+0x235>
 4be9bd9:	48 89 c3             	mov    %rax,%rbx
 4be9bdc:	48 8d 8c 24 90 00 00 	lea    0x90(%rsp),%rcx
 4be9be3:	00 
 4be9be4:	48 8d 05 35 55 28 01 	lea    0x1285535(%rip),%rax        # 5e6f120 <type:rEqxYaeR@@Base>
 4be9beb:	e8 50 d2 30 fd       	call   1ef6e40 <runtime.typedmemmove@@Base>
 4be9bf0:	48 8b 44 24 58       	mov    0x58(%rsp),%rax
 4be9bf5:	48 8b 94 24 c0 01 00 	mov    0x1c0(%rsp),%rdx
 4be9bfc:	00 
 4be9bfd:	48 89 90 08 01 00 00 	mov    %rdx,0x108(%rax)
 4be9c04:	48 8b 9c 24 a8 00 00 	mov    0xa8(%rsp),%rbx
 4be9c0b:	00 
 4be9c0c:	48 8b 8c 24 b0 00 00 	mov    0xb0(%rsp),%rcx
 4be9c13:	00 
 4be9c14:	48 8b 15 d5 4d d9 02 	mov    0x2d94dd5(%rip),%rdx        # 797e9f0 <github.com/vishvananda/netlink.pkgHandle@@Base>
 4be9c1b:	48 89 d0             	mov    %rdx,%rax
 4be9c1e:	66 90                	xchg   %ax,%ax
 4be9c20:	e8 3b 77 fe ff       	call   4bd1360 <github.com/vishvananda/netlink.(*Handle).LinkByName@@Base>
 4be9c25:	48 85 c9             	test   %rcx,%rcx
 4be9c28:	0f 85 d7 00 00 00    	jne    4be9d05 <github.com/lasselj/timebeat/beater/clocksync/taas.(*Controller).createVLANiface@@Base+0x345>
 4be9c2e:	90                   	nop
 4be9c2f:	48 8b 15 ba 4d d9 02 	mov    0x2d94dba(%rip),%rdx        # 797e9f0 <github.com/vishvananda/netlink.pkgHandle@@Base>
 4be9c36:	48 89 d9             	mov    %rbx,%rcx
 4be9c39:	48 89 c3             	mov    %rax,%rbx
 4be9c3c:	48 89 d0             	mov    %rdx,%rax
 4be9c3f:	90                   	nop
 4be9c40:	e8 5b 73 fe ff       	call   4bd0fa0 <github.com/vishvananda/netlink.(*Handle).LinkDel@@Base>
 4be9c45:	48 85 c0             	test   %rax,%rax
 4be9c48:	0f 84 b7 00 00 00    	je     4be9d05 <github.com/lasselj/timebeat/beater/clocksync/taas.(*Controller).createVLANiface@@Base+0x345>
 4be9c4e:	48 8b 48 18          	mov    0x18(%rax),%rcx
 4be9c52:	48 89 d8             	mov    %rbx,%rax
 4be9c55:	ff d1                	call   *%rcx
 4be9c57:	48 89 44 24 68       	mov    %rax,0x68(%rsp)
 4be9c5c:	48 89 5c 24 40       	mov    %rbx,0x40(%rsp)
 4be9c61:	44 0f 11 7c 24 70    	movups %xmm15,0x70(%rsp)
 4be9c67:	44 0f 11 bc 24 80 00 	movups %xmm15,0x80(%rsp)
 4be9c6e:	00 00 
 4be9c70:	48 8b 8c 24 a8 00 00 	mov    0xa8(%rsp),%rcx
 4be9c77:	00 
 4be9c78:	48 8b 94 24 b0 00 00 	mov    0xb0(%rsp),%rdx
 4be9c7f:	00 
 4be9c80:	48 89 c8             	mov    %rcx,%rax
 4be9c83:	48 89 d3             	mov    %rdx,%rbx
 4be9c86:	e8 d5 40 30 fd       	call   1eedd60 <runtime.convTstring@@Base>
 4be9c8b:	48 8d 0d 0e 4a bc 00 	lea    0xbc4a0e(%rip),%rcx        # 57ae6a0 <type:string@@Base>
 4be9c92:	48 89 4c 24 70       	mov    %rcx,0x70(%rsp)
 4be9c97:	48 89 44 24 78       	mov    %rax,0x78(%rsp)
 4be9c9c:	48 8b 44 24 68       	mov    0x68(%rsp),%rax
 4be9ca1:	48 8b 5c 24 40       	mov    0x40(%rsp),%rbx
 4be9ca6:	e8 b5 40 30 fd       	call   1eedd60 <runtime.convTstring@@Base>
 4be9cab:	48 8d 0d ee 49 bc 00 	lea    0xbc49ee(%rip),%rcx        # 57ae6a0 <type:string@@Base>
 4be9cb2:	48 89 8c 24 80 00 00 	mov    %rcx,0x80(%rsp)
 4be9cb9:	00 
 4be9cba:	48 89 84 24 88 00 00 	mov    %rax,0x88(%rsp)
 4be9cc1:	00 
 4be9cc2:	48 8d 05 15 7d 28 00 	lea    0x287d15(%rip),%rax        # 4e719de <_IO_stdin_used@@Base+0x23e9de>
 4be9cc9:	bb 46 00 00 00       	mov    $0x46,%ebx
 4be9cce:	bf 02 00 00 00       	mov    $0x2,%edi
 4be9cd3:	48 89 fe             	mov    %rdi,%rsi
 4be9cd6:	48 8d 4c 24 70       	lea    0x70(%rsp),%rcx
 4be9cdb:	0f 1f 44 00 00       	nopl   0x0(%rax,%rax,1)
 4be9ce0:	e8 1b ac 40 fd       	call   1ff4900 <fmt.Sprintf@@Base>
 4be9ce5:	48 8b 8c 24 a8 01 00 	mov    0x1a8(%rsp),%rcx
 4be9cec:	00 
 4be9ced:	48 8b 11             	mov    (%rcx),%rdx
 4be9cf0:	48 89 c6             	mov    %rax,%rsi
 4be9cf3:	48 89 d0             	mov    %rdx,%rax
 4be9cf6:	48 89 df             	mov    %rbx,%rdi
 4be9cf9:	48 89 f3             	mov    %rsi,%rbx
 4be9cfc:	48 89 f9             	mov    %rdi,%rcx
 4be9cff:	90                   	nop
 4be9d00:	e8 9b d4 81 ff       	call   44071a0 <github.com/lasselj/timebeat/beater/logging.(*Logger).Warn@@Base>
 4be9d05:	48 8b 05 e4 4c d9 02 	mov    0x2d94ce4(%rip),%rax        # 797e9f0 <github.com/vishvananda/netlink.pkgHandle@@Base>
 4be9d0c:	48 8d 1d 95 6d 33 01 	lea    0x1336d95(%rip),%rbx        # 5f20aa8 <go:itab.*github.com/vishvananda/netlink.Vlan,github.com/vishvananda/netlink.Link@@Base>
 4be9d13:	48 8b 4c 24 58       	mov    0x58(%rsp),%rcx
 4be9d18:	bf 04 06 00 00       	mov    $0x604,%edi
 4be9d1d:	0f 1f 00             	nopl   (%rax)
 4be9d20:	e8 7b 39 fe ff       	call   4bcd6a0 <github.com/vishvananda/netlink.(*Handle).linkModify@@Base>
 4be9d25:	48 85 c0             	test   %rax,%rax
 4be9d28:	0f 84 9e 00 00 00    	je     4be9dcc <github.com/lasselj/timebeat/beater/clocksync/taas.(*Controller).createVLANiface@@Base+0x40c>
 4be9d2e:	48 89 5c 24 60       	mov    %rbx,0x60(%rsp)
 4be9d33:	48 89 44 24 30       	mov    %rax,0x30(%rsp)
 4be9d38:	44 0f 11 7c 24 70    	movups %xmm15,0x70(%rsp)
 4be9d3e:	44 0f 11 bc 24 80 00 	movups %xmm15,0x80(%rsp)
 4be9d45:	00 00 
 4be9d47:	48 8b 84 24 a8 00 00 	mov    0xa8(%rsp),%rax
 4be9d4e:	00 
 4be9d4f:	48 8b 9c 24 b0 00 00 	mov    0xb0(%rsp),%rbx
 4be9d56:	00 
 4be9d57:	e8 04 40 30 fd       	call   1eedd60 <runtime.convTstring@@Base>
 4be9d5c:	48 8d 0d 3d 49 bc 00 	lea    0xbc493d(%rip),%rcx        # 57ae6a0 <type:string@@Base>
 4be9d63:	48 89 4c 24 70       	mov    %rcx,0x70(%rsp)
 4be9d68:	48 89 44 24 78       	mov    %rax,0x78(%rsp)
 4be9d6d:	48 8b 4c 24 30       	mov    0x30(%rsp),%rcx
 4be9d72:	48 85 c9             	test   %rcx,%rcx
 4be9d75:	74 06                	je     4be9d7d <github.com/lasselj/timebeat/beater/clocksync/taas.(*Controller).createVLANiface@@Base+0x3bd>
 4be9d77:	48 8b 41 08          	mov    0x8(%rcx),%rax
 4be9d7b:	eb 03                	jmp    4be9d80 <github.com/lasselj/timebeat/beater/clocksync/taas.(*Controller).createVLANiface@@Base+0x3c0>
 4be9d7d:	48 89 c8             	mov    %rcx,%rax
 4be9d80:	48 89 84 24 80 00 00 	mov    %rax,0x80(%rsp)
 4be9d87:	00 
 4be9d88:	48 8b 54 24 60       	mov    0x60(%rsp),%rdx
 4be9d8d:	48 89 94 24 88 00 00 	mov    %rdx,0x88(%rsp)
 4be9d94:	00 
 4be9d95:	48 8d 05 90 37 1e 00 	lea    0x1e3790(%rip),%rax        # 4dcd52c <_IO_stdin_used@@Base+0x19a52c>
 4be9d9c:	bb 15 00 00 00       	mov    $0x15,%ebx
 4be9da1:	48 8d 4c 24 70       	lea    0x70(%rsp),%rcx
 4be9da6:	bf 02 00 00 00       	mov    $0x2,%edi
 4be9dab:	48 89 fe             	mov    %rdi,%rsi
 4be9dae:	e8 4d ab 40 fd       	call   1ff4900 <fmt.Sprintf@@Base>
 4be9db3:	48 8b 94 24 a8 01 00 	mov    0x1a8(%rsp),%rdx
 4be9dba:	00 
 4be9dbb:	48 8b 12             	mov    (%rdx),%rdx
 4be9dbe:	48 89 d9             	mov    %rbx,%rcx
 4be9dc1:	48 89 c3             	mov    %rax,%rbx
 4be9dc4:	48 89 d0             	mov    %rdx,%rax
 4be9dc7:	e8 94 d2 81 ff       	call   4407060 <github.com/lasselj/timebeat/beater/logging.(*Logger).Error@@Base>
 4be9dcc:	48 8b 44 24 58       	mov    0x58(%rsp),%rax
 4be9dd1:	48 8b ac 24 98 01 00 	mov    0x198(%rsp),%rbp
 4be9dd8:	00 
 4be9dd9:	48 81 c4 a0 01 00 00 	add    $0x1a0,%rsp
 4be9de0:	c3                   	ret
 4be9de1:	48 89 44 24 08       	mov    %rax,0x8(%rsp)
 4be9de6:	48 89 5c 24 10       	mov    %rbx,0x10(%rsp)
 4be9deb:	48 89 4c 24 18       	mov    %rcx,0x18(%rsp)
 4be9df0:	48 89 7c 24 20       	mov    %rdi,0x20(%rsp)
 4be9df5:	e8 66 a6 36 fd       	call   1f54460 <runtime.morestack_noctxt.abi0@@Base>
 4be9dfa:	48 8b 44 24 08       	mov    0x8(%rsp),%rax
 4be9dff:	48 8b 5c 24 10       	mov    0x10(%rsp),%rbx
 4be9e04:	48 8b 4c 24 18       	mov    0x18(%rsp),%rcx
 4be9e09:	48 8b 7c 24 20       	mov    0x20(%rsp),%rdi
 4be9e0e:	e9 ad fb ff ff       	jmp    4be99c0 <github.com/lasselj/timebeat/beater/clocksync/taas.(*Controller).createVLANiface@@Base>
 4be9e13:	cc                   	int3
 4be9e14:	cc                   	int3
 4be9e15:	cc                   	int3
 4be9e16:	cc                   	int3
 4be9e17:	cc                   	int3
 4be9e18:	cc                   	int3
 4be9e19:	cc                   	int3
 4be9e1a:	cc                   	int3
 4be9e1b:	cc                   	int3
 4be9e1c:	cc                   	int3
 4be9e1d:	cc                   	int3
 4be9e1e:	cc                   	int3
 4be9e1f:	cc                   	int3
