# github.com/lasselj/timebeat/beater/clocksync/sources.newTimeSourceStore
# addr 0x4417040 size 288 (0x120)


/mnt/c/Users/SHIWA/GitHub/TimeCard-Mini/timebeat-extracted/usr/share/timebeat/bin/timebeat:     file format elf64-x86-64


Disassembly of section .text:

0000000004417040 <github.com/lasselj/timebeat/beater/clocksync/sources.newTimeSourceStore@@Base>:
 4417040:	49 3b 66 10          	cmp    0x10(%r14),%rsp
 4417044:	0f 86 f2 00 00 00    	jbe    441713c <github.com/lasselj/timebeat/beater/clocksync/sources.newTimeSourceStore@@Base+0xfc>
 441704a:	48 83 ec 38          	sub    $0x38,%rsp
 441704e:	48 89 6c 24 30       	mov    %rbp,0x30(%rsp)
 4417053:	48 8d 6c 24 30       	lea    0x30(%rsp),%rbp
 4417058:	48 8d 05 1e 4f 86 00 	lea    0x864f1e(%rip),%rax        # 4c7bf7d <_IO_stdin_used@@Base+0x48f7d>
 441705f:	bb 0d 00 00 00       	mov    $0xd,%ebx
 4417064:	e8 37 fd fe ff       	call   4406da0 <github.com/lasselj/timebeat/beater/logging.NewLogger@@Base>
 4417069:	48 89 44 24 28       	mov    %rax,0x28(%rsp)
 441706e:	e8 cd a1 ad fd       	call   1ef1240 <runtime.makemap_small@@Base>
 4417073:	48 89 44 24 20       	mov    %rax,0x20(%rsp)
 4417078:	e8 c3 a1 ad fd       	call   1ef1240 <runtime.makemap_small@@Base>
 441707d:	48 89 44 24 18       	mov    %rax,0x18(%rsp)
 4417082:	48 8d 05 97 a0 9a 01 	lea    0x19aa097(%rip),%rax        # 5dc1120 <type:xfIjQAOC@@Base>
 4417089:	e8 52 94 ad fd       	call   1ef04e0 <runtime.newobject@@Base>
 441708e:	83 3d cb 48 a6 03 00 	cmpl   $0x0,0x3a648cb(%rip)        # 7e7b960 <runtime.writeBarrier@@Base>
 4417095:	75 0b                	jne    44170a2 <github.com/lasselj/timebeat/beater/clocksync/sources.newTimeSourceStore@@Base+0x62>
 4417097:	48 8b 54 24 28       	mov    0x28(%rsp),%rdx
 441709c:	48 89 50 78          	mov    %rdx,0x78(%rax)
 44170a0:	eb 0e                	jmp    44170b0 <github.com/lasselj/timebeat/beater/clocksync/sources.newTimeSourceStore@@Base+0x70>
 44170a2:	48 8d 78 78          	lea    0x78(%rax),%rdi
 44170a6:	48 8b 54 24 28       	mov    0x28(%rsp),%rdx
 44170ab:	e8 70 f6 b3 fd       	call   1f56720 <runtime.gcWriteBarrierDX@@Base>
 44170b0:	c7 80 88 00 00 00 04 	movl   $0x2c1804,0x88(%rax)
 44170b7:	18 2c 00 
 44170ba:	c6 80 8c 00 00 00 5d 	movb   $0x5d,0x8c(%rax)
 44170c1:	83 3d 98 48 a6 03 00 	cmpl   $0x0,0x3a64898(%rip)        # 7e7b960 <runtime.writeBarrier@@Base>
 44170c8:	75 1b                	jne    44170e5 <github.com/lasselj/timebeat/beater/clocksync/sources.newTimeSourceStore@@Base+0xa5>
 44170ca:	48 8b 54 24 20       	mov    0x20(%rsp),%rdx
 44170cf:	48 89 50 68          	mov    %rdx,0x68(%rax)
 44170d3:	48 8b 54 24 18       	mov    0x18(%rsp),%rdx
 44170d8:	48 89 50 70          	mov    %rdx,0x70(%rax)
 44170dc:	48 89 05 85 51 a1 03 	mov    %rax,0x3a15185(%rip)        # 7e2c268 <github.com/lasselj/timebeat/beater/clocksync/sources.store@@Base>
 44170e3:	eb 2c                	jmp    4417111 <github.com/lasselj/timebeat/beater/clocksync/sources.newTimeSourceStore@@Base+0xd1>
 44170e5:	48 8d 78 68          	lea    0x68(%rax),%rdi
 44170e9:	48 8b 54 24 20       	mov    0x20(%rsp),%rdx
 44170ee:	e8 2d f6 b3 fd       	call   1f56720 <runtime.gcWriteBarrierDX@@Base>
 44170f3:	48 8d 78 70          	lea    0x70(%rax),%rdi
 44170f7:	48 8b 54 24 18       	mov    0x18(%rsp),%rdx
 44170fc:	0f 1f 40 00          	nopl   0x0(%rax)
 4417100:	e8 1b f6 b3 fd       	call   1f56720 <runtime.gcWriteBarrierDX@@Base>
 4417105:	48 8d 3d 5c 51 a1 03 	lea    0x3a1515c(%rip),%rdi        # 7e2c268 <github.com/lasselj/timebeat/beater/clocksync/sources.store@@Base>
 441710c:	e8 ef f4 b3 fd       	call   1f56600 <runtime.gcWriteBarrier@@Base>
 4417111:	80 3d 1a dd a2 03 00 	cmpb   $0x0,0x3a2dd1a(%rip)        # 7e44e32 <github.com/lasselj/timebeat/config.appConfig@@Base+0x252>
 4417118:	74 18                	je     4417132 <github.com/lasselj/timebeat/beater/clocksync/sources.newTimeSourceStore@@Base+0xf2>
 441711a:	48 8b 58 68          	mov    0x68(%rax),%rbx
 441711e:	48 8d 05 db d9 52 01 	lea    0x152d9db(%rip),%rax        # 5944b00 <type:a1ecd6Wn@@Base>
 4417125:	b9 01 00 00 00       	mov    $0x1,%ecx
 441712a:	e8 11 da ad fd       	call   1ef4b40 <runtime.mapassign_fast64@@Base>
 441712f:	c6 00 01             	movb   $0x1,(%rax)
 4417132:	48 8b 6c 24 30       	mov    0x30(%rsp),%rbp
 4417137:	48 83 c4 38          	add    $0x38,%rsp
 441713b:	c3                   	ret
 441713c:	0f 1f 40 00          	nopl   0x0(%rax)
 4417140:	e8 1b d3 b3 fd       	call   1f54460 <runtime.morestack_noctxt.abi0@@Base>
 4417145:	e9 f6 fe ff ff       	jmp    4417040 <github.com/lasselj/timebeat/beater/clocksync/sources.newTimeSourceStore@@Base>
 441714a:	cc                   	int3
 441714b:	cc                   	int3
 441714c:	cc                   	int3
 441714d:	cc                   	int3
 441714e:	cc                   	int3
 441714f:	cc                   	int3
 4417150:	cc                   	int3
 4417151:	cc                   	int3
 4417152:	cc                   	int3
 4417153:	cc                   	int3
 4417154:	cc                   	int3
 4417155:	cc                   	int3
 4417156:	cc                   	int3
 4417157:	cc                   	int3
 4417158:	cc                   	int3
 4417159:	cc                   	int3
 441715a:	cc                   	int3
 441715b:	cc                   	int3
 441715c:	cc                   	int3
 441715d:	cc                   	int3
 441715e:	cc                   	int3
 441715f:	cc                   	int3
