# github.com/lasselj/timebeat/beater/clocksync/clients/ptpsquared.getSortedPairList
# addr 0x4b67640 size 384 (0x180)


/mnt/c/Users/SHIWA/GitHub/TimeCard-Mini/timebeat-extracted/usr/share/timebeat/bin/timebeat:     file format elf64-x86-64


Disassembly of section .text:

0000000004b67640 <github.com/lasselj/timebeat/beater/clocksync/clients/ptpsquared.getSortedPairList@@Base>:
 4b67640:	4c 8d 64 24 e8       	lea    -0x18(%rsp),%r12
 4b67645:	4d 3b 66 10          	cmp    0x10(%r14),%r12
 4b67649:	0f 86 3d 01 00 00    	jbe    4b6778c <github.com/lasselj/timebeat/beater/clocksync/clients/ptpsquared.getSortedPairList@@Base+0x14c>
 4b6764f:	48 81 ec 98 00 00 00 	sub    $0x98,%rsp
 4b67656:	48 89 ac 24 90 00 00 	mov    %rbp,0x90(%rsp)
 4b6765d:	00 
 4b6765e:	48 8d ac 24 90 00 00 	lea    0x90(%rsp),%rbp
 4b67665:	00 
 4b67666:	48 89 84 24 a0 00 00 	mov    %rax,0xa0(%rsp)
 4b6766d:	00 
 4b6766e:	48 85 c0             	test   %rax,%rax
 4b67671:	74 05                	je     4b67678 <github.com/lasselj/timebeat/beater/clocksync/clients/ptpsquared.getSortedPairList@@Base+0x38>
 4b67673:	48 8b 10             	mov    (%rax),%rdx
 4b67676:	eb 02                	jmp    4b6767a <github.com/lasselj/timebeat/beater/clocksync/clients/ptpsquared.getSortedPairList@@Base+0x3a>
 4b67678:	31 d2                	xor    %edx,%edx
 4b6767a:	48 89 54 24 18       	mov    %rdx,0x18(%rsp)
 4b6767f:	48 8d 05 da ae fa 00 	lea    0xfaaeda(%rip),%rax        # 5b12560 <type:W3v30ay/@@Base>
 4b67686:	48 89 d3             	mov    %rdx,%rbx
 4b67689:	48 89 d9             	mov    %rbx,%rcx
 4b6768c:	e8 4f ed 3c fd       	call   1f363e0 <runtime.makeslice@@Base>
 4b67691:	48 89 44 24 28       	mov    %rax,0x28(%rsp)
 4b67696:	48 8d 7c 24 30       	lea    0x30(%rsp),%rdi
 4b6769b:	48 8d 7f e0          	lea    -0x20(%rdi),%rdi
 4b6769f:	90                   	nop
 4b676a0:	48 89 6c 24 f0       	mov    %rbp,-0x10(%rsp)
 4b676a5:	48 8d 6c 24 f0       	lea    -0x10(%rsp),%rbp
 4b676aa:	e8 1c f7 3e fd       	call   1f56dcb <runtime.duffzero@@Base+0x14b>
 4b676af:	48 8b 6d 00          	mov    0x0(%rbp),%rbp
 4b676b3:	48 8b 9c 24 a0 00 00 	mov    0xa0(%rsp),%rbx
 4b676ba:	00 
 4b676bb:	48 8d 4c 24 30       	lea    0x30(%rsp),%rcx
 4b676c0:	48 8d 05 19 b6 eb 00 	lea    0xebb619(%rip),%rax        # 5a22ce0 <type:5XCdKkNQ@@Base>
 4b676c7:	e8 f4 af 38 fd       	call   1ef26c0 <runtime.mapiterinit@@Base>
 4b676cc:	48 8b 4c 24 18       	mov    0x18(%rsp),%rcx
 4b676d1:	48 8b 54 24 28       	mov    0x28(%rsp),%rdx
 4b676d6:	31 c0                	xor    %eax,%eax
 4b676d8:	eb 1d                	jmp    4b676f7 <github.com/lasselj/timebeat/beater/clocksync/clients/ptpsquared.getSortedPairList@@Base+0xb7>
 4b676da:	48 8d 44 24 30       	lea    0x30(%rsp),%rax
 4b676df:	90                   	nop
 4b676e0:	e8 5b b2 38 fd       	call   1ef2940 <runtime.mapiternext@@Base>
 4b676e5:	48 8b 44 24 20       	mov    0x20(%rsp),%rax
 4b676ea:	48 ff c0             	inc    %rax
 4b676ed:	48 8b 4c 24 18       	mov    0x18(%rsp),%rcx
 4b676f2:	48 8b 54 24 28       	mov    0x28(%rsp),%rdx
 4b676f7:	48 8b 74 24 30       	mov    0x30(%rsp),%rsi
 4b676fc:	0f 1f 40 00          	nopl   0x0(%rax)
 4b67700:	48 85 f6             	test   %rsi,%rsi
 4b67703:	74 4a                	je     4b6774f <github.com/lasselj/timebeat/beater/clocksync/clients/ptpsquared.getSortedPairList@@Base+0x10f>
 4b67705:	48 8b 5c 24 38       	mov    0x38(%rsp),%rbx
 4b6770a:	4c 8b 06             	mov    (%rsi),%r8
 4b6770d:	f3 0f 10 03          	movss  (%rbx),%xmm0
 4b67711:	48 8b 5e 08          	mov    0x8(%rsi),%rbx
 4b67715:	48 39 c8             	cmp    %rcx,%rax
 4b67718:	73 6c                	jae    4b67786 <github.com/lasselj/timebeat/beater/clocksync/clients/ptpsquared.getSortedPairList@@Base+0x146>
 4b6771a:	48 89 44 24 20       	mov    %rax,0x20(%rsp)
 4b6771f:	48 8d 34 40          	lea    (%rax,%rax,2),%rsi
 4b67723:	48 89 5c f2 08       	mov    %rbx,0x8(%rdx,%rsi,8)
 4b67728:	48 8d 1c f2          	lea    (%rdx,%rsi,8),%rbx
 4b6772c:	48 8d 5b 10          	lea    0x10(%rbx),%rbx
 4b67730:	f3 0f 11 03          	movss  %xmm0,(%rbx)
 4b67734:	48 8d 3c f2          	lea    (%rdx,%rsi,8),%rdi
 4b67738:	83 3d 21 42 31 03 00 	cmpl   $0x0,0x3314221(%rip)        # 7e7b960 <runtime.writeBarrier@@Base>
 4b6773f:	90                   	nop
 4b67740:	75 06                	jne    4b67748 <github.com/lasselj/timebeat/beater/clocksync/clients/ptpsquared.getSortedPairList@@Base+0x108>
 4b67742:	4c 89 04 f2          	mov    %r8,(%rdx,%rsi,8)
 4b67746:	eb 92                	jmp    4b676da <github.com/lasselj/timebeat/beater/clocksync/clients/ptpsquared.getSortedPairList@@Base+0x9a>
 4b67748:	e8 33 f0 3e fd       	call   1f56780 <runtime.gcWriteBarrierR8@@Base>
 4b6774d:	eb 8b                	jmp    4b676da <github.com/lasselj/timebeat/beater/clocksync/clients/ptpsquared.getSortedPairList@@Base+0x9a>
 4b6774f:	48 89 d0             	mov    %rdx,%rax
 4b67752:	48 89 cb             	mov    %rcx,%rbx
 4b67755:	e8 a6 66 38 fd       	call   1eede00 <runtime.convTslice@@Base>
 4b6775a:	48 89 c3             	mov    %rax,%rbx
 4b6775d:	48 8d 05 0c ee 3c 01 	lea    0x13cee0c(%rip),%rax        # 5f36570 <go:itab.github.com/lasselj/timebeat/beater/clocksync/clients/ptpsquared.PairList,sort.Interface@@Base>
 4b67764:	e8 77 ba 3f fd       	call   1f631e0 <sort.Sort@@Base>
 4b67769:	48 8b 44 24 28       	mov    0x28(%rsp),%rax
 4b6776e:	48 8b 5c 24 18       	mov    0x18(%rsp),%rbx
 4b67773:	48 89 d9             	mov    %rbx,%rcx
 4b67776:	48 8b ac 24 90 00 00 	mov    0x90(%rsp),%rbp
 4b6777d:	00 
 4b6777e:	48 81 c4 98 00 00 00 	add    $0x98,%rsp
 4b67785:	c3                   	ret
 4b67786:	e8 15 f3 3e fd       	call   1f56aa0 <runtime.panicIndex@@Base>
 4b6778b:	90                   	nop
 4b6778c:	48 89 44 24 08       	mov    %rax,0x8(%rsp)
 4b67791:	e8 ca cc 3e fd       	call   1f54460 <runtime.morestack_noctxt.abi0@@Base>
 4b67796:	48 8b 44 24 08       	mov    0x8(%rsp),%rax
 4b6779b:	0f 1f 44 00 00       	nopl   0x0(%rax,%rax,1)
 4b677a0:	e9 9b fe ff ff       	jmp    4b67640 <github.com/lasselj/timebeat/beater/clocksync/clients/ptpsquared.getSortedPairList@@Base>
 4b677a5:	cc                   	int3
 4b677a6:	cc                   	int3
 4b677a7:	cc                   	int3
 4b677a8:	cc                   	int3
 4b677a9:	cc                   	int3
 4b677aa:	cc                   	int3
 4b677ab:	cc                   	int3
 4b677ac:	cc                   	int3
 4b677ad:	cc                   	int3
 4b677ae:	cc                   	int3
 4b677af:	cc                   	int3
 4b677b0:	cc                   	int3
 4b677b1:	cc                   	int3
 4b677b2:	cc                   	int3
 4b677b3:	cc                   	int3
 4b677b4:	cc                   	int3
 4b677b5:	cc                   	int3
 4b677b6:	cc                   	int3
 4b677b7:	cc                   	int3
 4b677b8:	cc                   	int3
 4b677b9:	cc                   	int3
 4b677ba:	cc                   	int3
 4b677bb:	cc                   	int3
 4b677bc:	cc                   	int3
 4b677bd:	cc                   	int3
 4b677be:	cc                   	int3
 4b677bf:	cc                   	int3
