# github.com/lasselj/timebeat/beater/clocksync/servo.(*TimeSourceMap).addTimesource
# addr 0x45a38e0 size 1216 (0x4c0)


/mnt/c/Users/SHIWA/GitHub/TimeCard-Mini/timebeat-extracted/usr/share/timebeat/bin/timebeat:     file format elf64-x86-64


Disassembly of section .text:

00000000045a38e0 <github.com/lasselj/timebeat/beater/clocksync/servo.(*TimeSourceMap).addTimesource@@Base>:
 45a38e0:	49 3b 66 10          	cmp    0x10(%r14),%rsp
 45a38e4:	0f 86 78 04 00 00    	jbe    45a3d62 <github.com/lasselj/timebeat/beater/clocksync/servo.(*TimeSourceMap).addTimesource@@Base+0x482>
 45a38ea:	48 83 ec 78          	sub    $0x78,%rsp
 45a38ee:	48 89 6c 24 70       	mov    %rbp,0x70(%rsp)
 45a38f3:	48 8d 6c 24 70       	lea    0x70(%rsp),%rbp
 45a38f8:	88 8c 24 90 00 00 00 	mov    %cl,0x90(%rsp)
 45a38ff:	48 89 84 24 80 00 00 	mov    %rax,0x80(%rsp)
 45a3906:	00 
 45a3907:	48 8b 15 ba 13 8a 03 	mov    0x38a13ba(%rip),%rdx        # 7e44cc8 <github.com/lasselj/timebeat/config.appConfig@@Base+0xe8>
 45a390e:	48 8b 35 bb 13 8a 03 	mov    0x38a13bb(%rip),%rsi        # 7e44cd0 <github.com/lasselj/timebeat/config.appConfig@@Base+0xf0>
 45a3915:	0f b6 3d a5 13 8a 03 	movzbl 0x38a13a5(%rip),%edi        # 7e44cc1 <github.com/lasselj/timebeat/config.appConfig@@Base+0xe1>
 45a391c:	40 88 7c 24 27       	mov    %dil,0x27(%rsp)
 45a3921:	48 83 fe 06          	cmp    $0x6,%rsi
 45a3925:	75 19                	jne    45a3940 <github.com/lasselj/timebeat/beater/clocksync/servo.(*TimeSourceMap).addTimesource@@Base+0x60>
 45a3927:	81 3a 73 74 72 69    	cmpl   $0x69727473,(%rdx)
 45a392d:	75 50                	jne    45a397f <github.com/lasselj/timebeat/beater/clocksync/servo.(*TimeSourceMap).addTimesource@@Base+0x9f>
 45a392f:	66 81 7a 04 63 74    	cmpw   $0x7463,0x4(%rdx)
 45a3935:	75 48                	jne    45a397f <github.com/lasselj/timebeat/beater/clocksync/servo.(*TimeSourceMap).addTimesource@@Base+0x9f>
 45a3937:	ba 01 00 00 00       	mov    $0x1,%edx
 45a393c:	eb 46                	jmp    45a3984 <github.com/lasselj/timebeat/beater/clocksync/servo.(*TimeSourceMap).addTimesource@@Base+0xa4>
 45a393e:	66 90                	xchg   %ax,%ax
 45a3940:	48 83 fe 07          	cmp    $0x7,%rsi
 45a3944:	75 1d                	jne    45a3963 <github.com/lasselj/timebeat/beater/clocksync/servo.(*TimeSourceMap).addTimesource@@Base+0x83>
 45a3946:	81 3a 72 65 6c 61    	cmpl   $0x616c6572,(%rdx)
 45a394c:	75 31                	jne    45a397f <github.com/lasselj/timebeat/beater/clocksync/servo.(*TimeSourceMap).addTimesource@@Base+0x9f>
 45a394e:	66 81 7a 04 78 65    	cmpw   $0x6578,0x4(%rdx)
 45a3954:	75 29                	jne    45a397f <github.com/lasselj/timebeat/beater/clocksync/servo.(*TimeSourceMap).addTimesource@@Base+0x9f>
 45a3956:	80 7a 06 64          	cmpb   $0x64,0x6(%rdx)
 45a395a:	75 23                	jne    45a397f <github.com/lasselj/timebeat/beater/clocksync/servo.(*TimeSourceMap).addTimesource@@Base+0x9f>
 45a395c:	ba 05 00 00 00       	mov    $0x5,%edx
 45a3961:	eb 21                	jmp    45a3984 <github.com/lasselj/timebeat/beater/clocksync/servo.(*TimeSourceMap).addTimesource@@Base+0xa4>
 45a3963:	48 83 fe 08          	cmp    $0x8,%rsi
 45a3967:	75 16                	jne    45a397f <github.com/lasselj/timebeat/beater/clocksync/servo.(*TimeSourceMap).addTimesource@@Base+0x9f>
 45a3969:	48 be 6d 6f 64 65 72 	movabs $0x6574617265646f6d,%rsi
 45a3970:	61 74 65 
 45a3973:	48 39 32             	cmp    %rsi,(%rdx)
 45a3976:	75 07                	jne    45a397f <github.com/lasselj/timebeat/beater/clocksync/servo.(*TimeSourceMap).addTimesource@@Base+0x9f>
 45a3978:	ba 04 00 00 00       	mov    $0x4,%edx
 45a397d:	eb 05                	jmp    45a3984 <github.com/lasselj/timebeat/beater/clocksync/servo.(*TimeSourceMap).addTimesource@@Base+0xa4>
 45a397f:	ba 01 00 00 00       	mov    $0x1,%edx
 45a3984:	48 89 54 24 28       	mov    %rdx,0x28(%rsp)
 45a3989:	48 89 9c 24 88 00 00 	mov    %rbx,0x88(%rsp)
 45a3990:	00 
 45a3991:	48 89 d8             	mov    %rbx,%rax
 45a3994:	e8 c7 09 00 00       	call   45a4360 <github.com/lasselj/timebeat/beater/clocksync/servo.makeTimeSourceKey@@Base>
 45a3999:	48 89 44 24 68       	mov    %rax,0x68(%rsp)
 45a399e:	48 89 5c 24 40       	mov    %rbx,0x40(%rsp)
 45a39a3:	48 8d 05 56 86 70 01 	lea    0x1708656(%rip),%rax        # 5cac000 <type:cd82tNm/@@Base>
 45a39aa:	e8 31 cb 94 fd       	call   1ef04e0 <runtime.newobject@@Base>
 45a39af:	48 89 44 24 50       	mov    %rax,0x50(%rsp)
 45a39b4:	48 8b 8c 24 88 00 00 	mov    0x88(%rsp),%rcx
 45a39bb:	00 
 45a39bc:	48 8b 79 18          	mov    0x18(%rcx),%rdi
 45a39c0:	48 8b 51 10          	mov    0x10(%rcx),%rdx
 45a39c4:	0f b6 5c 24 27       	movzbl 0x27(%rsp),%ebx
 45a39c9:	48 8b 44 24 28       	mov    0x28(%rsp),%rax
 45a39ce:	48 89 d1             	mov    %rdx,%rcx
 45a39d1:	e8 ea 64 fd ff       	call   4579ec0 <github.com/lasselj/timebeat/beater/clocksync/servo/filters.NewNoneGausianFilter@@Base>
 45a39d6:	48 89 44 24 60       	mov    %rax,0x60(%rsp)
 45a39db:	0f 1f 44 00 00       	nopl   0x0(%rax,%rax,1)
 45a39e0:	e8 3b 5d e7 ff       	call   4419720 <github.com/lasselj/timebeat/beater/clocksync/servo/adjusttime.GetPreciseTime@@Base>
 45a39e5:	48 89 44 24 38       	mov    %rax,0x38(%rsp)
 45a39ea:	48 89 5c 24 30       	mov    %rbx,0x30(%rsp)
 45a39ef:	48 89 4c 24 58       	mov    %rcx,0x58(%rsp)
 45a39f4:	48 8d 05 25 ee 8b 01 	lea    0x18bee25(%rip),%rax        # 5e62820 <type:9WS4Bkqk@@Base>
 45a39fb:	0f 1f 44 00 00       	nopl   0x0(%rax,%rax,1)
 45a3a00:	e8 db ca 94 fd       	call   1ef04e0 <runtime.newobject@@Base>
 45a3a05:	48 8b 4c 24 40       	mov    0x40(%rsp),%rcx
 45a3a0a:	48 89 48 08          	mov    %rcx,0x8(%rax)
 45a3a0e:	83 3d 4b 7f 8d 03 00 	cmpl   $0x0,0x38d7f4b(%rip)        # 7e7b960 <runtime.writeBarrier@@Base>
 45a3a15:	75 1c                	jne    45a3a33 <github.com/lasselj/timebeat/beater/clocksync/servo.(*TimeSourceMap).addTimesource@@Base+0x153>
 45a3a17:	48 8b 4c 24 68       	mov    0x68(%rsp),%rcx
 45a3a1c:	48 89 08             	mov    %rcx,(%rax)
 45a3a1f:	48 8b 4c 24 50       	mov    0x50(%rsp),%rcx
 45a3a24:	48 89 48 38          	mov    %rcx,0x38(%rax)
 45a3a28:	48 8b 4c 24 60       	mov    0x60(%rsp),%rcx
 45a3a2d:	48 89 48 20          	mov    %rcx,0x20(%rax)
 45a3a31:	eb 32                	jmp    45a3a65 <github.com/lasselj/timebeat/beater/clocksync/servo.(*TimeSourceMap).addTimesource@@Base+0x185>
 45a3a33:	48 89 c7             	mov    %rax,%rdi
 45a3a36:	48 8b 4c 24 68       	mov    0x68(%rsp),%rcx
 45a3a3b:	0f 1f 44 00 00       	nopl   0x0(%rax,%rax,1)
 45a3a40:	e8 bb 2c 9b fd       	call   1f56700 <runtime.gcWriteBarrierCX@@Base>
 45a3a45:	48 8d 48 38          	lea    0x38(%rax),%rcx
 45a3a49:	48 89 cf             	mov    %rcx,%rdi
 45a3a4c:	48 8b 54 24 50       	mov    0x50(%rsp),%rdx
 45a3a51:	e8 ca 2c 9b fd       	call   1f56720 <runtime.gcWriteBarrierDX@@Base>
 45a3a56:	48 8d 78 20          	lea    0x20(%rax),%rdi
 45a3a5a:	48 8b 4c 24 60       	mov    0x60(%rsp),%rcx
 45a3a5f:	90                   	nop
 45a3a60:	e8 9b 2c 9b fd       	call   1f56700 <runtime.gcWriteBarrierCX@@Base>
 45a3a65:	48 8b 8c 24 88 00 00 	mov    0x88(%rsp),%rcx
 45a3a6c:	00 
 45a3a6d:	48 8b 51 40          	mov    0x40(%rcx),%rdx
 45a3a71:	48 89 50 48          	mov    %rdx,0x48(%rax)
 45a3a75:	c6 40 50 01          	movb   $0x1,0x50(%rax)
 45a3a79:	48 8b 51 48          	mov    0x48(%rcx),%rdx
 45a3a7d:	48 89 50 10          	mov    %rdx,0x10(%rax)
 45a3a81:	0f b6 51 58          	movzbl 0x58(%rcx),%edx
 45a3a85:	88 50 68             	mov    %dl,0x68(%rax)
 45a3a88:	48 8b 51 78          	mov    0x78(%rcx),%rdx
 45a3a8c:	48 89 50 70          	mov    %rdx,0x70(%rax)
 45a3a90:	48 8b 51 68          	mov    0x68(%rcx),%rdx
 45a3a94:	48 8b 59 70          	mov    0x70(%rcx),%rbx
 45a3a98:	48 89 98 80 00 00 00 	mov    %rbx,0x80(%rax)
 45a3a9f:	83 3d ba 7e 8d 03 00 	cmpl   $0x0,0x38d7eba(%rip)        # 7e7b960 <runtime.writeBarrier@@Base>
 45a3aa6:	75 06                	jne    45a3aae <github.com/lasselj/timebeat/beater/clocksync/servo.(*TimeSourceMap).addTimesource@@Base+0x1ce>
 45a3aa8:	48 89 50 78          	mov    %rdx,0x78(%rax)
 45a3aac:	eb 09                	jmp    45a3ab7 <github.com/lasselj/timebeat/beater/clocksync/servo.(*TimeSourceMap).addTimesource@@Base+0x1d7>
 45a3aae:	48 8d 78 78          	lea    0x78(%rax),%rdi
 45a3ab2:	e8 69 2c 9b fd       	call   1f56720 <runtime.gcWriteBarrierDX@@Base>
 45a3ab7:	48 8b 91 90 00 00 00 	mov    0x90(%rcx),%rdx
 45a3abe:	48 8b 99 88 00 00 00 	mov    0x88(%rcx),%rbx
 45a3ac5:	48 8b b1 80 00 00 00 	mov    0x80(%rcx),%rsi
 45a3acc:	48 89 b0 88 00 00 00 	mov    %rsi,0x88(%rax)
 45a3ad3:	48 89 98 90 00 00 00 	mov    %rbx,0x90(%rax)
 45a3ada:	83 3d 7f 7e 8d 03 00 	cmpl   $0x0,0x38d7e7f(%rip)        # 7e7b960 <runtime.writeBarrier@@Base>
 45a3ae1:	75 09                	jne    45a3aec <github.com/lasselj/timebeat/beater/clocksync/servo.(*TimeSourceMap).addTimesource@@Base+0x20c>
 45a3ae3:	48 89 90 98 00 00 00 	mov    %rdx,0x98(%rax)
 45a3aea:	eb 0c                	jmp    45a3af8 <github.com/lasselj/timebeat/beater/clocksync/servo.(*TimeSourceMap).addTimesource@@Base+0x218>
 45a3aec:	48 8d b8 98 00 00 00 	lea    0x98(%rax),%rdi
 45a3af3:	e8 28 2c 9b fd       	call   1f56720 <runtime.gcWriteBarrierDX@@Base>
 45a3af8:	48 8b 54 24 38       	mov    0x38(%rsp),%rdx
 45a3afd:	48 89 90 a0 00 00 00 	mov    %rdx,0xa0(%rax)
 45a3b04:	48 8b 54 24 30       	mov    0x30(%rsp),%rdx
 45a3b09:	48 89 90 a8 00 00 00 	mov    %rdx,0xa8(%rax)
 45a3b10:	83 3d 49 7e 8d 03 00 	cmpl   $0x0,0x38d7e49(%rip)        # 7e7b960 <runtime.writeBarrier@@Base>
 45a3b17:	75 0e                	jne    45a3b27 <github.com/lasselj/timebeat/beater/clocksync/servo.(*TimeSourceMap).addTimesource@@Base+0x247>
 45a3b19:	48 8b 54 24 58       	mov    0x58(%rsp),%rdx
 45a3b1e:	48 89 90 b0 00 00 00 	mov    %rdx,0xb0(%rax)
 45a3b25:	eb 11                	jmp    45a3b38 <github.com/lasselj/timebeat/beater/clocksync/servo.(*TimeSourceMap).addTimesource@@Base+0x258>
 45a3b27:	48 8d b8 b0 00 00 00 	lea    0xb0(%rax),%rdi
 45a3b2e:	48 8b 54 24 58       	mov    0x58(%rsp),%rdx
 45a3b33:	e8 e8 2b 9b fd       	call   1f56720 <runtime.gcWriteBarrierDX@@Base>
 45a3b38:	48 8b 91 a8 00 00 00 	mov    0xa8(%rcx),%rdx
 45a3b3f:	48 8b 99 b0 00 00 00 	mov    0xb0(%rcx),%rbx
 45a3b46:	48 89 98 d8 00 00 00 	mov    %rbx,0xd8(%rax)
 45a3b4d:	83 3d 0c 7e 8d 03 00 	cmpl   $0x0,0x38d7e0c(%rip)        # 7e7b960 <runtime.writeBarrier@@Base>
 45a3b54:	75 09                	jne    45a3b5f <github.com/lasselj/timebeat/beater/clocksync/servo.(*TimeSourceMap).addTimesource@@Base+0x27f>
 45a3b56:	48 89 90 d0 00 00 00 	mov    %rdx,0xd0(%rax)
 45a3b5d:	eb 0c                	jmp    45a3b6b <github.com/lasselj/timebeat/beater/clocksync/servo.(*TimeSourceMap).addTimesource@@Base+0x28b>
 45a3b5f:	48 8d b8 d0 00 00 00 	lea    0xd0(%rax),%rdi
 45a3b66:	e8 b5 2b 9b fd       	call   1f56720 <runtime.gcWriteBarrierDX@@Base>
 45a3b6b:	48 8b 91 c0 00 00 00 	mov    0xc0(%rcx),%rdx
 45a3b72:	48 8b 99 c8 00 00 00 	mov    0xc8(%rcx),%rbx
 45a3b79:	48 89 98 e8 00 00 00 	mov    %rbx,0xe8(%rax)
 45a3b80:	83 3d d9 7d 8d 03 00 	cmpl   $0x0,0x38d7dd9(%rip)        # 7e7b960 <runtime.writeBarrier@@Base>
 45a3b87:	75 09                	jne    45a3b92 <github.com/lasselj/timebeat/beater/clocksync/servo.(*TimeSourceMap).addTimesource@@Base+0x2b2>
 45a3b89:	48 89 90 e0 00 00 00 	mov    %rdx,0xe0(%rax)
 45a3b90:	eb 0c                	jmp    45a3b9e <github.com/lasselj/timebeat/beater/clocksync/servo.(*TimeSourceMap).addTimesource@@Base+0x2be>
 45a3b92:	48 8d b8 e0 00 00 00 	lea    0xe0(%rax),%rdi
 45a3b99:	e8 82 2b 9b fd       	call   1f56720 <runtime.gcWriteBarrierDX@@Base>
 45a3b9e:	48 89 44 24 48       	mov    %rax,0x48(%rsp)
 45a3ba3:	48 8b 91 a0 00 00 00 	mov    0xa0(%rcx),%rdx
 45a3baa:	48 85 d2             	test   %rdx,%rdx
 45a3bad:	74 7f                	je     45a3c2e <github.com/lasselj/timebeat/beater/clocksync/servo.(*TimeSourceMap).addTimesource@@Base+0x34e>
 45a3baf:	48 8b 1a             	mov    (%rdx),%rbx
 45a3bb2:	48 8b 52 08          	mov    0x8(%rdx),%rdx
 45a3bb6:	48 89 90 00 01 00 00 	mov    %rdx,0x100(%rax)
 45a3bbd:	83 3d 9c 7d 8d 03 00 	cmpl   $0x0,0x38d7d9c(%rip)        # 7e7b960 <runtime.writeBarrier@@Base>
 45a3bc4:	75 09                	jne    45a3bcf <github.com/lasselj/timebeat/beater/clocksync/servo.(*TimeSourceMap).addTimesource@@Base+0x2ef>
 45a3bc6:	48 89 98 f8 00 00 00 	mov    %rbx,0xf8(%rax)
 45a3bcd:	eb 0c                	jmp    45a3bdb <github.com/lasselj/timebeat/beater/clocksync/servo.(*TimeSourceMap).addTimesource@@Base+0x2fb>
 45a3bcf:	48 8d b8 f8 00 00 00 	lea    0xf8(%rax),%rdi
 45a3bd6:	e8 65 2b 9b fd       	call   1f56740 <runtime.gcWriteBarrierBX@@Base>
 45a3bdb:	0f 1f 44 00 00       	nopl   0x0(%rax,%rax,1)
 45a3be0:	e8 9b cb ff ff       	call   45a0780 <github.com/lasselj/timebeat/beater/clocksync/servo.GetController@@Base>
 45a3be5:	48 8b 40 10          	mov    0x10(%rax),%rax
 45a3be9:	48 8b 8c 24 88 00 00 	mov    0x88(%rsp),%rcx
 45a3bf0:	00 
 45a3bf1:	48 8b 91 a0 00 00 00 	mov    0xa0(%rcx),%rdx
 45a3bf8:	48 8b 58 30          	mov    0x30(%rax),%rbx
 45a3bfc:	48 8b 02             	mov    (%rdx),%rax
 45a3bff:	48 8b 7a 08          	mov    0x8(%rdx),%rdi
 45a3c03:	48 89 c2             	mov    %rax,%rdx
 45a3c06:	48 8d 05 13 6d 3a 01 	lea    0x13a6d13(%rip),%rax        # 594a920 <type:tumM/90n@@Base>
 45a3c0d:	48 89 d1             	mov    %rdx,%rcx
 45a3c10:	e8 ab 21 95 fd       	call   1ef5dc0 <runtime.mapaccess2_faststr@@Base>
 45a3c15:	0f b6 00             	movzbl (%rax),%eax
 45a3c18:	84 db                	test   %bl,%bl
 45a3c1a:	74 0d                	je     45a3c29 <github.com/lasselj/timebeat/beater/clocksync/servo.(*TimeSourceMap).addTimesource@@Base+0x349>
 45a3c1c:	48 8b 4c 24 48       	mov    0x48(%rsp),%rcx
 45a3c21:	88 81 f0 00 00 00    	mov    %al,0xf0(%rcx)
 45a3c27:	eb 05                	jmp    45a3c2e <github.com/lasselj/timebeat/beater/clocksync/servo.(*TimeSourceMap).addTimesource@@Base+0x34e>
 45a3c29:	48 8b 4c 24 48       	mov    0x48(%rsp),%rcx
 45a3c2e:	48 8d 05 0b 34 65 01 	lea    0x165340b(%rip),%rax        # 5bf7040 <type:0ovyx7QK@@Base>
 45a3c35:	e8 a6 c8 94 fd       	call   1ef04e0 <runtime.newobject@@Base>
 45a3c3a:	48 8d 0d 5f 01 00 00 	lea    0x15f(%rip),%rcx        # 45a3da0 <github.com/lasselj/timebeat/beater/clocksync/servo.(*TimeSourceMap).addTimesource.func1@@Base>
 45a3c41:	48 89 08             	mov    %rcx,(%rax)
 45a3c44:	83 3d 15 7d 8d 03 00 	cmpl   $0x0,0x38d7d15(%rip)        # 7e7b960 <runtime.writeBarrier@@Base>
 45a3c4b:	75 17                	jne    45a3c64 <github.com/lasselj/timebeat/beater/clocksync/servo.(*TimeSourceMap).addTimesource@@Base+0x384>
 45a3c4d:	48 8b 8c 24 80 00 00 	mov    0x80(%rsp),%rcx
 45a3c54:	00 
 45a3c55:	48 89 48 08          	mov    %rcx,0x8(%rax)
 45a3c59:	48 8b 54 24 48       	mov    0x48(%rsp),%rdx
 45a3c5e:	48 89 50 10          	mov    %rdx,0x10(%rax)
 45a3c62:	eb 21                	jmp    45a3c85 <github.com/lasselj/timebeat/beater/clocksync/servo.(*TimeSourceMap).addTimesource@@Base+0x3a5>
 45a3c64:	48 8d 78 08          	lea    0x8(%rax),%rdi
 45a3c68:	48 8b 8c 24 80 00 00 	mov    0x80(%rsp),%rcx
 45a3c6f:	00 
 45a3c70:	e8 8b 2a 9b fd       	call   1f56700 <runtime.gcWriteBarrierCX@@Base>
 45a3c75:	48 8d 78 10          	lea    0x10(%rax),%rdi
 45a3c79:	48 8b 54 24 48       	mov    0x48(%rsp),%rdx
 45a3c7e:	66 90                	xchg   %ax,%ax
 45a3c80:	e8 9b 2a 9b fd       	call   1f56720 <runtime.gcWriteBarrierDX@@Base>
 45a3c85:	0f b6 8c 24 90 00 00 	movzbl 0x90(%rsp),%ecx
 45a3c8c:	00 
 45a3c8d:	88 48 18             	mov    %cl,0x18(%rax)
 45a3c90:	48 89 c3             	mov    %rax,%rbx
 45a3c93:	48 b8 00 d6 11 7e 03 	movabs $0x37e11d600,%rax
 45a3c9a:	00 00 00 
 45a3c9d:	0f 1f 00             	nopl   (%rax)
 45a3ca0:	e8 1b 59 a2 fd       	call   1fc95c0 <time.AfterFunc@@Base>
 45a3ca5:	83 3d b4 7c 8d 03 00 	cmpl   $0x0,0x38d7cb4(%rip)        # 7e7b960 <runtime.writeBarrier@@Base>
 45a3cac:	75 0e                	jne    45a3cbc <github.com/lasselj/timebeat/beater/clocksync/servo.(*TimeSourceMap).addTimesource@@Base+0x3dc>
 45a3cae:	48 8b 4c 24 48       	mov    0x48(%rsp),%rcx
 45a3cb3:	48 89 81 b8 00 00 00 	mov    %rax,0xb8(%rcx)
 45a3cba:	eb 14                	jmp    45a3cd0 <github.com/lasselj/timebeat/beater/clocksync/servo.(*TimeSourceMap).addTimesource@@Base+0x3f0>
 45a3cbc:	48 8b 7c 24 48       	mov    0x48(%rsp),%rdi
 45a3cc1:	48 8d 8f b8 00 00 00 	lea    0xb8(%rdi),%rcx
 45a3cc8:	48 89 cf             	mov    %rcx,%rdi
 45a3ccb:	e8 30 29 9b fd       	call   1f56600 <runtime.gcWriteBarrier@@Base>
 45a3cd0:	48 8b 84 24 88 00 00 	mov    0x88(%rsp),%rax
 45a3cd7:	00 
 45a3cd8:	e8 83 06 00 00       	call   45a4360 <github.com/lasselj/timebeat/beater/clocksync/servo.makeTimeSourceKey@@Base>
 45a3cdd:	48 8b 8c 24 80 00 00 	mov    0x80(%rsp),%rcx
 45a3ce4:	00 
 45a3ce5:	48 8b 09             	mov    (%rcx),%rcx
 45a3ce8:	48 89 df             	mov    %rbx,%rdi
 45a3ceb:	48 89 cb             	mov    %rcx,%rbx
 45a3cee:	48 89 c1             	mov    %rax,%rcx
 45a3cf1:	48 8d 05 68 f3 47 01 	lea    0x147f368(%rip),%rax        # 5a23060 <type:Sl5uD34s@@Base>
 45a3cf8:	e8 e3 24 95 fd       	call   1ef61e0 <runtime.mapassign_faststr@@Base>
 45a3cfd:	84 00                	test   %al,(%rax)
 45a3cff:	83 3d 5a 7c 8d 03 00 	cmpl   $0x0,0x38d7c5a(%rip)        # 7e7b960 <runtime.writeBarrier@@Base>
 45a3d06:	75 0a                	jne    45a3d12 <github.com/lasselj/timebeat/beater/clocksync/servo.(*TimeSourceMap).addTimesource@@Base+0x432>
 45a3d08:	48 8b 4c 24 48       	mov    0x48(%rsp),%rcx
 45a3d0d:	48 89 08             	mov    %rcx,(%rax)
 45a3d10:	eb 10                	jmp    45a3d22 <github.com/lasselj/timebeat/beater/clocksync/servo.(*TimeSourceMap).addTimesource@@Base+0x442>
 45a3d12:	48 89 c7             	mov    %rax,%rdi
 45a3d15:	48 8b 44 24 48       	mov    0x48(%rsp),%rax
 45a3d1a:	e8 e1 28 9b fd       	call   1f56600 <runtime.gcWriteBarrier@@Base>
 45a3d1f:	48 89 c1             	mov    %rax,%rcx
 45a3d22:	0f b6 84 24 90 00 00 	movzbl 0x90(%rsp),%eax
 45a3d29:	00 
 45a3d2a:	84 c0                	test   %al,%al
 45a3d2c:	74 17                	je     45a3d45 <github.com/lasselj/timebeat/beater/clocksync/servo.(*TimeSourceMap).addTimesource@@Base+0x465>
 45a3d2e:	e8 4d ca ff ff       	call   45a0780 <github.com/lasselj/timebeat/beater/clocksync/servo.GetController@@Base>
 45a3d33:	48 8b 40 10          	mov    0x10(%rax),%rax
 45a3d37:	48 8b 5c 24 48       	mov    0x48(%rsp),%rbx
 45a3d3c:	0f 1f 40 00          	nopl   0x0(%rax)
 45a3d40:	e8 9b 00 00 00       	call   45a3de0 <github.com/lasselj/timebeat/beater/clocksync/servo.(*Offsets).LogNewTimesourceReporting@@Base>
 45a3d45:	e8 36 ca ff ff       	call   45a0780 <github.com/lasselj/timebeat/beater/clocksync/servo.GetController@@Base>
 45a3d4a:	48 8b 40 10          	mov    0x10(%rax),%rax
 45a3d4e:	e8 8d 0f 00 00       	call   45a4ce0 <github.com/lasselj/timebeat/beater/clocksync/servo.(*Offsets).ExitHoldoverIfWeHaveAnyActiveTimeSources@@Base>
 45a3d53:	48 8b 44 24 48       	mov    0x48(%rsp),%rax
 45a3d58:	48 8b 6c 24 70       	mov    0x70(%rsp),%rbp
 45a3d5d:	48 83 c4 78          	add    $0x78,%rsp
 45a3d61:	c3                   	ret
 45a3d62:	48 89 44 24 08       	mov    %rax,0x8(%rsp)
 45a3d67:	48 89 5c 24 10       	mov    %rbx,0x10(%rsp)
 45a3d6c:	88 4c 24 18          	mov    %cl,0x18(%rsp)
 45a3d70:	e8 eb 06 9b fd       	call   1f54460 <runtime.morestack_noctxt.abi0@@Base>
 45a3d75:	48 8b 44 24 08       	mov    0x8(%rsp),%rax
 45a3d7a:	48 8b 5c 24 10       	mov    0x10(%rsp),%rbx
 45a3d7f:	0f b6 4c 24 18       	movzbl 0x18(%rsp),%ecx
 45a3d84:	e9 57 fb ff ff       	jmp    45a38e0 <github.com/lasselj/timebeat/beater/clocksync/servo.(*TimeSourceMap).addTimesource@@Base>
 45a3d89:	cc                   	int3
 45a3d8a:	cc                   	int3
 45a3d8b:	cc                   	int3
 45a3d8c:	cc                   	int3
 45a3d8d:	cc                   	int3
 45a3d8e:	cc                   	int3
 45a3d8f:	cc                   	int3
 45a3d90:	cc                   	int3
 45a3d91:	cc                   	int3
 45a3d92:	cc                   	int3
 45a3d93:	cc                   	int3
 45a3d94:	cc                   	int3
 45a3d95:	cc                   	int3
 45a3d96:	cc                   	int3
 45a3d97:	cc                   	int3
 45a3d98:	cc                   	int3
 45a3d99:	cc                   	int3
 45a3d9a:	cc                   	int3
 45a3d9b:	cc                   	int3
 45a3d9c:	cc                   	int3
 45a3d9d:	cc                   	int3
 45a3d9e:	cc                   	int3
 45a3d9f:	cc                   	int3
