# github.com/lasselj/timebeat/beater/clocksync/hostclocks.GetAllClockOffsets
# addr 0x4591400 size 1408 (0x580)


/mnt/c/Users/SHIWA/GitHub/TimeCard-Mini/timebeat-extracted/usr/share/timebeat/bin/timebeat:     file format elf64-x86-64


Disassembly of section .text:

0000000004591400 <github.com/lasselj/timebeat/beater/clocksync/hostclocks.GetAllClockOffsets@@Base>:
 4591400:	4c 8d a4 24 30 ff ff 	lea    -0xd0(%rsp),%r12
 4591407:	ff 
 4591408:	4d 3b 66 10          	cmp    0x10(%r14),%r12
 459140c:	0f 86 63 05 00 00    	jbe    4591975 <github.com/lasselj/timebeat/beater/clocksync/hostclocks.GetAllClockOffsets@@Base+0x575>
 4591412:	48 81 ec 50 01 00 00 	sub    $0x150,%rsp
 4591419:	48 89 ac 24 48 01 00 	mov    %rbp,0x148(%rsp)
 4591420:	00 
 4591421:	48 8d ac 24 48 01 00 	lea    0x148(%rsp),%rbp
 4591428:	00 
 4591429:	49 c7 c5 00 00 00 00 	mov    $0x0,%r13
 4591430:	4c 89 ac 24 40 01 00 	mov    %r13,0x140(%rsp)
 4591437:	00 
 4591438:	c6 44 24 47 00       	movb   $0x0,0x47(%rsp)
 459143d:	44 0f 11 bc 24 e0 00 	movups %xmm15,0xe0(%rsp)
 4591444:	00 00 
 4591446:	e8 75 34 00 00       	call   45948c0 <github.com/lasselj/timebeat/beater/clocksync/hostclocks.GetController@@Base>
 459144b:	48 89 84 24 b0 00 00 	mov    %rax,0xb0(%rsp)
 4591452:	00 
 4591453:	48 8d 05 26 6c 5a 01 	lea    0x15a6c26(%rip),%rax        # 5b38080 <type:2qms9H/K@@Base>
 459145a:	e8 81 f0 95 fd       	call   1ef04e0 <runtime.newobject@@Base>
 459145f:	48 89 84 24 d8 00 00 	mov    %rax,0xd8(%rsp)
 4591466:	00 
 4591467:	48 c7 40 08 00 00 00 	movq   $0x0,0x8(%rax)
 459146e:	00 
 459146f:	48 8b 84 24 b0 00 00 	mov    0xb0(%rsp),%rax
 4591476:	00 
 4591477:	e8 a4 34 00 00       	call   4594920 <github.com/lasselj/timebeat/beater/clocksync/hostclocks.(*HostClockController).GetMasterHostClock@@Base>
 459147c:	48 89 84 24 a0 00 00 	mov    %rax,0xa0(%rsp)
 4591483:	00 
 4591484:	90                   	nop
 4591485:	48 8d 05 74 79 84 01 	lea    0x1847974(%rip),%rax        # 5dd8e00 <type:0V9RKtlS@@Base>
 459148c:	e8 4f f0 95 fd       	call   1ef04e0 <runtime.newobject@@Base>
 4591491:	48 8d 1d 88 3f 97 01 	lea    0x1973f88(%rip),%rbx        # 5f05420 <go:itab.*strings.Builder,io.Writer@@Base>
 4591498:	48 8b 8c 24 d8 00 00 	mov    0xd8(%rsp),%rcx
 459149f:	00 
 45914a0:	bf 01 00 00 00       	mov    $0x1,%edi
 45914a5:	48 89 fe             	mov    %rdi,%rsi
 45914a8:	49 89 f0             	mov    %rsi,%r8
 45914ab:	41 b9 20 00 00 00    	mov    $0x20,%r9d
 45914b1:	45 31 d2             	xor    %r10d,%r10d
 45914b4:	e8 07 13 e6 fd       	call   23f27c0 <text/tabwriter.(*Writer).Init@@Base>
 45914b9:	48 89 84 24 90 00 00 	mov    %rax,0x90(%rsp)
 45914c0:	00 
 45914c1:	48 89 c3             	mov    %rax,%rbx
 45914c4:	48 8d 0d ae 90 88 00 	lea    0x8890ae(%rip),%rcx        # 4e1a579 <_IO_stdin_used@@Base+0x1e7579>
 45914cb:	bf 29 00 00 00       	mov    $0x29,%edi
 45914d0:	31 f6                	xor    %esi,%esi
 45914d2:	45 31 c0             	xor    %r8d,%r8d
 45914d5:	4d 89 c1             	mov    %r8,%r9
 45914d8:	48 8d 05 81 40 97 01 	lea    0x1974081(%rip),%rax        # 5f05560 <go:itab.*text/tabwriter.Writer,io.Writer@@Base>
 45914df:	90                   	nop
 45914e0:	e8 fb 32 a6 fd       	call   1ff47e0 <fmt.Fprintf@@Base>
 45914e5:	48 8b 84 24 a0 00 00 	mov    0xa0(%rsp),%rax
 45914ec:	00 
 45914ed:	48 8b 48 40          	mov    0x40(%rax),%rcx
 45914f1:	48 85 c9             	test   %rcx,%rcx
 45914f4:	75 06                	jne    45914fc <github.com/lasselj/timebeat/beater/clocksync/hostclocks.GetAllClockOffsets@@Base+0xfc>
 45914f6:	31 db                	xor    %ebx,%ebx
 45914f8:	31 c9                	xor    %ecx,%ecx
 45914fa:	eb 14                	jmp    4591510 <github.com/lasselj/timebeat/beater/clocksync/hostclocks.GetAllClockOffsets@@Base+0x110>
 45914fc:	48 89 c8             	mov    %rcx,%rax
 45914ff:	90                   	nop
 4591500:	e8 3b 61 ff ff       	call   4587640 <github.com/lasselj/timebeat/beater/clocksync/phc.(*PHCDevice).GetDeviceName@@Base>
 4591505:	48 89 c1             	mov    %rax,%rcx
 4591508:	48 8b 84 24 a0 00 00 	mov    0xa0(%rsp),%rax
 459150f:	00 
 4591510:	48 89 5c 24 50       	mov    %rbx,0x50(%rsp)
 4591515:	48 89 8c 24 88 00 00 	mov    %rcx,0x88(%rsp)
 459151c:	00 
 459151d:	48 8b 10             	mov    (%rax),%rdx
 4591520:	48 8b 12             	mov    (%rdx),%rdx
 4591523:	48 89 d0             	mov    %rdx,%rax
 4591526:	e8 d5 97 a3 fd       	call   1fcad00 <time.Duration.String@@Base>
 459152b:	48 89 84 24 d0 00 00 	mov    %rax,0xd0(%rsp)
 4591532:	00 
 4591533:	48 89 5c 24 78       	mov    %rbx,0x78(%rsp)
 4591538:	48 8b 8c 24 a0 00 00 	mov    0xa0(%rsp),%rcx
 459153f:	00 
 4591540:	48 8b 91 00 01 00 00 	mov    0x100(%rcx),%rdx
 4591547:	48 89 d0             	mov    %rdx,%rax
 459154a:	e8 b1 97 a3 fd       	call   1fcad00 <time.Duration.String@@Base>
 459154f:	48 89 84 24 c8 00 00 	mov    %rax,0xc8(%rsp)
 4591556:	00 
 4591557:	48 89 5c 24 70       	mov    %rbx,0x70(%rsp)
 459155c:	48 8b 8c 24 a0 00 00 	mov    0xa0(%rsp),%rcx
 4591563:	00 
 4591564:	48 8b 49 40          	mov    0x40(%rcx),%rcx
 4591568:	8b 49 64             	mov    0x64(%rcx),%ecx
 459156b:	48 89 c8             	mov    %rcx,%rax
 459156e:	e8 2d 80 e8 ff       	call   44195a0 <github.com/lasselj/timebeat/beater/clocksync/servo/adjusttime.GetClockUsingGetTimeSyscall@@Base>
 4591573:	e8 68 ff a2 fd       	call   1fc14e0 <time.Time.String@@Base>
 4591578:	48 89 84 24 c0 00 00 	mov    %rax,0xc0(%rsp)
 459157f:	00 
 4591580:	48 89 5c 24 68       	mov    %rbx,0x68(%rsp)
 4591585:	44 0f 11 bc 24 00 01 	movups %xmm15,0x100(%rsp)
 459158c:	00 00 
 459158e:	44 0f 11 bc 24 10 01 	movups %xmm15,0x110(%rsp)
 4591595:	00 00 
 4591597:	44 0f 11 bc 24 20 01 	movups %xmm15,0x120(%rsp)
 459159e:	00 00 
 45915a0:	44 0f 11 bc 24 30 01 	movups %xmm15,0x130(%rsp)
 45915a7:	00 00 
 45915a9:	48 8b 84 24 88 00 00 	mov    0x88(%rsp),%rax
 45915b0:	00 
 45915b1:	48 8b 5c 24 50       	mov    0x50(%rsp),%rbx
 45915b6:	e8 a5 c7 95 fd       	call   1eedd60 <runtime.convTstring@@Base>
 45915bb:	48 8d 0d de d0 21 01 	lea    0x121d0de(%rip),%rcx        # 57ae6a0 <type:string@@Base>
 45915c2:	48 89 8c 24 00 01 00 	mov    %rcx,0x100(%rsp)
 45915c9:	00 
 45915ca:	48 89 84 24 08 01 00 	mov    %rax,0x108(%rsp)
 45915d1:	00 
 45915d2:	48 8b 84 24 d0 00 00 	mov    0xd0(%rsp),%rax
 45915d9:	00 
 45915da:	48 8b 5c 24 78       	mov    0x78(%rsp),%rbx
 45915df:	90                   	nop
 45915e0:	e8 7b c7 95 fd       	call   1eedd60 <runtime.convTstring@@Base>
 45915e5:	48 8d 0d b4 d0 21 01 	lea    0x121d0b4(%rip),%rcx        # 57ae6a0 <type:string@@Base>
 45915ec:	48 89 8c 24 10 01 00 	mov    %rcx,0x110(%rsp)
 45915f3:	00 
 45915f4:	48 89 84 24 18 01 00 	mov    %rax,0x118(%rsp)
 45915fb:	00 
 45915fc:	48 8b 84 24 c8 00 00 	mov    0xc8(%rsp),%rax
 4591603:	00 
 4591604:	48 8b 5c 24 70       	mov    0x70(%rsp),%rbx
 4591609:	e8 52 c7 95 fd       	call   1eedd60 <runtime.convTstring@@Base>
 459160e:	48 8d 0d 8b d0 21 01 	lea    0x121d08b(%rip),%rcx        # 57ae6a0 <type:string@@Base>
 4591615:	48 89 8c 24 20 01 00 	mov    %rcx,0x120(%rsp)
 459161c:	00 
 459161d:	48 89 84 24 28 01 00 	mov    %rax,0x128(%rsp)
 4591624:	00 
 4591625:	48 8b 84 24 c0 00 00 	mov    0xc0(%rsp),%rax
 459162c:	00 
 459162d:	48 8b 5c 24 68       	mov    0x68(%rsp),%rbx
 4591632:	e8 29 c7 95 fd       	call   1eedd60 <runtime.convTstring@@Base>
 4591637:	48 8d 0d 62 d0 21 01 	lea    0x121d062(%rip),%rcx        # 57ae6a0 <type:string@@Base>
 459163e:	48 89 8c 24 30 01 00 	mov    %rcx,0x130(%rsp)
 4591645:	00 
 4591646:	48 89 84 24 38 01 00 	mov    %rax,0x138(%rsp)
 459164d:	00 
 459164e:	48 8d 05 0b 3f 97 01 	lea    0x1973f0b(%rip),%rax        # 5f05560 <go:itab.*text/tabwriter.Writer,io.Writer@@Base>
 4591655:	48 8b 9c 24 90 00 00 	mov    0x90(%rsp),%rbx
 459165c:	00 
 459165d:	bf 14 00 00 00       	mov    $0x14,%edi
 4591662:	48 8d b4 24 00 01 00 	lea    0x100(%rsp),%rsi
 4591669:	00 
 459166a:	41 b8 04 00 00 00    	mov    $0x4,%r8d
 4591670:	4d 89 c1             	mov    %r8,%r9
 4591673:	48 8d 0d 5f 52 83 00 	lea    0x83525f(%rip),%rcx        # 4dc68d9 <_IO_stdin_used@@Base+0x1938d9>
 459167a:	e8 61 31 a6 fd       	call   1ff47e0 <fmt.Fprintf@@Base>
 459167f:	31 c0                	xor    %eax,%eax
 4591681:	48 8b 8c 24 b0 00 00 	mov    0xb0(%rsp),%rcx
 4591688:	00 
 4591689:	ba 01 00 00 00       	mov    $0x1,%edx
 459168e:	f0 0f b1 51 38       	lock cmpxchg %edx,0x38(%rcx)
 4591693:	0f 94 c2             	sete   %dl
 4591696:	48 8d 41 38          	lea    0x38(%rcx),%rax
 459169a:	84 d2                	test   %dl,%dl
 459169c:	75 1d                	jne    45916bb <github.com/lasselj/timebeat/beater/clocksync/hostclocks.GetAllClockOffsets@@Base+0x2bb>
 459169e:	48 89 84 24 a8 00 00 	mov    %rax,0xa8(%rsp)
 45916a5:	00 
 45916a6:	e8 95 6e 9e fd       	call   1f78540 <sync.(*Mutex).lockSlow@@Base>
 45916ab:	48 8b 84 24 a8 00 00 	mov    0xa8(%rsp),%rax
 45916b2:	00 
 45916b3:	48 8b 8c 24 b0 00 00 	mov    0xb0(%rsp),%rcx
 45916ba:	00 
 45916bb:	44 0f 11 bc 24 f0 00 	movups %xmm15,0xf0(%rsp)
 45916c2:	00 00 
 45916c4:	48 8d 15 b5 02 00 00 	lea    0x2b5(%rip),%rdx        # 4591980 <github.com/lasselj/timebeat/beater/clocksync/hostclocks.GetAllClockOffsets.func1@@Base>
 45916cb:	48 89 94 24 f0 00 00 	mov    %rdx,0xf0(%rsp)
 45916d2:	00 
 45916d3:	48 89 84 24 f8 00 00 	mov    %rax,0xf8(%rsp)
 45916da:	00 
 45916db:	48 8d 94 24 f0 00 00 	lea    0xf0(%rsp),%rdx
 45916e2:	00 
 45916e3:	48 89 94 24 40 01 00 	mov    %rdx,0x140(%rsp)
 45916ea:	00 
 45916eb:	c6 44 24 47 01       	movb   $0x1,0x47(%rsp)
 45916f0:	48 8b 51 20          	mov    0x20(%rcx),%rdx
 45916f4:	48 89 94 24 b8 00 00 	mov    %rdx,0xb8(%rsp)
 45916fb:	00 
 45916fc:	48 8b 49 28          	mov    0x28(%rcx),%rcx
 4591700:	48 89 4c 24 78       	mov    %rcx,0x78(%rsp)
 4591705:	31 c0                	xor    %eax,%eax
 4591707:	e9 81 01 00 00       	jmp    459188d <github.com/lasselj/timebeat/beater/clocksync/hostclocks.GetAllClockOffsets@@Base+0x48d>
 459170c:	48 89 74 24 48       	mov    %rsi,0x48(%rsp)
 4591711:	48 89 bc 24 80 00 00 	mov    %rdi,0x80(%rsp)
 4591718:	00 
 4591719:	48 8b 0b             	mov    (%rbx),%rcx
 459171c:	48 8b 01             	mov    (%rcx),%rax
 459171f:	90                   	nop
 4591720:	e8 db 95 a3 fd       	call   1fcad00 <time.Duration.String@@Base>
 4591725:	48 89 84 24 d0 00 00 	mov    %rax,0xd0(%rsp)
 459172c:	00 
 459172d:	48 89 5c 24 68       	mov    %rbx,0x68(%rsp)
 4591732:	48 8b 8c 24 98 00 00 	mov    0x98(%rsp),%rcx
 4591739:	00 
 459173a:	48 8b 91 00 01 00 00 	mov    0x100(%rcx),%rdx
 4591741:	48 89 d0             	mov    %rdx,%rax
 4591744:	e8 b7 95 a3 fd       	call   1fcad00 <time.Duration.String@@Base>
 4591749:	48 89 84 24 c8 00 00 	mov    %rax,0xc8(%rsp)
 4591750:	00 
 4591751:	48 89 5c 24 60       	mov    %rbx,0x60(%rsp)
 4591756:	48 8b 8c 24 98 00 00 	mov    0x98(%rsp),%rcx
 459175d:	00 
 459175e:	48 8b 49 40          	mov    0x40(%rcx),%rcx
 4591762:	8b 49 64             	mov    0x64(%rcx),%ecx
 4591765:	48 89 c8             	mov    %rcx,%rax
 4591768:	e8 33 7e e8 ff       	call   44195a0 <github.com/lasselj/timebeat/beater/clocksync/servo/adjusttime.GetClockUsingGetTimeSyscall@@Base>
 459176d:	e8 6e fd a2 fd       	call   1fc14e0 <time.Time.String@@Base>
 4591772:	48 89 84 24 c0 00 00 	mov    %rax,0xc0(%rsp)
 4591779:	00 
 459177a:	48 89 5c 24 58       	mov    %rbx,0x58(%rsp)
 459177f:	44 0f 11 bc 24 00 01 	movups %xmm15,0x100(%rsp)
 4591786:	00 00 
 4591788:	44 0f 11 bc 24 10 01 	movups %xmm15,0x110(%rsp)
 459178f:	00 00 
 4591791:	44 0f 11 bc 24 20 01 	movups %xmm15,0x120(%rsp)
 4591798:	00 00 
 459179a:	44 0f 11 bc 24 30 01 	movups %xmm15,0x130(%rsp)
 45917a1:	00 00 
 45917a3:	48 8b 84 24 80 00 00 	mov    0x80(%rsp),%rax
 45917aa:	00 
 45917ab:	48 8b 5c 24 48       	mov    0x48(%rsp),%rbx
 45917b0:	e8 ab c5 95 fd       	call   1eedd60 <runtime.convTstring@@Base>
 45917b5:	48 8d 0d e4 ce 21 01 	lea    0x121cee4(%rip),%rcx        # 57ae6a0 <type:string@@Base>
 45917bc:	48 89 8c 24 00 01 00 	mov    %rcx,0x100(%rsp)
 45917c3:	00 
 45917c4:	48 89 84 24 08 01 00 	mov    %rax,0x108(%rsp)
 45917cb:	00 
 45917cc:	48 8b 84 24 d0 00 00 	mov    0xd0(%rsp),%rax
 45917d3:	00 
 45917d4:	48 8b 5c 24 68       	mov    0x68(%rsp),%rbx
 45917d9:	e8 82 c5 95 fd       	call   1eedd60 <runtime.convTstring@@Base>
 45917de:	48 8d 0d bb ce 21 01 	lea    0x121cebb(%rip),%rcx        # 57ae6a0 <type:string@@Base>
 45917e5:	48 89 8c 24 10 01 00 	mov    %rcx,0x110(%rsp)
 45917ec:	00 
 45917ed:	48 89 84 24 18 01 00 	mov    %rax,0x118(%rsp)
 45917f4:	00 
 45917f5:	48 8b 84 24 c8 00 00 	mov    0xc8(%rsp),%rax
 45917fc:	00 
 45917fd:	48 8b 5c 24 60       	mov    0x60(%rsp),%rbx
 4591802:	e8 59 c5 95 fd       	call   1eedd60 <runtime.convTstring@@Base>
 4591807:	48 8d 0d 92 ce 21 01 	lea    0x121ce92(%rip),%rcx        # 57ae6a0 <type:string@@Base>
 459180e:	48 89 8c 24 20 01 00 	mov    %rcx,0x120(%rsp)
 4591815:	00 
 4591816:	48 89 84 24 28 01 00 	mov    %rax,0x128(%rsp)
 459181d:	00 
 459181e:	48 8b 84 24 c0 00 00 	mov    0xc0(%rsp),%rax
 4591825:	00 
 4591826:	48 8b 5c 24 58       	mov    0x58(%rsp),%rbx
 459182b:	e8 30 c5 95 fd       	call   1eedd60 <runtime.convTstring@@Base>
 4591830:	48 8d 0d 69 ce 21 01 	lea    0x121ce69(%rip),%rcx        # 57ae6a0 <type:string@@Base>
 4591837:	48 89 8c 24 30 01 00 	mov    %rcx,0x130(%rsp)
 459183e:	00 
 459183f:	48 89 84 24 38 01 00 	mov    %rax,0x138(%rsp)
 4591846:	00 
 4591847:	48 8d 05 12 3d 97 01 	lea    0x1973d12(%rip),%rax        # 5f05560 <go:itab.*text/tabwriter.Writer,io.Writer@@Base>
 459184e:	48 8b 9c 24 90 00 00 	mov    0x90(%rsp),%rbx
 4591855:	00 
 4591856:	bf 13 00 00 00       	mov    $0x13,%edi
 459185b:	48 8d b4 24 00 01 00 	lea    0x100(%rsp),%rsi
 4591862:	00 
 4591863:	41 b8 04 00 00 00    	mov    $0x4,%r8d
 4591869:	4d 89 c1             	mov    %r8,%r9
 459186c:	48 8d 0d 55 58 7d 00 	lea    0x7d5855(%rip),%rcx        # 4d670c8 <_IO_stdin_used@@Base+0x1340c8>
 4591873:	e8 68 2f a6 fd       	call   1ff47e0 <fmt.Fprintf@@Base>
 4591878:	48 8b 44 24 70       	mov    0x70(%rsp),%rax
 459187d:	48 ff c0             	inc    %rax
 4591880:	48 8b 4c 24 78       	mov    0x78(%rsp),%rcx
 4591885:	48 8b 94 24 b8 00 00 	mov    0xb8(%rsp),%rdx
 459188c:	00 
 459188d:	48 39 c8             	cmp    %rcx,%rax
 4591890:	7d 3e                	jge    45918d0 <github.com/lasselj/timebeat/beater/clocksync/hostclocks.GetAllClockOffsets@@Base+0x4d0>
 4591892:	48 89 44 24 70       	mov    %rax,0x70(%rsp)
 4591897:	48 8b 1c c2          	mov    (%rdx,%rax,8),%rbx
 459189b:	48 89 9c 24 98 00 00 	mov    %rbx,0x98(%rsp)
 45918a2:	00 
 45918a3:	48 8b 73 40          	mov    0x40(%rbx),%rsi
 45918a7:	48 85 f6             	test   %rsi,%rsi
 45918aa:	75 09                	jne    45918b5 <github.com/lasselj/timebeat/beater/clocksync/hostclocks.GetAllClockOffsets@@Base+0x4b5>
 45918ac:	31 f6                	xor    %esi,%esi
 45918ae:	31 ff                	xor    %edi,%edi
 45918b0:	e9 57 fe ff ff       	jmp    459170c <github.com/lasselj/timebeat/beater/clocksync/hostclocks.GetAllClockOffsets@@Base+0x30c>
 45918b5:	48 89 f0             	mov    %rsi,%rax
 45918b8:	e8 83 5d ff ff       	call   4587640 <github.com/lasselj/timebeat/beater/clocksync/phc.(*PHCDevice).GetDeviceName@@Base>
 45918bd:	48 89 de             	mov    %rbx,%rsi
 45918c0:	48 89 c7             	mov    %rax,%rdi
 45918c3:	48 8b 9c 24 98 00 00 	mov    0x98(%rsp),%rbx
 45918ca:	00 
 45918cb:	e9 3c fe ff ff       	jmp    459170c <github.com/lasselj/timebeat/beater/clocksync/hostclocks.GetAllClockOffsets@@Base+0x30c>
 45918d0:	90                   	nop
 45918d1:	48 8b 84 24 90 00 00 	mov    0x90(%rsp),%rax
 45918d8:	00 
 45918d9:	e8 22 21 e6 fd       	call   23f3a00 <text/tabwriter.(*Writer).flush@@Base>
 45918de:	48 8b 8c 24 d8 00 00 	mov    0xd8(%rsp),%rcx
 45918e5:	00 
 45918e6:	48 8b 51 08          	mov    0x8(%rcx),%rdx
 45918ea:	48 89 d3             	mov    %rdx,%rbx
 45918ed:	48 f7 da             	neg    %rdx
 45918f0:	48 8b 49 10          	mov    0x10(%rcx),%rcx
 45918f4:	48 39 d1             	cmp    %rdx,%rcx
 45918f7:	77 47                	ja     4591940 <github.com/lasselj/timebeat/beater/clocksync/hostclocks.GetAllClockOffsets@@Base+0x540>
 45918f9:	48 89 9c 24 e0 00 00 	mov    %rbx,0xe0(%rsp)
 4591900:	00 
 4591901:	48 89 8c 24 e8 00 00 	mov    %rcx,0xe8(%rsp)
 4591908:	00 
 4591909:	c6 44 24 47 00       	movb   $0x0,0x47(%rsp)
 459190e:	48 8b 94 24 40 01 00 	mov    0x140(%rsp),%rdx
 4591915:	00 
 4591916:	48 8b 02             	mov    (%rdx),%rax
 4591919:	ff d0                	call   *%rax
 459191b:	48 8b 84 24 e0 00 00 	mov    0xe0(%rsp),%rax
 4591922:	00 
 4591923:	48 8b 9c 24 e8 00 00 	mov    0xe8(%rsp),%rbx
 459192a:	00 
 459192b:	48 8b ac 24 48 01 00 	mov    0x148(%rsp),%rbp
 4591932:	00 
 4591933:	48 81 c4 50 01 00 00 	add    $0x150,%rsp
 459193a:	c3                   	ret
 459193b:	0f 1f 44 00 00       	nopl   0x0(%rax,%rax,1)
 4591940:	48 85 db             	test   %rbx,%rbx
 4591943:	74 05                	je     459194a <github.com/lasselj/timebeat/beater/clocksync/hostclocks.GetAllClockOffsets@@Base+0x54a>
 4591945:	e8 d6 92 9b fd       	call   1f4ac20 <runtime.panicunsafestringlen@@Base>
 459194a:	e8 11 93 9b fd       	call   1f4ac60 <runtime.panicunsafestringnilptr@@Base>
 459194f:	90                   	nop
 4591950:	e8 0b a6 98 fd       	call   1f1bf60 <runtime.deferreturn@@Base>
 4591955:	48 8b 84 24 e0 00 00 	mov    0xe0(%rsp),%rax
 459195c:	00 
 459195d:	48 8b 9c 24 e8 00 00 	mov    0xe8(%rsp),%rbx
 4591964:	00 
 4591965:	48 8b ac 24 48 01 00 	mov    0x148(%rsp),%rbp
 459196c:	00 
 459196d:	48 81 c4 50 01 00 00 	add    $0x150,%rsp
 4591974:	c3                   	ret
 4591975:	e8 e6 2a 9c fd       	call   1f54460 <runtime.morestack_noctxt.abi0@@Base>
 459197a:	e9 81 fa ff ff       	jmp    4591400 <github.com/lasselj/timebeat/beater/clocksync/hostclocks.GetAllClockOffsets@@Base>
 459197f:	cc                   	int3
