# github.com/lasselj/timebeat/beater/clocksync/clients/ptp.(*Controller).ConfigureTimeSource
# addr 0x45eb880 size 992 (0x3e0)


/mnt/c/Users/SHIWA/GitHub/TimeCard-Mini/timebeat-extracted/usr/share/timebeat/bin/timebeat:     file format elf64-x86-64


Disassembly of section .text:

00000000045eb880 <github.com/lasselj/timebeat/beater/clocksync/clients/ptp.(*Controller).ConfigureTimeSource@@Base>:
 45eb880:	4c 8d a4 24 10 f9 ff 	lea    -0x6f0(%rsp),%r12
 45eb887:	ff 
 45eb888:	4d 3b 66 10          	cmp    0x10(%r14),%r12
 45eb88c:	0f 86 75 03 00 00    	jbe    45ebc07 <github.com/lasselj/timebeat/beater/clocksync/clients/ptp.(*Controller).ConfigureTimeSource@@Base+0x387>
 45eb892:	48 81 ec 70 07 00 00 	sub    $0x770,%rsp
 45eb899:	48 89 ac 24 68 07 00 	mov    %rbp,0x768(%rsp)
 45eb8a0:	00 
 45eb8a1:	48 8d ac 24 68 07 00 	lea    0x768(%rsp),%rbp
 45eb8a8:	00 
 45eb8a9:	48 89 bc 24 90 07 00 	mov    %rdi,0x790(%rsp)
 45eb8b0:	00 
 45eb8b1:	48 89 b4 24 98 07 00 	mov    %rsi,0x798(%rsp)
 45eb8b8:	00 
 45eb8b9:	48 89 f9             	mov    %rdi,%rcx
 45eb8bc:	48 8d bc 24 18 05 00 	lea    0x518(%rsp),%rdi
 45eb8c3:	00 
 45eb8c4:	48 8d 7f d0          	lea    -0x30(%rdi),%rdi
 45eb8c8:	48 89 6c 24 f0       	mov    %rbp,-0x10(%rsp)
 45eb8cd:	48 8d 6c 24 f0       	lea    -0x10(%rsp),%rbp
 45eb8d2:	e8 41 b4 96 fd       	call   1f56d18 <runtime.duffzero@@Base+0x98>
 45eb8d7:	48 8b 6d 00          	mov    0x0(%rbp),%rbp
 45eb8db:	48 8d 1d 3e 99 65 01 	lea    0x165993e(%rip),%rbx        # 5c45220 <type:K0rE3Tf5@@Base>
 45eb8e2:	48 39 d9             	cmp    %rbx,%rcx
 45eb8e5:	0f 85 0c 03 00 00    	jne    45ebbf7 <github.com/lasselj/timebeat/beater/clocksync/clients/ptp.(*Controller).ConfigureTimeSource@@Base+0x377>
 45eb8eb:	48 8d bc 24 18 05 00 	lea    0x518(%rsp),%rdi
 45eb8f2:	00 
 45eb8f3:	66 0f 1f 84 00 00 00 	nopw   0x0(%rax,%rax,1)
 45eb8fa:	00 00 
 45eb8fc:	0f 1f 40 00          	nopl   0x0(%rax)
 45eb900:	48 89 6c 24 f0       	mov    %rbp,-0x10(%rsp)
 45eb905:	48 8d 6c 24 f0       	lea    -0x10(%rsp),%rbp
 45eb90a:	e8 6b b6 96 fd       	call   1f56f7a <runtime.duffcopy@@Base+0x17a>
 45eb90f:	48 8b 6d 00          	mov    0x0(%rbp),%rbp
 45eb913:	48 8d bc 24 c8 02 00 	lea    0x2c8(%rsp),%rdi
 45eb91a:	00 
 45eb91b:	48 8d b4 24 18 05 00 	lea    0x518(%rsp),%rsi
 45eb922:	00 
 45eb923:	48 89 6c 24 f0       	mov    %rbp,-0x10(%rsp)
 45eb928:	48 8d 6c 24 f0       	lea    -0x10(%rsp),%rbp
 45eb92d:	e8 48 b6 96 fd       	call   1f56f7a <runtime.duffcopy@@Base+0x17a>
 45eb932:	48 8b 6d 00          	mov    0x0(%rbp),%rbp
 45eb936:	48 8b 94 24 c8 02 00 	mov    0x2c8(%rsp),%rdx
 45eb93d:	00 
 45eb93e:	48 83 bc 24 d0 02 00 	cmpq   $0x3,0x2d0(%rsp)
 45eb945:	00 03 
 45eb947:	0f 85 8b 02 00 00    	jne    45ebbd8 <github.com/lasselj/timebeat/beater/clocksync/clients/ptp.(*Controller).ConfigureTimeSource@@Base+0x358>
 45eb94d:	66 81 3a 70 74       	cmpw   $0x7470,(%rdx)
 45eb952:	0f 85 80 02 00 00    	jne    45ebbd8 <github.com/lasselj/timebeat/beater/clocksync/clients/ptp.(*Controller).ConfigureTimeSource@@Base+0x358>
 45eb958:	80 7a 02 70          	cmpb   $0x70,0x2(%rdx)
 45eb95c:	0f 1f 40 00          	nopl   0x0(%rax)
 45eb960:	0f 85 72 02 00 00    	jne    45ebbd8 <github.com/lasselj/timebeat/beater/clocksync/clients/ptp.(*Controller).ConfigureTimeSource@@Base+0x358>
 45eb966:	0f b6 8c 24 d9 02 00 	movzbl 0x2d9(%rsp),%ecx
 45eb96d:	00 
 45eb96e:	48 8b 94 24 40 03 00 	mov    0x340(%rsp),%rdx
 45eb975:	00 
 45eb976:	48 8b 9c 24 48 03 00 	mov    0x348(%rsp),%rbx
 45eb97d:	00 
 45eb97e:	4c 8b 8c 24 10 03 00 	mov    0x310(%rsp),%r9
 45eb985:	00 
 45eb986:	4c 8b 94 24 08 03 00 	mov    0x308(%rsp),%r10
 45eb98d:	00 
 45eb98e:	49 83 f9 01          	cmp    $0x1,%r9
 45eb992:	74 06                	je     45eb99a <github.com/lasselj/timebeat/beater/clocksync/clients/ptp.(*Controller).ConfigureTimeSource@@Base+0x11a>
 45eb994:	45 31 d2             	xor    %r10d,%r10d
 45eb997:	45 31 c9             	xor    %r9d,%r9d
 45eb99a:	48 89 84 24 78 07 00 	mov    %rax,0x778(%rsp)
 45eb9a1:	00 
 45eb9a2:	49 83 f9 01          	cmp    $0x1,%r9
 45eb9a6:	0f 85 82 00 00 00    	jne    45eba2e <github.com/lasselj/timebeat/beater/clocksync/clients/ptp.(*Controller).ConfigureTimeSource@@Base+0x1ae>
 45eb9ac:	80 bc 24 01 03 00 00 	cmpb   $0x0,0x301(%rsp)
 45eb9b3:	00 
 45eb9b4:	75 78                	jne    45eba2e <github.com/lasselj/timebeat/beater/clocksync/clients/ptp.(*Controller).ConfigureTimeSource@@Base+0x1ae>
 45eb9b6:	48 89 9c 24 78 02 00 	mov    %rbx,0x278(%rsp)
 45eb9bd:	00 
 45eb9be:	48 89 94 24 90 02 00 	mov    %rdx,0x290(%rsp)
 45eb9c5:	00 
 45eb9c6:	88 8c 24 77 02 00 00 	mov    %cl,0x277(%rsp)
 45eb9cd:	49 8b 02             	mov    (%r10),%rax
 45eb9d0:	49 8b 5a 08          	mov    0x8(%r10),%rbx
 45eb9d4:	48 8d 0d 85 b1 ee 00 	lea    0xeeb185(%rip),%rcx        # 54d6b60 <_IO_stdin_used@@Base+0x8a3b60>
 45eb9db:	bf 01 00 00 00       	mov    $0x1,%edi
 45eb9e0:	31 f6                	xor    %esi,%esi
 45eb9e2:	49 c7 c0 ff ff ff ff 	mov    $0xffffffffffffffff,%r8
 45eb9e9:	e8 92 b4 a1 fd       	call   2006e80 <strings.genSplit@@Base>
 45eb9ee:	48 85 db             	test   %rbx,%rbx
 45eb9f1:	0f 86 f6 01 00 00    	jbe    45ebbed <github.com/lasselj/timebeat/beater/clocksync/clients/ptp.(*Controller).ConfigureTimeSource@@Base+0x36d>
 45eb9f7:	48 8b 08             	mov    (%rax),%rcx
 45eb9fa:	48 8b 58 08          	mov    0x8(%rax),%rbx
 45eb9fe:	48 89 c8             	mov    %rcx,%rax
 45eba01:	e8 5a a0 a5 fd       	call   2045a60 <net.ParseIP@@Base>
 45eba06:	48 89 c7             	mov    %rax,%rdi
 45eba09:	48 89 de             	mov    %rbx,%rsi
 45eba0c:	49 89 c8             	mov    %rcx,%r8
 45eba0f:	48 8b 84 24 90 02 00 	mov    0x290(%rsp),%rax
 45eba16:	00 
 45eba17:	48 8b 9c 24 78 02 00 	mov    0x278(%rsp),%rbx
 45eba1e:	00 
 45eba1f:	0f b6 8c 24 77 02 00 	movzbl 0x277(%rsp),%ecx
 45eba26:	00 
 45eba27:	e8 74 70 fd ff       	call   45c2aa0 <github.com/lasselj/timebeat/beater/clocksync/clients/ptp/foreignclocks.MakeContextFromIfaceAndDomain@@Base>
 45eba2c:	eb 17                	jmp    45eba45 <github.com/lasselj/timebeat/beater/clocksync/clients/ptp.(*Controller).ConfigureTimeSource@@Base+0x1c5>
 45eba2e:	48 89 d0             	mov    %rdx,%rax
 45eba31:	48 8d bc 24 77 02 00 	lea    0x277(%rsp),%rdi
 45eba38:	00 
 45eba39:	31 f6                	xor    %esi,%esi
 45eba3b:	49 89 f0             	mov    %rsi,%r8
 45eba3e:	66 90                	xchg   %ax,%ax
 45eba40:	e8 5b 70 fd ff       	call   45c2aa0 <github.com/lasselj/timebeat/beater/clocksync/clients/ptp/foreignclocks.MakeContextFromIfaceAndDomain@@Base>
 45eba45:	48 89 9c 24 80 02 00 	mov    %rbx,0x280(%rsp)
 45eba4c:	00 
 45eba4d:	48 89 84 24 98 02 00 	mov    %rax,0x298(%rsp)
 45eba54:	00 
 45eba55:	48 89 84 24 b8 02 00 	mov    %rax,0x2b8(%rsp)
 45eba5c:	00 
 45eba5d:	48 89 9c 24 c0 02 00 	mov    %rbx,0x2c0(%rsp)
 45eba64:	00 
 45eba65:	48 8b 94 24 78 07 00 	mov    0x778(%rsp),%rdx
 45eba6c:	00 
 45eba6d:	84 02                	test   %al,(%rdx)
 45eba6f:	48 8d 72 38          	lea    0x38(%rdx),%rsi
 45eba73:	48 89 b4 24 a0 02 00 	mov    %rsi,0x2a0(%rsp)
 45eba7a:	00 
 45eba7b:	48 8d 8c 24 b8 02 00 	lea    0x2b8(%rsp),%rcx
 45eba82:	00 
 45eba83:	48 89 f0             	mov    %rsi,%rax
 45eba86:	48 8d 1d 13 2c 1c 01 	lea    0x11c2c13(%rip),%rbx        # 57ae6a0 <type:string@@Base>
 45eba8d:	e8 8e ae 98 fd       	call   1f76920 <sync.(*Map).Load@@Base>
 45eba92:	84 c9                	test   %cl,%cl
 45eba94:	0f 85 3e 01 00 00    	jne    45ebbd8 <github.com/lasselj/timebeat/beater/clocksync/clients/ptp.(*Controller).ConfigureTimeSource@@Base+0x358>
 45eba9a:	48 8b 84 24 78 07 00 	mov    0x778(%rsp),%rax
 45ebaa1:	00 
 45ebaa2:	80 b8 81 00 00 00 00 	cmpb   $0x0,0x81(%rax)
 45ebaa9:	74 6d                	je     45ebb18 <github.com/lasselj/timebeat/beater/clocksync/clients/ptp.(*Controller).ConfigureTimeSource@@Base+0x298>
 45ebaab:	44 0f 11 bc 24 a8 02 	movups %xmm15,0x2a8(%rsp)
 45ebab2:	00 00 
 45ebab4:	48 8b 84 24 98 02 00 	mov    0x298(%rsp),%rax
 45ebabb:	00 
 45ebabc:	48 8b 9c 24 80 02 00 	mov    0x280(%rsp),%rbx
 45ebac3:	00 
 45ebac4:	e8 97 22 90 fd       	call   1eedd60 <runtime.convTstring@@Base>
 45ebac9:	48 8d 0d d0 2b 1c 01 	lea    0x11c2bd0(%rip),%rcx        # 57ae6a0 <type:string@@Base>
 45ebad0:	48 89 8c 24 a8 02 00 	mov    %rcx,0x2a8(%rsp)
 45ebad7:	00 
 45ebad8:	48 89 84 24 b0 02 00 	mov    %rax,0x2b0(%rsp)
 45ebadf:	00 
 45ebae0:	48 8b 1d 59 37 84 03 	mov    0x3843759(%rip),%rbx        # 7e2f240 <os.Stdout@@Base>
 45ebae7:	48 8d 05 32 97 91 01 	lea    0x1919732(%rip),%rax        # 5f05220 <go:itab.*os.File,io.Writer@@Base>
 45ebaee:	bf 0b 00 00 00       	mov    $0xb,%edi
 45ebaf3:	48 8d b4 24 a8 02 00 	lea    0x2a8(%rsp),%rsi
 45ebafa:	00 
 45ebafb:	41 b8 01 00 00 00    	mov    $0x1,%r8d
 45ebb01:	4d 89 c1             	mov    %r8,%r9
 45ebb04:	48 8d 0d 1c ee 67 00 	lea    0x67ee1c(%rip),%rcx        # 4c6a927 <_IO_stdin_used@@Base+0x37927>
 45ebb0b:	e8 d0 8c a0 fd       	call   1ff47e0 <fmt.Fprintf@@Base>
 45ebb10:	48 8b 84 24 78 07 00 	mov    0x778(%rsp),%rax
 45ebb17:	00 
 45ebb18:	48 89 e7             	mov    %rsp,%rdi
 45ebb1b:	48 8d b4 24 c8 02 00 	lea    0x2c8(%rsp),%rsi
 45ebb22:	00 
 45ebb23:	48 89 6c 24 f0       	mov    %rbp,-0x10(%rsp)
 45ebb28:	48 8d 6c 24 f0       	lea    -0x10(%rsp),%rbp
 45ebb2d:	e8 48 b4 96 fd       	call   1f56f7a <runtime.duffcopy@@Base+0x17a>
 45ebb32:	48 8b 6d 00          	mov    0x0(%rbp),%rbp
 45ebb36:	e8 05 d8 ff ff       	call   45e9340 <github.com/lasselj/timebeat/beater/clocksync/clients/ptp.(*Controller).makeNormalOrigin@@Base>
 45ebb3b:	48 8b 8c 24 78 07 00 	mov    0x778(%rsp),%rcx
 45ebb42:	00 
 45ebb43:	48 8b 11             	mov    (%rcx),%rdx
 45ebb46:	48 89 e7             	mov    %rsp,%rdi
 45ebb49:	48 8d b4 24 c8 02 00 	lea    0x2c8(%rsp),%rsi
 45ebb50:	00 
 45ebb51:	66 0f 1f 84 00 00 00 	nopw   0x0(%rax,%rax,1)
 45ebb58:	00 00 
 45ebb5a:	66 0f 1f 44 00 00    	nopw   0x0(%rax,%rax,1)
 45ebb60:	48 89 6c 24 f0       	mov    %rbp,-0x10(%rsp)
 45ebb65:	48 8d 6c 24 f0       	lea    -0x10(%rsp),%rbp
 45ebb6a:	e8 0b b4 96 fd       	call   1f56f7a <runtime.duffcopy@@Base+0x17a>
 45ebb6f:	48 8b 6d 00          	mov    0x0(%rbp),%rbp
 45ebb73:	48 89 df             	mov    %rbx,%rdi
 45ebb76:	48 89 d3             	mov    %rdx,%rbx
 45ebb79:	48 89 c2             	mov    %rax,%rdx
 45ebb7c:	48 89 c8             	mov    %rcx,%rax
 45ebb7f:	48 89 d1             	mov    %rdx,%rcx
 45ebb82:	e8 d9 00 00 00       	call   45ebc60 <github.com/lasselj/timebeat/beater/clocksync/clients/ptp.(*Controller).makeNewClient@@Base>
 45ebb87:	48 89 84 24 88 02 00 	mov    %rax,0x288(%rsp)
 45ebb8e:	00 
 45ebb8f:	48 8b 9c 24 80 02 00 	mov    0x280(%rsp),%rbx
 45ebb96:	00 
 45ebb97:	48 8b 84 24 98 02 00 	mov    0x298(%rsp),%rax
 45ebb9e:	00 
 45ebb9f:	90                   	nop
 45ebba0:	e8 bb 21 90 fd       	call   1eedd60 <runtime.convTstring@@Base>
 45ebba5:	48 8d 1d f4 2a 1c 01 	lea    0x11c2af4(%rip),%rbx        # 57ae6a0 <type:string@@Base>
 45ebbac:	48 89 c1             	mov    %rax,%rcx
 45ebbaf:	48 8d 3d 4a 80 8d 01 	lea    0x18d804a(%rip),%rdi        # 5ec3c00 <type:97XPxJCH@@Base>
 45ebbb6:	48 8b b4 24 88 02 00 	mov    0x288(%rsp),%rsi
 45ebbbd:	00 
 45ebbbe:	48 8b 84 24 a0 02 00 	mov    0x2a0(%rsp),%rax
 45ebbc5:	00 
 45ebbc6:	e8 95 ba 98 fd       	call   1f77660 <sync.(*Map).Swap@@Base>
 45ebbcb:	48 8b 84 24 88 02 00 	mov    0x288(%rsp),%rax
 45ebbd2:	00 
 45ebbd3:	e8 a8 89 fe ff       	call   45d4580 <github.com/lasselj/timebeat/beater/clocksync/clients/ptp/client.(*Client).Start@@Base>
 45ebbd8:	b8 01 00 00 00       	mov    $0x1,%eax
 45ebbdd:	48 8b ac 24 68 07 00 	mov    0x768(%rsp),%rbp
 45ebbe4:	00 
 45ebbe5:	48 81 c4 70 07 00 00 	add    $0x770,%rsp
 45ebbec:	c3                   	ret
 45ebbed:	31 c0                	xor    %eax,%eax
 45ebbef:	48 89 c1             	mov    %rax,%rcx
 45ebbf2:	e8 a9 ae 96 fd       	call   1f56aa0 <runtime.panicIndex@@Base>
 45ebbf7:	48 89 c8             	mov    %rcx,%rax
 45ebbfa:	48 8d 0d 3f 87 2c 01 	lea    0x12c873f(%rip),%rcx        # 58b4340 <type:tpDRQG8O@@Base>
 45ebc01:	e8 9a 1c 90 fd       	call   1eed8a0 <runtime.panicdottypeE@@Base>
 45ebc06:	90                   	nop
 45ebc07:	48 89 44 24 08       	mov    %rax,0x8(%rsp)
 45ebc0c:	48 89 5c 24 10       	mov    %rbx,0x10(%rsp)
 45ebc11:	48 89 4c 24 18       	mov    %rcx,0x18(%rsp)
 45ebc16:	48 89 7c 24 20       	mov    %rdi,0x20(%rsp)
 45ebc1b:	48 89 74 24 28       	mov    %rsi,0x28(%rsp)
 45ebc20:	e8 3b 88 96 fd       	call   1f54460 <runtime.morestack_noctxt.abi0@@Base>
 45ebc25:	48 8b 44 24 08       	mov    0x8(%rsp),%rax
 45ebc2a:	48 8b 5c 24 10       	mov    0x10(%rsp),%rbx
 45ebc2f:	48 8b 4c 24 18       	mov    0x18(%rsp),%rcx
 45ebc34:	48 8b 7c 24 20       	mov    0x20(%rsp),%rdi
 45ebc39:	48 8b 74 24 28       	mov    0x28(%rsp),%rsi
 45ebc3e:	66 90                	xchg   %ax,%ax
 45ebc40:	e9 3b fc ff ff       	jmp    45eb880 <github.com/lasselj/timebeat/beater/clocksync/clients/ptp.(*Controller).ConfigureTimeSource@@Base>
 45ebc45:	cc                   	int3
 45ebc46:	cc                   	int3
 45ebc47:	cc                   	int3
 45ebc48:	cc                   	int3
 45ebc49:	cc                   	int3
 45ebc4a:	cc                   	int3
 45ebc4b:	cc                   	int3
 45ebc4c:	cc                   	int3
 45ebc4d:	cc                   	int3
 45ebc4e:	cc                   	int3
 45ebc4f:	cc                   	int3
 45ebc50:	cc                   	int3
 45ebc51:	cc                   	int3
 45ebc52:	cc                   	int3
 45ebc53:	cc                   	int3
 45ebc54:	cc                   	int3
 45ebc55:	cc                   	int3
 45ebc56:	cc                   	int3
 45ebc57:	cc                   	int3
 45ebc58:	cc                   	int3
 45ebc59:	cc                   	int3
 45ebc5a:	cc                   	int3
 45ebc5b:	cc                   	int3
 45ebc5c:	cc                   	int3
 45ebc5d:	cc                   	int3
 45ebc5e:	cc                   	int3
 45ebc5f:	cc                   	int3
