# github.com/lasselj/timebeat/beater/clocksync/clients/ptpsquared.(*PeerHandler).SendResponse
# addr 0x4b5bf20 size 1280 (0x500)


/mnt/c/Users/SHIWA/GitHub/TimeCard-Mini/timebeat-extracted/usr/share/timebeat/bin/timebeat:     file format elf64-x86-64


Disassembly of section .text:

0000000004b5bf20 <github.com/lasselj/timebeat/beater/clocksync/clients/ptpsquared.(*PeerHandler).SendResponse@@Base>:
 4b5bf20:	4c 8d 64 24 c8       	lea    -0x38(%rsp),%r12
 4b5bf25:	4d 3b 66 10          	cmp    0x10(%r14),%r12
 4b5bf29:	0f 86 9e 04 00 00    	jbe    4b5c3cd <github.com/lasselj/timebeat/beater/clocksync/clients/ptpsquared.(*PeerHandler).SendResponse@@Base+0x4ad>
 4b5bf2f:	48 81 ec b8 00 00 00 	sub    $0xb8,%rsp
 4b5bf36:	48 89 ac 24 b0 00 00 	mov    %rbp,0xb0(%rsp)
 4b5bf3d:	00 
 4b5bf3e:	48 8d ac 24 b0 00 00 	lea    0xb0(%rsp),%rbp
 4b5bf45:	00 
 4b5bf46:	48 89 9c 24 c8 00 00 	mov    %rbx,0xc8(%rsp)
 4b5bf4d:	00 
 4b5bf4e:	44 88 84 24 e8 00 00 	mov    %r8b,0xe8(%rsp)
 4b5bf55:	00 
 4b5bf56:	48 89 b4 24 e0 00 00 	mov    %rsi,0xe0(%rsp)
 4b5bf5d:	00 
 4b5bf5e:	48 89 bc 24 d8 00 00 	mov    %rdi,0xd8(%rsp)
 4b5bf65:	00 
 4b5bf66:	48 89 84 24 c0 00 00 	mov    %rax,0xc0(%rsp)
 4b5bf6d:	00 
 4b5bf6e:	48 8b 10             	mov    (%rax),%rdx
 4b5bf71:	48 89 d0             	mov    %rdx,%rax
 4b5bf74:	31 ff                	xor    %edi,%edi
 4b5bf76:	e8 05 d4 ff ff       	call   4b59380 <github.com/lasselj/timebeat/beater/clocksync/clients/ptpsquared.(*Node).NewMessageData@@Base>
 4b5bf7b:	48 89 84 24 88 00 00 	mov    %rax,0x88(%rsp)
 4b5bf82:	00 
 4b5bf83:	48 8d 05 16 13 2a 01 	lea    0x12a1316(%rip),%rax        # 5dfd2a0 <type:2Lozxwla@@Base>
 4b5bf8a:	e8 51 45 39 fd       	call   1ef04e0 <runtime.newobject@@Base>
 4b5bf8f:	83 3d ca f9 31 03 00 	cmpl   $0x0,0x331f9ca(%rip)        # 7e7b960 <runtime.writeBarrier@@Base>
 4b5bf96:	75 0d                	jne    4b5bfa5 <github.com/lasselj/timebeat/beater/clocksync/clients/ptpsquared.(*PeerHandler).SendResponse@@Base+0x85>
 4b5bf98:	48 8b 94 24 88 00 00 	mov    0x88(%rsp),%rdx
 4b5bf9f:	00 
 4b5bfa0:	48 89 10             	mov    %rdx,(%rax)
 4b5bfa3:	eb 10                	jmp    4b5bfb5 <github.com/lasselj/timebeat/beater/clocksync/clients/ptpsquared.(*PeerHandler).SendResponse@@Base+0x95>
 4b5bfa5:	48 89 c7             	mov    %rax,%rdi
 4b5bfa8:	48 8b 94 24 88 00 00 	mov    0x88(%rsp),%rdx
 4b5bfaf:	00 
 4b5bfb0:	e8 6b a7 3f fd       	call   1f56720 <runtime.gcWriteBarrierDX@@Base>
 4b5bfb5:	48 89 44 24 70       	mov    %rax,0x70(%rsp)
 4b5bfba:	c7 40 08 05 00 00 00 	movl   $0x5,0x8(%rax)
 4b5bfc1:	0f b6 94 24 e8 00 00 	movzbl 0xe8(%rsp),%edx
 4b5bfc8:	00 
 4b5bfc9:	84 d2                	test   %dl,%dl
 4b5bfcb:	0f 84 fe 01 00 00    	je     4b5c1cf <github.com/lasselj/timebeat/beater/clocksync/clients/ptpsquared.(*PeerHandler).SendResponse@@Base+0x2af>
 4b5bfd1:	48 8b 84 24 c0 00 00 	mov    0xc0(%rsp),%rax
 4b5bfd8:	00 
 4b5bfd9:	48 8b 9c 24 d8 00 00 	mov    0xd8(%rsp),%rbx
 4b5bfe0:	00 
 4b5bfe1:	48 8b 8c 24 e0 00 00 	mov    0xe0(%rsp),%rcx
 4b5bfe8:	00 
 4b5bfe9:	e8 52 45 00 00       	call   4b60540 <github.com/lasselj/timebeat/beater/clocksync/clients/ptpsquared.(*PeerHandler).getPeerType@@Base>
 4b5bfee:	48 83 f8 02          	cmp    $0x2,%rax
 4b5bff2:	0f 85 cf 01 00 00    	jne    4b5c1c7 <github.com/lasselj/timebeat/beater/clocksync/clients/ptpsquared.(*PeerHandler).SendResponse@@Base+0x2a7>
 4b5bff8:	48 8b 0d 61 01 2d 03 	mov    0x32d0161(%rip),%rcx        # 7e2c160 <github.com/lasselj/timebeat/beater/clocksync/clients/ptpsquared.controller@@Base>
 4b5bfff:	48 8b 51 38          	mov    0x38(%rcx),%rdx
 4b5c003:	0f b7 72 38          	movzwl 0x38(%rdx),%esi
 4b5c007:	44 8d 46 01          	lea    0x1(%rsi),%r8d
 4b5c00b:	66 44 89 42 38       	mov    %r8w,0x38(%rdx)
 4b5c010:	48 8b 49 38          	mov    0x38(%rcx),%rcx
 4b5c014:	66 81 79 38 0f 27    	cmpw   $0x270f,0x38(%rcx)
 4b5c01a:	76 06                	jbe    4b5c022 <github.com/lasselj/timebeat/beater/clocksync/clients/ptpsquared.(*PeerHandler).SendResponse@@Base+0x102>
 4b5c01c:	66 c7 41 38 e9 03    	movw   $0x3e9,0x38(%rcx)
 4b5c022:	48 89 5c 24 78       	mov    %rbx,0x78(%rsp)
 4b5c027:	66 89 73 4a          	mov    %si,0x4a(%rbx)
 4b5c02b:	48 8b 7c 24 70       	mov    0x70(%rsp),%rdi
 4b5c030:	c7 47 08 01 00 00 00 	movl   $0x1,0x8(%rdi)
 4b5c037:	48 8b 4b 28          	mov    0x28(%rbx),%rcx
 4b5c03b:	48 8b 53 30          	mov    0x30(%rbx),%rdx
 4b5c03f:	48 8b 73 38          	mov    0x38(%rbx),%rsi
 4b5c043:	48 89 57 18          	mov    %rdx,0x18(%rdi)
 4b5c047:	48 89 77 20          	mov    %rsi,0x20(%rdi)
 4b5c04b:	83 3d 0e f9 31 03 00 	cmpl   $0x0,0x331f90e(%rip)        # 7e7b960 <runtime.writeBarrier@@Base>
 4b5c052:	75 06                	jne    4b5c05a <github.com/lasselj/timebeat/beater/clocksync/clients/ptpsquared.(*PeerHandler).SendResponse@@Base+0x13a>
 4b5c054:	48 89 4f 10          	mov    %rcx,0x10(%rdi)
 4b5c058:	eb 0c                	jmp    4b5c066 <github.com/lasselj/timebeat/beater/clocksync/clients/ptpsquared.(*PeerHandler).SendResponse@@Base+0x146>
 4b5c05a:	48 8d 57 10          	lea    0x10(%rdi),%rdx
 4b5c05e:	48 89 d7             	mov    %rdx,%rdi
 4b5c061:	e8 9a a6 3f fd       	call   1f56700 <runtime.gcWriteBarrierCX@@Base>
 4b5c066:	48 8b 8c 24 c0 00 00 	mov    0xc0(%rsp),%rcx
 4b5c06d:	00 
 4b5c06e:	48 8b 51 20          	mov    0x20(%rcx),%rdx
 4b5c072:	48 8b 12             	mov    (%rdx),%rdx
 4b5c075:	48 8b 42 38          	mov    0x38(%rdx),%rax
 4b5c079:	48 8b 5a 40          	mov    0x40(%rdx),%rbx
 4b5c07d:	0f 1f 00             	nopl   (%rax)
 4b5c080:	e8 db 99 4e fd       	call   2045a60 <net.ParseIP@@Base>
 4b5c085:	48 8b 54 24 70       	mov    0x70(%rsp),%rdx
 4b5c08a:	48 8b 72 28          	mov    0x28(%rdx),%rsi
 4b5c08e:	48 8b 7a 38          	mov    0x38(%rdx),%rdi
 4b5c092:	4c 8b 42 30          	mov    0x30(%rdx),%r8
 4b5c096:	49 ff c0             	inc    %r8
 4b5c099:	4c 39 c7             	cmp    %r8,%rdi
 4b5c09c:	73 71                	jae    4b5c10f <github.com/lasselj/timebeat/beater/clocksync/clients/ptpsquared.(*PeerHandler).SendResponse@@Base+0x1ef>
 4b5c09e:	48 89 84 24 80 00 00 	mov    %rax,0x80(%rsp)
 4b5c0a5:	00 
 4b5c0a6:	48 89 5c 24 48       	mov    %rbx,0x48(%rsp)
 4b5c0ab:	48 89 4c 24 40       	mov    %rcx,0x40(%rsp)
 4b5c0b0:	48 89 f0             	mov    %rsi,%rax
 4b5c0b3:	4c 89 c3             	mov    %r8,%rbx
 4b5c0b6:	48 89 f9             	mov    %rdi,%rcx
 4b5c0b9:	bf 01 00 00 00       	mov    $0x1,%edi
 4b5c0be:	48 8d 35 5b 28 be 00 	lea    0xbe285b(%rip),%rsi        # 573e920 <type:[]uint8@@Base>
 4b5c0c5:	e8 f6 a3 3d fd       	call   1f364c0 <runtime.growslice@@Base>
 4b5c0ca:	48 8b 7c 24 70       	mov    0x70(%rsp),%rdi
 4b5c0cf:	48 89 4f 38          	mov    %rcx,0x38(%rdi)
 4b5c0d3:	83 3d 86 f8 31 03 00 	cmpl   $0x0,0x331f886(%rip)        # 7e7b960 <runtime.writeBarrier@@Base>
 4b5c0da:	75 06                	jne    4b5c0e2 <github.com/lasselj/timebeat/beater/clocksync/clients/ptpsquared.(*PeerHandler).SendResponse@@Base+0x1c2>
 4b5c0dc:	48 89 47 28          	mov    %rax,0x28(%rdi)
 4b5c0e0:	eb 12                	jmp    4b5c0f4 <github.com/lasselj/timebeat/beater/clocksync/clients/ptpsquared.(*PeerHandler).SendResponse@@Base+0x1d4>
 4b5c0e2:	48 8d 4f 28          	lea    0x28(%rdi),%rcx
 4b5c0e6:	48 89 fa             	mov    %rdi,%rdx
 4b5c0e9:	48 89 cf             	mov    %rcx,%rdi
 4b5c0ec:	e8 0f a5 3f fd       	call   1f56600 <runtime.gcWriteBarrier@@Base>
 4b5c0f1:	48 89 d7             	mov    %rdx,%rdi
 4b5c0f4:	48 8b 4c 24 40       	mov    0x40(%rsp),%rcx
 4b5c0f9:	48 89 fa             	mov    %rdi,%rdx
 4b5c0fc:	48 89 c6             	mov    %rax,%rsi
 4b5c0ff:	49 89 d8             	mov    %rbx,%r8
 4b5c102:	48 8b 84 24 80 00 00 	mov    0x80(%rsp),%rax
 4b5c109:	00 
 4b5c10a:	48 8b 5c 24 48       	mov    0x48(%rsp),%rbx
 4b5c10f:	4c 89 42 30          	mov    %r8,0x30(%rdx)
 4b5c113:	4f 8d 04 40          	lea    (%r8,%r8,2),%r8
 4b5c117:	4a 89 5c c6 f0       	mov    %rbx,-0x10(%rsi,%r8,8)
 4b5c11c:	4a 89 4c c6 f8       	mov    %rcx,-0x8(%rsi,%r8,8)
 4b5c121:	4a 8d 3c c6          	lea    (%rsi,%r8,8),%rdi
 4b5c125:	48 8d 7f e8          	lea    -0x18(%rdi),%rdi
 4b5c129:	83 3d 30 f8 31 03 00 	cmpl   $0x0,0x331f830(%rip)        # 7e7b960 <runtime.writeBarrier@@Base>
 4b5c130:	75 07                	jne    4b5c139 <github.com/lasselj/timebeat/beater/clocksync/clients/ptpsquared.(*PeerHandler).SendResponse@@Base+0x219>
 4b5c132:	4a 89 44 c6 e8       	mov    %rax,-0x18(%rsi,%r8,8)
 4b5c137:	eb 05                	jmp    4b5c13e <github.com/lasselj/timebeat/beater/clocksync/clients/ptpsquared.(*PeerHandler).SendResponse@@Base+0x21e>
 4b5c139:	e8 c2 a4 3f fd       	call   1f56600 <runtime.gcWriteBarrier@@Base>
 4b5c13e:	48 8b 84 24 c0 00 00 	mov    0xc0(%rsp),%rax
 4b5c145:	00 
 4b5c146:	48 8b 48 20          	mov    0x20(%rax),%rcx
 4b5c14a:	48 8b 09             	mov    (%rcx),%rcx
 4b5c14d:	48 8b 49 48          	mov    0x48(%rcx),%rcx
 4b5c151:	48 89 4a 40          	mov    %rcx,0x40(%rdx)
 4b5c155:	48 8b 4c 24 78       	mov    0x78(%rsp),%rcx
 4b5c15a:	0f b7 49 4a          	movzwl 0x4a(%rcx),%ecx
 4b5c15e:	89 4a 48             	mov    %ecx,0x48(%rdx)
 4b5c161:	e8 7a 7c 00 00       	call   4b63de0 <github.com/lasselj/timebeat/beater/clocksync/clients/ptpsquared.GetScoreStore@@Base>
 4b5c166:	84 00                	test   %al,(%rax)
 4b5c168:	48 83 c0 08          	add    $0x8,%rax
 4b5c16c:	83 3d ed f7 31 03 00 	cmpl   $0x0,0x331f7ed(%rip)        # 7e7b960 <runtime.writeBarrier@@Base>
 4b5c173:	75 0d                	jne    4b5c182 <github.com/lasselj/timebeat/beater/clocksync/clients/ptpsquared.(*PeerHandler).SendResponse@@Base+0x262>
 4b5c175:	48 8b 4c 24 70       	mov    0x70(%rsp),%rcx
 4b5c17a:	48 89 41 50          	mov    %rax,0x50(%rcx)
 4b5c17e:	66 90                	xchg   %ax,%ax
 4b5c180:	eb 14                	jmp    4b5c196 <github.com/lasselj/timebeat/beater/clocksync/clients/ptpsquared.(*PeerHandler).SendResponse@@Base+0x276>
 4b5c182:	48 8b 7c 24 70       	mov    0x70(%rsp),%rdi
 4b5c187:	48 8d 57 50          	lea    0x50(%rdi),%rdx
 4b5c18b:	48 89 f9             	mov    %rdi,%rcx
 4b5c18e:	48 89 d7             	mov    %rdx,%rdi
 4b5c191:	e8 6a a4 3f fd       	call   1f56600 <runtime.gcWriteBarrier@@Base>
 4b5c196:	48 8b 15 2b 01 2d 03 	mov    0x32d012b(%rip),%rdx        # 7e2c2c8 <github.com/lasselj/timebeat/config.beatBeat@@Base>
 4b5c19d:	48 8b 72 38          	mov    0x38(%rdx),%rsi
 4b5c1a1:	48 8b 52 40          	mov    0x40(%rdx),%rdx
 4b5c1a5:	48 89 51 70          	mov    %rdx,0x70(%rcx)
 4b5c1a9:	83 3d b0 f7 31 03 00 	cmpl   $0x0,0x331f7b0(%rip)        # 7e7b960 <runtime.writeBarrier@@Base>
 4b5c1b0:	75 06                	jne    4b5c1b8 <github.com/lasselj/timebeat/beater/clocksync/clients/ptpsquared.(*PeerHandler).SendResponse@@Base+0x298>
 4b5c1b2:	48 89 71 68          	mov    %rsi,0x68(%rcx)
 4b5c1b6:	eb 14                	jmp    4b5c1cc <github.com/lasselj/timebeat/beater/clocksync/clients/ptpsquared.(*PeerHandler).SendResponse@@Base+0x2ac>
 4b5c1b8:	48 8d 79 68          	lea    0x68(%rcx),%rdi
 4b5c1bc:	0f 1f 40 00          	nopl   0x0(%rax)
 4b5c1c0:	e8 9b a5 3f fd       	call   1f56760 <runtime.gcWriteBarrierSI@@Base>
 4b5c1c5:	eb 05                	jmp    4b5c1cc <github.com/lasselj/timebeat/beater/clocksync/clients/ptpsquared.(*PeerHandler).SendResponse@@Base+0x2ac>
 4b5c1c7:	48 8b 4c 24 70       	mov    0x70(%rsp),%rcx
 4b5c1cc:	48 89 c8             	mov    %rcx,%rax
 4b5c1cf:	48 8b 94 24 c0 00 00 	mov    0xc0(%rsp),%rdx
 4b5c1d6:	00 
 4b5c1d7:	48 8b 32             	mov    (%rdx),%rsi
 4b5c1da:	48 8d 1d cf d3 3c 01 	lea    0x13cd3cf(%rip),%rbx        # 5f295b0 <go:itab.*github.com/lasselj/timebeat/beater/clocksync/clients/ptpsquared.PTPSetupPeerMessage,github.com/gogo/protobuf/proto.Message@@Base>
 4b5c1e1:	48 89 c1             	mov    %rax,%rcx
 4b5c1e4:	48 89 f0             	mov    %rsi,%rax
 4b5c1e7:	e8 b4 cc ff ff       	call   4b58ea0 <github.com/lasselj/timebeat/beater/clocksync/clients/ptpsquared.(*Node).signProtoMessage@@Base>
 4b5c1ec:	48 85 ff             	test   %rdi,%rdi
 4b5c1ef:	0f 85 a0 01 00 00    	jne    4b5c395 <github.com/lasselj/timebeat/beater/clocksync/clients/ptpsquared.(*PeerHandler).SendResponse@@Base+0x475>
 4b5c1f5:	4c 8b 4c 24 70       	mov    0x70(%rsp),%r9
 4b5c1fa:	49 8b 39             	mov    (%r9),%rdi
 4b5c1fd:	48 89 5f 60          	mov    %rbx,0x60(%rdi)
 4b5c201:	48 89 4f 68          	mov    %rcx,0x68(%rdi)
 4b5c205:	83 3d 54 f7 31 03 00 	cmpl   $0x0,0x331f754(%rip)        # 7e7b960 <runtime.writeBarrier@@Base>
 4b5c20c:	75 06                	jne    4b5c214 <github.com/lasselj/timebeat/beater/clocksync/clients/ptpsquared.(*PeerHandler).SendResponse@@Base+0x2f4>
 4b5c20e:	48 89 47 58          	mov    %rax,0x58(%rdi)
 4b5c212:	eb 09                	jmp    4b5c21d <github.com/lasselj/timebeat/beater/clocksync/clients/ptpsquared.(*PeerHandler).SendResponse@@Base+0x2fd>
 4b5c214:	48 83 c7 58          	add    $0x58,%rdi
 4b5c218:	e8 e3 a3 3f fd       	call   1f56600 <runtime.gcWriteBarrier@@Base>
 4b5c21d:	48 8b 94 24 c0 00 00 	mov    0xc0(%rsp),%rdx
 4b5c224:	00 
 4b5c225:	48 8b 02             	mov    (%rdx),%rax
 4b5c228:	48 8b 3d 21 5b 2d 03 	mov    0x32d5b21(%rip),%rdi        # 7e31d50 <github.com/lasselj/timebeat/beater/clocksync/clients/ptpsquared.PTP_SETUP_RESPONSE@@Base>
 4b5c22f:	48 8b 35 22 5b 2d 03 	mov    0x32d5b22(%rip),%rsi        # 7e31d58 <github.com/lasselj/timebeat/beater/clocksync/clients/ptpsquared.PTP_SETUP_RESPONSE@@Base+0x8>
 4b5c236:	48 8b 9c 24 d8 00 00 	mov    0xd8(%rsp),%rbx
 4b5c23d:	00 
 4b5c23e:	48 8b 8c 24 e0 00 00 	mov    0xe0(%rsp),%rcx
 4b5c245:	00 
 4b5c246:	4c 8d 05 63 d3 3c 01 	lea    0x13cd363(%rip),%r8        # 5f295b0 <go:itab.*github.com/lasselj/timebeat/beater/clocksync/clients/ptpsquared.PTPSetupPeerMessage,github.com/gogo/protobuf/proto.Message@@Base>
 4b5c24d:	e8 ce d3 ff ff       	call   4b59620 <github.com/lasselj/timebeat/beater/clocksync/clients/ptpsquared.(*Node).sendProtoMessage@@Base>
 4b5c252:	84 c0                	test   %al,%al
 4b5c254:	0f 84 a3 00 00 00    	je     4b5c2fd <github.com/lasselj/timebeat/beater/clocksync/clients/ptpsquared.(*PeerHandler).SendResponse@@Base+0x3dd>
 4b5c25a:	48 8b 94 24 c0 00 00 	mov    0xc0(%rsp),%rdx
 4b5c261:	00 
 4b5c262:	80 7a 38 00          	cmpb   $0x0,0x38(%rdx)
 4b5c266:	0f 84 81 00 00 00    	je     4b5c2ed <github.com/lasselj/timebeat/beater/clocksync/clients/ptpsquared.(*PeerHandler).SendResponse@@Base+0x3cd>
 4b5c26c:	44 0f 11 bc 24 90 00 	movups %xmm15,0x90(%rsp)
 4b5c273:	00 00 
 4b5c275:	48 8b 54 24 70       	mov    0x70(%rsp),%rdx
 4b5c27a:	8b 42 08             	mov    0x8(%rdx),%eax
 4b5c27d:	0f 1f 00             	nopl   (%rax)
 4b5c280:	48 83 f8 08          	cmp    $0x8,%rax
 4b5c284:	0f 83 38 01 00 00    	jae    4b5c3c2 <github.com/lasselj/timebeat/beater/clocksync/clients/ptpsquared.(*PeerHandler).SendResponse@@Base+0x4a2>
 4b5c28a:	48 c1 e0 04          	shl    $0x4,%rax
 4b5c28e:	48 8d 0d 8b b7 e3 02 	lea    0x2e3b78b(%rip),%rcx        # 7997a20 <github.com/lasselj/timebeat/beater/clocksync/clients/ptpsquared.MSG_CMD@@Base>
 4b5c295:	48 8b 14 01          	mov    (%rcx,%rax,1),%rdx
 4b5c299:	48 8b 5c 01 08       	mov    0x8(%rcx,%rax,1),%rbx
 4b5c29e:	48 89 d0             	mov    %rdx,%rax
 4b5c2a1:	e8 ba 1a 39 fd       	call   1eedd60 <runtime.convTstring@@Base>
 4b5c2a6:	48 8d 0d f3 23 c5 00 	lea    0xc523f3(%rip),%rcx        # 57ae6a0 <type:string@@Base>
 4b5c2ad:	48 89 8c 24 90 00 00 	mov    %rcx,0x90(%rsp)
 4b5c2b4:	00 
 4b5c2b5:	48 89 84 24 98 00 00 	mov    %rax,0x98(%rsp)
 4b5c2bc:	00 
 4b5c2bd:	48 8b 1d 7c 2f 2d 03 	mov    0x32d2f7c(%rip),%rbx        # 7e2f240 <os.Stdout@@Base>
 4b5c2c4:	48 8d 05 55 8f 3a 01 	lea    0x13a8f55(%rip),%rax        # 5f05220 <go:itab.*os.File,io.Writer@@Base>
 4b5c2cb:	48 8d 0d e8 15 12 00 	lea    0x1215e8(%rip),%rcx        # 4c7d8ba <_IO_stdin_used@@Base+0x4a8ba>
 4b5c2d2:	bf 0d 00 00 00       	mov    $0xd,%edi
 4b5c2d7:	48 8d b4 24 90 00 00 	lea    0x90(%rsp),%rsi
 4b5c2de:	00 
 4b5c2df:	41 b8 01 00 00 00    	mov    $0x1,%r8d
 4b5c2e5:	4d 89 c1             	mov    %r8,%r9
 4b5c2e8:	e8 f3 84 49 fd       	call   1ff47e0 <fmt.Fprintf@@Base>
 4b5c2ed:	48 8b ac 24 b0 00 00 	mov    0xb0(%rsp),%rbp
 4b5c2f4:	00 
 4b5c2f5:	48 81 c4 b8 00 00 00 	add    $0xb8,%rsp
 4b5c2fc:	c3                   	ret
 4b5c2fd:	48 8d 44 24 50       	lea    0x50(%rsp),%rax
 4b5c302:	48 8b 9c 24 d8 00 00 	mov    0xd8(%rsp),%rbx
 4b5c309:	00 
 4b5c30a:	48 8b 8c 24 e0 00 00 	mov    0xe0(%rsp),%rcx
 4b5c311:	00 
 4b5c312:	e8 a9 e5 3d fd       	call   1f3a8c0 <runtime.stringtoslicebyte@@Base>
 4b5c317:	90                   	nop
 4b5c318:	48 8b 3d 29 05 2d 03 	mov    0x32d0529(%rip),%rdi        # 7e2c848 <github.com/mr-tron/base58/base58.BTCAlphabet@@Base>
 4b5c31f:	90                   	nop
 4b5c320:	e8 bb 58 a9 ff       	call   45f1be0 <github.com/mr-tron/base58/base58.FastBase58EncodingAlphabet@@Base>
 4b5c325:	44 0f 11 bc 24 a0 00 	movups %xmm15,0xa0(%rsp)
 4b5c32c:	00 00 
 4b5c32e:	e8 2d 1a 39 fd       	call   1eedd60 <runtime.convTstring@@Base>
 4b5c333:	48 8d 15 66 23 c5 00 	lea    0xc52366(%rip),%rdx        # 57ae6a0 <type:string@@Base>
 4b5c33a:	48 89 94 24 a0 00 00 	mov    %rdx,0xa0(%rsp)
 4b5c341:	00 
 4b5c342:	48 89 84 24 a8 00 00 	mov    %rax,0xa8(%rsp)
 4b5c349:	00 
 4b5c34a:	48 8d 05 42 c5 2a 00 	lea    0x2ac542(%rip),%rax        # 4e08893 <_IO_stdin_used@@Base+0x1d5893>
 4b5c351:	bb 24 00 00 00       	mov    $0x24,%ebx
 4b5c356:	48 8d 8c 24 a0 00 00 	lea    0xa0(%rsp),%rcx
 4b5c35d:	00 
 4b5c35e:	bf 01 00 00 00       	mov    $0x1,%edi
 4b5c363:	48 89 fe             	mov    %rdi,%rsi
 4b5c366:	e8 95 85 49 fd       	call   1ff4900 <fmt.Sprintf@@Base>
 4b5c36b:	48 8b 94 24 c0 00 00 	mov    0xc0(%rsp),%rdx
 4b5c372:	00 
 4b5c373:	48 8b 52 18          	mov    0x18(%rdx),%rdx
 4b5c377:	48 89 d9             	mov    %rbx,%rcx
 4b5c37a:	48 89 c3             	mov    %rax,%rbx
 4b5c37d:	48 89 d0             	mov    %rdx,%rax
 4b5c380:	e8 db ac 8a ff       	call   4407060 <github.com/lasselj/timebeat/beater/logging.(*Logger).Error@@Base>
 4b5c385:	48 8b ac 24 b0 00 00 	mov    0xb0(%rsp),%rbp
 4b5c38c:	00 
 4b5c38d:	48 81 c4 b8 00 00 00 	add    $0xb8,%rsp
 4b5c394:	c3                   	ret
 4b5c395:	48 8b 94 24 c0 00 00 	mov    0xc0(%rsp),%rdx
 4b5c39c:	00 
 4b5c39d:	48 8b 42 18          	mov    0x18(%rdx),%rax
 4b5c3a1:	48 8d 1d 41 90 27 00 	lea    0x279041(%rip),%rbx        # 4dd53e9 <_IO_stdin_used@@Base+0x1a23e9>
 4b5c3a8:	b9 17 00 00 00       	mov    $0x17,%ecx
 4b5c3ad:	e8 ae ac 8a ff       	call   4407060 <github.com/lasselj/timebeat/beater/logging.(*Logger).Error@@Base>
 4b5c3b2:	48 8b ac 24 b0 00 00 	mov    0xb0(%rsp),%rbp
 4b5c3b9:	00 
 4b5c3ba:	48 81 c4 b8 00 00 00 	add    $0xb8,%rsp
 4b5c3c1:	c3                   	ret
 4b5c3c2:	b9 08 00 00 00       	mov    $0x8,%ecx
 4b5c3c7:	e8 d4 a6 3f fd       	call   1f56aa0 <runtime.panicIndex@@Base>
 4b5c3cc:	90                   	nop
 4b5c3cd:	48 89 44 24 08       	mov    %rax,0x8(%rsp)
 4b5c3d2:	48 89 5c 24 10       	mov    %rbx,0x10(%rsp)
 4b5c3d7:	48 89 4c 24 18       	mov    %rcx,0x18(%rsp)
 4b5c3dc:	48 89 7c 24 20       	mov    %rdi,0x20(%rsp)
 4b5c3e1:	48 89 74 24 28       	mov    %rsi,0x28(%rsp)
 4b5c3e6:	44 88 44 24 30       	mov    %r8b,0x30(%rsp)
 4b5c3eb:	e8 70 80 3f fd       	call   1f54460 <runtime.morestack_noctxt.abi0@@Base>
 4b5c3f0:	48 8b 44 24 08       	mov    0x8(%rsp),%rax
 4b5c3f5:	48 8b 5c 24 10       	mov    0x10(%rsp),%rbx
 4b5c3fa:	48 8b 4c 24 18       	mov    0x18(%rsp),%rcx
 4b5c3ff:	48 8b 7c 24 20       	mov    0x20(%rsp),%rdi
 4b5c404:	48 8b 74 24 28       	mov    0x28(%rsp),%rsi
 4b5c409:	44 0f b6 44 24 30    	movzbl 0x30(%rsp),%r8d
 4b5c40f:	e9 0c fb ff ff       	jmp    4b5bf20 <github.com/lasselj/timebeat/beater/clocksync/clients/ptpsquared.(*PeerHandler).SendResponse@@Base>
 4b5c414:	cc                   	int3
 4b5c415:	cc                   	int3
 4b5c416:	cc                   	int3
 4b5c417:	cc                   	int3
 4b5c418:	cc                   	int3
 4b5c419:	cc                   	int3
 4b5c41a:	cc                   	int3
 4b5c41b:	cc                   	int3
 4b5c41c:	cc                   	int3
 4b5c41d:	cc                   	int3
 4b5c41e:	cc                   	int3
 4b5c41f:	cc                   	int3
