# github.com/lasselj/timebeat/beater/clocksync/clients/vendors/timebeat/open_timecard_mini_v2_pt/client.(*Client).SetOutputDutyCycleHigh
# addr 0x4b98480 size 352 (0x160)


/mnt/c/Users/SHIWA/GitHub/TimeCard-Mini/timebeat-extracted/usr/share/timebeat/bin/timebeat:     file format elf64-x86-64


Disassembly of section .text:

0000000004b98480 <github.com/lasselj/timebeat/beater/clocksync/clients/vendors/timebeat/open_timecard_mini_v2_pt/client.(*Client).SetOutputDutyCycleHigh@@Base>:
 4b98480:	49 3b 66 10          	cmp    0x10(%r14),%rsp
 4b98484:	0f 86 10 01 00 00    	jbe    4b9859a <github.com/lasselj/timebeat/beater/clocksync/clients/vendors/timebeat/open_timecard_mini_v2_pt/client.(*Client).SetOutputDutyCycleHigh@@Base+0x11a>
 4b9848a:	48 83 ec 38          	sub    $0x38,%rsp
 4b9848e:	48 89 6c 24 30       	mov    %rbp,0x30(%rsp)
 4b98493:	48 8d 6c 24 30       	lea    0x30(%rsp),%rbp
 4b98498:	48 89 5c 24 48       	mov    %rbx,0x48(%rsp)
 4b9849d:	48 89 4c 24 50       	mov    %rcx,0x50(%rsp)
 4b984a2:	48 89 44 24 40       	mov    %rax,0x40(%rsp)
 4b984a7:	48 89 7c 24 58       	mov    %rdi,0x58(%rsp)
 4b984ac:	48 89 74 24 60       	mov    %rsi,0x60(%rsp)
 4b984b1:	48 89 d8             	mov    %rbx,%rax
 4b984b4:	48 89 cb             	mov    %rcx,%rbx
 4b984b7:	e8 44 6c 3d fd       	call   1f6f100 <strconv.Atoi@@Base>
 4b984bc:	0f 1f 40 00          	nopl   0x0(%rax)
 4b984c0:	48 85 db             	test   %rbx,%rbx
 4b984c3:	0f 85 aa 00 00 00    	jne    4b98573 <github.com/lasselj/timebeat/beater/clocksync/clients/vendors/timebeat/open_timecard_mini_v2_pt/client.(*Client).SetOutputDutyCycleHigh@@Base+0xf3>
 4b984c9:	48 89 44 24 28       	mov    %rax,0x28(%rsp)
 4b984ce:	48 8b 44 24 58       	mov    0x58(%rsp),%rax
 4b984d3:	48 8b 5c 24 60       	mov    0x60(%rsp),%rbx
 4b984d8:	31 c9                	xor    %ecx,%ecx
 4b984da:	bf 20 00 00 00       	mov    $0x20,%edi
 4b984df:	90                   	nop
 4b984e0:	e8 1b 5f 3d fd       	call   1f6e400 <strconv.ParseUint@@Base>
 4b984e5:	48 85 db             	test   %rbx,%rbx
 4b984e8:	75 62                	jne    4b9854c <github.com/lasselj/timebeat/beater/clocksync/clients/vendors/timebeat/open_timecard_mini_v2_pt/client.(*Client).SetOutputDutyCycleHigh@@Base+0xcc>
 4b984ea:	48 8b 54 24 40       	mov    0x40(%rsp),%rdx
 4b984ef:	48 8b 52 08          	mov    0x8(%rdx),%rdx
 4b984f3:	48 8b 5c 24 28       	mov    0x28(%rsp),%rbx
 4b984f8:	48 89 c1             	mov    %rax,%rcx
 4b984fb:	48 89 d0             	mov    %rdx,%rax
 4b984fe:	66 90                	xchg   %ax,%ax
 4b98500:	e8 fb a1 ff ff       	call   4b92700 <github.com/lasselj/timebeat/beater/clocksync/clients/vendors/timebeat/clock_gen/clock_gen_8A34002E.(*ClockGen8A34012).SetOutputDutyCycleHigh@@Base>
 4b98505:	48 85 c0             	test   %rax,%rax
 4b98508:	74 2c                	je     4b98536 <github.com/lasselj/timebeat/beater/clocksync/clients/vendors/timebeat/open_timecard_mini_v2_pt/client.(*Client).SetOutputDutyCycleHigh@@Base+0xb6>
 4b9850a:	48 8b 48 18          	mov    0x18(%rax),%rcx
 4b9850e:	48 89 d8             	mov    %rbx,%rax
 4b98511:	ff d1                	call   *%rcx
 4b98513:	b9 2a 00 00 00       	mov    $0x2a,%ecx
 4b98518:	48 89 c7             	mov    %rax,%rdi
 4b9851b:	48 89 de             	mov    %rbx,%rsi
 4b9851e:	31 c0                	xor    %eax,%eax
 4b98520:	48 8d 1d bb 73 28 00 	lea    0x2873bb(%rip),%rbx        # 4e1f8e2 <_IO_stdin_used@@Base+0x1ec8e2>
 4b98527:	e8 f4 1d 3a fd       	call   1f3a320 <runtime.concatstring2@@Base>
 4b9852c:	48 8b 6c 24 30       	mov    0x30(%rsp),%rbp
 4b98531:	48 83 c4 38          	add    $0x38,%rsp
 4b98535:	c3                   	ret
 4b98536:	48 8d 05 61 65 26 00 	lea    0x266561(%rip),%rax        # 4dfea9e <_IO_stdin_used@@Base+0x1cba9e>
 4b9853d:	bb 21 00 00 00       	mov    $0x21,%ebx
 4b98542:	48 8b 6c 24 30       	mov    0x30(%rsp),%rbp
 4b98547:	48 83 c4 38          	add    $0x38,%rsp
 4b9854b:	c3                   	ret
 4b9854c:	31 c0                	xor    %eax,%eax
 4b9854e:	48 8d 1d 6d 7f 17 00 	lea    0x177f6d(%rip),%rbx        # 4d104c2 <_IO_stdin_used@@Base+0xdd4c2>
 4b98555:	b9 11 00 00 00       	mov    $0x11,%ecx
 4b9855a:	48 8b 7c 24 58       	mov    0x58(%rsp),%rdi
 4b9855f:	48 8b 74 24 60       	mov    0x60(%rsp),%rsi
 4b98564:	e8 b7 1d 3a fd       	call   1f3a320 <runtime.concatstring2@@Base>
 4b98569:	48 8b 6c 24 30       	mov    0x30(%rsp),%rbp
 4b9856e:	48 83 c4 38          	add    $0x38,%rsp
 4b98572:	c3                   	ret
 4b98573:	31 c0                	xor    %eax,%eax
 4b98575:	48 8d 1d ca cd 22 00 	lea    0x22cdca(%rip),%rbx        # 4dc5346 <_IO_stdin_used@@Base+0x192346>
 4b9857c:	b9 13 00 00 00       	mov    $0x13,%ecx
 4b98581:	48 8b 7c 24 48       	mov    0x48(%rsp),%rdi
 4b98586:	48 8b 74 24 50       	mov    0x50(%rsp),%rsi
 4b9858b:	e8 90 1d 3a fd       	call   1f3a320 <runtime.concatstring2@@Base>
 4b98590:	48 8b 6c 24 30       	mov    0x30(%rsp),%rbp
 4b98595:	48 83 c4 38          	add    $0x38,%rsp
 4b98599:	c3                   	ret
 4b9859a:	48 89 44 24 08       	mov    %rax,0x8(%rsp)
 4b9859f:	48 89 5c 24 10       	mov    %rbx,0x10(%rsp)
 4b985a4:	48 89 4c 24 18       	mov    %rcx,0x18(%rsp)
 4b985a9:	48 89 7c 24 20       	mov    %rdi,0x20(%rsp)
 4b985ae:	48 89 74 24 28       	mov    %rsi,0x28(%rsp)
 4b985b3:	e8 a8 be 3b fd       	call   1f54460 <runtime.morestack_noctxt.abi0@@Base>
 4b985b8:	48 8b 44 24 08       	mov    0x8(%rsp),%rax
 4b985bd:	48 8b 5c 24 10       	mov    0x10(%rsp),%rbx
 4b985c2:	48 8b 4c 24 18       	mov    0x18(%rsp),%rcx
 4b985c7:	48 8b 7c 24 20       	mov    0x20(%rsp),%rdi
 4b985cc:	48 8b 74 24 28       	mov    0x28(%rsp),%rsi
 4b985d1:	e9 aa fe ff ff       	jmp    4b98480 <github.com/lasselj/timebeat/beater/clocksync/clients/vendors/timebeat/open_timecard_mini_v2_pt/client.(*Client).SetOutputDutyCycleHigh@@Base>
 4b985d6:	cc                   	int3
 4b985d7:	cc                   	int3
 4b985d8:	cc                   	int3
 4b985d9:	cc                   	int3
 4b985da:	cc                   	int3
 4b985db:	cc                   	int3
 4b985dc:	cc                   	int3
 4b985dd:	cc                   	int3
 4b985de:	cc                   	int3
 4b985df:	cc                   	int3
