# github.com/lasselj/timebeat/interactive/daemon.(*SSHServer).createSSHConfig.func2
# addr 0x4c2be20 size 448 (0x1c0)


/mnt/c/Users/SHIWA/GitHub/TimeCard-Mini/timebeat-extracted/usr/share/timebeat/bin/timebeat:     file format elf64-x86-64


Disassembly of section .text:

0000000004c2be20 <github.com/lasselj/timebeat/interactive/daemon.(*SSHServer).createSSHConfig.func2@@Base>:
 4c2be20:	49 3b 66 10          	cmp    0x10(%r14),%rsp
 4c2be24:	0f 86 6d 01 00 00    	jbe    4c2bf97 <github.com/lasselj/timebeat/interactive/daemon.(*SSHServer).createSSHConfig.func2@@Base+0x177>
 4c2be2a:	48 83 ec 60          	sub    $0x60,%rsp
 4c2be2e:	48 89 6c 24 58       	mov    %rbp,0x58(%rsp)
 4c2be33:	48 8d 6c 24 58       	lea    0x58(%rsp),%rbp
 4c2be38:	48 89 5c 24 70       	mov    %rbx,0x70(%rsp)
 4c2be3d:	48 89 44 24 68       	mov    %rax,0x68(%rsp)
 4c2be42:	48 89 4c 24 78       	mov    %rcx,0x78(%rsp)
 4c2be47:	48 89 bc 24 80 00 00 	mov    %rdi,0x80(%rsp)
 4c2be4e:	00 
 4c2be4f:	48 8b 52 08          	mov    0x8(%rdx),%rdx
 4c2be53:	48 89 54 24 30       	mov    %rdx,0x30(%rsp)
 4c2be58:	48 8b 71 18          	mov    0x18(%rcx),%rsi
 4c2be5c:	48 89 f8             	mov    %rdi,%rax
 4c2be5f:	90                   	nop
 4c2be60:	ff d6                	call   *%rsi
 4c2be62:	48 8b 4c 24 30       	mov    0x30(%rsp),%rcx
 4c2be67:	48 8b 49 10          	mov    0x10(%rcx),%rcx
 4c2be6b:	48 89 df             	mov    %rbx,%rdi
 4c2be6e:	48 89 cb             	mov    %rcx,%rbx
 4c2be71:	48 89 c1             	mov    %rax,%rcx
 4c2be74:	48 8d 05 a5 ea d1 00 	lea    0xd1eaa5(%rip),%rax        # 594a920 <type:tumM/90n@@Base>
 4c2be7b:	0f 1f 44 00 00       	nopl   0x0(%rax,%rax,1)
 4c2be80:	e8 3b 9b 2c fd       	call   1ef59c0 <runtime.mapaccess1_faststr@@Base>
 4c2be85:	80 38 00             	cmpb   $0x0,(%rax)
 4c2be88:	0f 84 a8 00 00 00    	je     4c2bf36 <github.com/lasselj/timebeat/interactive/daemon.(*SSHServer).createSSHConfig.func2@@Base+0x116>
 4c2be8e:	e8 ad 53 2c fd       	call   1ef1240 <runtime.makemap_small@@Base>
 4c2be93:	48 89 44 24 40       	mov    %rax,0x40(%rsp)
 4c2be98:	48 8b 9c 24 80 00 00 	mov    0x80(%rsp),%rbx
 4c2be9f:	00 
 4c2bea0:	48 8b 44 24 78       	mov    0x78(%rsp),%rax
 4c2bea5:	e8 56 eb fd ff       	call   4c0aa00 <golang.org/x/crypto/ssh.FingerprintSHA256@@Base>
 4c2beaa:	48 89 44 24 38       	mov    %rax,0x38(%rsp)
 4c2beaf:	48 89 5c 24 28       	mov    %rbx,0x28(%rsp)
 4c2beb4:	48 8d 0d d0 a9 03 00 	lea    0x3a9d0(%rip),%rcx        # 4c6688b <_IO_stdin_used@@Base+0x3388b>
 4c2bebb:	bf 09 00 00 00       	mov    $0x9,%edi
 4c2bec0:	48 8d 05 f9 46 d2 00 	lea    0xd246f9(%rip),%rax        # 59505c0 <type:G0OVg65B@@Base>
 4c2bec7:	48 8b 5c 24 40       	mov    0x40(%rsp),%rbx
 4c2becc:	e8 0f a3 2c fd       	call   1ef61e0 <runtime.mapassign_faststr@@Base>
 4c2bed1:	48 8b 4c 24 28       	mov    0x28(%rsp),%rcx
 4c2bed6:	48 89 48 08          	mov    %rcx,0x8(%rax)
 4c2beda:	83 3d 7f fa 24 03 00 	cmpl   $0x0,0x324fa7f(%rip)        # 7e7b960 <runtime.writeBarrier@@Base>
 4c2bee1:	75 0a                	jne    4c2beed <github.com/lasselj/timebeat/interactive/daemon.(*SSHServer).createSSHConfig.func2@@Base+0xcd>
 4c2bee3:	48 8b 4c 24 38       	mov    0x38(%rsp),%rcx
 4c2bee8:	48 89 08             	mov    %rcx,(%rax)
 4c2beeb:	eb 0d                	jmp    4c2befa <github.com/lasselj/timebeat/interactive/daemon.(*SSHServer).createSSHConfig.func2@@Base+0xda>
 4c2beed:	48 89 c7             	mov    %rax,%rdi
 4c2bef0:	48 8b 4c 24 38       	mov    0x38(%rsp),%rcx
 4c2bef5:	e8 06 a8 32 fd       	call   1f56700 <runtime.gcWriteBarrierCX@@Base>
 4c2befa:	48 8d 05 5f 5b ef 00 	lea    0xef5b5f(%rip),%rax        # 5b21a60 <type:JFeYHVhL@@Base>
 4c2bf01:	e8 da 45 2c fd       	call   1ef04e0 <runtime.newobject@@Base>
 4c2bf06:	83 3d 53 fa 24 03 00 	cmpl   $0x0,0x324fa53(%rip)        # 7e7b960 <runtime.writeBarrier@@Base>
 4c2bf0d:	75 0b                	jne    4c2bf1a <github.com/lasselj/timebeat/interactive/daemon.(*SSHServer).createSSHConfig.func2@@Base+0xfa>
 4c2bf0f:	48 8b 54 24 40       	mov    0x40(%rsp),%rdx
 4c2bf14:	48 89 50 08          	mov    %rdx,0x8(%rax)
 4c2bf18:	eb 0e                	jmp    4c2bf28 <github.com/lasselj/timebeat/interactive/daemon.(*SSHServer).createSSHConfig.func2@@Base+0x108>
 4c2bf1a:	48 8d 78 08          	lea    0x8(%rax),%rdi
 4c2bf1e:	48 8b 54 24 40       	mov    0x40(%rsp),%rdx
 4c2bf23:	e8 f8 a7 32 fd       	call   1f56720 <runtime.gcWriteBarrierDX@@Base>
 4c2bf28:	31 db                	xor    %ebx,%ebx
 4c2bf2a:	31 c9                	xor    %ecx,%ecx
 4c2bf2c:	48 8b 6c 24 58       	mov    0x58(%rsp),%rbp
 4c2bf31:	48 83 c4 60          	add    $0x60,%rsp
 4c2bf35:	c3                   	ret
 4c2bf36:	48 8b 4c 24 68       	mov    0x68(%rsp),%rcx
 4c2bf3b:	48 8b 49 40          	mov    0x40(%rcx),%rcx
 4c2bf3f:	48 8b 44 24 70       	mov    0x70(%rsp),%rax
 4c2bf44:	ff d1                	call   *%rcx
 4c2bf46:	44 0f 11 7c 24 48    	movups %xmm15,0x48(%rsp)
 4c2bf4c:	e8 0f 1e 2c fd       	call   1eedd60 <runtime.convTstring@@Base>
 4c2bf51:	48 8d 0d 48 27 b8 00 	lea    0xb82748(%rip),%rcx        # 57ae6a0 <type:string@@Base>
 4c2bf58:	48 89 4c 24 48       	mov    %rcx,0x48(%rsp)
 4c2bf5d:	48 89 44 24 50       	mov    %rax,0x50(%rsp)
 4c2bf62:	48 8d 05 96 29 1b 00 	lea    0x1b2996(%rip),%rax        # 4dde8ff <_IO_stdin_used@@Base+0x1ab8ff>
 4c2bf69:	bb 19 00 00 00       	mov    $0x19,%ebx
 4c2bf6e:	48 8d 4c 24 48       	lea    0x48(%rsp),%rcx
 4c2bf73:	bf 01 00 00 00       	mov    $0x1,%edi
 4c2bf78:	48 89 fe             	mov    %rdi,%rsi
 4c2bf7b:	0f 1f 44 00 00       	nopl   0x0(%rax,%rax,1)
 4c2bf80:	e8 db 52 3c fd       	call   1ff1260 <fmt.Errorf@@Base>
 4c2bf85:	48 89 d9             	mov    %rbx,%rcx
 4c2bf88:	48 89 c3             	mov    %rax,%rbx
 4c2bf8b:	31 c0                	xor    %eax,%eax
 4c2bf8d:	48 8b 6c 24 58       	mov    0x58(%rsp),%rbp
 4c2bf92:	48 83 c4 60          	add    $0x60,%rsp
 4c2bf96:	c3                   	ret
 4c2bf97:	48 89 44 24 08       	mov    %rax,0x8(%rsp)
 4c2bf9c:	48 89 5c 24 10       	mov    %rbx,0x10(%rsp)
 4c2bfa1:	48 89 4c 24 18       	mov    %rcx,0x18(%rsp)
 4c2bfa6:	48 89 7c 24 20       	mov    %rdi,0x20(%rsp)
 4c2bfab:	e8 10 84 32 fd       	call   1f543c0 <runtime.morestack.abi0@@Base>
 4c2bfb0:	48 8b 44 24 08       	mov    0x8(%rsp),%rax
 4c2bfb5:	48 8b 5c 24 10       	mov    0x10(%rsp),%rbx
 4c2bfba:	48 8b 4c 24 18       	mov    0x18(%rsp),%rcx
 4c2bfbf:	48 8b 7c 24 20       	mov    0x20(%rsp),%rdi
 4c2bfc4:	e9 57 fe ff ff       	jmp    4c2be20 <github.com/lasselj/timebeat/interactive/daemon.(*SSHServer).createSSHConfig.func2@@Base>
 4c2bfc9:	cc                   	int3
 4c2bfca:	cc                   	int3
 4c2bfcb:	cc                   	int3
 4c2bfcc:	cc                   	int3
 4c2bfcd:	cc                   	int3
 4c2bfce:	cc                   	int3
 4c2bfcf:	cc                   	int3
 4c2bfd0:	cc                   	int3
 4c2bfd1:	cc                   	int3
 4c2bfd2:	cc                   	int3
 4c2bfd3:	cc                   	int3
 4c2bfd4:	cc                   	int3
 4c2bfd5:	cc                   	int3
 4c2bfd6:	cc                   	int3
 4c2bfd7:	cc                   	int3
 4c2bfd8:	cc                   	int3
 4c2bfd9:	cc                   	int3
 4c2bfda:	cc                   	int3
 4c2bfdb:	cc                   	int3
 4c2bfdc:	cc                   	int3
 4c2bfdd:	cc                   	int3
 4c2bfde:	cc                   	int3
 4c2bfdf:	cc                   	int3
