# github.com/lasselj/timebeat/beater/clocksync/clients/ptp/client.(*Client).cancelUnicast
# addr 0x45df060 size 800 (0x320)


/mnt/c/Users/SHIWA/GitHub/TimeCard-Mini/timebeat-extracted/usr/share/timebeat/bin/timebeat:     file format elf64-x86-64


Disassembly of section .text:

00000000045df060 <github.com/lasselj/timebeat/beater/clocksync/clients/ptp/client.(*Client).cancelUnicast@@Base>:
 45df060:	4c 8d 64 24 e0       	lea    -0x20(%rsp),%r12
 45df065:	4d 3b 66 10          	cmp    0x10(%r14),%r12
 45df069:	0f 86 e5 02 00 00    	jbe    45df354 <github.com/lasselj/timebeat/beater/clocksync/clients/ptp/client.(*Client).cancelUnicast@@Base+0x2f4>
 45df06f:	48 81 ec a0 00 00 00 	sub    $0xa0,%rsp
 45df076:	48 89 ac 24 98 00 00 	mov    %rbp,0x98(%rsp)
 45df07d:	00 
 45df07e:	48 8d ac 24 98 00 00 	lea    0x98(%rsp),%rbp
 45df085:	00 
 45df086:	48 89 84 24 c0 00 00 	mov    %rax,0xc0(%rsp)
 45df08d:	00 
 45df08e:	88 9c 24 c8 00 00 00 	mov    %bl,0xc8(%rsp)
 45df095:	48 89 8c 24 90 00 00 	mov    %rcx,0x90(%rsp)
 45df09c:	00 
 45df09d:	44 0f 11 7c 24 50    	movups %xmm15,0x50(%rsp)
 45df0a3:	44 0f 11 7c 24 58    	movups %xmm15,0x58(%rsp)
 45df0a9:	44 0f 11 7c 24 68    	movups %xmm15,0x68(%rsp)
 45df0af:	44 0f 11 7c 24 78    	movups %xmm15,0x78(%rsp)
 45df0b5:	c6 44 24 50 0c       	movb   $0xc,0x50(%rsp)
 45df0ba:	0f b6 90 8a 02 00 00 	movzbl 0x28a(%rax),%edx
 45df0c1:	88 54 24 54          	mov    %dl,0x54(%rsp)
 45df0c5:	0f b6 15 58 b8 89 03 	movzbl 0x389b858(%rip),%edx        # 7e7a924 <github.com/lasselj/timebeat/beater/clocksync/clients/ptp/common.PTP_VERSION@@Base>
 45df0cc:	88 54 24 51          	mov    %dl,0x51(%rsp)
 45df0d0:	66 c7 44 24 56 04 3c 	movw   $0x3c04,0x56(%rsp)
 45df0d7:	48 8b 94 24 b2 00 00 	mov    0xb2(%rsp),%rdx
 45df0de:	00 
 45df0df:	0f b7 b4 24 ba 00 00 	movzwl 0xba(%rsp),%esi
 45df0e6:	00 
 45df0e7:	48 89 54 24 64       	mov    %rdx,0x64(%rsp)
 45df0ec:	66 89 74 24 6c       	mov    %si,0x6c(%rsp)
 45df0f1:	0f b7 90 a8 02 00 00 	movzwl 0x2a8(%rax),%edx
 45df0f8:	66 89 54 24 6e       	mov    %dx,0x6e(%rsp)
 45df0fd:	66 c7 44 24 70 05 7f 	movw   $0x7f05,0x70(%rsp)
 45df104:	c7 44 24 32 00 00 00 	movl   $0x0,0x32(%rsp)
 45df10b:	00 
 45df10c:	66 c7 44 24 36 00 00 	movw   $0x0,0x36(%rsp)
 45df113:	c7 44 24 32 06 00 02 	movl   $0x20006,0x32(%rsp)
 45df11a:	00 
 45df11b:	c1 e3 04             	shl    $0x4,%ebx
 45df11e:	88 5c 24 36          	mov    %bl,0x36(%rsp)
 45df122:	48 8d 5c 24 50       	lea    0x50(%rsp),%rbx
 45df127:	48 8d 05 52 2d 53 01 	lea    0x1532d52(%rip),%rax        # 5b11e80 <type:9cNz7ckL@@Base>
 45df12e:	e8 2d ea 90 fd       	call   1eedb60 <runtime.convTnoptr@@Base>
 45df133:	48 89 c3             	mov    %rax,%rbx
 45df136:	48 8d 05 43 2d 53 01 	lea    0x1532d43(%rip),%rax        # 5b11e80 <type:9cNz7ckL@@Base>
 45df13d:	0f 1f 00             	nopl   (%rax)
 45df140:	e8 9b 68 a9 fd       	call   20759e0 <encoding/binary.Size@@Base>
 45df145:	48 89 44 24 38       	mov    %rax,0x38(%rsp)
 45df14a:	48 8d 5c 24 32       	lea    0x32(%rsp),%rbx
 45df14f:	48 8d 05 8a 52 66 01 	lea    0x166528a(%rip),%rax        # 5c443e0 <type:Ubxk5IfV@@Base>
 45df156:	e8 05 ea 90 fd       	call   1eedb60 <runtime.convTnoptr@@Base>
 45df15b:	48 89 c3             	mov    %rax,%rbx
 45df15e:	48 8d 05 7b 52 66 01 	lea    0x166527b(%rip),%rax        # 5c443e0 <type:Ubxk5IfV@@Base>
 45df165:	e8 76 68 a9 fd       	call   20759e0 <encoding/binary.Size@@Base>
 45df16a:	48 8b 4c 24 38       	mov    0x38(%rsp),%rcx
 45df16f:	48 01 c1             	add    %rax,%rcx
 45df172:	66 89 4c 24 52       	mov    %cx,0x52(%rsp)
 45df177:	0f b6 8c 24 c8 00 00 	movzbl 0xc8(%rsp),%ecx
 45df17e:	00 
 45df17f:	90                   	nop
 45df180:	80 f9 0b             	cmp    $0xb,%cl
 45df183:	75 3e                	jne    45df1c3 <github.com/lasselj/timebeat/beater/clocksync/clients/ptp/client.(*Client).cancelUnicast@@Base+0x163>
 45df185:	48 c7 44 24 46 00 00 	movq   $0x0,0x46(%rsp)
 45df18c:	00 00 
 45df18e:	48 c7 44 24 48 00 00 	movq   $0x0,0x48(%rsp)
 45df195:	00 00 
 45df197:	48 8b 0d e2 86 63 03 	mov    0x36386e2(%rip),%rcx        # 7c17880 <github.com/lasselj/timebeat/beater/clocksync/clients/ptp/common.BROADCAST_CLOCK_ID@@Base>
 45df19e:	48 89 4c 24 46       	mov    %rcx,0x46(%rsp)
 45df1a3:	0f b7 0d 9e 7f 63 03 	movzwl 0x3637f9e(%rip),%ecx        # 7c17148 <github.com/lasselj/timebeat/beater/clocksync/clients/ptp/common.BROADCAST_PORT_ID@@Base>
 45df1aa:	66 89 4c 24 4e       	mov    %cx,0x4e(%rsp)
 45df1af:	48 8b 54 24 46       	mov    0x46(%rsp),%rdx
 45df1b4:	48 89 54 24 78       	mov    %rdx,0x78(%rsp)
 45df1b9:	66 89 8c 24 80 00 00 	mov    %cx,0x80(%rsp)
 45df1c0:	00 
 45df1c1:	eb 1d                	jmp    45df1e0 <github.com/lasselj/timebeat/beater/clocksync/clients/ptp/client.(*Client).cancelUnicast@@Base+0x180>
 45df1c3:	48 8b 8c 24 a8 00 00 	mov    0xa8(%rsp),%rcx
 45df1ca:	00 
 45df1cb:	0f b7 94 24 b0 00 00 	movzwl 0xb0(%rsp),%edx
 45df1d2:	00 
 45df1d3:	48 89 4c 24 78       	mov    %rcx,0x78(%rsp)
 45df1d8:	66 89 94 24 80 00 00 	mov    %dx,0x80(%rsp)
 45df1df:	00 
 45df1e0:	48 8d 05 39 dc 5a 01 	lea    0x15adc39(%rip),%rax        # 5b8ce20 <type:StgAKJp2@@Base>
 45df1e7:	e8 f4 12 91 fd       	call   1ef04e0 <runtime.newobject@@Base>
 45df1ec:	48 89 84 24 88 00 00 	mov    %rax,0x88(%rsp)
 45df1f3:	00 
 45df1f4:	48 8d 5c 24 50       	lea    0x50(%rsp),%rbx
 45df1f9:	48 8d 05 80 2c 53 01 	lea    0x1532c80(%rip),%rax        # 5b11e80 <type:9cNz7ckL@@Base>
 45df200:	e8 5b e9 90 fd       	call   1eedb60 <runtime.convTnoptr@@Base>
 45df205:	48 8b 9c 24 88 00 00 	mov    0x88(%rsp),%rbx
 45df20c:	00 
 45df20d:	48 8d 0d 8c 4c 96 01 	lea    0x1964c8c(%rip),%rcx        # 5f43ea0 <go:itab.encoding/binary.bigEndian,encoding/binary.ByteOrder@@Base>
 45df214:	48 8d 3d 55 be 89 03 	lea    0x389be55(%rip),%rdi        # 7e7b070 <runtime.zerobase@@Base>
 45df21b:	48 8d 35 5e 2c 53 01 	lea    0x1532c5e(%rip),%rsi        # 5b11e80 <type:9cNz7ckL@@Base>
 45df222:	49 89 c0             	mov    %rax,%r8
 45df225:	48 8d 05 94 e7 91 01 	lea    0x191e794(%rip),%rax        # 5efd9c0 <go:itab.*bytes.Buffer,io.Writer@@Base>
 45df22c:	e8 6f 50 a9 fd       	call   20742a0 <encoding/binary.Write@@Base>
 45df231:	48 85 c0             	test   %rax,%rax
 45df234:	74 20                	je     45df256 <github.com/lasselj/timebeat/beater/clocksync/clients/ptp/client.(*Client).cancelUnicast@@Base+0x1f6>
 45df236:	48 8b 94 24 c0 00 00 	mov    0xc0(%rsp),%rdx
 45df23d:	00 
 45df23e:	48 8b 82 08 04 00 00 	mov    0x408(%rdx),%rax
 45df245:	48 8d 1d fb 71 84 00 	lea    0x8471fb(%rip),%rbx        # 4e26447 <_IO_stdin_used@@Base+0x1f3447>
 45df24c:	b9 2c 00 00 00       	mov    $0x2c,%ecx
 45df251:	e8 4a 7f e2 ff       	call   44071a0 <github.com/lasselj/timebeat/beater/logging.(*Logger).Warn@@Base>
 45df256:	48 8d 05 83 51 66 01 	lea    0x1665183(%rip),%rax        # 5c443e0 <type:Ubxk5IfV@@Base>
 45df25d:	48 8d 5c 24 32       	lea    0x32(%rsp),%rbx
 45df262:	e8 f9 e8 90 fd       	call   1eedb60 <runtime.convTnoptr@@Base>
 45df267:	48 8b 9c 24 88 00 00 	mov    0x88(%rsp),%rbx
 45df26e:	00 
 45df26f:	48 8d 0d 2a 4c 96 01 	lea    0x1964c2a(%rip),%rcx        # 5f43ea0 <go:itab.encoding/binary.bigEndian,encoding/binary.ByteOrder@@Base>
 45df276:	48 8d 3d f3 bd 89 03 	lea    0x389bdf3(%rip),%rdi        # 7e7b070 <runtime.zerobase@@Base>
 45df27d:	48 8d 35 5c 51 66 01 	lea    0x166515c(%rip),%rsi        # 5c443e0 <type:Ubxk5IfV@@Base>
 45df284:	49 89 c0             	mov    %rax,%r8
 45df287:	48 8d 05 32 e7 91 01 	lea    0x191e732(%rip),%rax        # 5efd9c0 <go:itab.*bytes.Buffer,io.Writer@@Base>
 45df28e:	e8 0d 50 a9 fd       	call   20742a0 <encoding/binary.Write@@Base>
 45df293:	48 85 c0             	test   %rax,%rax
 45df296:	74 20                	je     45df2b8 <github.com/lasselj/timebeat/beater/clocksync/clients/ptp/client.(*Client).cancelUnicast@@Base+0x258>
 45df298:	48 8b 94 24 c0 00 00 	mov    0xc0(%rsp),%rdx
 45df29f:	00 
 45df2a0:	48 8b 82 08 04 00 00 	mov    0x408(%rdx),%rax
 45df2a7:	48 8d 1d 97 6d 87 00 	lea    0x876d97(%rip),%rbx        # 4e56045 <_IO_stdin_used@@Base+0x223045>
 45df2ae:	b9 39 00 00 00       	mov    $0x39,%ecx
 45df2b3:	e8 e8 7e e2 ff       	call   44071a0 <github.com/lasselj/timebeat/beater/logging.(*Logger).Warn@@Base>
 45df2b8:	48 8b 94 24 88 00 00 	mov    0x88(%rsp),%rdx
 45df2bf:	00 
 45df2c0:	48 8b 4a 08          	mov    0x8(%rdx),%rcx
 45df2c4:	4c 8b 0a             	mov    (%rdx),%r9
 45df2c7:	48 8b 7a 10          	mov    0x10(%rdx),%rdi
 45df2cb:	48 8b 42 18          	mov    0x18(%rdx),%rax
 45df2cf:	48 39 c8             	cmp    %rcx,%rax
 45df2d2:	77 7a                	ja     45df34e <github.com/lasselj/timebeat/beater/clocksync/clients/ptp/client.(*Client).cancelUnicast@@Base+0x2ee>
 45df2d4:	48 8b 94 24 c0 00 00 	mov    0xc0(%rsp),%rdx
 45df2db:	00 
 45df2dc:	4c 8b 92 18 04 00 00 	mov    0x418(%rdx),%r10
 45df2e3:	4d 8b 12             	mov    (%r10),%r10
 45df2e6:	4c 8b 82 80 03 00 00 	mov    0x380(%rdx),%r8
 45df2ed:	48 29 c7             	sub    %rax,%rdi
 45df2f0:	48 29 c1             	sub    %rax,%rcx
 45df2f3:	49 89 fb             	mov    %rdi,%r11
 45df2f6:	48 f7 df             	neg    %rdi
 45df2f9:	48 c1 ff 3f          	sar    $0x3f,%rdi
 45df2fd:	48 21 f8             	and    %rdi,%rax
 45df300:	49 8d 1c 01          	lea    (%r9,%rax,1),%rbx
 45df304:	4c 89 d0             	mov    %r10,%rax
 45df307:	4c 89 df             	mov    %r11,%rdi
 45df30a:	48 8b b4 24 90 00 00 	mov    0x90(%rsp),%rsi
 45df311:	00 
 45df312:	e8 e9 ba fd ff       	call   45bae00 <github.com/lasselj/timebeat/beater/clocksync/clients/ptp/udp_socket.(*PTPSocket).WriteMessage@@Base>
 45df317:	90                   	nop
 45df318:	48 8b 94 24 c0 00 00 	mov    0xc0(%rsp),%rdx
 45df31f:	00 
 45df320:	44 0f b7 8a a8 02 00 	movzwl 0x2a8(%rdx),%r9d
 45df327:	00 
 45df328:	41 ff c1             	inc    %r9d
 45df32b:	66 44 89 8a a8 02 00 	mov    %r9w,0x2a8(%rdx)
 45df332:	00 
 45df333:	48 8b 92 98 03 00 00 	mov    0x398(%rdx),%rdx
 45df33a:	48 ff 42 60          	incq   0x60(%rdx)
 45df33e:	48 8b ac 24 98 00 00 	mov    0x98(%rsp),%rbp
 45df345:	00 
 45df346:	48 81 c4 a0 00 00 00 	add    $0xa0,%rsp
 45df34d:	c3                   	ret
 45df34e:	e8 0d 78 97 fd       	call   1f56b60 <runtime.panicSliceB@@Base>
 45df353:	90                   	nop
 45df354:	48 89 44 24 20       	mov    %rax,0x20(%rsp)
 45df359:	88 5c 24 28          	mov    %bl,0x28(%rsp)
 45df35d:	48 89 4c 24 30       	mov    %rcx,0x30(%rsp)
 45df362:	e8 f9 50 97 fd       	call   1f54460 <runtime.morestack_noctxt.abi0@@Base>
 45df367:	48 8b 44 24 20       	mov    0x20(%rsp),%rax
 45df36c:	0f b6 5c 24 28       	movzbl 0x28(%rsp),%ebx
 45df371:	48 8b 4c 24 30       	mov    0x30(%rsp),%rcx
 45df376:	e9 e5 fc ff ff       	jmp    45df060 <github.com/lasselj/timebeat/beater/clocksync/clients/ptp/client.(*Client).cancelUnicast@@Base>
 45df37b:	cc                   	int3
 45df37c:	cc                   	int3
 45df37d:	cc                   	int3
 45df37e:	cc                   	int3
 45df37f:	cc                   	int3
