# github.com/lasselj/timebeat/beater/clocksync/clients/ptpsquared.(*PeerHandler).getPeerType
# addr 0x4b60540 size 864 (0x360)


/mnt/c/Users/SHIWA/GitHub/TimeCard-Mini/timebeat-extracted/usr/share/timebeat/bin/timebeat:     file format elf64-x86-64


Disassembly of section .text:

0000000004b60540 <github.com/lasselj/timebeat/beater/clocksync/clients/ptpsquared.(*PeerHandler).getPeerType@@Base>:
 4b60540:	4c 8d 64 24 c8       	lea    -0x38(%rsp),%r12
 4b60545:	4d 3b 66 10          	cmp    0x10(%r14),%r12
 4b60549:	0f 86 13 03 00 00    	jbe    4b60862 <github.com/lasselj/timebeat/beater/clocksync/clients/ptpsquared.(*PeerHandler).getPeerType@@Base+0x322>
 4b6054f:	48 81 ec b8 00 00 00 	sub    $0xb8,%rsp
 4b60556:	48 89 ac 24 b0 00 00 	mov    %rbp,0xb0(%rsp)
 4b6055d:	00 
 4b6055e:	48 8d ac 24 b0 00 00 	lea    0xb0(%rsp),%rbp
 4b60565:	00 
 4b60566:	49 c7 c5 00 00 00 00 	mov    $0x0,%r13
 4b6056d:	4c 89 ac 24 a8 00 00 	mov    %r13,0xa8(%rsp)
 4b60574:	00 
 4b60575:	48 89 84 24 c0 00 00 	mov    %rax,0xc0(%rsp)
 4b6057c:	00 
 4b6057d:	48 89 8c 24 d0 00 00 	mov    %rcx,0xd0(%rsp)
 4b60584:	00 
 4b60585:	48 89 9c 24 c8 00 00 	mov    %rbx,0xc8(%rsp)
 4b6058c:	00 
 4b6058d:	c6 44 24 2f 00       	movb   $0x0,0x2f(%rsp)
 4b60592:	48 c7 44 24 30 00 00 	movq   $0x0,0x30(%rsp)
 4b60599:	00 00 
 4b6059b:	48 c7 44 24 60 00 00 	movq   $0x0,0x60(%rsp)
 4b605a2:	00 00 
 4b605a4:	44 0f 11 7c 24 78    	movups %xmm15,0x78(%rsp)
 4b605aa:	48 89 c2             	mov    %rax,%rdx
 4b605ad:	31 c0                	xor    %eax,%eax
 4b605af:	be 01 00 00 00       	mov    $0x1,%esi
 4b605b4:	f0 0f b1 72 30       	lock cmpxchg %esi,0x30(%rdx)
 4b605b9:	40 0f 94 c6          	sete   %sil
 4b605bd:	48 8d 42 30          	lea    0x30(%rdx),%rax
 4b605c1:	40 84 f6             	test   %sil,%sil
 4b605c4:	75 27                	jne    4b605ed <github.com/lasselj/timebeat/beater/clocksync/clients/ptpsquared.(*PeerHandler).getPeerType@@Base+0xad>
 4b605c6:	48 89 44 24 70       	mov    %rax,0x70(%rsp)
 4b605cb:	e8 70 7f 41 fd       	call   1f78540 <sync.(*Mutex).lockSlow@@Base>
 4b605d0:	48 8b 44 24 70       	mov    0x70(%rsp),%rax
 4b605d5:	48 8b 8c 24 d0 00 00 	mov    0xd0(%rsp),%rcx
 4b605dc:	00 
 4b605dd:	48 8b 94 24 c0 00 00 	mov    0xc0(%rsp),%rdx
 4b605e4:	00 
 4b605e5:	48 8b 9c 24 c8 00 00 	mov    0xc8(%rsp),%rbx
 4b605ec:	00 
 4b605ed:	44 0f 11 bc 24 88 00 	movups %xmm15,0x88(%rsp)
 4b605f4:	00 00 
 4b605f6:	48 8d 35 a3 02 00 00 	lea    0x2a3(%rip),%rsi        # 4b608a0 <github.com/lasselj/timebeat/beater/clocksync/clients/ptpsquared.(*PeerHandler).getPeerType.func1@@Base>
 4b605fd:	48 89 b4 24 88 00 00 	mov    %rsi,0x88(%rsp)
 4b60604:	00 
 4b60605:	48 89 84 24 90 00 00 	mov    %rax,0x90(%rsp)
 4b6060c:	00 
 4b6060d:	48 8d b4 24 88 00 00 	lea    0x88(%rsp),%rsi
 4b60614:	00 
 4b60615:	48 89 b4 24 a8 00 00 	mov    %rsi,0xa8(%rsp)
 4b6061c:	00 
 4b6061d:	c6 44 24 2f 01       	movb   $0x1,0x2f(%rsp)
 4b60622:	48 8b 72 20          	mov    0x20(%rdx),%rsi
 4b60626:	48 8b 76 18          	mov    0x18(%rsi),%rsi
 4b6062a:	48 8d 05 af ec dd 00 	lea    0xddecaf(%rip),%rax        # 593f2e0 <type:m80sCF9S@@Base>
 4b60631:	48 89 cf             	mov    %rcx,%rdi
 4b60634:	48 89 d9             	mov    %rbx,%rcx
 4b60637:	48 89 f3             	mov    %rsi,%rbx
 4b6063a:	e8 81 57 39 fd       	call   1ef5dc0 <runtime.mapaccess2_faststr@@Base>
 4b6063f:	48 8b 10             	mov    (%rax),%rdx
 4b60642:	84 db                	test   %bl,%bl
 4b60644:	0f 85 9f 01 00 00    	jne    4b607e9 <github.com/lasselj/timebeat/beater/clocksync/clients/ptpsquared.(*PeerHandler).getPeerType@@Base+0x2a9>
 4b6064a:	48 8b 94 24 c0 00 00 	mov    0xc0(%rsp),%rdx
 4b60651:	00 
 4b60652:	48 8b 52 20          	mov    0x20(%rdx),%rdx
 4b60656:	48 8b 5a 20          	mov    0x20(%rdx),%rbx
 4b6065a:	48 8d 05 7f ec dd 00 	lea    0xddec7f(%rip),%rax        # 593f2e0 <type:m80sCF9S@@Base>
 4b60661:	48 8b 8c 24 c8 00 00 	mov    0xc8(%rsp),%rcx
 4b60668:	00 
 4b60669:	48 8b bc 24 d0 00 00 	mov    0xd0(%rsp),%rdi
 4b60670:	00 
 4b60671:	e8 4a 57 39 fd       	call   1ef5dc0 <runtime.mapaccess2_faststr@@Base>
 4b60676:	48 8b 10             	mov    (%rax),%rdx
 4b60679:	0f 1f 80 00 00 00 00 	nopl   0x0(%rax)
 4b60680:	84 db                	test   %bl,%bl
 4b60682:	0f 85 13 01 00 00    	jne    4b6079b <github.com/lasselj/timebeat/beater/clocksync/clients/ptpsquared.(*PeerHandler).getPeerType@@Base+0x25b>
 4b60688:	48 8d 44 24 40       	lea    0x40(%rsp),%rax
 4b6068d:	48 8b 9c 24 c8 00 00 	mov    0xc8(%rsp),%rbx
 4b60694:	00 
 4b60695:	48 8b 8c 24 d0 00 00 	mov    0xd0(%rsp),%rcx
 4b6069c:	00 
 4b6069d:	0f 1f 00             	nopl   (%rax)
 4b606a0:	e8 1b a2 3d fd       	call   1f3a8c0 <runtime.stringtoslicebyte@@Base>
 4b606a5:	90                   	nop
 4b606a6:	48 8b 3d 9b c1 2c 03 	mov    0x32cc19b(%rip),%rdi        # 7e2c848 <github.com/mr-tron/base58/base58.BTCAlphabet@@Base>
 4b606ad:	e8 2e 15 a9 ff       	call   45f1be0 <github.com/mr-tron/base58/base58.FastBase58EncodingAlphabet@@Base>
 4b606b2:	44 0f 11 bc 24 98 00 	movups %xmm15,0x98(%rsp)
 4b606b9:	00 00 
 4b606bb:	0f 1f 44 00 00       	nopl   0x0(%rax,%rax,1)
 4b606c0:	e8 9b d6 38 fd       	call   1eedd60 <runtime.convTstring@@Base>
 4b606c5:	48 8d 15 d4 df c4 00 	lea    0xc4dfd4(%rip),%rdx        # 57ae6a0 <type:string@@Base>
 4b606cc:	48 89 94 24 98 00 00 	mov    %rdx,0x98(%rsp)
 4b606d3:	00 
 4b606d4:	48 89 84 24 a0 00 00 	mov    %rax,0xa0(%rsp)
 4b606db:	00 
 4b606dc:	48 8d 05 4d 3f 2a 00 	lea    0x2a3f4d(%rip),%rax        # 4e04630 <_IO_stdin_used@@Base+0x1d1630>
 4b606e3:	bb 23 00 00 00       	mov    $0x23,%ebx
 4b606e8:	48 8d 8c 24 98 00 00 	lea    0x98(%rsp),%rcx
 4b606ef:	00 
 4b606f0:	bf 01 00 00 00       	mov    $0x1,%edi
 4b606f5:	48 89 fe             	mov    %rdi,%rsi
 4b606f8:	e8 03 42 49 fd       	call   1ff4900 <fmt.Sprintf@@Base>
 4b606fd:	48 89 44 24 68       	mov    %rax,0x68(%rsp)
 4b60702:	48 89 5c 24 38       	mov    %rbx,0x38(%rsp)
 4b60707:	48 8d 05 f2 3b f1 00 	lea    0xf13bf2(%rip),%rax        # 5a74300 <type:hE5I1The@@Base>
 4b6070e:	e8 cd fd 38 fd       	call   1ef04e0 <runtime.newobject@@Base>
 4b60713:	48 8b 54 24 38       	mov    0x38(%rsp),%rdx
 4b60718:	48 89 50 08          	mov    %rdx,0x8(%rax)
 4b6071c:	83 3d 3d b2 31 03 00 	cmpl   $0x0,0x331b23d(%rip)        # 7e7b960 <runtime.writeBarrier@@Base>
 4b60723:	75 0a                	jne    4b6072f <github.com/lasselj/timebeat/beater/clocksync/clients/ptpsquared.(*PeerHandler).getPeerType@@Base+0x1ef>
 4b60725:	48 8b 4c 24 68       	mov    0x68(%rsp),%rcx
 4b6072a:	48 89 08             	mov    %rcx,(%rax)
 4b6072d:	eb 0d                	jmp    4b6073c <github.com/lasselj/timebeat/beater/clocksync/clients/ptpsquared.(*PeerHandler).getPeerType@@Base+0x1fc>
 4b6072f:	48 89 c7             	mov    %rax,%rdi
 4b60732:	48 8b 4c 24 68       	mov    0x68(%rsp),%rcx
 4b60737:	e8 c4 5f 3f fd       	call   1f56700 <runtime.gcWriteBarrierCX@@Base>
 4b6073c:	48 c7 44 24 30 ff ff 	movq   $0xffffffffffffffff,0x30(%rsp)
 4b60743:	ff ff 
 4b60745:	48 c7 44 24 60 00 00 	movq   $0x0,0x60(%rsp)
 4b6074c:	00 00 
 4b6074e:	48 8d 0d 6b d7 39 01 	lea    0x139d76b(%rip),%rcx        # 5efdec0 <go:itab.*errors.errorString,error@@Base>
 4b60755:	48 89 4c 24 78       	mov    %rcx,0x78(%rsp)
 4b6075a:	48 89 84 24 80 00 00 	mov    %rax,0x80(%rsp)
 4b60761:	00 
 4b60762:	c6 44 24 2f 00       	movb   $0x0,0x2f(%rsp)
 4b60767:	48 8b 94 24 a8 00 00 	mov    0xa8(%rsp),%rdx
 4b6076e:	00 
 4b6076f:	48 8b 02             	mov    (%rdx),%rax
 4b60772:	ff d0                	call   *%rax
 4b60774:	48 8b 44 24 30       	mov    0x30(%rsp),%rax
 4b60779:	48 8b 4c 24 78       	mov    0x78(%rsp),%rcx
 4b6077e:	48 8b 5c 24 60       	mov    0x60(%rsp),%rbx
 4b60783:	48 8b bc 24 80 00 00 	mov    0x80(%rsp),%rdi
 4b6078a:	00 
 4b6078b:	48 8b ac 24 b0 00 00 	mov    0xb0(%rsp),%rbp
 4b60792:	00 
 4b60793:	48 81 c4 b8 00 00 00 	add    $0xb8,%rsp
 4b6079a:	c3                   	ret
 4b6079b:	48 c7 44 24 30 02 00 	movq   $0x2,0x30(%rsp)
 4b607a2:	00 00 
 4b607a4:	48 89 54 24 60       	mov    %rdx,0x60(%rsp)
 4b607a9:	44 0f 11 7c 24 78    	movups %xmm15,0x78(%rsp)
 4b607af:	c6 44 24 2f 00       	movb   $0x0,0x2f(%rsp)
 4b607b4:	48 8b 94 24 a8 00 00 	mov    0xa8(%rsp),%rdx
 4b607bb:	00 
 4b607bc:	48 8b 02             	mov    (%rdx),%rax
 4b607bf:	90                   	nop
 4b607c0:	ff d0                	call   *%rax
 4b607c2:	48 8b 44 24 30       	mov    0x30(%rsp),%rax
 4b607c7:	48 8b 4c 24 78       	mov    0x78(%rsp),%rcx
 4b607cc:	48 8b 5c 24 60       	mov    0x60(%rsp),%rbx
 4b607d1:	48 8b bc 24 80 00 00 	mov    0x80(%rsp),%rdi
 4b607d8:	00 
 4b607d9:	48 8b ac 24 b0 00 00 	mov    0xb0(%rsp),%rbp
 4b607e0:	00 
 4b607e1:	48 81 c4 b8 00 00 00 	add    $0xb8,%rsp
 4b607e8:	c3                   	ret
 4b607e9:	48 c7 44 24 30 01 00 	movq   $0x1,0x30(%rsp)
 4b607f0:	00 00 
 4b607f2:	48 89 54 24 60       	mov    %rdx,0x60(%rsp)
 4b607f7:	44 0f 11 7c 24 78    	movups %xmm15,0x78(%rsp)
 4b607fd:	c6 44 24 2f 00       	movb   $0x0,0x2f(%rsp)
 4b60802:	48 8b 94 24 a8 00 00 	mov    0xa8(%rsp),%rdx
 4b60809:	00 
 4b6080a:	48 8b 02             	mov    (%rdx),%rax
 4b6080d:	ff d0                	call   *%rax
 4b6080f:	48 8b 44 24 30       	mov    0x30(%rsp),%rax
 4b60814:	48 8b 4c 24 78       	mov    0x78(%rsp),%rcx
 4b60819:	48 8b 5c 24 60       	mov    0x60(%rsp),%rbx
 4b6081e:	48 8b bc 24 80 00 00 	mov    0x80(%rsp),%rdi
 4b60825:	00 
 4b60826:	48 8b ac 24 b0 00 00 	mov    0xb0(%rsp),%rbp
 4b6082d:	00 
 4b6082e:	48 81 c4 b8 00 00 00 	add    $0xb8,%rsp
 4b60835:	c3                   	ret
 4b60836:	e8 25 b7 3b fd       	call   1f1bf60 <runtime.deferreturn@@Base>
 4b6083b:	48 8b 44 24 30       	mov    0x30(%rsp),%rax
 4b60840:	48 8b 5c 24 60       	mov    0x60(%rsp),%rbx
 4b60845:	48 8b 4c 24 78       	mov    0x78(%rsp),%rcx
 4b6084a:	48 8b bc 24 80 00 00 	mov    0x80(%rsp),%rdi
 4b60851:	00 
 4b60852:	48 8b ac 24 b0 00 00 	mov    0xb0(%rsp),%rbp
 4b60859:	00 
 4b6085a:	48 81 c4 b8 00 00 00 	add    $0xb8,%rsp
 4b60861:	c3                   	ret
 4b60862:	48 89 44 24 08       	mov    %rax,0x8(%rsp)
 4b60867:	48 89 5c 24 10       	mov    %rbx,0x10(%rsp)
 4b6086c:	48 89 4c 24 18       	mov    %rcx,0x18(%rsp)
 4b60871:	e8 ea 3b 3f fd       	call   1f54460 <runtime.morestack_noctxt.abi0@@Base>
 4b60876:	48 8b 44 24 08       	mov    0x8(%rsp),%rax
 4b6087b:	48 8b 5c 24 10       	mov    0x10(%rsp),%rbx
 4b60880:	48 8b 4c 24 18       	mov    0x18(%rsp),%rcx
 4b60885:	e9 b6 fc ff ff       	jmp    4b60540 <github.com/lasselj/timebeat/beater/clocksync/clients/ptpsquared.(*PeerHandler).getPeerType@@Base>
 4b6088a:	cc                   	int3
 4b6088b:	cc                   	int3
 4b6088c:	cc                   	int3
 4b6088d:	cc                   	int3
 4b6088e:	cc                   	int3
 4b6088f:	cc                   	int3
 4b60890:	cc                   	int3
 4b60891:	cc                   	int3
 4b60892:	cc                   	int3
 4b60893:	cc                   	int3
 4b60894:	cc                   	int3
 4b60895:	cc                   	int3
 4b60896:	cc                   	int3
 4b60897:	cc                   	int3
 4b60898:	cc                   	int3
 4b60899:	cc                   	int3
 4b6089a:	cc                   	int3
 4b6089b:	cc                   	int3
 4b6089c:	cc                   	int3
 4b6089d:	cc                   	int3
 4b6089e:	cc                   	int3
 4b6089f:	cc                   	int3
