# github.com/lasselj/timebeat/beater/clocksync/clients/ptp/client.(*Simulator).createSubscriptions
# addr 0x45dd980 size 384 (0x180)


/mnt/c/Users/SHIWA/GitHub/TimeCard-Mini/timebeat-extracted/usr/share/timebeat/bin/timebeat:     file format elf64-x86-64


Disassembly of section .text:

00000000045dd980 <github.com/lasselj/timebeat/beater/clocksync/clients/ptp/client.(*Simulator).createSubscriptions@@Base>:
 45dd980:	49 3b 66 10          	cmp    0x10(%r14),%rsp
 45dd984:	0f 86 4f 01 00 00    	jbe    45ddad9 <github.com/lasselj/timebeat/beater/clocksync/clients/ptp/client.(*Simulator).createSubscriptions@@Base+0x159>
 45dd98a:	48 83 ec 60          	sub    $0x60,%rsp
 45dd98e:	48 89 6c 24 58       	mov    %rbp,0x58(%rsp)
 45dd993:	48 8d 6c 24 58       	lea    0x58(%rsp),%rbp
 45dd998:	48 89 44 24 68       	mov    %rax,0x68(%rsp)
 45dd99d:	31 c9                	xor    %ecx,%ecx
 45dd99f:	90                   	nop
 45dd9a0:	eb 0d                	jmp    45dd9af <github.com/lasselj/timebeat/beater/clocksync/clients/ptp/client.(*Simulator).createSubscriptions@@Base+0x2f>
 45dd9a2:	48 8b 4c 24 18       	mov    0x18(%rsp),%rcx
 45dd9a7:	48 ff c1             	inc    %rcx
 45dd9aa:	48 8b 44 24 68       	mov    0x68(%rsp),%rax
 45dd9af:	48 39 08             	cmp    %rcx,(%rax)
 45dd9b2:	0f 8e 17 01 00 00    	jle    45ddacf <github.com/lasselj/timebeat/beater/clocksync/clients/ptp/client.(*Simulator).createSubscriptions@@Base+0x14f>
 45dd9b8:	48 89 4c 24 18       	mov    %rcx,0x18(%rsp)
 45dd9bd:	48 8b 48 18          	mov    0x18(%rax),%rcx
 45dd9c1:	48 89 4c 24 40       	mov    %rcx,0x40(%rsp)
 45dd9c6:	e8 75 38 91 fd       	call   1ef1240 <runtime.makemap_small@@Base>
 45dd9cb:	48 89 44 24 50       	mov    %rax,0x50(%rsp)
 45dd9d0:	e8 6b 38 91 fd       	call   1ef1240 <runtime.makemap_small@@Base>
 45dd9d5:	48 89 44 24 48       	mov    %rax,0x48(%rsp)
 45dd9da:	48 8d 05 7f 68 66 01 	lea    0x166687f(%rip),%rax        # 5c44260 <type:fi5MZBKX@@Base>
 45dd9e1:	e8 fa 2a 91 fd       	call   1ef04e0 <runtime.newobject@@Base>
 45dd9e6:	48 89 44 24 38       	mov    %rax,0x38(%rsp)
 45dd9eb:	83 3d 6e df 89 03 00 	cmpl   $0x0,0x389df6e(%rip)        # 7e7b960 <runtime.writeBarrier@@Base>
 45dd9f2:	75 1c                	jne    45dda10 <github.com/lasselj/timebeat/beater/clocksync/clients/ptp/client.(*Simulator).createSubscriptions@@Base+0x90>
 45dd9f4:	48 8b 54 24 50       	mov    0x50(%rsp),%rdx
 45dd9f9:	48 89 10             	mov    %rdx,(%rax)
 45dd9fc:	48 8b 54 24 40       	mov    0x40(%rsp),%rdx
 45dda01:	48 89 50 10          	mov    %rdx,0x10(%rax)
 45dda05:	48 8b 54 24 48       	mov    0x48(%rsp),%rdx
 45dda0a:	48 89 50 18          	mov    %rdx,0x18(%rax)
 45dda0e:	eb 2c                	jmp    45dda3c <github.com/lasselj/timebeat/beater/clocksync/clients/ptp/client.(*Simulator).createSubscriptions@@Base+0xbc>
 45dda10:	48 89 c7             	mov    %rax,%rdi
 45dda13:	48 8b 54 24 50       	mov    0x50(%rsp),%rdx
 45dda18:	e8 03 8d 97 fd       	call   1f56720 <runtime.gcWriteBarrierDX@@Base>
 45dda1d:	48 8d 50 10          	lea    0x10(%rax),%rdx
 45dda21:	48 89 d7             	mov    %rdx,%rdi
 45dda24:	48 8b 74 24 40       	mov    0x40(%rsp),%rsi
 45dda29:	e8 32 8d 97 fd       	call   1f56760 <runtime.gcWriteBarrierSI@@Base>
 45dda2e:	48 8d 78 18          	lea    0x18(%rax),%rdi
 45dda32:	48 8b 54 24 48       	mov    0x48(%rsp),%rdx
 45dda37:	e8 e4 8c 97 fd       	call   1f56720 <runtime.gcWriteBarrierDX@@Base>
 45dda3c:	48 c7 44 24 26 ff 01 	movq   $0x1ff,0x26(%rsp)
 45dda43:	00 00 
 45dda45:	48 8b 54 24 18       	mov    0x18(%rsp),%rdx
 45dda4a:	48 8d b2 e8 03 00 00 	lea    0x3e8(%rdx),%rsi
 45dda51:	89 74 24 2a          	mov    %esi,0x2a(%rsp)
 45dda55:	90                   	nop
 45dda56:	66 c7 44 24 28 69 fe 	movw   $0xfe69,0x28(%rsp)
 45dda5d:	48 c7 44 24 2e 00 00 	movq   $0x0,0x2e(%rsp)
 45dda64:	00 00 
 45dda66:	48 c7 44 24 30 00 00 	movq   $0x0,0x30(%rsp)
 45dda6d:	00 00 
 45dda6f:	48 8b 74 24 26       	mov    0x26(%rsp),%rsi
 45dda74:	48 89 74 24 2e       	mov    %rsi,0x2e(%rsp)
 45dda79:	48 8b 74 24 68       	mov    0x68(%rsp),%rsi
 45dda7e:	48 8b 7e 18          	mov    0x18(%rsi),%rdi
 45dda82:	0f b7 bf 9e 02 00 00 	movzwl 0x29e(%rdi),%edi
 45dda89:	66 89 7c 24 36       	mov    %di,0x36(%rsp)
 45dda8e:	48 8b 5e 48          	mov    0x48(%rsi),%rbx
 45dda92:	48 8d 05 27 14 36 01 	lea    0x1361427(%rip),%rax        # 593eec0 <type:rsV5DcHX@@Base>
 45dda99:	48 8d 4c 24 2e       	lea    0x2e(%rsp),%rcx
 45dda9e:	66 90                	xchg   %ax,%ax
 45ddaa0:	e8 bb 42 91 fd       	call   1ef1d60 <runtime.mapassign@@Base>
 45ddaa5:	84 00                	test   %al,(%rax)
 45ddaa7:	83 3d b2 de 89 03 00 	cmpl   $0x0,0x389deb2(%rip)        # 7e7b960 <runtime.writeBarrier@@Base>
 45ddaae:	75 0d                	jne    45ddabd <github.com/lasselj/timebeat/beater/clocksync/clients/ptp/client.(*Simulator).createSubscriptions@@Base+0x13d>
 45ddab0:	48 8b 4c 24 38       	mov    0x38(%rsp),%rcx
 45ddab5:	48 89 08             	mov    %rcx,(%rax)
 45ddab8:	e9 e5 fe ff ff       	jmp    45dd9a2 <github.com/lasselj/timebeat/beater/clocksync/clients/ptp/client.(*Simulator).createSubscriptions@@Base+0x22>
 45ddabd:	48 89 c7             	mov    %rax,%rdi
 45ddac0:	48 8b 44 24 38       	mov    0x38(%rsp),%rax
 45ddac5:	e8 36 8b 97 fd       	call   1f56600 <runtime.gcWriteBarrier@@Base>
 45ddaca:	e9 d3 fe ff ff       	jmp    45dd9a2 <github.com/lasselj/timebeat/beater/clocksync/clients/ptp/client.(*Simulator).createSubscriptions@@Base+0x22>
 45ddacf:	48 8b 6c 24 58       	mov    0x58(%rsp),%rbp
 45ddad4:	48 83 c4 60          	add    $0x60,%rsp
 45ddad8:	c3                   	ret
 45ddad9:	48 89 44 24 08       	mov    %rax,0x8(%rsp)
 45ddade:	66 90                	xchg   %ax,%ax
 45ddae0:	e8 7b 69 97 fd       	call   1f54460 <runtime.morestack_noctxt.abi0@@Base>
 45ddae5:	48 8b 44 24 08       	mov    0x8(%rsp),%rax
 45ddaea:	e9 91 fe ff ff       	jmp    45dd980 <github.com/lasselj/timebeat/beater/clocksync/clients/ptp/client.(*Simulator).createSubscriptions@@Base>
 45ddaef:	cc                   	int3
 45ddaf0:	cc                   	int3
 45ddaf1:	cc                   	int3
 45ddaf2:	cc                   	int3
 45ddaf3:	cc                   	int3
 45ddaf4:	cc                   	int3
 45ddaf5:	cc                   	int3
 45ddaf6:	cc                   	int3
 45ddaf7:	cc                   	int3
 45ddaf8:	cc                   	int3
 45ddaf9:	cc                   	int3
 45ddafa:	cc                   	int3
 45ddafb:	cc                   	int3
 45ddafc:	cc                   	int3
 45ddafd:	cc                   	int3
 45ddafe:	cc                   	int3
 45ddaff:	cc                   	int3
