# github.com/lasselj/timebeat/beater/clocksync/clients/vendors/timebeat/oscillator/microchip_mac.(*Mac).Start
# addr 0x4b9fde0 size 288 (0x120)


/mnt/c/Users/SHIWA/GitHub/TimeCard-Mini/timebeat-extracted/usr/share/timebeat/bin/timebeat:     file format elf64-x86-64


Disassembly of section .text:

0000000004b9fde0 <github.com/lasselj/timebeat/beater/clocksync/clients/vendors/timebeat/oscillator/microchip_mac.(*Mac).Start@@Base>:
 4b9fde0:	49 3b 66 10          	cmp    0x10(%r14),%rsp
 4b9fde4:	0f 86 ee 00 00 00    	jbe    4b9fed8 <github.com/lasselj/timebeat/beater/clocksync/clients/vendors/timebeat/oscillator/microchip_mac.(*Mac).Start@@Base+0xf8>
 4b9fdea:	48 83 ec 18          	sub    $0x18,%rsp
 4b9fdee:	48 89 6c 24 10       	mov    %rbp,0x10(%rsp)
 4b9fdf3:	48 8d 6c 24 10       	lea    0x10(%rsp),%rbp
 4b9fdf8:	48 89 44 24 20       	mov    %rax,0x20(%rsp)
 4b9fdfd:	48 8d 05 5c de f1 00 	lea    0xf1de5c(%rip),%rax        # 5abdc60 <type:PabKdDJF@@Base>
 4b9fe04:	e8 d7 06 35 fd       	call   1ef04e0 <runtime.newobject@@Base>
 4b9fe09:	48 8d 0d b0 01 00 00 	lea    0x1b0(%rip),%rcx        # 4b9ffc0 <github.com/lasselj/timebeat/beater/clocksync/clients/vendors/timebeat/oscillator/microchip_mac.(*Mac).Start.func1@@Base>
 4b9fe10:	48 89 08             	mov    %rcx,(%rax)
 4b9fe13:	83 3d 46 bb 2d 03 00 	cmpl   $0x0,0x32dbb46(%rip)        # 7e7b960 <runtime.writeBarrier@@Base>
 4b9fe1a:	75 0b                	jne    4b9fe27 <github.com/lasselj/timebeat/beater/clocksync/clients/vendors/timebeat/oscillator/microchip_mac.(*Mac).Start@@Base+0x47>
 4b9fe1c:	48 8b 4c 24 20       	mov    0x20(%rsp),%rcx
 4b9fe21:	48 89 48 08          	mov    %rcx,0x8(%rax)
 4b9fe25:	eb 0e                	jmp    4b9fe35 <github.com/lasselj/timebeat/beater/clocksync/clients/vendors/timebeat/oscillator/microchip_mac.(*Mac).Start@@Base+0x55>
 4b9fe27:	48 8d 78 08          	lea    0x8(%rax),%rdi
 4b9fe2b:	48 8b 4c 24 20       	mov    0x20(%rsp),%rcx
 4b9fe30:	e8 cb 68 3b fd       	call   1f56700 <runtime.gcWriteBarrierCX@@Base>
 4b9fe35:	e8 26 8d 38 fd       	call   1f28b60 <runtime.newproc@@Base>
 4b9fe3a:	48 b8 00 d6 11 7e 03 	movabs $0x37e11d600,%rax
 4b9fe41:	00 00 00 
 4b9fe44:	e8 97 33 3b fd       	call   1f531e0 <time.Sleep@@Base>
 4b9fe49:	48 8d 05 10 dd f1 00 	lea    0xf1dd10(%rip),%rax        # 5abdb60 <type:JR/2NiI8@@Base>
 4b9fe50:	e8 8b 06 35 fd       	call   1ef04e0 <runtime.newobject@@Base>
 4b9fe55:	48 8d 0d 04 01 00 00 	lea    0x104(%rip),%rcx        # 4b9ff60 <github.com/lasselj/timebeat/beater/clocksync/clients/vendors/timebeat/oscillator/microchip_mac.(*Mac).Start.func2@@Base>
 4b9fe5c:	48 89 08             	mov    %rcx,(%rax)
 4b9fe5f:	83 3d fa ba 2d 03 00 	cmpl   $0x0,0x32dbafa(%rip)        # 7e7b960 <runtime.writeBarrier@@Base>
 4b9fe66:	75 0b                	jne    4b9fe73 <github.com/lasselj/timebeat/beater/clocksync/clients/vendors/timebeat/oscillator/microchip_mac.(*Mac).Start@@Base+0x93>
 4b9fe68:	48 8b 4c 24 20       	mov    0x20(%rsp),%rcx
 4b9fe6d:	48 89 48 08          	mov    %rcx,0x8(%rax)
 4b9fe71:	eb 12                	jmp    4b9fe85 <github.com/lasselj/timebeat/beater/clocksync/clients/vendors/timebeat/oscillator/microchip_mac.(*Mac).Start@@Base+0xa5>
 4b9fe73:	48 8d 78 08          	lea    0x8(%rax),%rdi
 4b9fe77:	48 8b 4c 24 20       	mov    0x20(%rsp),%rcx
 4b9fe7c:	0f 1f 40 00          	nopl   0x0(%rax)
 4b9fe80:	e8 7b 68 3b fd       	call   1f56700 <runtime.gcWriteBarrierCX@@Base>
 4b9fe85:	e8 d6 8c 38 fd       	call   1f28b60 <runtime.newproc@@Base>
 4b9fe8a:	48 8d 05 4f dd f1 00 	lea    0xf1dd4f(%rip),%rax        # 5abdbe0 <type:uOzCeJWo@@Base>
 4b9fe91:	e8 4a 06 35 fd       	call   1ef04e0 <runtime.newobject@@Base>
 4b9fe96:	48 8d 0d 63 00 00 00 	lea    0x63(%rip),%rcx        # 4b9ff00 <github.com/lasselj/timebeat/beater/clocksync/clients/vendors/timebeat/oscillator/microchip_mac.(*Mac).Start.func3@@Base>
 4b9fe9d:	48 89 08             	mov    %rcx,(%rax)
 4b9fea0:	83 3d b9 ba 2d 03 00 	cmpl   $0x0,0x32dbab9(%rip)        # 7e7b960 <runtime.writeBarrier@@Base>
 4b9fea7:	75 0b                	jne    4b9feb4 <github.com/lasselj/timebeat/beater/clocksync/clients/vendors/timebeat/oscillator/microchip_mac.(*Mac).Start@@Base+0xd4>
 4b9fea9:	48 8b 4c 24 20       	mov    0x20(%rsp),%rcx
 4b9feae:	48 89 48 08          	mov    %rcx,0x8(%rax)
 4b9feb2:	eb 11                	jmp    4b9fec5 <github.com/lasselj/timebeat/beater/clocksync/clients/vendors/timebeat/oscillator/microchip_mac.(*Mac).Start@@Base+0xe5>
 4b9feb4:	48 8d 78 08          	lea    0x8(%rax),%rdi
 4b9feb8:	48 8b 4c 24 20       	mov    0x20(%rsp),%rcx
 4b9febd:	0f 1f 00             	nopl   (%rax)
 4b9fec0:	e8 3b 68 3b fd       	call   1f56700 <runtime.gcWriteBarrierCX@@Base>
 4b9fec5:	e8 96 8c 38 fd       	call   1f28b60 <runtime.newproc@@Base>
 4b9feca:	31 c0                	xor    %eax,%eax
 4b9fecc:	31 db                	xor    %ebx,%ebx
 4b9fece:	48 8b 6c 24 10       	mov    0x10(%rsp),%rbp
 4b9fed3:	48 83 c4 18          	add    $0x18,%rsp
 4b9fed7:	c3                   	ret
 4b9fed8:	48 89 44 24 08       	mov    %rax,0x8(%rsp)
 4b9fedd:	0f 1f 00             	nopl   (%rax)
 4b9fee0:	e8 7b 45 3b fd       	call   1f54460 <runtime.morestack_noctxt.abi0@@Base>
 4b9fee5:	48 8b 44 24 08       	mov    0x8(%rsp),%rax
 4b9feea:	e9 f1 fe ff ff       	jmp    4b9fde0 <github.com/lasselj/timebeat/beater/clocksync/clients/vendors/timebeat/oscillator/microchip_mac.(*Mac).Start@@Base>
 4b9feef:	cc                   	int3
 4b9fef0:	cc                   	int3
 4b9fef1:	cc                   	int3
 4b9fef2:	cc                   	int3
 4b9fef3:	cc                   	int3
 4b9fef4:	cc                   	int3
 4b9fef5:	cc                   	int3
 4b9fef6:	cc                   	int3
 4b9fef7:	cc                   	int3
 4b9fef8:	cc                   	int3
 4b9fef9:	cc                   	int3
 4b9fefa:	cc                   	int3
 4b9fefb:	cc                   	int3
 4b9fefc:	cc                   	int3
 4b9fefd:	cc                   	int3
 4b9fefe:	cc                   	int3
 4b9feff:	cc                   	int3
