# github.com/lasselj/timebeat/interactive/daemon.(*OneTerminal).parseFlatStructure
# addr 0x4c2a180 size 992 (0x3e0)


/mnt/c/Users/SHIWA/GitHub/TimeCard-Mini/timebeat-extracted/usr/share/timebeat/bin/timebeat:     file format elf64-x86-64


Disassembly of section .text:

0000000004c2a180 <github.com/lasselj/timebeat/interactive/daemon.(*OneTerminal).parseFlatStructure@@Base>:
 4c2a180:	4c 8d a4 24 20 ff ff 	lea    -0xe0(%rsp),%r12
 4c2a187:	ff 
 4c2a188:	4d 3b 66 10          	cmp    0x10(%r14),%r12
 4c2a18c:	0f 86 65 03 00 00    	jbe    4c2a4f7 <github.com/lasselj/timebeat/interactive/daemon.(*OneTerminal).parseFlatStructure@@Base+0x377>
 4c2a192:	48 81 ec 60 01 00 00 	sub    $0x160,%rsp
 4c2a199:	48 89 ac 24 58 01 00 	mov    %rbp,0x158(%rsp)
 4c2a1a0:	00 
 4c2a1a1:	48 8d ac 24 58 01 00 	lea    0x158(%rsp),%rbp
 4c2a1a8:	00 
 4c2a1a9:	48 89 9c 24 70 01 00 	mov    %rbx,0x170(%rsp)
 4c2a1b0:	00 
 4c2a1b1:	48 89 8c 24 78 01 00 	mov    %rcx,0x178(%rsp)
 4c2a1b8:	00 
 4c2a1b9:	4c 89 8c 24 98 01 00 	mov    %r9,0x198(%rsp)
 4c2a1c0:	00 
 4c2a1c1:	48 89 b4 24 88 01 00 	mov    %rsi,0x188(%rsp)
 4c2a1c8:	00 
 4c2a1c9:	4c 89 84 24 90 01 00 	mov    %r8,0x190(%rsp)
 4c2a1d0:	00 
 4c2a1d1:	48 89 9c 24 b8 00 00 	mov    %rbx,0xb8(%rsp)
 4c2a1d8:	00 
 4c2a1d9:	48 89 8c 24 b0 00 00 	mov    %rcx,0xb0(%rsp)
 4c2a1e0:	00 
 4c2a1e1:	48 89 bc 24 90 00 00 	mov    %rdi,0x90(%rsp)
 4c2a1e8:	00 
 4c2a1e9:	31 c0                	xor    %eax,%eax
 4c2a1eb:	eb 23                	jmp    4c2a210 <github.com/lasselj/timebeat/interactive/daemon.(*OneTerminal).parseFlatStructure@@Base+0x90>
 4c2a1ed:	48 8b 84 24 80 00 00 	mov    0x80(%rsp),%rax
 4c2a1f4:	00 
 4c2a1f5:	48 ff c0             	inc    %rax
 4c2a1f8:	48 8b 8c 24 b0 00 00 	mov    0xb0(%rsp),%rcx
 4c2a1ff:	00 
 4c2a200:	48 8b 9c 24 b8 00 00 	mov    0xb8(%rsp),%rbx
 4c2a207:	00 
 4c2a208:	48 8b bc 24 90 00 00 	mov    0x90(%rsp),%rdi
 4c2a20f:	00 
 4c2a210:	48 89 84 24 80 00 00 	mov    %rax,0x80(%rsp)
 4c2a217:	00 
 4c2a218:	48 89 d8             	mov    %rbx,%rax
 4c2a21b:	48 89 cb             	mov    %rcx,%rbx
 4c2a21e:	48 89 f9             	mov    %rdi,%rcx
 4c2a221:	e8 ba f4 36 fd       	call   1f996e0 <reflect.Value.NumField@@Base>
 4c2a226:	48 8b 9c 24 80 00 00 	mov    0x80(%rsp),%rbx
 4c2a22d:	00 
 4c2a22e:	48 39 d8             	cmp    %rbx,%rax
 4c2a231:	0f 8e 9d 02 00 00    	jle    4c2a4d4 <github.com/lasselj/timebeat/interactive/daemon.(*OneTerminal).parseFlatStructure@@Base+0x354>
 4c2a237:	48 8b 8c 24 90 00 00 	mov    0x90(%rsp),%rcx
 4c2a23e:	00 
 4c2a23f:	90                   	nop
 4c2a240:	48 85 c9             	test   %rcx,%rcx
 4c2a243:	74 17                	je     4c2a25c <github.com/lasselj/timebeat/interactive/daemon.(*OneTerminal).parseFlatStructure@@Base+0xdc>
 4c2a245:	0f ba e1 09          	bt     $0x9,%ecx
 4c2a249:	72 11                	jb     4c2a25c <github.com/lasselj/timebeat/interactive/daemon.(*OneTerminal).parseFlatStructure@@Base+0xdc>
 4c2a24b:	48 8d 05 9e c1 33 01 	lea    0x133c19e(%rip),%rax        # 5f663f0 <go:itab.*reflect.rtype,reflect.Type@@Base>
 4c2a252:	48 8b 94 24 b8 00 00 	mov    0xb8(%rsp),%rdx
 4c2a259:	00 
 4c2a25a:	eb 20                	jmp    4c2a27c <github.com/lasselj/timebeat/interactive/daemon.(*OneTerminal).parseFlatStructure@@Base+0xfc>
 4c2a25c:	48 8b 84 24 b8 00 00 	mov    0xb8(%rsp),%rax
 4c2a263:	00 
 4c2a264:	48 8b 9c 24 b0 00 00 	mov    0xb0(%rsp),%rbx
 4c2a26b:	00 
 4c2a26c:	e8 4f 1e 37 fd       	call   1f9c0c0 <reflect.Value.typeSlow@@Base>
 4c2a271:	48 89 da             	mov    %rbx,%rdx
 4c2a274:	48 8b 9c 24 80 00 00 	mov    0x80(%rsp),%rbx
 4c2a27b:	00 
 4c2a27c:	48 8b 48 50          	mov    0x50(%rax),%rcx
 4c2a280:	48 89 d0             	mov    %rdx,%rax
 4c2a283:	ff d1                	call   *%rcx
 4c2a285:	48 8b 0c 24          	mov    (%rsp),%rcx
 4c2a289:	48 89 8c 24 f0 00 00 	mov    %rcx,0xf0(%rsp)
 4c2a290:	00 
 4c2a291:	48 8d bc 24 f8 00 00 	lea    0xf8(%rsp),%rdi
 4c2a298:	00 
 4c2a299:	48 8d 74 24 08       	lea    0x8(%rsp),%rsi
 4c2a29e:	66 90                	xchg   %ax,%ax
 4c2a2a0:	48 89 6c 24 f0       	mov    %rbp,-0x10(%rsp)
 4c2a2a5:	48 8d 6c 24 f0       	lea    -0x10(%rsp),%rbp
 4c2a2aa:	e8 7d ce 32 fd       	call   1f5712c <runtime.duffcopy@@Base+0x32c>
 4c2a2af:	48 8b 6d 00          	mov    0x0(%rbp),%rbp
 4c2a2b3:	48 8b 8c 24 28 01 00 	mov    0x128(%rsp),%rcx
 4c2a2ba:	00 
 4c2a2bb:	48 8b 94 24 20 01 00 	mov    0x120(%rsp),%rdx
 4c2a2c2:	00 
 4c2a2c3:	48 83 f9 08          	cmp    $0x8,%rcx
 4c2a2c7:	7c 13                	jl     4c2a2dc <github.com/lasselj/timebeat/interactive/daemon.(*OneTerminal).parseFlatStructure@@Base+0x15c>
 4c2a2c9:	48 be 63 6f 6e 66 69 	movabs $0x223a6769666e6f63,%rsi
 4c2a2d0:	67 3a 22 
 4c2a2d3:	48 39 32             	cmp    %rsi,(%rdx)
 4c2a2d6:	41 0f 94 c0          	sete   %r8b
 4c2a2da:	eb 0d                	jmp    4c2a2e9 <github.com/lasselj/timebeat/interactive/daemon.(*OneTerminal).parseFlatStructure@@Base+0x169>
 4c2a2dc:	48 be 63 6f 6e 66 69 	movabs $0x223a6769666e6f63,%rsi
 4c2a2e3:	67 3a 22 
 4c2a2e6:	45 31 c0             	xor    %r8d,%r8d
 4c2a2e9:	45 84 c0             	test   %r8b,%r8b
 4c2a2ec:	74 20                	je     4c2a30e <github.com/lasselj/timebeat/interactive/daemon.(*OneTerminal).parseFlatStructure@@Base+0x18e>
 4c2a2ee:	48 83 f9 08          	cmp    $0x8,%rcx
 4c2a2f2:	0f 82 f4 01 00 00    	jb     4c2a4ec <github.com/lasselj/timebeat/interactive/daemon.(*OneTerminal).parseFlatStructure@@Base+0x36c>
 4c2a2f8:	48 83 c1 f8          	add    $0xfffffffffffffff8,%rcx
 4c2a2fc:	49 89 c8             	mov    %rcx,%r8
 4c2a2ff:	48 f7 d9             	neg    %rcx
 4c2a302:	48 c1 f9 3f          	sar    $0x3f,%rcx
 4c2a306:	83 e1 08             	and    $0x8,%ecx
 4c2a309:	48 01 ca             	add    %rcx,%rdx
 4c2a30c:	eb 03                	jmp    4c2a311 <github.com/lasselj/timebeat/interactive/daemon.(*OneTerminal).parseFlatStructure@@Base+0x191>
 4c2a30e:	49 89 c8             	mov    %rcx,%r8
 4c2a311:	48 89 94 24 98 00 00 	mov    %rdx,0x98(%rsp)
 4c2a318:	00 
 4c2a319:	49 83 f8 01          	cmp    $0x1,%r8
 4c2a31d:	7d 04                	jge    4c2a323 <github.com/lasselj/timebeat/interactive/daemon.(*OneTerminal).parseFlatStructure@@Base+0x1a3>
 4c2a31f:	31 c0                	xor    %eax,%eax
 4c2a321:	eb 3d                	jmp    4c2a360 <github.com/lasselj/timebeat/interactive/daemon.(*OneTerminal).parseFlatStructure@@Base+0x1e0>
 4c2a323:	4c 89 44 24 78       	mov    %r8,0x78(%rsp)
 4c2a328:	49 8d 04 10          	lea    (%r8,%rdx,1),%rax
 4c2a32c:	48 8d 40 ff          	lea    -0x1(%rax),%rax
 4c2a330:	48 8d 1d 49 c7 8a 00 	lea    0x8ac749(%rip),%rbx        # 54d6a80 <_IO_stdin_used@@Base+0x8a3a80>
 4c2a337:	b9 01 00 00 00       	mov    $0x1,%ecx
 4c2a33c:	0f 1f 40 00          	nopl   0x0(%rax)
 4c2a340:	e8 db 97 2b fd       	call   1ee3b20 <runtime.memequal@@Base>
 4c2a345:	48 8b 94 24 98 00 00 	mov    0x98(%rsp),%rdx
 4c2a34c:	00 
 4c2a34d:	48 be 63 6f 6e 66 69 	movabs $0x223a6769666e6f63,%rsi
 4c2a354:	67 3a 22 
 4c2a357:	4c 8b 44 24 78       	mov    0x78(%rsp),%r8
 4c2a35c:	0f 1f 40 00          	nopl   0x0(%rax)
 4c2a360:	84 c0                	test   %al,%al
 4c2a362:	74 0e                	je     4c2a372 <github.com/lasselj/timebeat/interactive/daemon.(*OneTerminal).parseFlatStructure@@Base+0x1f2>
 4c2a364:	49 8d 48 ff          	lea    -0x1(%r8),%rcx
 4c2a368:	49 39 c8             	cmp    %rcx,%r8
 4c2a36b:	73 08                	jae    4c2a375 <github.com/lasselj/timebeat/interactive/daemon.(*OneTerminal).parseFlatStructure@@Base+0x1f5>
 4c2a36d:	e9 72 01 00 00       	jmp    4c2a4e4 <github.com/lasselj/timebeat/interactive/daemon.(*OneTerminal).parseFlatStructure@@Base+0x364>
 4c2a372:	4c 89 c1             	mov    %r8,%rcx
 4c2a375:	48 89 8c 24 88 00 00 	mov    %rcx,0x88(%rsp)
 4c2a37c:	00 
 4c2a37d:	48 8b 84 24 b8 00 00 	mov    0xb8(%rsp),%rax
 4c2a384:	00 
 4c2a385:	48 8b 9c 24 b0 00 00 	mov    0xb0(%rsp),%rbx
 4c2a38c:	00 
 4c2a38d:	48 8b bc 24 80 00 00 	mov    0x80(%rsp),%rdi
 4c2a394:	00 
 4c2a395:	48 8b 8c 24 90 00 00 	mov    0x90(%rsp),%rcx
 4c2a39c:	00 
 4c2a39d:	0f 1f 00             	nopl   (%rax)
 4c2a3a0:	e8 bb c2 36 fd       	call   1f96660 <reflect.Value.Field@@Base>
 4c2a3a5:	bf 01 00 00 00       	mov    $0x1,%edi
 4c2a3aa:	e8 f1 d2 36 fd       	call   1f976a0 <reflect.valueInterface@@Base>
 4c2a3af:	48 89 84 24 a8 00 00 	mov    %rax,0xa8(%rsp)
 4c2a3b6:	00 
 4c2a3b7:	48 89 9c 24 a0 00 00 	mov    %rbx,0xa0(%rsp)
 4c2a3be:	00 
 4c2a3bf:	44 0f 11 bc 24 c0 00 	movups %xmm15,0xc0(%rsp)
 4c2a3c6:	00 00 
 4c2a3c8:	44 0f 11 bc 24 d0 00 	movups %xmm15,0xd0(%rsp)
 4c2a3cf:	00 00 
 4c2a3d1:	44 0f 11 bc 24 e0 00 	movups %xmm15,0xe0(%rsp)
 4c2a3d8:	00 00 
 4c2a3da:	48 8b 8c 24 90 01 00 	mov    0x190(%rsp),%rcx
 4c2a3e1:	00 
 4c2a3e2:	48 8d 3d 17 9d 00 00 	lea    0x9d17(%rip),%rdi        # 4c34100 <_IO_stdin_used@@Base+0x1100>
 4c2a3e9:	be 04 00 00 00       	mov    $0x4,%esi
 4c2a3ee:	31 c0                	xor    %eax,%eax
 4c2a3f0:	48 8b 9c 24 88 01 00 	mov    0x188(%rsp),%rbx
 4c2a3f7:	00 
 4c2a3f8:	e8 23 ff 30 fd       	call   1f3a320 <runtime.concatstring2@@Base>
 4c2a3fd:	0f 1f 00             	nopl   (%rax)
 4c2a400:	e8 5b 39 2c fd       	call   1eedd60 <runtime.convTstring@@Base>
 4c2a405:	48 8d 15 94 42 b8 00 	lea    0xb84294(%rip),%rdx        # 57ae6a0 <type:string@@Base>
 4c2a40c:	48 89 94 24 c0 00 00 	mov    %rdx,0xc0(%rsp)
 4c2a413:	00 
 4c2a414:	48 89 84 24 c8 00 00 	mov    %rax,0xc8(%rsp)
 4c2a41b:	00 
 4c2a41c:	48 8b 84 24 98 00 00 	mov    0x98(%rsp),%rax
 4c2a423:	00 
 4c2a424:	48 8b 9c 24 88 00 00 	mov    0x88(%rsp),%rbx
 4c2a42b:	00 
 4c2a42c:	e8 2f 39 2c fd       	call   1eedd60 <runtime.convTstring@@Base>
 4c2a431:	48 8d 15 68 42 b8 00 	lea    0xb84268(%rip),%rdx        # 57ae6a0 <type:string@@Base>
 4c2a438:	48 89 94 24 d0 00 00 	mov    %rdx,0xd0(%rsp)
 4c2a43f:	00 
 4c2a440:	48 89 84 24 d8 00 00 	mov    %rax,0xd8(%rsp)
 4c2a447:	00 
 4c2a448:	48 8b b4 24 a8 00 00 	mov    0xa8(%rsp),%rsi
 4c2a44f:	00 
 4c2a450:	48 89 b4 24 e0 00 00 	mov    %rsi,0xe0(%rsp)
 4c2a457:	00 
 4c2a458:	48 8b b4 24 a0 00 00 	mov    0xa0(%rsp),%rsi
 4c2a45f:	00 
 4c2a460:	48 89 b4 24 e8 00 00 	mov    %rsi,0xe8(%rsp)
 4c2a467:	00 
 4c2a468:	48 8d 05 d9 a0 03 00 	lea    0x3a0d9(%rip),%rax        # 4c64548 <_IO_stdin_used@@Base+0x31548>
 4c2a46f:	bb 09 00 00 00       	mov    $0x9,%ebx
 4c2a474:	48 8d 8c 24 c0 00 00 	lea    0xc0(%rsp),%rcx
 4c2a47b:	00 
 4c2a47c:	bf 03 00 00 00       	mov    $0x3,%edi
 4c2a481:	48 89 fe             	mov    %rdi,%rsi
 4c2a484:	e8 77 a4 3c fd       	call   1ff4900 <fmt.Sprintf@@Base>
 4c2a489:	48 8b 94 24 98 01 00 	mov    0x198(%rsp),%rdx
 4c2a490:	00 
 4c2a491:	48 8b 32             	mov    (%rdx),%rsi
 4c2a494:	48 8b 4a 08          	mov    0x8(%rdx),%rcx
 4c2a498:	48 89 c7             	mov    %rax,%rdi
 4c2a49b:	31 c0                	xor    %eax,%eax
 4c2a49d:	49 89 d8             	mov    %rbx,%r8
 4c2a4a0:	48 89 f3             	mov    %rsi,%rbx
 4c2a4a3:	4c 89 c6             	mov    %r8,%rsi
 4c2a4a6:	e8 75 fe 30 fd       	call   1f3a320 <runtime.concatstring2@@Base>
 4c2a4ab:	48 8b bc 24 98 01 00 	mov    0x198(%rsp),%rdi
 4c2a4b2:	00 
 4c2a4b3:	48 89 5f 08          	mov    %rbx,0x8(%rdi)
 4c2a4b7:	83 3d a2 14 25 03 00 	cmpl   $0x0,0x32514a2(%rip)        # 7e7b960 <runtime.writeBarrier@@Base>
 4c2a4be:	66 90                	xchg   %ax,%ax
 4c2a4c0:	75 08                	jne    4c2a4ca <github.com/lasselj/timebeat/interactive/daemon.(*OneTerminal).parseFlatStructure@@Base+0x34a>
 4c2a4c2:	48 89 07             	mov    %rax,(%rdi)
 4c2a4c5:	e9 23 fd ff ff       	jmp    4c2a1ed <github.com/lasselj/timebeat/interactive/daemon.(*OneTerminal).parseFlatStructure@@Base+0x6d>
 4c2a4ca:	e8 31 c1 32 fd       	call   1f56600 <runtime.gcWriteBarrier@@Base>
 4c2a4cf:	e9 19 fd ff ff       	jmp    4c2a1ed <github.com/lasselj/timebeat/interactive/daemon.(*OneTerminal).parseFlatStructure@@Base+0x6d>
 4c2a4d4:	48 8b ac 24 58 01 00 	mov    0x158(%rsp),%rbp
 4c2a4db:	00 
 4c2a4dc:	48 81 c4 60 01 00 00 	add    $0x160,%rsp
 4c2a4e3:	c3                   	ret
 4c2a4e4:	4c 89 c2             	mov    %r8,%rdx
 4c2a4e7:	e8 f4 c5 32 fd       	call   1f56ae0 <runtime.panicSliceAlen@@Base>
 4c2a4ec:	b8 08 00 00 00       	mov    $0x8,%eax
 4c2a4f1:	e8 6a c6 32 fd       	call   1f56b60 <runtime.panicSliceB@@Base>
 4c2a4f6:	90                   	nop
 4c2a4f7:	48 89 44 24 08       	mov    %rax,0x8(%rsp)
 4c2a4fc:	48 89 5c 24 10       	mov    %rbx,0x10(%rsp)
 4c2a501:	48 89 4c 24 18       	mov    %rcx,0x18(%rsp)
 4c2a506:	48 89 7c 24 20       	mov    %rdi,0x20(%rsp)
 4c2a50b:	48 89 74 24 28       	mov    %rsi,0x28(%rsp)
 4c2a510:	4c 89 44 24 30       	mov    %r8,0x30(%rsp)
 4c2a515:	4c 89 4c 24 38       	mov    %r9,0x38(%rsp)
 4c2a51a:	e8 41 9f 32 fd       	call   1f54460 <runtime.morestack_noctxt.abi0@@Base>
 4c2a51f:	48 8b 44 24 08       	mov    0x8(%rsp),%rax
 4c2a524:	48 8b 5c 24 10       	mov    0x10(%rsp),%rbx
 4c2a529:	48 8b 4c 24 18       	mov    0x18(%rsp),%rcx
 4c2a52e:	48 8b 7c 24 20       	mov    0x20(%rsp),%rdi
 4c2a533:	48 8b 74 24 28       	mov    0x28(%rsp),%rsi
 4c2a538:	4c 8b 44 24 30       	mov    0x30(%rsp),%r8
 4c2a53d:	4c 8b 4c 24 38       	mov    0x38(%rsp),%r9
 4c2a542:	e9 39 fc ff ff       	jmp    4c2a180 <github.com/lasselj/timebeat/interactive/daemon.(*OneTerminal).parseFlatStructure@@Base>
 4c2a547:	cc                   	int3
 4c2a548:	cc                   	int3
 4c2a549:	cc                   	int3
 4c2a54a:	cc                   	int3
 4c2a54b:	cc                   	int3
 4c2a54c:	cc                   	int3
 4c2a54d:	cc                   	int3
 4c2a54e:	cc                   	int3
 4c2a54f:	cc                   	int3
 4c2a550:	cc                   	int3
 4c2a551:	cc                   	int3
 4c2a552:	cc                   	int3
 4c2a553:	cc                   	int3
 4c2a554:	cc                   	int3
 4c2a555:	cc                   	int3
 4c2a556:	cc                   	int3
 4c2a557:	cc                   	int3
 4c2a558:	cc                   	int3
 4c2a559:	cc                   	int3
 4c2a55a:	cc                   	int3
 4c2a55b:	cc                   	int3
 4c2a55c:	cc                   	int3
 4c2a55d:	cc                   	int3
 4c2a55e:	cc                   	int3
 4c2a55f:	cc                   	int3
