# github.com/lasselj/timebeat/beater/clocksync/clients/vendors/timebeat/eth_sw/eth_sw_KSZ9567S.(*EthSwKSZ9567S).ParseConfig
# addr 0x4b9c280 size 576 (0x240)


/mnt/c/Users/SHIWA/GitHub/TimeCard-Mini/timebeat-extracted/usr/share/timebeat/bin/timebeat:     file format elf64-x86-64


Disassembly of section .text:

0000000004b9c280 <github.com/lasselj/timebeat/beater/clocksync/clients/vendors/timebeat/eth_sw/eth_sw_KSZ9567S.(*EthSwKSZ9567S).ParseConfig@@Base>:
 4b9c280:	49 3b 66 10          	cmp    0x10(%r14),%rsp
 4b9c284:	0f 86 13 02 00 00    	jbe    4b9c49d <github.com/lasselj/timebeat/beater/clocksync/clients/vendors/timebeat/eth_sw/eth_sw_KSZ9567S.(*EthSwKSZ9567S).ParseConfig@@Base+0x21d>
 4b9c28a:	48 83 ec 60          	sub    $0x60,%rsp
 4b9c28e:	48 89 6c 24 58       	mov    %rbp,0x58(%rsp)
 4b9c293:	48 8d 6c 24 58       	lea    0x58(%rsp),%rbp
 4b9c298:	48 89 44 24 68       	mov    %rax,0x68(%rsp)
 4b9c29d:	48 8b 50 10          	mov    0x10(%rax),%rdx
 4b9c2a1:	4c 8b 4a 08          	mov    0x8(%rdx),%r9
 4b9c2a5:	48 8b 52 10          	mov    0x10(%rdx),%rdx
 4b9c2a9:	48 89 54 24 40       	mov    %rdx,0x40(%rsp)
 4b9c2ae:	31 c9                	xor    %ecx,%ecx
 4b9c2b0:	eb 0e                	jmp    4b9c2c0 <github.com/lasselj/timebeat/beater/clocksync/clients/vendors/timebeat/eth_sw/eth_sw_KSZ9567S.(*EthSwKSZ9567S).ParseConfig@@Base+0x40>
 4b9c2b2:	49 83 c1 10          	add    $0x10,%r9
 4b9c2b6:	48 ff c1             	inc    %rcx
 4b9c2b9:	0f 1f 80 00 00 00 00 	nopl   0x0(%rax)
 4b9c2c0:	48 39 d1             	cmp    %rdx,%rcx
 4b9c2c3:	0f 8d ca 01 00 00    	jge    4b9c493 <github.com/lasselj/timebeat/beater/clocksync/clients/vendors/timebeat/eth_sw/eth_sw_KSZ9567S.(*EthSwKSZ9567S).ParseConfig@@Base+0x213>
 4b9c2c9:	48 89 4c 24 38       	mov    %rcx,0x38(%rsp)
 4b9c2ce:	4c 89 4c 24 50       	mov    %r9,0x50(%rsp)
 4b9c2d3:	4d 8b 11             	mov    (%r9),%r10
 4b9c2d6:	49 8b 59 08          	mov    0x8(%r9),%rbx
 4b9c2da:	66 0f 1f 44 00 00    	nopw   0x0(%rax,%rax,1)
 4b9c2e0:	48 83 fb 03          	cmp    $0x3,%rbx
 4b9c2e4:	7d 04                	jge    4b9c2ea <github.com/lasselj/timebeat/beater/clocksync/clients/vendors/timebeat/eth_sw/eth_sw_KSZ9567S.(*EthSwKSZ9567S).ParseConfig@@Base+0x6a>
 4b9c2e6:	31 f6                	xor    %esi,%esi
 4b9c2e8:	eb 3e                	jmp    4b9c328 <github.com/lasselj/timebeat/beater/clocksync/clients/vendors/timebeat/eth_sw/eth_sw_KSZ9567S.(*EthSwKSZ9567S).ParseConfig@@Base+0xa8>
 4b9c2ea:	48 89 5c 24 30       	mov    %rbx,0x30(%rsp)
 4b9c2ef:	4c 89 54 24 48       	mov    %r10,0x48(%rsp)
 4b9c2f4:	4c 89 d0             	mov    %r10,%rax
 4b9c2f7:	48 8d 1d 9a 79 09 00 	lea    0x9799a(%rip),%rbx        # 4c33c98 <_IO_stdin_used@@Base+0xc98>
 4b9c2fe:	b9 03 00 00 00       	mov    $0x3,%ecx
 4b9c303:	e8 18 78 34 fd       	call   1ee3b20 <runtime.memequal@@Base>
 4b9c308:	48 8b 4c 24 38       	mov    0x38(%rsp),%rcx
 4b9c30d:	48 8b 54 24 40       	mov    0x40(%rsp),%rdx
 4b9c312:	48 8b 5c 24 30       	mov    0x30(%rsp),%rbx
 4b9c317:	4c 8b 4c 24 50       	mov    0x50(%rsp),%r9
 4b9c31c:	4c 8b 54 24 48       	mov    0x48(%rsp),%r10
 4b9c321:	89 c6                	mov    %eax,%esi
 4b9c323:	48 8b 44 24 68       	mov    0x68(%rsp),%rax
 4b9c328:	40 84 f6             	test   %sil,%sil
 4b9c32b:	74 85                	je     4b9c2b2 <github.com/lasselj/timebeat/beater/clocksync/clients/vendors/timebeat/eth_sw/eth_sw_KSZ9567S.(*EthSwKSZ9567S).ParseConfig@@Base+0x32>
 4b9c32d:	90                   	nop
 4b9c32e:	4c 89 d0             	mov    %r10,%rax
 4b9c331:	48 8d 0d 80 ad 93 00 	lea    0x93ad80(%rip),%rcx        # 54d70b8 <_IO_stdin_used@@Base+0x8a40b8>
 4b9c338:	bf 01 00 00 00       	mov    $0x1,%edi
 4b9c33d:	31 f6                	xor    %esi,%esi
 4b9c33f:	49 c7 c0 ff ff ff ff 	mov    $0xffffffffffffffff,%r8
 4b9c346:	e8 35 ab 46 fd       	call   2006e80 <strings.genSplit@@Base>
 4b9c34b:	48 83 fb 02          	cmp    $0x2,%rbx
 4b9c34f:	7d 19                	jge    4b9c36a <github.com/lasselj/timebeat/beater/clocksync/clients/vendors/timebeat/eth_sw/eth_sw_KSZ9567S.(*EthSwKSZ9567S).ParseConfig@@Base+0xea>
 4b9c351:	48 8b 44 24 68       	mov    0x68(%rsp),%rax
 4b9c356:	48 8b 4c 24 38       	mov    0x38(%rsp),%rcx
 4b9c35b:	48 8b 54 24 40       	mov    0x40(%rsp),%rdx
 4b9c360:	4c 8b 4c 24 50       	mov    0x50(%rsp),%r9
 4b9c365:	e9 48 ff ff ff       	jmp    4b9c2b2 <github.com/lasselj/timebeat/beater/clocksync/clients/vendors/timebeat/eth_sw/eth_sw_KSZ9567S.(*EthSwKSZ9567S).ParseConfig@@Base+0x32>
 4b9c36a:	48 8b 50 10          	mov    0x10(%rax),%rdx
 4b9c36e:	4c 8b 48 18          	mov    0x18(%rax),%r9
 4b9c372:	49 83 f9 08          	cmp    $0x8,%r9
 4b9c376:	75 4d                	jne    4b9c3c5 <github.com/lasselj/timebeat/beater/clocksync/clients/vendors/timebeat/eth_sw/eth_sw_KSZ9567S.(*EthSwKSZ9567S).ParseConfig@@Base+0x145>
 4b9c378:	49 b9 73 70 6c 69 74 	movabs $0x326c5f74696c7073,%r9
 4b9c37f:	5f 6c 32 
 4b9c382:	4c 39 0a             	cmp    %r9,(%rdx)
 4b9c385:	75 2d                	jne    4b9c3b4 <github.com/lasselj/timebeat/beater/clocksync/clients/vendors/timebeat/eth_sw/eth_sw_KSZ9567S.(*EthSwKSZ9567S).ParseConfig@@Base+0x134>
 4b9c387:	48 83 fb 04          	cmp    $0x4,%rbx
 4b9c38b:	0f 85 e9 00 00 00    	jne    4b9c47a <github.com/lasselj/timebeat/beater/clocksync/clients/vendors/timebeat/eth_sw/eth_sw_KSZ9567S.(*EthSwKSZ9567S).ParseConfig@@Base+0x1fa>
 4b9c391:	48 89 cf             	mov    %rcx,%rdi
 4b9c394:	48 89 d9             	mov    %rbx,%rcx
 4b9c397:	48 89 c3             	mov    %rax,%rbx
 4b9c39a:	48 8b 44 24 68       	mov    0x68(%rsp),%rax
 4b9c39f:	90                   	nop
 4b9c3a0:	e8 1b 01 00 00       	call   4b9c4c0 <github.com/lasselj/timebeat/beater/clocksync/clients/vendors/timebeat/eth_sw/eth_sw_KSZ9567S.(*EthSwKSZ9567S).parseSplitL2Options@@Base>
 4b9c3a5:	49 b9 73 70 6c 69 74 	movabs $0x326c5f74696c7073,%r9
 4b9c3ac:	5f 6c 32 
 4b9c3af:	e9 c6 00 00 00       	jmp    4b9c47a <github.com/lasselj/timebeat/beater/clocksync/clients/vendors/timebeat/eth_sw/eth_sw_KSZ9567S.(*EthSwKSZ9567S).ParseConfig@@Base+0x1fa>
 4b9c3b4:	49 b9 73 66 70 5f 61 	movabs $0x756363615f706673,%r9
 4b9c3bb:	63 63 75 
 4b9c3be:	66 90                	xchg   %ax,%ax
 4b9c3c0:	e9 ab 00 00 00       	jmp    4b9c470 <github.com/lasselj/timebeat/beater/clocksync/clients/vendors/timebeat/eth_sw/eth_sw_KSZ9567S.(*EthSwKSZ9567S).ParseConfig@@Base+0x1f0>
 4b9c3c5:	49 83 f9 0c          	cmp    $0xc,%r9
 4b9c3c9:	0f 85 97 00 00 00    	jne    4b9c466 <github.com/lasselj/timebeat/beater/clocksync/clients/vendors/timebeat/eth_sw/eth_sw_KSZ9567S.(*EthSwKSZ9567S).ParseConfig@@Base+0x1e6>
 4b9c3cf:	49 b9 73 66 70 5f 61 	movabs $0x756363615f706673,%r9
 4b9c3d6:	63 63 75 
 4b9c3d9:	0f 1f 80 00 00 00 00 	nopl   0x0(%rax)
 4b9c3e0:	4c 39 0a             	cmp    %r9,(%rdx)
 4b9c3e3:	0f 85 87 00 00 00    	jne    4b9c470 <github.com/lasselj/timebeat/beater/clocksync/clients/vendors/timebeat/eth_sw/eth_sw_KSZ9567S.(*EthSwKSZ9567S).ParseConfig@@Base+0x1f0>
 4b9c3e9:	81 7a 08 72 61 63 79 	cmpl   $0x79636172,0x8(%rdx)
 4b9c3f0:	0f 85 7a 00 00 00    	jne    4b9c470 <github.com/lasselj/timebeat/beater/clocksync/clients/vendors/timebeat/eth_sw/eth_sw_KSZ9567S.(*EthSwKSZ9567S).ParseConfig@@Base+0x1f0>
 4b9c3f6:	48 83 fb 03          	cmp    $0x3,%rbx
 4b9c3fa:	75 4c                	jne    4b9c448 <github.com/lasselj/timebeat/beater/clocksync/clients/vendors/timebeat/eth_sw/eth_sw_KSZ9567S.(*EthSwKSZ9567S).ParseConfig@@Base+0x1c8>
 4b9c3fc:	48 8b 48 20          	mov    0x20(%rax),%rcx
 4b9c400:	48 8b 58 28          	mov    0x28(%rax),%rbx
 4b9c404:	48 89 c8             	mov    %rcx,%rax
 4b9c407:	e8 74 c7 46 fd       	call   2008b80 <strings.ToLower@@Base>
 4b9c40c:	48 83 fb 07          	cmp    $0x7,%rbx
 4b9c410:	75 48                	jne    4b9c45a <github.com/lasselj/timebeat/beater/clocksync/clients/vendors/timebeat/eth_sw/eth_sw_KSZ9567S.(*EthSwKSZ9567S).ParseConfig@@Base+0x1da>
 4b9c412:	81 38 70 72 65 63    	cmpl   $0x63657270,(%rax)
 4b9c418:	75 40                	jne    4b9c45a <github.com/lasselj/timebeat/beater/clocksync/clients/vendors/timebeat/eth_sw/eth_sw_KSZ9567S.(*EthSwKSZ9567S).ParseConfig@@Base+0x1da>
 4b9c41a:	66 81 78 04 69 73    	cmpw   $0x7369,0x4(%rax)
 4b9c420:	75 38                	jne    4b9c45a <github.com/lasselj/timebeat/beater/clocksync/clients/vendors/timebeat/eth_sw/eth_sw_KSZ9567S.(*EthSwKSZ9567S).ParseConfig@@Base+0x1da>
 4b9c422:	80 78 06 65          	cmpb   $0x65,0x6(%rax)
 4b9c426:	75 32                	jne    4b9c45a <github.com/lasselj/timebeat/beater/clocksync/clients/vendors/timebeat/eth_sw/eth_sw_KSZ9567S.(*EthSwKSZ9567S).ParseConfig@@Base+0x1da>
 4b9c428:	48 8b 54 24 68       	mov    0x68(%rsp),%rdx
 4b9c42d:	c6 42 18 00          	movb   $0x0,0x18(%rdx)
 4b9c431:	48 8b 42 08          	mov    0x8(%rdx),%rax
 4b9c435:	48 8d 1d 81 a0 25 00 	lea    0x25a081(%rip),%rbx        # 4df64bd <_IO_stdin_used@@Base+0x1c34bd>
 4b9c43c:	b9 1f 00 00 00       	mov    $0x1f,%ecx
 4b9c441:	e8 9a ae 86 ff       	call   44072e0 <github.com/lasselj/timebeat/beater/logging.(*Logger).Info@@Base>
 4b9c446:	eb 12                	jmp    4b9c45a <github.com/lasselj/timebeat/beater/clocksync/clients/vendors/timebeat/eth_sw/eth_sw_KSZ9567S.(*EthSwKSZ9567S).ParseConfig@@Base+0x1da>
 4b9c448:	48 8b 54 24 68       	mov    0x68(%rsp),%rdx
 4b9c44d:	48 8b 42 08          	mov    0x8(%rdx),%rax
 4b9c451:	31 db                	xor    %ebx,%ebx
 4b9c453:	31 c9                	xor    %ecx,%ecx
 4b9c455:	e8 06 ac 86 ff       	call   4407060 <github.com/lasselj/timebeat/beater/logging.(*Logger).Error@@Base>
 4b9c45a:	49 b9 73 70 6c 69 74 	movabs $0x326c5f74696c7073,%r9
 4b9c461:	5f 6c 32 
 4b9c464:	eb 14                	jmp    4b9c47a <github.com/lasselj/timebeat/beater/clocksync/clients/vendors/timebeat/eth_sw/eth_sw_KSZ9567S.(*EthSwKSZ9567S).ParseConfig@@Base+0x1fa>
 4b9c466:	49 b9 73 66 70 5f 61 	movabs $0x756363615f706673,%r9
 4b9c46d:	63 63 75 
 4b9c470:	49 b9 73 70 6c 69 74 	movabs $0x326c5f74696c7073,%r9
 4b9c477:	5f 6c 32 
 4b9c47a:	48 8b 44 24 68       	mov    0x68(%rsp),%rax
 4b9c47f:	48 8b 4c 24 38       	mov    0x38(%rsp),%rcx
 4b9c484:	48 8b 54 24 40       	mov    0x40(%rsp),%rdx
 4b9c489:	4c 8b 4c 24 50       	mov    0x50(%rsp),%r9
 4b9c48e:	e9 1f fe ff ff       	jmp    4b9c2b2 <github.com/lasselj/timebeat/beater/clocksync/clients/vendors/timebeat/eth_sw/eth_sw_KSZ9567S.(*EthSwKSZ9567S).ParseConfig@@Base+0x32>
 4b9c493:	48 8b 6c 24 58       	mov    0x58(%rsp),%rbp
 4b9c498:	48 83 c4 60          	add    $0x60,%rsp
 4b9c49c:	c3                   	ret
 4b9c49d:	48 89 44 24 08       	mov    %rax,0x8(%rsp)
 4b9c4a2:	e8 b9 7f 3b fd       	call   1f54460 <runtime.morestack_noctxt.abi0@@Base>
 4b9c4a7:	48 8b 44 24 08       	mov    0x8(%rsp),%rax
 4b9c4ac:	e9 cf fd ff ff       	jmp    4b9c280 <github.com/lasselj/timebeat/beater/clocksync/clients/vendors/timebeat/eth_sw/eth_sw_KSZ9567S.(*EthSwKSZ9567S).ParseConfig@@Base>
 4b9c4b1:	cc                   	int3
 4b9c4b2:	cc                   	int3
 4b9c4b3:	cc                   	int3
 4b9c4b4:	cc                   	int3
 4b9c4b5:	cc                   	int3
 4b9c4b6:	cc                   	int3
 4b9c4b7:	cc                   	int3
 4b9c4b8:	cc                   	int3
 4b9c4b9:	cc                   	int3
 4b9c4ba:	cc                   	int3
 4b9c4bb:	cc                   	int3
 4b9c4bc:	cc                   	int3
 4b9c4bd:	cc                   	int3
 4b9c4be:	cc                   	int3
 4b9c4bf:	cc                   	int3
