# github.com/lasselj/timebeat/beater/logging.(*SquaredMeshLatencyLogEntry).Log
# addr 0x440cf60 size 1152 (0x480)


/mnt/c/Users/SHIWA/GitHub/TimeCard-Mini/timebeat-extracted/usr/share/timebeat/bin/timebeat:     file format elf64-x86-64


Disassembly of section .text:

000000000440cf60 <github.com/lasselj/timebeat/beater/logging.(*SquaredMeshLatencyLogEntry).Log@@Base>:
 440cf60:	4c 8d 64 24 98       	lea    -0x68(%rsp),%r12
 440cf65:	4d 3b 66 10          	cmp    0x10(%r14),%r12
 440cf69:	0f 86 4f 04 00 00    	jbe    440d3be <github.com/lasselj/timebeat/beater/logging.(*SquaredMeshLatencyLogEntry).Log@@Base+0x45e>
 440cf6f:	48 81 ec e8 00 00 00 	sub    $0xe8,%rsp
 440cf76:	48 89 ac 24 e0 00 00 	mov    %rbp,0xe0(%rsp)
 440cf7d:	00 
 440cf7e:	48 8d ac 24 e0 00 00 	lea    0xe0(%rsp),%rbp
 440cf85:	00 
 440cf86:	48 89 84 24 f0 00 00 	mov    %rax,0xf0(%rsp)
 440cf8d:	00 
 440cf8e:	48 8b 48 10          	mov    0x10(%rax),%rcx
 440cf92:	48 8b 58 18          	mov    0x18(%rax),%rbx
 440cf96:	48 89 c8             	mov    %rcx,%rax
 440cf99:	e8 c2 17 00 00       	call   440e760 <github.com/lasselj/timebeat/beater/logging.ShouldLog@@Base>
 440cf9e:	66 90                	xchg   %ax,%ax
 440cfa0:	84 c0                	test   %al,%al
 440cfa2:	0f 84 06 04 00 00    	je     440d3ae <github.com/lasselj/timebeat/beater/logging.(*SquaredMeshLatencyLogEntry).Log@@Base+0x44e>
 440cfa8:	e8 73 ed bb fd       	call   1fcbd20 <time.Now@@Base>
 440cfad:	48 89 84 24 88 00 00 	mov    %rax,0x88(%rsp)
 440cfb4:	00 
 440cfb5:	48 89 9c 24 90 00 00 	mov    %rbx,0x90(%rsp)
 440cfbc:	00 
 440cfbd:	48 89 8c 24 98 00 00 	mov    %rcx,0x98(%rsp)
 440cfc4:	00 
 440cfc5:	90                   	nop
 440cfc6:	90                   	nop
 440cfc7:	48 8b 84 24 88 00 00 	mov    0x88(%rsp),%rax
 440cfce:	00 
 440cfcf:	48 0f ba e0 3f       	bt     $0x3f,%rax
 440cfd4:	73 28                	jae    440cffe <github.com/lasselj/timebeat/beater/logging.(*SquaredMeshLatencyLogEntry).Log@@Base+0x9e>
 440cfd6:	48 d1 e0             	shl    $1,%rax
 440cfd9:	48 c1 e8 1f          	shr    $0x1f,%rax
 440cfdd:	48 b9 80 7f b1 d7 0d 	movabs $0xdd7b17f80,%rcx
 440cfe4:	00 00 00 
 440cfe7:	48 01 c8             	add    %rcx,%rax
 440cfea:	48 89 84 24 90 00 00 	mov    %rax,0x90(%rsp)
 440cff1:	00 
 440cff2:	48 81 a4 24 88 00 00 	andq   $0x3fffffff,0x88(%rsp)
 440cff9:	00 ff ff ff 3f 
 440cffe:	48 c7 84 24 98 00 00 	movq   $0x0,0x98(%rsp)
 440d005:	00 00 00 00 00 
 440d00a:	48 8b 84 24 88 00 00 	mov    0x88(%rsp),%rax
 440d011:	00 
 440d012:	48 89 44 24 50       	mov    %rax,0x50(%rsp)
 440d017:	48 8b 8c 24 90 00 00 	mov    0x90(%rsp),%rcx
 440d01e:	00 
 440d01f:	48 89 4c 24 48       	mov    %rcx,0x48(%rsp)
 440d024:	e8 17 42 ae fd       	call   1ef1240 <runtime.makemap_small@@Base>
 440d029:	48 89 84 24 80 00 00 	mov    %rax,0x80(%rsp)
 440d030:	00 
 440d031:	e8 0a 42 ae fd       	call   1ef1240 <runtime.makemap_small@@Base>
 440d036:	48 89 44 24 78       	mov    %rax,0x78(%rsp)
 440d03b:	0f 1f 44 00 00       	nopl   0x0(%rax,%rax,1)
 440d040:	e8 fb 41 ae fd       	call   1ef1240 <runtime.makemap_small@@Base>
 440d045:	48 89 44 24 70       	mov    %rax,0x70(%rsp)
 440d04a:	e8 f1 41 ae fd       	call   1ef1240 <runtime.makemap_small@@Base>
 440d04f:	48 89 44 24 68       	mov    %rax,0x68(%rsp)
 440d054:	e8 e7 41 ae fd       	call   1ef1240 <runtime.makemap_small@@Base>
 440d059:	48 89 44 24 60       	mov    %rax,0x60(%rsp)
 440d05e:	48 8b 8c 24 f0 00 00 	mov    0xf0(%rsp),%rcx
 440d065:	00 
 440d066:	48 8b 11             	mov    (%rcx),%rdx
 440d069:	48 8b 59 08          	mov    0x8(%rcx),%rbx
 440d06d:	48 89 d0             	mov    %rdx,%rax
 440d070:	e8 eb 0c ae fd       	call   1eedd60 <runtime.convTstring@@Base>
 440d075:	48 89 44 24 58       	mov    %rax,0x58(%rsp)
 440d07a:	48 8b 5c 24 60       	mov    0x60(%rsp),%rbx
 440d07f:	48 8d 0d 2e 94 82 00 	lea    0x82942e(%rip),%rcx        # 4c364b4 <_IO_stdin_used@@Base+0x34b4>
 440d086:	bf 04 00 00 00       	mov    $0x4,%edi
 440d08b:	48 8d 05 8e 19 9b 01 	lea    0x19b198e(%rip),%rax        # 5dbea20 <type:HuWgEDJW@@Base>
 440d092:	e8 49 91 ae fd       	call   1ef61e0 <runtime.mapassign_faststr@@Base>
 440d097:	48 8d 0d 02 16 3a 01 	lea    0x13a1602(%rip),%rcx        # 57ae6a0 <type:string@@Base>
 440d09e:	48 89 08             	mov    %rcx,(%rax)
 440d0a1:	83 3d b8 e8 a6 03 00 	cmpl   $0x0,0x3a6e8b8(%rip)        # 7e7b960 <runtime.writeBarrier@@Base>
 440d0a8:	75 0b                	jne    440d0b5 <github.com/lasselj/timebeat/beater/logging.(*SquaredMeshLatencyLogEntry).Log@@Base+0x155>
 440d0aa:	48 8b 54 24 58       	mov    0x58(%rsp),%rdx
 440d0af:	48 89 50 08          	mov    %rdx,0x8(%rax)
 440d0b3:	eb 10                	jmp    440d0c5 <github.com/lasselj/timebeat/beater/logging.(*SquaredMeshLatencyLogEntry).Log@@Base+0x165>
 440d0b5:	48 8d 78 08          	lea    0x8(%rax),%rdi
 440d0b9:	48 8b 54 24 58       	mov    0x58(%rsp),%rdx
 440d0be:	66 90                	xchg   %ax,%ax
 440d0c0:	e8 5b 96 b4 fd       	call   1f56720 <runtime.gcWriteBarrierDX@@Base>
 440d0c5:	48 8b 8c 24 f0 00 00 	mov    0xf0(%rsp),%rcx
 440d0cc:	00 
 440d0cd:	48 8b 41 10          	mov    0x10(%rcx),%rax
 440d0d1:	48 8b 59 18          	mov    0x18(%rcx),%rbx
 440d0d5:	e8 86 0c ae fd       	call   1eedd60 <runtime.convTstring@@Base>
 440d0da:	48 89 44 24 58       	mov    %rax,0x58(%rsp)
 440d0df:	48 8b 5c 24 60       	mov    0x60(%rsp),%rbx
 440d0e4:	48 8d 0d 51 62 82 00 	lea    0x826251(%rip),%rcx        # 4c3333c <_IO_stdin_used@@Base+0x33c>
 440d0eb:	bf 02 00 00 00       	mov    $0x2,%edi
 440d0f0:	48 8d 05 29 19 9b 01 	lea    0x19b1929(%rip),%rax        # 5dbea20 <type:HuWgEDJW@@Base>
 440d0f7:	e8 e4 90 ae fd       	call   1ef61e0 <runtime.mapassign_faststr@@Base>
 440d0fc:	48 8d 0d 9d 15 3a 01 	lea    0x13a159d(%rip),%rcx        # 57ae6a0 <type:string@@Base>
 440d103:	48 89 08             	mov    %rcx,(%rax)
 440d106:	83 3d 53 e8 a6 03 00 	cmpl   $0x0,0x3a6e853(%rip)        # 7e7b960 <runtime.writeBarrier@@Base>
 440d10d:	75 0b                	jne    440d11a <github.com/lasselj/timebeat/beater/logging.(*SquaredMeshLatencyLogEntry).Log@@Base+0x1ba>
 440d10f:	48 8b 54 24 58       	mov    0x58(%rsp),%rdx
 440d114:	48 89 50 08          	mov    %rdx,0x8(%rax)
 440d118:	eb 0e                	jmp    440d128 <github.com/lasselj/timebeat/beater/logging.(*SquaredMeshLatencyLogEntry).Log@@Base+0x1c8>
 440d11a:	48 8d 78 08          	lea    0x8(%rax),%rdi
 440d11e:	48 8b 54 24 58       	mov    0x58(%rsp),%rdx
 440d123:	e8 f8 95 b4 fd       	call   1f56720 <runtime.gcWriteBarrierDX@@Base>
 440d128:	48 8b 8c 24 f0 00 00 	mov    0xf0(%rsp),%rcx
 440d12f:	00 
 440d130:	48 8b 41 20          	mov    0x20(%rcx),%rax
 440d134:	48 8b 59 28          	mov    0x28(%rcx),%rbx
 440d138:	e8 23 0c ae fd       	call   1eedd60 <runtime.convTstring@@Base>
 440d13d:	48 89 44 24 58       	mov    %rax,0x58(%rsp)
 440d142:	48 8b 5c 24 60       	mov    0x60(%rsp),%rbx
 440d147:	48 8d 0d 76 96 82 00 	lea    0x829676(%rip),%rcx        # 4c367c4 <_IO_stdin_used@@Base+0x37c4>
 440d14e:	bf 04 00 00 00       	mov    $0x4,%edi
 440d153:	48 8d 05 c6 18 9b 01 	lea    0x19b18c6(%rip),%rax        # 5dbea20 <type:HuWgEDJW@@Base>
 440d15a:	e8 81 90 ae fd       	call   1ef61e0 <runtime.mapassign_faststr@@Base>
 440d15f:	48 8d 0d 3a 15 3a 01 	lea    0x13a153a(%rip),%rcx        # 57ae6a0 <type:string@@Base>
 440d166:	48 89 08             	mov    %rcx,(%rax)
 440d169:	83 3d f0 e7 a6 03 00 	cmpl   $0x0,0x3a6e7f0(%rip)        # 7e7b960 <runtime.writeBarrier@@Base>
 440d170:	75 0b                	jne    440d17d <github.com/lasselj/timebeat/beater/logging.(*SquaredMeshLatencyLogEntry).Log@@Base+0x21d>
 440d172:	48 8b 4c 24 58       	mov    0x58(%rsp),%rcx
 440d177:	48 89 48 08          	mov    %rcx,0x8(%rax)
 440d17b:	eb 0e                	jmp    440d18b <github.com/lasselj/timebeat/beater/logging.(*SquaredMeshLatencyLogEntry).Log@@Base+0x22b>
 440d17d:	48 8d 78 08          	lea    0x8(%rax),%rdi
 440d181:	48 8b 4c 24 58       	mov    0x58(%rsp),%rcx
 440d186:	e8 75 95 b4 fd       	call   1f56700 <runtime.gcWriteBarrierCX@@Base>
 440d18b:	48 8b 8c 24 f0 00 00 	mov    0xf0(%rsp),%rcx
 440d192:	00 
 440d193:	48 8b 41 30          	mov    0x30(%rcx),%rax
 440d197:	e8 44 0b ae fd       	call   1eedce0 <runtime.convT64@@Base>
 440d19c:	48 89 44 24 58       	mov    %rax,0x58(%rsp)
 440d1a1:	48 8b 5c 24 60       	mov    0x60(%rsp),%rbx
 440d1a6:	48 8d 0d 80 5f 85 00 	lea    0x855f80(%rip),%rcx        # 4c6312d <_IO_stdin_used@@Base+0x3012d>
 440d1ad:	bf 08 00 00 00       	mov    $0x8,%edi
 440d1b2:	48 8d 05 67 18 9b 01 	lea    0x19b1867(%rip),%rax        # 5dbea20 <type:HuWgEDJW@@Base>
 440d1b9:	e8 22 90 ae fd       	call   1ef61e0 <runtime.mapassign_faststr@@Base>
 440d1be:	48 8d 0d 5b d5 39 01 	lea    0x139d55b(%rip),%rcx        # 57aa720 <type:int64@@Base>
 440d1c5:	48 89 08             	mov    %rcx,(%rax)
 440d1c8:	83 3d 91 e7 a6 03 00 	cmpl   $0x0,0x3a6e791(%rip)        # 7e7b960 <runtime.writeBarrier@@Base>
 440d1cf:	75 0b                	jne    440d1dc <github.com/lasselj/timebeat/beater/logging.(*SquaredMeshLatencyLogEntry).Log@@Base+0x27c>
 440d1d1:	48 8b 54 24 58       	mov    0x58(%rsp),%rdx
 440d1d6:	48 89 50 08          	mov    %rdx,0x8(%rax)
 440d1da:	eb 0e                	jmp    440d1ea <github.com/lasselj/timebeat/beater/logging.(*SquaredMeshLatencyLogEntry).Log@@Base+0x28a>
 440d1dc:	48 8d 78 08          	lea    0x8(%rax),%rdi
 440d1e0:	48 8b 54 24 58       	mov    0x58(%rsp),%rdx
 440d1e5:	e8 36 95 b4 fd       	call   1f56720 <runtime.gcWriteBarrierDX@@Base>
 440d1ea:	48 8d 05 2f 18 9b 01 	lea    0x19b182f(%rip),%rax        # 5dbea20 <type:HuWgEDJW@@Base>
 440d1f1:	48 8b 5c 24 68       	mov    0x68(%rsp),%rbx
 440d1f6:	48 8d 0d 44 3b 85 00 	lea    0x853b44(%rip),%rcx        # 4c60d41 <_IO_stdin_used@@Base+0x2dd41>
 440d1fd:	bf 07 00 00 00       	mov    $0x7,%edi
 440d202:	e8 d9 8f ae fd       	call   1ef61e0 <runtime.mapassign_faststr@@Base>
 440d207:	48 8d 15 12 18 9b 01 	lea    0x19b1812(%rip),%rdx        # 5dbea20 <type:HuWgEDJW@@Base>
 440d20e:	48 89 10             	mov    %rdx,(%rax)
 440d211:	83 3d 48 e7 a6 03 00 	cmpl   $0x0,0x3a6e748(%rip)        # 7e7b960 <runtime.writeBarrier@@Base>
 440d218:	75 0b                	jne    440d225 <github.com/lasselj/timebeat/beater/logging.(*SquaredMeshLatencyLogEntry).Log@@Base+0x2c5>
 440d21a:	48 8b 74 24 60       	mov    0x60(%rsp),%rsi
 440d21f:	48 89 70 08          	mov    %rsi,0x8(%rax)
 440d223:	eb 0e                	jmp    440d233 <github.com/lasselj/timebeat/beater/logging.(*SquaredMeshLatencyLogEntry).Log@@Base+0x2d3>
 440d225:	48 8d 78 08          	lea    0x8(%rax),%rdi
 440d229:	48 8b 74 24 60       	mov    0x60(%rsp),%rsi
 440d22e:	e8 2d 95 b4 fd       	call   1f56760 <runtime.gcWriteBarrierSI@@Base>
 440d233:	48 89 d0             	mov    %rdx,%rax
 440d236:	48 8b 5c 24 70       	mov    0x70(%rsp),%rbx
 440d23b:	48 8d 0d 55 45 85 00 	lea    0x854555(%rip),%rcx        # 4c61797 <_IO_stdin_used@@Base+0x2e797>
 440d242:	bf 07 00 00 00       	mov    $0x7,%edi
 440d247:	e8 94 8f ae fd       	call   1ef61e0 <runtime.mapassign_faststr@@Base>
 440d24c:	48 8d 15 cd 17 9b 01 	lea    0x19b17cd(%rip),%rdx        # 5dbea20 <type:HuWgEDJW@@Base>
 440d253:	48 89 10             	mov    %rdx,(%rax)
 440d256:	83 3d 03 e7 a6 03 00 	cmpl   $0x0,0x3a6e703(%rip)        # 7e7b960 <runtime.writeBarrier@@Base>
 440d25d:	75 0b                	jne    440d26a <github.com/lasselj/timebeat/beater/logging.(*SquaredMeshLatencyLogEntry).Log@@Base+0x30a>
 440d25f:	48 8b 74 24 68       	mov    0x68(%rsp),%rsi
 440d264:	48 89 70 08          	mov    %rsi,0x8(%rax)
 440d268:	eb 0e                	jmp    440d278 <github.com/lasselj/timebeat/beater/logging.(*SquaredMeshLatencyLogEntry).Log@@Base+0x318>
 440d26a:	48 8d 78 08          	lea    0x8(%rax),%rdi
 440d26e:	48 8b 74 24 68       	mov    0x68(%rsp),%rsi
 440d273:	e8 e8 94 b4 fd       	call   1f56760 <runtime.gcWriteBarrierSI@@Base>
 440d278:	48 89 d0             	mov    %rdx,%rax
 440d27b:	48 8b 5c 24 78       	mov    0x78(%rsp),%rbx
 440d280:	48 8d 0d 91 90 82 00 	lea    0x829091(%rip),%rcx        # 4c36318 <_IO_stdin_used@@Base+0x3318>
 440d287:	bf 04 00 00 00       	mov    $0x4,%edi
 440d28c:	e8 4f 8f ae fd       	call   1ef61e0 <runtime.mapassign_faststr@@Base>
 440d291:	48 8d 15 88 17 9b 01 	lea    0x19b1788(%rip),%rdx        # 5dbea20 <type:HuWgEDJW@@Base>
 440d298:	48 89 10             	mov    %rdx,(%rax)
 440d29b:	83 3d be e6 a6 03 00 	cmpl   $0x0,0x3a6e6be(%rip)        # 7e7b960 <runtime.writeBarrier@@Base>
 440d2a2:	75 0b                	jne    440d2af <github.com/lasselj/timebeat/beater/logging.(*SquaredMeshLatencyLogEntry).Log@@Base+0x34f>
 440d2a4:	48 8b 74 24 70       	mov    0x70(%rsp),%rsi
 440d2a9:	48 89 70 08          	mov    %rsi,0x8(%rax)
 440d2ad:	eb 0e                	jmp    440d2bd <github.com/lasselj/timebeat/beater/logging.(*SquaredMeshLatencyLogEntry).Log@@Base+0x35d>
 440d2af:	48 8d 78 08          	lea    0x8(%rax),%rdi
 440d2b3:	48 8b 74 24 70       	mov    0x70(%rsp),%rsi
 440d2b8:	e8 a3 94 b4 fd       	call   1f56760 <runtime.gcWriteBarrierSI@@Base>
 440d2bd:	48 89 d0             	mov    %rdx,%rax
 440d2c0:	48 8b 9c 24 80 00 00 	mov    0x80(%rsp),%rbx
 440d2c7:	00 
 440d2c8:	48 8d 0d b6 b7 85 00 	lea    0x85b7b6(%rip),%rcx        # 4c68a85 <_IO_stdin_used@@Base+0x35a85>
 440d2cf:	bf 0a 00 00 00       	mov    $0xa,%edi
 440d2d4:	e8 07 8f ae fd       	call   1ef61e0 <runtime.mapassign_faststr@@Base>
 440d2d9:	48 8d 15 40 17 9b 01 	lea    0x19b1740(%rip),%rdx        # 5dbea20 <type:HuWgEDJW@@Base>
 440d2e0:	48 89 10             	mov    %rdx,(%rax)
 440d2e3:	83 3d 76 e6 a6 03 00 	cmpl   $0x0,0x3a6e676(%rip)        # 7e7b960 <runtime.writeBarrier@@Base>
 440d2ea:	75 0b                	jne    440d2f7 <github.com/lasselj/timebeat/beater/logging.(*SquaredMeshLatencyLogEntry).Log@@Base+0x397>
 440d2ec:	48 8b 4c 24 78       	mov    0x78(%rsp),%rcx
 440d2f1:	48 89 48 08          	mov    %rcx,0x8(%rax)
 440d2f5:	eb 0e                	jmp    440d305 <github.com/lasselj/timebeat/beater/logging.(*SquaredMeshLatencyLogEntry).Log@@Base+0x3a5>
 440d2f7:	48 8d 78 08          	lea    0x8(%rax),%rdi
 440d2fb:	48 8b 44 24 78       	mov    0x78(%rsp),%rax
 440d300:	e8 fb 92 b4 fd       	call   1f56600 <runtime.gcWriteBarrier@@Base>
 440d305:	44 0f 11 bc 24 a0 00 	movups %xmm15,0xa0(%rsp)
 440d30c:	00 00 
 440d30e:	44 0f 11 bc 24 b0 00 	movups %xmm15,0xb0(%rsp)
 440d315:	00 00 
 440d317:	44 0f 11 bc 24 c0 00 	movups %xmm15,0xc0(%rsp)
 440d31e:	00 00 
 440d320:	44 0f 11 bc 24 d0 00 	movups %xmm15,0xd0(%rsp)
 440d327:	00 00 
 440d329:	48 8b 44 24 50       	mov    0x50(%rsp),%rax
 440d32e:	48 89 84 24 a0 00 00 	mov    %rax,0xa0(%rsp)
 440d335:	00 
 440d336:	48 8b 44 24 48       	mov    0x48(%rsp),%rax
 440d33b:	48 89 84 24 a8 00 00 	mov    %rax,0xa8(%rsp)
 440d342:	00 
 440d343:	48 8b 84 24 80 00 00 	mov    0x80(%rsp),%rax
 440d34a:	00 
 440d34b:	48 89 84 24 c0 00 00 	mov    %rax,0xc0(%rsp)
 440d352:	00 
 440d353:	e8 e8 8b ff ff       	call   4405f40 <github.com/lasselj/timebeat/beater/logging.GetBeatLogger@@Base>
 440d358:	48 8b 9c 24 a0 00 00 	mov    0xa0(%rsp),%rbx
 440d35f:	00 
 440d360:	48 8b 8c 24 a8 00 00 	mov    0xa8(%rsp),%rcx
 440d367:	00 
 440d368:	48 8b bc 24 b0 00 00 	mov    0xb0(%rsp),%rdi
 440d36f:	00 
 440d370:	48 8b b4 24 b8 00 00 	mov    0xb8(%rsp),%rsi
 440d377:	00 
 440d378:	4c 8b 84 24 c0 00 00 	mov    0xc0(%rsp),%r8
 440d37f:	00 
 440d380:	4c 8b 8c 24 c8 00 00 	mov    0xc8(%rsp),%r9
 440d387:	00 
 440d388:	4c 8b 94 24 d0 00 00 	mov    0xd0(%rsp),%r10
 440d38f:	00 
 440d390:	44 0f b6 9c 24 d8 00 	movzbl 0xd8(%rsp),%r11d
 440d397:	00 00 
 440d399:	e8 02 8c ff ff       	call   4405fa0 <github.com/lasselj/timebeat/beater/logging.(*BeatLogger).LogEvent@@Base>
 440d39e:	48 8b ac 24 e0 00 00 	mov    0xe0(%rsp),%rbp
 440d3a5:	00 
 440d3a6:	48 81 c4 e8 00 00 00 	add    $0xe8,%rsp
 440d3ad:	c3                   	ret
 440d3ae:	48 8b ac 24 e0 00 00 	mov    0xe0(%rsp),%rbp
 440d3b5:	00 
 440d3b6:	48 81 c4 e8 00 00 00 	add    $0xe8,%rsp
 440d3bd:	c3                   	ret
 440d3be:	48 89 44 24 08       	mov    %rax,0x8(%rsp)
 440d3c3:	e8 98 70 b4 fd       	call   1f54460 <runtime.morestack_noctxt.abi0@@Base>
 440d3c8:	48 8b 44 24 08       	mov    0x8(%rsp),%rax
 440d3cd:	e9 8e fb ff ff       	jmp    440cf60 <github.com/lasselj/timebeat/beater/logging.(*SquaredMeshLatencyLogEntry).Log@@Base>
 440d3d2:	cc                   	int3
 440d3d3:	cc                   	int3
 440d3d4:	cc                   	int3
 440d3d5:	cc                   	int3
 440d3d6:	cc                   	int3
 440d3d7:	cc                   	int3
 440d3d8:	cc                   	int3
 440d3d9:	cc                   	int3
 440d3da:	cc                   	int3
 440d3db:	cc                   	int3
 440d3dc:	cc                   	int3
 440d3dd:	cc                   	int3
 440d3de:	cc                   	int3
 440d3df:	cc                   	int3
