# github.com/lasselj/timebeat/beater/clocksync/clients/vendors/timebeat/oscillator/microchip_mac.NewMicrochipMac
# addr 0x4b9f720 size 1216 (0x4c0)


/mnt/c/Users/SHIWA/GitHub/TimeCard-Mini/timebeat-extracted/usr/share/timebeat/bin/timebeat:     file format elf64-x86-64


Disassembly of section .text:

0000000004b9f720 <github.com/lasselj/timebeat/beater/clocksync/clients/vendors/timebeat/oscillator/microchip_mac.NewMicrochipMac@@Base>:
 4b9f720:	4c 8d 64 24 90       	lea    -0x70(%rsp),%r12
 4b9f725:	4d 3b 66 10          	cmp    0x10(%r14),%r12
 4b9f729:	0f 86 81 04 00 00    	jbe    4b9fbb0 <github.com/lasselj/timebeat/beater/clocksync/clients/vendors/timebeat/oscillator/microchip_mac.NewMicrochipMac@@Base+0x490>
 4b9f72f:	48 81 ec f0 00 00 00 	sub    $0xf0,%rsp
 4b9f736:	48 89 ac 24 e8 00 00 	mov    %rbp,0xe8(%rsp)
 4b9f73d:	00 
 4b9f73e:	48 8d ac 24 e8 00 00 	lea    0xe8(%rsp),%rbp
 4b9f745:	00 
 4b9f746:	48 89 84 24 f8 00 00 	mov    %rax,0xf8(%rsp)
 4b9f74d:	00 
 4b9f74e:	48 8b 78 38          	mov    0x38(%rax),%rdi
 4b9f752:	48 8b 70 40          	mov    0x40(%rax),%rsi
 4b9f756:	48 8d 1d 0c 89 25 00 	lea    0x25890c(%rip),%rbx        # 4df8069 <_IO_stdin_used@@Base+0x1c5069>
 4b9f75d:	b9 20 00 00 00       	mov    $0x20,%ecx
 4b9f762:	31 c0                	xor    %eax,%eax
 4b9f764:	e8 b7 ab 39 fd       	call   1f3a320 <runtime.concatstring2@@Base>
 4b9f769:	48 8b bc 24 f8 00 00 	mov    0xf8(%rsp),%rdi
 4b9f770:	00 
 4b9f771:	48 89 5f 40          	mov    %rbx,0x40(%rdi)
 4b9f775:	83 3d e4 c1 2d 03 00 	cmpl   $0x0,0x32dc1e4(%rip)        # 7e7b960 <runtime.writeBarrier@@Base>
 4b9f77c:	75 06                	jne    4b9f784 <github.com/lasselj/timebeat/beater/clocksync/clients/vendors/timebeat/oscillator/microchip_mac.NewMicrochipMac@@Base+0x64>
 4b9f77e:	48 89 47 38          	mov    %rax,0x38(%rdi)
 4b9f782:	eb 0c                	jmp    4b9f790 <github.com/lasselj/timebeat/beater/clocksync/clients/vendors/timebeat/oscillator/microchip_mac.NewMicrochipMac@@Base+0x70>
 4b9f784:	48 8d 4f 38          	lea    0x38(%rdi),%rcx
 4b9f788:	48 89 cf             	mov    %rcx,%rdi
 4b9f78b:	e8 70 6e 3b fd       	call   1f56600 <runtime.gcWriteBarrier@@Base>
 4b9f790:	e8 0b 76 86 ff       	call   4406da0 <github.com/lasselj/timebeat/beater/logging.NewLogger@@Base>
 4b9f795:	48 89 44 24 68       	mov    %rax,0x68(%rsp)
 4b9f79a:	48 8d 05 5f f4 19 01 	lea    0x119f45f(%rip),%rax        # 5d3ec00 <type:huj5NgN2@@Base>
 4b9f7a1:	e8 3a 0d 35 fd       	call   1ef04e0 <runtime.newobject@@Base>
 4b9f7a6:	83 3d b3 c1 2d 03 00 	cmpl   $0x0,0x32dc1b3(%rip)        # 7e7b960 <runtime.writeBarrier@@Base>
 4b9f7ad:	75 16                	jne    4b9f7c5 <github.com/lasselj/timebeat/beater/clocksync/clients/vendors/timebeat/oscillator/microchip_mac.NewMicrochipMac@@Base+0xa5>
 4b9f7af:	48 8b 8c 24 f8 00 00 	mov    0xf8(%rsp),%rcx
 4b9f7b6:	00 
 4b9f7b7:	48 89 08             	mov    %rcx,(%rax)
 4b9f7ba:	48 8b 54 24 68       	mov    0x68(%rsp),%rdx
 4b9f7bf:	48 89 50 18          	mov    %rdx,0x18(%rax)
 4b9f7c3:	eb 21                	jmp    4b9f7e6 <github.com/lasselj/timebeat/beater/clocksync/clients/vendors/timebeat/oscillator/microchip_mac.NewMicrochipMac@@Base+0xc6>
 4b9f7c5:	48 89 c7             	mov    %rax,%rdi
 4b9f7c8:	48 8b 8c 24 f8 00 00 	mov    0xf8(%rsp),%rcx
 4b9f7cf:	00 
 4b9f7d0:	e8 2b 6f 3b fd       	call   1f56700 <runtime.gcWriteBarrierCX@@Base>
 4b9f7d5:	48 8d 50 18          	lea    0x18(%rax),%rdx
 4b9f7d9:	48 89 d7             	mov    %rdx,%rdi
 4b9f7dc:	48 8b 5c 24 68       	mov    0x68(%rsp),%rbx
 4b9f7e1:	e8 5a 6f 3b fd       	call   1f56740 <runtime.gcWriteBarrierBX@@Base>
 4b9f7e6:	48 8b 51 30          	mov    0x30(%rcx),%rdx
 4b9f7ea:	83 3d 6f c1 2d 03 00 	cmpl   $0x0,0x32dc16f(%rip)        # 7e7b960 <runtime.writeBarrier@@Base>
 4b9f7f1:	75 06                	jne    4b9f7f9 <github.com/lasselj/timebeat/beater/clocksync/clients/vendors/timebeat/oscillator/microchip_mac.NewMicrochipMac@@Base+0xd9>
 4b9f7f3:	48 89 50 20          	mov    %rdx,0x20(%rax)
 4b9f7f7:	eb 0c                	jmp    4b9f805 <github.com/lasselj/timebeat/beater/clocksync/clients/vendors/timebeat/oscillator/microchip_mac.NewMicrochipMac@@Base+0xe5>
 4b9f7f9:	48 8d 78 20          	lea    0x20(%rax),%rdi
 4b9f7fd:	0f 1f 00             	nopl   (%rax)
 4b9f800:	e8 1b 6f 3b fd       	call   1f56720 <runtime.gcWriteBarrierDX@@Base>
 4b9f805:	48 89 44 24 50       	mov    %rax,0x50(%rsp)
 4b9f80a:	e8 d1 03 00 00       	call   4b9fbe0 <github.com/lasselj/timebeat/beater/clocksync/clients/vendors/timebeat/oscillator/microchip_mac.(*Mac).makeSerialDevice@@Base>
 4b9f80f:	48 8b 7c 24 50       	mov    0x50(%rsp),%rdi
 4b9f814:	48 89 47 08          	mov    %rax,0x8(%rdi)
 4b9f818:	83 3d 41 c1 2d 03 00 	cmpl   $0x0,0x32dc141(%rip)        # 7e7b960 <runtime.writeBarrier@@Base>
 4b9f81f:	90                   	nop
 4b9f820:	75 06                	jne    4b9f828 <github.com/lasselj/timebeat/beater/clocksync/clients/vendors/timebeat/oscillator/microchip_mac.NewMicrochipMac@@Base+0x108>
 4b9f822:	48 89 5f 10          	mov    %rbx,0x10(%rdi)
 4b9f826:	eb 12                	jmp    4b9f83a <github.com/lasselj/timebeat/beater/clocksync/clients/vendors/timebeat/oscillator/microchip_mac.NewMicrochipMac@@Base+0x11a>
 4b9f828:	48 8d 57 10          	lea    0x10(%rdi),%rdx
 4b9f82c:	48 89 f8             	mov    %rdi,%rax
 4b9f82f:	48 89 d7             	mov    %rdx,%rdi
 4b9f832:	e8 09 6f 3b fd       	call   1f56740 <runtime.gcWriteBarrierBX@@Base>
 4b9f837:	48 89 c7             	mov    %rax,%rdi
 4b9f83a:	48 83 7f 08 00       	cmpq   $0x0,0x8(%rdi)
 4b9f83f:	90                   	nop
 4b9f840:	0f 84 cb 02 00 00    	je     4b9fb11 <github.com/lasselj/timebeat/beater/clocksync/clients/vendors/timebeat/oscillator/microchip_mac.NewMicrochipMac@@Base+0x3f1>
 4b9f846:	90                   	nop
 4b9f847:	48 8b 1d f2 f9 28 03 	mov    0x328f9f2(%rip),%rbx        # 7e2f240 <os.Stdout@@Base>
 4b9f84e:	48 8d 05 cb 59 36 01 	lea    0x13659cb(%rip),%rax        # 5f05220 <go:itab.*os.File,io.Writer@@Base>
 4b9f855:	48 8d 0d 15 8d 22 00 	lea    0x228d15(%rip),%rcx        # 4dc8571 <_IO_stdin_used@@Base+0x195571>
 4b9f85c:	bf 14 00 00 00       	mov    $0x14,%edi
 4b9f861:	31 f6                	xor    %esi,%esi
 4b9f863:	45 31 c0             	xor    %r8d,%r8d
 4b9f866:	4d 89 c1             	mov    %r8,%r9
 4b9f869:	e8 72 4f 45 fd       	call   1ff47e0 <fmt.Fprintf@@Base>
 4b9f86e:	48 8b 54 24 50       	mov    0x50(%rsp),%rdx
 4b9f873:	4c 8b 52 10          	mov    0x10(%rdx),%r10
 4b9f877:	4c 89 54 24 40       	mov    %r10,0x40(%rsp)
 4b9f87c:	48 8b 5a 08          	mov    0x8(%rdx),%rbx
 4b9f880:	48 8d 05 d9 ba e8 00 	lea    0xe8bad9(%rip),%rax        # 5a2b360 <type:io.Writer@@Base>
 4b9f887:	e8 34 e6 34 fd       	call   1eedec0 <runtime.convI2I@@Base>
 4b9f88c:	48 8d 15 cd e0 35 01 	lea    0x135e0cd(%rip),%rdx        # 5efd960 <go:itab.*bufio.Writer,io.Writer@@Base>
 4b9f893:	48 39 d0             	cmp    %rdx,%rax
 4b9f896:	75 07                	jne    4b9f89f <github.com/lasselj/timebeat/beater/clocksync/clients/vendors/timebeat/oscillator/microchip_mac.NewMicrochipMac@@Base+0x17f>
 4b9f898:	48 8b 4c 24 40       	mov    0x40(%rsp),%rcx
 4b9f89d:	eb 05                	jmp    4b9f8a4 <github.com/lasselj/timebeat/beater/clocksync/clients/vendors/timebeat/oscillator/microchip_mac.NewMicrochipMac@@Base+0x184>
 4b9f89f:	b9 00 00 00 00       	mov    $0x0,%ecx
 4b9f8a4:	48 89 44 24 60       	mov    %rax,0x60(%rsp)
 4b9f8a9:	75 12                	jne    4b9f8bd <github.com/lasselj/timebeat/beater/clocksync/clients/vendors/timebeat/oscillator/microchip_mac.NewMicrochipMac@@Base+0x19d>
 4b9f8ab:	48 81 79 18 00 10 00 	cmpq   $0x1000,0x18(%rcx)
 4b9f8b2:	00 
 4b9f8b3:	7c 08                	jl     4b9f8bd <github.com/lasselj/timebeat/beater/clocksync/clients/vendors/timebeat/oscillator/microchip_mac.NewMicrochipMac@@Base+0x19d>
 4b9f8b5:	48 89 c8             	mov    %rcx,%rax
 4b9f8b8:	e9 88 00 00 00       	jmp    4b9f945 <github.com/lasselj/timebeat/beater/clocksync/clients/vendors/timebeat/oscillator/microchip_mac.NewMicrochipMac@@Base+0x225>
 4b9f8bd:	48 8d 05 9c f0 c0 00 	lea    0xc0f09c(%rip),%rax        # 57ae960 <type:uint8@@Base>
 4b9f8c4:	bb 00 10 00 00       	mov    $0x1000,%ebx
 4b9f8c9:	48 89 d9             	mov    %rbx,%rcx
 4b9f8cc:	e8 0f 6b 39 fd       	call   1f363e0 <runtime.makeslice@@Base>
 4b9f8d1:	48 89 44 24 58       	mov    %rax,0x58(%rsp)
 4b9f8d6:	48 8d 05 c3 67 09 01 	lea    0x10967c3(%rip),%rax        # 5c360a0 <type:KUDejvYa@@Base>
 4b9f8dd:	0f 1f 00             	nopl   (%rax)
 4b9f8e0:	e8 fb 0b 35 fd       	call   1ef04e0 <runtime.newobject@@Base>
 4b9f8e5:	48 c7 40 18 00 10 00 	movq   $0x1000,0x18(%rax)
 4b9f8ec:	00 
 4b9f8ed:	48 c7 40 20 00 10 00 	movq   $0x1000,0x20(%rax)
 4b9f8f4:	00 
 4b9f8f5:	83 3d 64 c0 2d 03 00 	cmpl   $0x0,0x32dc064(%rip)        # 7e7b960 <runtime.writeBarrier@@Base>
 4b9f8fc:	75 0b                	jne    4b9f909 <github.com/lasselj/timebeat/beater/clocksync/clients/vendors/timebeat/oscillator/microchip_mac.NewMicrochipMac@@Base+0x1e9>
 4b9f8fe:	48 8b 4c 24 58       	mov    0x58(%rsp),%rcx
 4b9f903:	48 89 48 10          	mov    %rcx,0x10(%rax)
 4b9f907:	eb 0e                	jmp    4b9f917 <github.com/lasselj/timebeat/beater/clocksync/clients/vendors/timebeat/oscillator/microchip_mac.NewMicrochipMac@@Base+0x1f7>
 4b9f909:	48 8d 78 10          	lea    0x10(%rax),%rdi
 4b9f90d:	48 8b 4c 24 58       	mov    0x58(%rsp),%rcx
 4b9f912:	e8 e9 6d 3b fd       	call   1f56700 <runtime.gcWriteBarrierCX@@Base>
 4b9f917:	48 8b 4c 24 60       	mov    0x60(%rsp),%rcx
 4b9f91c:	48 89 48 30          	mov    %rcx,0x30(%rax)
 4b9f920:	83 3d 39 c0 2d 03 00 	cmpl   $0x0,0x32dc039(%rip)        # 7e7b960 <runtime.writeBarrier@@Base>
 4b9f927:	75 0b                	jne    4b9f934 <github.com/lasselj/timebeat/beater/clocksync/clients/vendors/timebeat/oscillator/microchip_mac.NewMicrochipMac@@Base+0x214>
 4b9f929:	48 8b 4c 24 40       	mov    0x40(%rsp),%rcx
 4b9f92e:	48 89 48 38          	mov    %rcx,0x38(%rax)
 4b9f932:	eb 11                	jmp    4b9f945 <github.com/lasselj/timebeat/beater/clocksync/clients/vendors/timebeat/oscillator/microchip_mac.NewMicrochipMac@@Base+0x225>
 4b9f934:	48 8d 78 38          	lea    0x38(%rax),%rdi
 4b9f938:	48 8b 4c 24 40       	mov    0x40(%rsp),%rcx
 4b9f93d:	0f 1f 00             	nopl   (%rax)
 4b9f940:	e8 bb 6d 3b fd       	call   1f56700 <runtime.gcWriteBarrierCX@@Base>
 4b9f945:	83 3d 14 c0 2d 03 00 	cmpl   $0x0,0x32dc014(%rip)        # 7e7b960 <runtime.writeBarrier@@Base>
 4b9f94c:	75 0b                	jne    4b9f959 <github.com/lasselj/timebeat/beater/clocksync/clients/vendors/timebeat/oscillator/microchip_mac.NewMicrochipMac@@Base+0x239>
 4b9f94e:	48 8b 4c 24 50       	mov    0x50(%rsp),%rcx
 4b9f953:	48 89 41 30          	mov    %rax,0x30(%rcx)
 4b9f957:	eb 17                	jmp    4b9f970 <github.com/lasselj/timebeat/beater/clocksync/clients/vendors/timebeat/oscillator/microchip_mac.NewMicrochipMac@@Base+0x250>
 4b9f959:	48 8b 7c 24 50       	mov    0x50(%rsp),%rdi
 4b9f95e:	48 8d 4f 30          	lea    0x30(%rdi),%rcx
 4b9f962:	48 89 fa             	mov    %rdi,%rdx
 4b9f965:	48 89 cf             	mov    %rcx,%rdi
 4b9f968:	e8 93 6c 3b fd       	call   1f56600 <runtime.gcWriteBarrier@@Base>
 4b9f96d:	48 89 d1             	mov    %rdx,%rcx
 4b9f970:	48 8b 51 10          	mov    0x10(%rcx),%rdx
 4b9f974:	48 89 54 24 48       	mov    %rdx,0x48(%rsp)
 4b9f979:	48 8b 59 08          	mov    0x8(%rcx),%rbx
 4b9f97d:	48 8d 05 dc b6 e8 00 	lea    0xe8b6dc(%rip),%rax        # 5a2b060 <type:io.Reader@@Base>
 4b9f984:	e8 37 e5 34 fd       	call   1eedec0 <runtime.convI2I@@Base>
 4b9f989:	48 8d 0d b0 df 35 01 	lea    0x135dfb0(%rip),%rcx        # 5efd940 <go:itab.*bufio.Reader,io.Reader@@Base>
 4b9f990:	48 39 c8             	cmp    %rcx,%rax
 4b9f993:	75 07                	jne    4b9f99c <github.com/lasselj/timebeat/beater/clocksync/clients/vendors/timebeat/oscillator/microchip_mac.NewMicrochipMac@@Base+0x27c>
 4b9f995:	48 8b 4c 24 48       	mov    0x48(%rsp),%rcx
 4b9f99a:	eb 05                	jmp    4b9f9a1 <github.com/lasselj/timebeat/beater/clocksync/clients/vendors/timebeat/oscillator/microchip_mac.NewMicrochipMac@@Base+0x281>
 4b9f99c:	b9 00 00 00 00       	mov    $0x0,%ecx
 4b9f9a1:	48 89 44 24 60       	mov    %rax,0x60(%rsp)
 4b9f9a6:	75 12                	jne    4b9f9ba <github.com/lasselj/timebeat/beater/clocksync/clients/vendors/timebeat/oscillator/microchip_mac.NewMicrochipMac@@Base+0x29a>
 4b9f9a8:	48 81 79 08 00 10 00 	cmpq   $0x1000,0x8(%rcx)
 4b9f9af:	00 
 4b9f9b0:	7c 08                	jl     4b9f9ba <github.com/lasselj/timebeat/beater/clocksync/clients/vendors/timebeat/oscillator/microchip_mac.NewMicrochipMac@@Base+0x29a>
 4b9f9b2:	48 89 c8             	mov    %rcx,%rax
 4b9f9b5:	e9 19 01 00 00       	jmp    4b9fad3 <github.com/lasselj/timebeat/beater/clocksync/clients/vendors/timebeat/oscillator/microchip_mac.NewMicrochipMac@@Base+0x3b3>
 4b9f9ba:	48 8d 05 7f 7d 17 01 	lea    0x1177d7f(%rip),%rax        # 5d17740 <type:x5XH/8Ze@@Base>
 4b9f9c1:	e8 1a 0b 35 fd       	call   1ef04e0 <runtime.newobject@@Base>
 4b9f9c6:	48 89 44 24 38       	mov    %rax,0x38(%rsp)
 4b9f9cb:	bb 00 10 00 00       	mov    $0x1000,%ebx
 4b9f9d0:	48 89 d9             	mov    %rbx,%rcx
 4b9f9d3:	48 8d 05 86 ef c0 00 	lea    0xc0ef86(%rip),%rax        # 57ae960 <type:uint8@@Base>
 4b9f9da:	e8 01 6a 39 fd       	call   1f363e0 <runtime.makeslice@@Base>
 4b9f9df:	44 0f 11 bc 24 90 00 	movups %xmm15,0x90(%rsp)
 4b9f9e6:	00 00 
 4b9f9e8:	48 8d bc 24 98 00 00 	lea    0x98(%rsp),%rdi
 4b9f9ef:	00 
 4b9f9f0:	48 8d 7f d0          	lea    -0x30(%rdi),%rdi
 4b9f9f4:	66 0f 1f 84 00 00 00 	nopw   0x0(%rax,%rax,1)
 4b9f9fb:	00 00 
 4b9f9fd:	0f 1f 00             	nopl   (%rax)
 4b9fa00:	48 89 6c 24 f0       	mov    %rbp,-0x10(%rsp)
 4b9fa05:	48 8d 6c 24 f0       	lea    -0x10(%rsp),%rbp
 4b9fa0a:	e8 c1 73 3b fd       	call   1f56dd0 <runtime.duffzero@@Base+0x150>
 4b9fa0f:	48 8b 6d 00          	mov    0x0(%rbp),%rbp
 4b9fa13:	48 89 84 24 90 00 00 	mov    %rax,0x90(%rsp)
 4b9fa1a:	00 
 4b9fa1b:	48 c7 84 24 98 00 00 	movq   $0x1000,0x98(%rsp)
 4b9fa22:	00 00 10 00 00 
 4b9fa27:	48 c7 84 24 a0 00 00 	movq   $0x1000,0xa0(%rsp)
 4b9fa2e:	00 00 10 00 00 
 4b9fa33:	48 8b 4c 24 60       	mov    0x60(%rsp),%rcx
 4b9fa38:	48 89 8c 24 a8 00 00 	mov    %rcx,0xa8(%rsp)
 4b9fa3f:	00 
 4b9fa40:	48 8b 4c 24 48       	mov    0x48(%rsp),%rcx
 4b9fa45:	48 89 8c 24 b0 00 00 	mov    %rcx,0xb0(%rsp)
 4b9fa4c:	00 
 4b9fa4d:	48 c7 84 24 d8 00 00 	movq   $0xffffffffffffffff,0xd8(%rsp)
 4b9fa54:	00 ff ff ff ff 
 4b9fa59:	48 c7 84 24 e0 00 00 	movq   $0xffffffffffffffff,0xe0(%rsp)
 4b9fa60:	00 ff ff ff ff 
 4b9fa65:	83 3d f4 be 2d 03 00 	cmpl   $0x0,0x32dbef4(%rip)        # 7e7b960 <runtime.writeBarrier@@Base>
 4b9fa6c:	75 47                	jne    4b9fab5 <github.com/lasselj/timebeat/beater/clocksync/clients/vendors/timebeat/oscillator/microchip_mac.NewMicrochipMac@@Base+0x395>
 4b9fa6e:	48 8b 8c 24 90 00 00 	mov    0x90(%rsp),%rcx
 4b9fa75:	00 
 4b9fa76:	48 8b 7c 24 38       	mov    0x38(%rsp),%rdi
 4b9fa7b:	48 89 0f             	mov    %rcx,(%rdi)
 4b9fa7e:	48 8d 4f 08          	lea    0x8(%rdi),%rcx
 4b9fa82:	48 8d b4 24 98 00 00 	lea    0x98(%rsp),%rsi
 4b9fa89:	00 
 4b9fa8a:	48 89 f8             	mov    %rdi,%rax
 4b9fa8d:	48 89 cf             	mov    %rcx,%rdi
 4b9fa90:	66 0f 1f 84 00 00 00 	nopw   0x0(%rax,%rax,1)
 4b9fa97:	00 00 
 4b9fa99:	0f 1f 80 00 00 00 00 	nopl   0x0(%rax)
 4b9faa0:	48 89 6c 24 f0       	mov    %rbp,-0x10(%rsp)
 4b9faa5:	48 8d 6c 24 f0       	lea    -0x10(%rsp),%rbp
 4b9faaa:	e8 8b 76 3b fd       	call   1f5713a <runtime.duffcopy@@Base+0x33a>
 4b9faaf:	48 8b 6d 00          	mov    0x0(%rbp),%rbp
 4b9fab3:	eb 1e                	jmp    4b9fad3 <github.com/lasselj/timebeat/beater/clocksync/clients/vendors/timebeat/oscillator/microchip_mac.NewMicrochipMac@@Base+0x3b3>
 4b9fab5:	48 8d 05 84 7c 17 01 	lea    0x1177c84(%rip),%rax        # 5d17740 <type:x5XH/8Ze@@Base>
 4b9fabc:	48 8b 5c 24 38       	mov    0x38(%rsp),%rbx
 4b9fac1:	48 8d 8c 24 90 00 00 	lea    0x90(%rsp),%rcx
 4b9fac8:	00 
 4b9fac9:	e8 72 73 35 fd       	call   1ef6e40 <runtime.typedmemmove@@Base>
 4b9face:	48 8b 44 24 38       	mov    0x38(%rsp),%rax
 4b9fad3:	83 3d 86 be 2d 03 00 	cmpl   $0x0,0x32dbe86(%rip)        # 7e7b960 <runtime.writeBarrier@@Base>
 4b9fada:	75 0b                	jne    4b9fae7 <github.com/lasselj/timebeat/beater/clocksync/clients/vendors/timebeat/oscillator/microchip_mac.NewMicrochipMac@@Base+0x3c7>
 4b9fadc:	48 8b 4c 24 50       	mov    0x50(%rsp),%rcx
 4b9fae1:	48 89 41 28          	mov    %rax,0x28(%rcx)
 4b9fae5:	eb 17                	jmp    4b9fafe <github.com/lasselj/timebeat/beater/clocksync/clients/vendors/timebeat/oscillator/microchip_mac.NewMicrochipMac@@Base+0x3de>
 4b9fae7:	48 8b 7c 24 50       	mov    0x50(%rsp),%rdi
 4b9faec:	48 8d 4f 28          	lea    0x28(%rdi),%rcx
 4b9faf0:	48 89 fa             	mov    %rdi,%rdx
 4b9faf3:	48 89 cf             	mov    %rcx,%rdi
 4b9faf6:	e8 05 6b 3b fd       	call   1f56600 <runtime.gcWriteBarrier@@Base>
 4b9fafb:	48 89 d1             	mov    %rdx,%rcx
 4b9fafe:	48 89 c8             	mov    %rcx,%rax
 4b9fb01:	48 8b ac 24 e8 00 00 	mov    0xe8(%rsp),%rbp
 4b9fb08:	00 
 4b9fb09:	48 81 c4 f0 00 00 00 	add    $0xf0,%rsp
 4b9fb10:	c3                   	ret
 4b9fb11:	44 0f 11 7c 24 70    	movups %xmm15,0x70(%rsp)
 4b9fb17:	44 0f 11 bc 24 80 00 	movups %xmm15,0x80(%rsp)
 4b9fb1e:	00 00 
 4b9fb20:	48 8b 8c 24 f8 00 00 	mov    0xf8(%rsp),%rcx
 4b9fb27:	00 
 4b9fb28:	48 8b 41 38          	mov    0x38(%rcx),%rax
 4b9fb2c:	48 8b 59 40          	mov    0x40(%rcx),%rbx
 4b9fb30:	e8 2b e2 34 fd       	call   1eedd60 <runtime.convTstring@@Base>
 4b9fb35:	48 8d 0d 64 eb c0 00 	lea    0xc0eb64(%rip),%rcx        # 57ae6a0 <type:string@@Base>
 4b9fb3c:	48 89 4c 24 70       	mov    %rcx,0x70(%rsp)
 4b9fb41:	48 89 44 24 78       	mov    %rax,0x78(%rsp)
 4b9fb46:	48 8b 94 24 f8 00 00 	mov    0xf8(%rsp),%rdx
 4b9fb4d:	00 
 4b9fb4e:	48 8b 5a 08          	mov    0x8(%rdx),%rbx
 4b9fb52:	48 8b 02             	mov    (%rdx),%rax
 4b9fb55:	e8 06 e2 34 fd       	call   1eedd60 <runtime.convTstring@@Base>
 4b9fb5a:	48 8d 0d 3f eb c0 00 	lea    0xc0eb3f(%rip),%rcx        # 57ae6a0 <type:string@@Base>
 4b9fb61:	48 89 8c 24 80 00 00 	mov    %rcx,0x80(%rsp)
 4b9fb68:	00 
 4b9fb69:	48 89 84 24 88 00 00 	mov    %rax,0x88(%rsp)
 4b9fb70:	00 
 4b9fb71:	48 8b 1d c8 f6 28 03 	mov    0x328f6c8(%rip),%rbx        # 7e2f240 <os.Stdout@@Base>
 4b9fb78:	48 8d 05 a1 56 36 01 	lea    0x13656a1(%rip),%rax        # 5f05220 <go:itab.*os.File,io.Writer@@Base>
 4b9fb7f:	48 8d 0d 92 25 2c 00 	lea    0x2c2592(%rip),%rcx        # 4e62118 <_IO_stdin_used@@Base+0x22f118>
 4b9fb86:	bf 3d 00 00 00       	mov    $0x3d,%edi
 4b9fb8b:	48 8d 74 24 70       	lea    0x70(%rsp),%rsi
 4b9fb90:	41 b8 02 00 00 00    	mov    $0x2,%r8d
 4b9fb96:	4d 89 c1             	mov    %r8,%r9
 4b9fb99:	e8 42 4c 45 fd       	call   1ff47e0 <fmt.Fprintf@@Base>
 4b9fb9e:	31 c0                	xor    %eax,%eax
 4b9fba0:	48 8b ac 24 e8 00 00 	mov    0xe8(%rsp),%rbp
 4b9fba7:	00 
 4b9fba8:	48 81 c4 f0 00 00 00 	add    $0xf0,%rsp
 4b9fbaf:	c3                   	ret
 4b9fbb0:	48 89 44 24 08       	mov    %rax,0x8(%rsp)
 4b9fbb5:	e8 a6 48 3b fd       	call   1f54460 <runtime.morestack_noctxt.abi0@@Base>
 4b9fbba:	48 8b 44 24 08       	mov    0x8(%rsp),%rax
 4b9fbbf:	90                   	nop
 4b9fbc0:	e9 5b fb ff ff       	jmp    4b9f720 <github.com/lasselj/timebeat/beater/clocksync/clients/vendors/timebeat/oscillator/microchip_mac.NewMicrochipMac@@Base>
 4b9fbc5:	cc                   	int3
 4b9fbc6:	cc                   	int3
 4b9fbc7:	cc                   	int3
 4b9fbc8:	cc                   	int3
 4b9fbc9:	cc                   	int3
 4b9fbca:	cc                   	int3
 4b9fbcb:	cc                   	int3
 4b9fbcc:	cc                   	int3
 4b9fbcd:	cc                   	int3
 4b9fbce:	cc                   	int3
 4b9fbcf:	cc                   	int3
 4b9fbd0:	cc                   	int3
 4b9fbd1:	cc                   	int3
 4b9fbd2:	cc                   	int3
 4b9fbd3:	cc                   	int3
 4b9fbd4:	cc                   	int3
 4b9fbd5:	cc                   	int3
 4b9fbd6:	cc                   	int3
 4b9fbd7:	cc                   	int3
 4b9fbd8:	cc                   	int3
 4b9fbd9:	cc                   	int3
 4b9fbda:	cc                   	int3
 4b9fbdb:	cc                   	int3
 4b9fbdc:	cc                   	int3
 4b9fbdd:	cc                   	int3
 4b9fbde:	cc                   	int3
 4b9fbdf:	cc                   	int3
