# github.com/lasselj/timebeat/beater/logging.(*NMEAGSVLogEntry).Log
# addr 0x440a840 size 1152 (0x480)


/mnt/c/Users/SHIWA/GitHub/TimeCard-Mini/timebeat-extracted/usr/share/timebeat/bin/timebeat:     file format elf64-x86-64


Disassembly of section .text:

000000000440a840 <github.com/lasselj/timebeat/beater/logging.(*NMEAGSVLogEntry).Log@@Base>:
 440a840:	4c 8d a4 24 68 ff ff 	lea    -0x98(%rsp),%r12
 440a847:	ff 
 440a848:	4d 3b 66 10          	cmp    0x10(%r14),%r12
 440a84c:	0f 86 49 04 00 00    	jbe    440ac9b <github.com/lasselj/timebeat/beater/logging.(*NMEAGSVLogEntry).Log@@Base+0x45b>
 440a852:	48 81 ec 18 01 00 00 	sub    $0x118,%rsp
 440a859:	48 89 ac 24 10 01 00 	mov    %rbp,0x110(%rsp)
 440a860:	00 
 440a861:	48 8d ac 24 10 01 00 	lea    0x110(%rsp),%rbp
 440a868:	00 
 440a869:	48 89 84 24 20 01 00 	mov    %rax,0x120(%rsp)
 440a870:	00 
 440a871:	48 8b 48 20          	mov    0x20(%rax),%rcx
 440a875:	48 8b 50 28          	mov    0x28(%rax),%rdx
 440a879:	48 89 54 24 60       	mov    %rdx,0x60(%rsp)
 440a87e:	31 db                	xor    %ebx,%ebx
 440a880:	eb 21                	jmp    440a8a3 <github.com/lasselj/timebeat/beater/logging.(*NMEAGSVLogEntry).Log@@Base+0x63>
 440a882:	48 8b 8c 24 b0 00 00 	mov    0xb0(%rsp),%rcx
 440a889:	00 
 440a88a:	48 83 c1 20          	add    $0x20,%rcx
 440a88e:	48 8b 5c 24 58       	mov    0x58(%rsp),%rbx
 440a893:	48 ff c3             	inc    %rbx
 440a896:	48 8b 84 24 20 01 00 	mov    0x120(%rsp),%rax
 440a89d:	00 
 440a89e:	48 8b 54 24 60       	mov    0x60(%rsp),%rdx
 440a8a3:	48 39 d3             	cmp    %rdx,%rbx
 440a8a6:	0f 8d df 03 00 00    	jge    440ac8b <github.com/lasselj/timebeat/beater/logging.(*NMEAGSVLogEntry).Log@@Base+0x44b>
 440a8ac:	48 89 5c 24 58       	mov    %rbx,0x58(%rsp)
 440a8b1:	48 89 8c 24 b0 00 00 	mov    %rcx,0xb0(%rsp)
 440a8b8:	00 
 440a8b9:	48 8b 01             	mov    (%rcx),%rax
 440a8bc:	48 8b 51 08          	mov    0x8(%rcx),%rdx
 440a8c0:	48 8b 59 10          	mov    0x10(%rcx),%rbx
 440a8c4:	48 8b 71 18          	mov    0x18(%rcx),%rsi
 440a8c8:	48 89 44 24 68       	mov    %rax,0x68(%rsp)
 440a8cd:	48 89 54 24 70       	mov    %rdx,0x70(%rsp)
 440a8d2:	48 89 5c 24 78       	mov    %rbx,0x78(%rsp)
 440a8d7:	48 89 b4 24 80 00 00 	mov    %rsi,0x80(%rsp)
 440a8de:	00 
 440a8df:	90                   	nop
 440a8e0:	e8 3b 14 bc fd       	call   1fcbd20 <time.Now@@Base>
 440a8e5:	48 89 84 24 b8 00 00 	mov    %rax,0xb8(%rsp)
 440a8ec:	00 
 440a8ed:	48 89 9c 24 c0 00 00 	mov    %rbx,0xc0(%rsp)
 440a8f4:	00 
 440a8f5:	48 89 8c 24 c8 00 00 	mov    %rcx,0xc8(%rsp)
 440a8fc:	00 
 440a8fd:	90                   	nop
 440a8fe:	90                   	nop
 440a8ff:	48 8b 84 24 b8 00 00 	mov    0xb8(%rsp),%rax
 440a906:	00 
 440a907:	48 0f ba e0 3f       	bt     $0x3f,%rax
 440a90c:	73 28                	jae    440a936 <github.com/lasselj/timebeat/beater/logging.(*NMEAGSVLogEntry).Log@@Base+0xf6>
 440a90e:	48 d1 e0             	shl    $1,%rax
 440a911:	48 c1 e8 1f          	shr    $0x1f,%rax
 440a915:	48 b9 80 7f b1 d7 0d 	movabs $0xdd7b17f80,%rcx
 440a91c:	00 00 00 
 440a91f:	48 01 c8             	add    %rcx,%rax
 440a922:	48 89 84 24 c0 00 00 	mov    %rax,0xc0(%rsp)
 440a929:	00 
 440a92a:	48 81 a4 24 b8 00 00 	andq   $0x3fffffff,0xb8(%rsp)
 440a931:	00 ff ff ff 3f 
 440a936:	48 c7 84 24 c8 00 00 	movq   $0x0,0xc8(%rsp)
 440a93d:	00 00 00 00 00 
 440a942:	48 8b 84 24 b8 00 00 	mov    0xb8(%rsp),%rax
 440a949:	00 
 440a94a:	48 89 44 24 50       	mov    %rax,0x50(%rsp)
 440a94f:	48 8b 8c 24 c0 00 00 	mov    0xc0(%rsp),%rcx
 440a956:	00 
 440a957:	48 89 4c 24 48       	mov    %rcx,0x48(%rsp)
 440a95c:	0f 1f 40 00          	nopl   0x0(%rax)
 440a960:	e8 db 68 ae fd       	call   1ef1240 <runtime.makemap_small@@Base>
 440a965:	48 89 84 24 a8 00 00 	mov    %rax,0xa8(%rsp)
 440a96c:	00 
 440a96d:	e8 ce 68 ae fd       	call   1ef1240 <runtime.makemap_small@@Base>
 440a972:	48 89 84 24 a0 00 00 	mov    %rax,0xa0(%rsp)
 440a979:	00 
 440a97a:	e8 c1 68 ae fd       	call   1ef1240 <runtime.makemap_small@@Base>
 440a97f:	48 89 84 24 98 00 00 	mov    %rax,0x98(%rsp)
 440a986:	00 
 440a987:	e8 b4 68 ae fd       	call   1ef1240 <runtime.makemap_small@@Base>
 440a98c:	48 89 84 24 90 00 00 	mov    %rax,0x90(%rsp)
 440a993:	00 
 440a994:	48 8b 8c 24 20 01 00 	mov    0x120(%rsp),%rcx
 440a99b:	00 
 440a99c:	48 8b 11             	mov    (%rcx),%rdx
 440a99f:	48 8b 59 08          	mov    0x8(%rcx),%rbx
 440a9a3:	48 89 d0             	mov    %rdx,%rax
 440a9a6:	e8 b5 33 ae fd       	call   1eedd60 <runtime.convTstring@@Base>
 440a9ab:	48 89 84 24 88 00 00 	mov    %rax,0x88(%rsp)
 440a9b2:	00 
 440a9b3:	48 8b 9c 24 90 00 00 	mov    0x90(%rsp),%rbx
 440a9ba:	00 
 440a9bb:	48 8d 0d be 95 82 00 	lea    0x8295be(%rip),%rcx        # 4c33f80 <_IO_stdin_used@@Base+0xf80>
 440a9c2:	bf 03 00 00 00       	mov    $0x3,%edi
 440a9c7:	48 8d 05 52 40 9b 01 	lea    0x19b4052(%rip),%rax        # 5dbea20 <type:HuWgEDJW@@Base>
 440a9ce:	e8 0d b8 ae fd       	call   1ef61e0 <runtime.mapassign_faststr@@Base>
 440a9d3:	48 8d 0d c6 3c 3a 01 	lea    0x13a3cc6(%rip),%rcx        # 57ae6a0 <type:string@@Base>
 440a9da:	48 89 08             	mov    %rcx,(%rax)
 440a9dd:	83 3d 7c 0f a7 03 00 	cmpl   $0x0,0x3a70f7c(%rip)        # 7e7b960 <runtime.writeBarrier@@Base>
 440a9e4:	75 0e                	jne    440a9f4 <github.com/lasselj/timebeat/beater/logging.(*NMEAGSVLogEntry).Log@@Base+0x1b4>
 440a9e6:	48 8b 94 24 88 00 00 	mov    0x88(%rsp),%rdx
 440a9ed:	00 
 440a9ee:	48 89 50 08          	mov    %rdx,0x8(%rax)
 440a9f2:	eb 11                	jmp    440aa05 <github.com/lasselj/timebeat/beater/logging.(*NMEAGSVLogEntry).Log@@Base+0x1c5>
 440a9f4:	48 8d 78 08          	lea    0x8(%rax),%rdi
 440a9f8:	48 8b 94 24 88 00 00 	mov    0x88(%rsp),%rdx
 440a9ff:	00 
 440aa00:	e8 1b bd b4 fd       	call   1f56720 <runtime.gcWriteBarrierDX@@Base>
 440aa05:	48 8d 05 14 e8 82 01 	lea    0x182e814(%rip),%rax        # 5c39220 <type:sJHqBmJN@@Base>
 440aa0c:	48 8d 5c 24 68       	lea    0x68(%rsp),%rbx
 440aa11:	e8 4a 31 ae fd       	call   1eedb60 <runtime.convTnoptr@@Base>
 440aa16:	48 89 84 24 88 00 00 	mov    %rax,0x88(%rsp)
 440aa1d:	00 
 440aa1e:	48 8b 9c 24 90 00 00 	mov    0x90(%rsp),%rbx
 440aa25:	00 
 440aa26:	48 8d 0d a5 94 82 00 	lea    0x8294a5(%rip),%rcx        # 4c33ed2 <_IO_stdin_used@@Base+0xed2>
 440aa2d:	bf 03 00 00 00       	mov    $0x3,%edi
 440aa32:	48 8d 05 e7 3f 9b 01 	lea    0x19b3fe7(%rip),%rax        # 5dbea20 <type:HuWgEDJW@@Base>
 440aa39:	e8 a2 b7 ae fd       	call   1ef61e0 <runtime.mapassign_faststr@@Base>
 440aa3e:	48 8d 0d db e7 82 01 	lea    0x182e7db(%rip),%rcx        # 5c39220 <type:sJHqBmJN@@Base>
 440aa45:	48 89 08             	mov    %rcx,(%rax)
 440aa48:	83 3d 11 0f a7 03 00 	cmpl   $0x0,0x3a70f11(%rip)        # 7e7b960 <runtime.writeBarrier@@Base>
 440aa4f:	75 0e                	jne    440aa5f <github.com/lasselj/timebeat/beater/logging.(*NMEAGSVLogEntry).Log@@Base+0x21f>
 440aa51:	48 8b 94 24 88 00 00 	mov    0x88(%rsp),%rdx
 440aa58:	00 
 440aa59:	48 89 50 08          	mov    %rdx,0x8(%rax)
 440aa5d:	eb 11                	jmp    440aa70 <github.com/lasselj/timebeat/beater/logging.(*NMEAGSVLogEntry).Log@@Base+0x230>
 440aa5f:	48 8d 78 08          	lea    0x8(%rax),%rdi
 440aa63:	48 8b 94 24 88 00 00 	mov    0x88(%rsp),%rdx
 440aa6a:	00 
 440aa6b:	e8 b0 bc b4 fd       	call   1f56720 <runtime.gcWriteBarrierDX@@Base>
 440aa70:	48 8b 8c 24 20 01 00 	mov    0x120(%rsp),%rcx
 440aa77:	00 
 440aa78:	48 8b 41 10          	mov    0x10(%rcx),%rax
 440aa7c:	48 8b 59 18          	mov    0x18(%rcx),%rbx
 440aa80:	e8 db 32 ae fd       	call   1eedd60 <runtime.convTstring@@Base>
 440aa85:	48 89 84 24 88 00 00 	mov    %rax,0x88(%rsp)
 440aa8c:	00 
 440aa8d:	48 8b 9c 24 90 00 00 	mov    0x90(%rsp),%rbx
 440aa94:	00 
 440aa95:	48 8d 0d d6 1b 87 00 	lea    0x871bd6(%rip),%rcx        # 4c7c672 <_IO_stdin_used@@Base+0x49672>
 440aa9c:	bf 0d 00 00 00       	mov    $0xd,%edi
 440aaa1:	48 8d 05 78 3f 9b 01 	lea    0x19b3f78(%rip),%rax        # 5dbea20 <type:HuWgEDJW@@Base>
 440aaa8:	e8 33 b7 ae fd       	call   1ef61e0 <runtime.mapassign_faststr@@Base>
 440aaad:	48 8d 0d ec 3b 3a 01 	lea    0x13a3bec(%rip),%rcx        # 57ae6a0 <type:string@@Base>
 440aab4:	48 89 08             	mov    %rcx,(%rax)
 440aab7:	83 3d a2 0e a7 03 00 	cmpl   $0x0,0x3a70ea2(%rip)        # 7e7b960 <runtime.writeBarrier@@Base>
 440aabe:	66 90                	xchg   %ax,%ax
 440aac0:	75 0e                	jne    440aad0 <github.com/lasselj/timebeat/beater/logging.(*NMEAGSVLogEntry).Log@@Base+0x290>
 440aac2:	48 8b 94 24 88 00 00 	mov    0x88(%rsp),%rdx
 440aac9:	00 
 440aaca:	48 89 50 08          	mov    %rdx,0x8(%rax)
 440aace:	eb 15                	jmp    440aae5 <github.com/lasselj/timebeat/beater/logging.(*NMEAGSVLogEntry).Log@@Base+0x2a5>
 440aad0:	48 8d 78 08          	lea    0x8(%rax),%rdi
 440aad4:	48 8b 94 24 88 00 00 	mov    0x88(%rsp),%rdx
 440aadb:	00 
 440aadc:	0f 1f 40 00          	nopl   0x0(%rax)
 440aae0:	e8 3b bc b4 fd       	call   1f56720 <runtime.gcWriteBarrierDX@@Base>
 440aae5:	48 8d 05 34 3f 9b 01 	lea    0x19b3f34(%rip),%rax        # 5dbea20 <type:HuWgEDJW@@Base>
 440aaec:	48 8b 9c 24 98 00 00 	mov    0x98(%rsp),%rbx
 440aaf3:	00 
 440aaf4:	48 8d 0d db ba 85 00 	lea    0x85badb(%rip),%rcx        # 4c665d6 <_IO_stdin_used@@Base+0x335d6>
 440aafb:	bf 09 00 00 00       	mov    $0x9,%edi
 440ab00:	e8 db b6 ae fd       	call   1ef61e0 <runtime.mapassign_faststr@@Base>
 440ab05:	48 8d 15 14 3f 9b 01 	lea    0x19b3f14(%rip),%rdx        # 5dbea20 <type:HuWgEDJW@@Base>
 440ab0c:	48 89 10             	mov    %rdx,(%rax)
 440ab0f:	83 3d 4a 0e a7 03 00 	cmpl   $0x0,0x3a70e4a(%rip)        # 7e7b960 <runtime.writeBarrier@@Base>
 440ab16:	75 0e                	jne    440ab26 <github.com/lasselj/timebeat/beater/logging.(*NMEAGSVLogEntry).Log@@Base+0x2e6>
 440ab18:	48 8b b4 24 90 00 00 	mov    0x90(%rsp),%rsi
 440ab1f:	00 
 440ab20:	48 89 70 08          	mov    %rsi,0x8(%rax)
 440ab24:	eb 11                	jmp    440ab37 <github.com/lasselj/timebeat/beater/logging.(*NMEAGSVLogEntry).Log@@Base+0x2f7>
 440ab26:	48 8d 78 08          	lea    0x8(%rax),%rdi
 440ab2a:	48 8b b4 24 90 00 00 	mov    0x90(%rsp),%rsi
 440ab31:	00 
 440ab32:	e8 29 bc b4 fd       	call   1f56760 <runtime.gcWriteBarrierSI@@Base>
 440ab37:	48 89 d0             	mov    %rdx,%rax
 440ab3a:	48 8b 9c 24 a0 00 00 	mov    0xa0(%rsp),%rbx
 440ab41:	00 
 440ab42:	48 8d 0d cf b7 82 00 	lea    0x82b7cf(%rip),%rcx        # 4c36318 <_IO_stdin_used@@Base+0x3318>
 440ab49:	bf 04 00 00 00       	mov    $0x4,%edi
 440ab4e:	e8 8d b6 ae fd       	call   1ef61e0 <runtime.mapassign_faststr@@Base>
 440ab53:	48 8d 15 c6 3e 9b 01 	lea    0x19b3ec6(%rip),%rdx        # 5dbea20 <type:HuWgEDJW@@Base>
 440ab5a:	48 89 10             	mov    %rdx,(%rax)
 440ab5d:	83 3d fc 0d a7 03 00 	cmpl   $0x0,0x3a70dfc(%rip)        # 7e7b960 <runtime.writeBarrier@@Base>
 440ab64:	75 0e                	jne    440ab74 <github.com/lasselj/timebeat/beater/logging.(*NMEAGSVLogEntry).Log@@Base+0x334>
 440ab66:	48 8b b4 24 98 00 00 	mov    0x98(%rsp),%rsi
 440ab6d:	00 
 440ab6e:	48 89 70 08          	mov    %rsi,0x8(%rax)
 440ab72:	eb 11                	jmp    440ab85 <github.com/lasselj/timebeat/beater/logging.(*NMEAGSVLogEntry).Log@@Base+0x345>
 440ab74:	48 8d 78 08          	lea    0x8(%rax),%rdi
 440ab78:	48 8b b4 24 98 00 00 	mov    0x98(%rsp),%rsi
 440ab7f:	00 
 440ab80:	e8 db bb b4 fd       	call   1f56760 <runtime.gcWriteBarrierSI@@Base>
 440ab85:	48 89 d0             	mov    %rdx,%rax
 440ab88:	48 8b 9c 24 a8 00 00 	mov    0xa8(%rsp),%rbx
 440ab8f:	00 
 440ab90:	48 8d 0d ee de 85 00 	lea    0x85deee(%rip),%rcx        # 4c68a85 <_IO_stdin_used@@Base+0x35a85>
 440ab97:	bf 0a 00 00 00       	mov    $0xa,%edi
 440ab9c:	0f 1f 40 00          	nopl   0x0(%rax)
 440aba0:	e8 3b b6 ae fd       	call   1ef61e0 <runtime.mapassign_faststr@@Base>
 440aba5:	48 8d 15 74 3e 9b 01 	lea    0x19b3e74(%rip),%rdx        # 5dbea20 <type:HuWgEDJW@@Base>
 440abac:	48 89 10             	mov    %rdx,(%rax)
 440abaf:	83 3d aa 0d a7 03 00 	cmpl   $0x0,0x3a70daa(%rip)        # 7e7b960 <runtime.writeBarrier@@Base>
 440abb6:	75 0e                	jne    440abc6 <github.com/lasselj/timebeat/beater/logging.(*NMEAGSVLogEntry).Log@@Base+0x386>
 440abb8:	48 8b 8c 24 a0 00 00 	mov    0xa0(%rsp),%rcx
 440abbf:	00 
 440abc0:	48 89 48 08          	mov    %rcx,0x8(%rax)
 440abc4:	eb 11                	jmp    440abd7 <github.com/lasselj/timebeat/beater/logging.(*NMEAGSVLogEntry).Log@@Base+0x397>
 440abc6:	48 8d 78 08          	lea    0x8(%rax),%rdi
 440abca:	48 8b 84 24 a0 00 00 	mov    0xa0(%rsp),%rax
 440abd1:	00 
 440abd2:	e8 29 ba b4 fd       	call   1f56600 <runtime.gcWriteBarrier@@Base>
 440abd7:	44 0f 11 bc 24 d0 00 	movups %xmm15,0xd0(%rsp)
 440abde:	00 00 
 440abe0:	44 0f 11 bc 24 e0 00 	movups %xmm15,0xe0(%rsp)
 440abe7:	00 00 
 440abe9:	44 0f 11 bc 24 f0 00 	movups %xmm15,0xf0(%rsp)
 440abf0:	00 00 
 440abf2:	44 0f 11 bc 24 00 01 	movups %xmm15,0x100(%rsp)
 440abf9:	00 00 
 440abfb:	48 8b 44 24 50       	mov    0x50(%rsp),%rax
 440ac00:	48 89 84 24 d0 00 00 	mov    %rax,0xd0(%rsp)
 440ac07:	00 
 440ac08:	48 8b 44 24 48       	mov    0x48(%rsp),%rax
 440ac0d:	48 89 84 24 d8 00 00 	mov    %rax,0xd8(%rsp)
 440ac14:	00 
 440ac15:	48 8b 84 24 a8 00 00 	mov    0xa8(%rsp),%rax
 440ac1c:	00 
 440ac1d:	48 89 84 24 f0 00 00 	mov    %rax,0xf0(%rsp)
 440ac24:	00 
 440ac25:	48 83 bc 24 80 00 00 	cmpq   $0x0,0x80(%rsp)
 440ac2c:	00 00 
 440ac2e:	0f 84 4e fc ff ff    	je     440a882 <github.com/lasselj/timebeat/beater/logging.(*NMEAGSVLogEntry).Log@@Base+0x42>
 440ac34:	e8 07 b3 ff ff       	call   4405f40 <github.com/lasselj/timebeat/beater/logging.GetBeatLogger@@Base>
 440ac39:	48 8b 9c 24 d0 00 00 	mov    0xd0(%rsp),%rbx
 440ac40:	00 
 440ac41:	48 8b 8c 24 d8 00 00 	mov    0xd8(%rsp),%rcx
 440ac48:	00 
 440ac49:	48 8b bc 24 e0 00 00 	mov    0xe0(%rsp),%rdi
 440ac50:	00 
 440ac51:	48 8b b4 24 e8 00 00 	mov    0xe8(%rsp),%rsi
 440ac58:	00 
 440ac59:	4c 8b 84 24 f0 00 00 	mov    0xf0(%rsp),%r8
 440ac60:	00 
 440ac61:	4c 8b 8c 24 f8 00 00 	mov    0xf8(%rsp),%r9
 440ac68:	00 
 440ac69:	4c 8b 94 24 00 01 00 	mov    0x100(%rsp),%r10
 440ac70:	00 
 440ac71:	44 0f b6 9c 24 08 01 	movzbl 0x108(%rsp),%r11d
 440ac78:	00 00 
 440ac7a:	e8 21 b3 ff ff       	call   4405fa0 <github.com/lasselj/timebeat/beater/logging.(*BeatLogger).LogEvent@@Base>
 440ac7f:	48 8d 15 9a 3d 9b 01 	lea    0x19b3d9a(%rip),%rdx        # 5dbea20 <type:HuWgEDJW@@Base>
 440ac86:	e9 f7 fb ff ff       	jmp    440a882 <github.com/lasselj/timebeat/beater/logging.(*NMEAGSVLogEntry).Log@@Base+0x42>
 440ac8b:	48 8b ac 24 10 01 00 	mov    0x110(%rsp),%rbp
 440ac92:	00 
 440ac93:	48 81 c4 18 01 00 00 	add    $0x118,%rsp
 440ac9a:	c3                   	ret
 440ac9b:	48 89 44 24 08       	mov    %rax,0x8(%rsp)
 440aca0:	e8 bb 97 b4 fd       	call   1f54460 <runtime.morestack_noctxt.abi0@@Base>
 440aca5:	48 8b 44 24 08       	mov    0x8(%rsp),%rax
 440acaa:	e9 91 fb ff ff       	jmp    440a840 <github.com/lasselj/timebeat/beater/logging.(*NMEAGSVLogEntry).Log@@Base>
 440acaf:	cc                   	int3
 440acb0:	cc                   	int3
 440acb1:	cc                   	int3
 440acb2:	cc                   	int3
 440acb3:	cc                   	int3
 440acb4:	cc                   	int3
 440acb5:	cc                   	int3
 440acb6:	cc                   	int3
 440acb7:	cc                   	int3
 440acb8:	cc                   	int3
 440acb9:	cc                   	int3
 440acba:	cc                   	int3
 440acbb:	cc                   	int3
 440acbc:	cc                   	int3
 440acbd:	cc                   	int3
 440acbe:	cc                   	int3
 440acbf:	cc                   	int3
