# github.com/lasselj/timebeat/beater/clocksync/clients/ptpsquared.(*PeerHandler).SendAckCancelFeed
# addr 0x4b5d880 size 704 (0x2c0)


/mnt/c/Users/SHIWA/GitHub/TimeCard-Mini/timebeat-extracted/usr/share/timebeat/bin/timebeat:     file format elf64-x86-64


Disassembly of section .text:

0000000004b5d880 <github.com/lasselj/timebeat/beater/clocksync/clients/ptpsquared.(*PeerHandler).SendAckCancelFeed@@Base>:
 4b5d880:	4c 8d 64 24 f0       	lea    -0x10(%rsp),%r12
 4b5d885:	4d 3b 66 10          	cmp    0x10(%r14),%r12
 4b5d889:	0f 86 71 02 00 00    	jbe    4b5db00 <github.com/lasselj/timebeat/beater/clocksync/clients/ptpsquared.(*PeerHandler).SendAckCancelFeed@@Base+0x280>
 4b5d88f:	48 81 ec 90 00 00 00 	sub    $0x90,%rsp
 4b5d896:	48 89 ac 24 88 00 00 	mov    %rbp,0x88(%rsp)
 4b5d89d:	00 
 4b5d89e:	48 8d ac 24 88 00 00 	lea    0x88(%rsp),%rbp
 4b5d8a5:	00 
 4b5d8a6:	48 89 84 24 98 00 00 	mov    %rax,0x98(%rsp)
 4b5d8ad:	00 
 4b5d8ae:	48 89 8c 24 a8 00 00 	mov    %rcx,0xa8(%rsp)
 4b5d8b5:	00 
 4b5d8b6:	48 89 9c 24 a0 00 00 	mov    %rbx,0xa0(%rsp)
 4b5d8bd:	00 
 4b5d8be:	48 8b 10             	mov    (%rax),%rdx
 4b5d8c1:	31 ff                	xor    %edi,%edi
 4b5d8c3:	48 89 d0             	mov    %rdx,%rax
 4b5d8c6:	31 db                	xor    %ebx,%ebx
 4b5d8c8:	31 c9                	xor    %ecx,%ecx
 4b5d8ca:	e8 b1 ba ff ff       	call   4b59380 <github.com/lasselj/timebeat/beater/clocksync/clients/ptpsquared.(*Node).NewMessageData@@Base>
 4b5d8cf:	48 89 44 24 60       	mov    %rax,0x60(%rsp)
 4b5d8d4:	48 8d 05 c5 f9 29 01 	lea    0x129f9c5(%rip),%rax        # 5dfd2a0 <type:2Lozxwla@@Base>
 4b5d8db:	0f 1f 44 00 00       	nopl   0x0(%rax,%rax,1)
 4b5d8e0:	e8 fb 2b 39 fd       	call   1ef04e0 <runtime.newobject@@Base>
 4b5d8e5:	83 3d 74 e0 31 03 00 	cmpl   $0x0,0x331e074(%rip)        # 7e7b960 <runtime.writeBarrier@@Base>
 4b5d8ec:	75 0a                	jne    4b5d8f8 <github.com/lasselj/timebeat/beater/clocksync/clients/ptpsquared.(*PeerHandler).SendAckCancelFeed@@Base+0x78>
 4b5d8ee:	48 8b 54 24 60       	mov    0x60(%rsp),%rdx
 4b5d8f3:	48 89 10             	mov    %rdx,(%rax)
 4b5d8f6:	eb 0d                	jmp    4b5d905 <github.com/lasselj/timebeat/beater/clocksync/clients/ptpsquared.(*PeerHandler).SendAckCancelFeed@@Base+0x85>
 4b5d8f8:	48 89 c7             	mov    %rax,%rdi
 4b5d8fb:	48 8b 54 24 60       	mov    0x60(%rsp),%rdx
 4b5d900:	e8 1b 8e 3f fd       	call   1f56720 <runtime.gcWriteBarrierDX@@Base>
 4b5d905:	48 89 44 24 58       	mov    %rax,0x58(%rsp)
 4b5d90a:	c7 40 08 04 00 00 00 	movl   $0x4,0x8(%rax)
 4b5d911:	48 8b 94 24 98 00 00 	mov    0x98(%rsp),%rdx
 4b5d918:	00 
 4b5d919:	48 8b 32             	mov    (%rdx),%rsi
 4b5d91c:	48 8d 1d 8d bc 3c 01 	lea    0x13cbc8d(%rip),%rbx        # 5f295b0 <go:itab.*github.com/lasselj/timebeat/beater/clocksync/clients/ptpsquared.PTPSetupPeerMessage,github.com/gogo/protobuf/proto.Message@@Base>
 4b5d923:	48 89 c1             	mov    %rax,%rcx
 4b5d926:	48 89 f0             	mov    %rsi,%rax
 4b5d929:	e8 72 b5 ff ff       	call   4b58ea0 <github.com/lasselj/timebeat/beater/clocksync/clients/ptpsquared.(*Node).signProtoMessage@@Base>
 4b5d92e:	48 85 ff             	test   %rdi,%rdi
 4b5d931:	0f 85 8c 01 00 00    	jne    4b5dac3 <github.com/lasselj/timebeat/beater/clocksync/clients/ptpsquared.(*PeerHandler).SendAckCancelFeed@@Base+0x243>
 4b5d937:	4c 8b 4c 24 58       	mov    0x58(%rsp),%r9
 4b5d93c:	49 8b 39             	mov    (%r9),%rdi
 4b5d93f:	48 89 5f 60          	mov    %rbx,0x60(%rdi)
 4b5d943:	48 89 4f 68          	mov    %rcx,0x68(%rdi)
 4b5d947:	83 3d 12 e0 31 03 00 	cmpl   $0x0,0x331e012(%rip)        # 7e7b960 <runtime.writeBarrier@@Base>
 4b5d94e:	75 06                	jne    4b5d956 <github.com/lasselj/timebeat/beater/clocksync/clients/ptpsquared.(*PeerHandler).SendAckCancelFeed@@Base+0xd6>
 4b5d950:	48 89 47 58          	mov    %rax,0x58(%rdi)
 4b5d954:	eb 09                	jmp    4b5d95f <github.com/lasselj/timebeat/beater/clocksync/clients/ptpsquared.(*PeerHandler).SendAckCancelFeed@@Base+0xdf>
 4b5d956:	48 83 c7 58          	add    $0x58,%rdi
 4b5d95a:	e8 a1 8c 3f fd       	call   1f56600 <runtime.gcWriteBarrier@@Base>
 4b5d95f:	48 8b 94 24 98 00 00 	mov    0x98(%rsp),%rdx
 4b5d966:	00 
 4b5d967:	48 8b 02             	mov    (%rdx),%rax
 4b5d96a:	48 8b 3d df 43 2d 03 	mov    0x32d43df(%rip),%rdi        # 7e31d50 <github.com/lasselj/timebeat/beater/clocksync/clients/ptpsquared.PTP_SETUP_RESPONSE@@Base>
 4b5d971:	48 8b 35 e0 43 2d 03 	mov    0x32d43e0(%rip),%rsi        # 7e31d58 <github.com/lasselj/timebeat/beater/clocksync/clients/ptpsquared.PTP_SETUP_RESPONSE@@Base+0x8>
 4b5d978:	48 8b 9c 24 a0 00 00 	mov    0xa0(%rsp),%rbx
 4b5d97f:	00 
 4b5d980:	48 8b 8c 24 a8 00 00 	mov    0xa8(%rsp),%rcx
 4b5d987:	00 
 4b5d988:	4c 8d 05 21 bc 3c 01 	lea    0x13cbc21(%rip),%r8        # 5f295b0 <go:itab.*github.com/lasselj/timebeat/beater/clocksync/clients/ptpsquared.PTPSetupPeerMessage,github.com/gogo/protobuf/proto.Message@@Base>
 4b5d98f:	e8 8c bc ff ff       	call   4b59620 <github.com/lasselj/timebeat/beater/clocksync/clients/ptpsquared.(*Node).sendProtoMessage@@Base>
 4b5d994:	84 c0                	test   %al,%al
 4b5d996:	0f 84 99 00 00 00    	je     4b5da35 <github.com/lasselj/timebeat/beater/clocksync/clients/ptpsquared.(*PeerHandler).SendAckCancelFeed@@Base+0x1b5>
 4b5d99c:	48 8b 94 24 98 00 00 	mov    0x98(%rsp),%rdx
 4b5d9a3:	00 
 4b5d9a4:	80 7a 38 00          	cmpb   $0x0,0x38(%rdx)
 4b5d9a8:	74 7b                	je     4b5da25 <github.com/lasselj/timebeat/beater/clocksync/clients/ptpsquared.(*PeerHandler).SendAckCancelFeed@@Base+0x1a5>
 4b5d9aa:	44 0f 11 7c 24 68    	movups %xmm15,0x68(%rsp)
 4b5d9b0:	48 8b 54 24 58       	mov    0x58(%rsp),%rdx
 4b5d9b5:	8b 42 08             	mov    0x8(%rdx),%eax
 4b5d9b8:	0f 1f 84 00 00 00 00 	nopl   0x0(%rax,%rax,1)
 4b5d9bf:	00 
 4b5d9c0:	48 83 f8 08          	cmp    $0x8,%rax
 4b5d9c4:	0f 83 2b 01 00 00    	jae    4b5daf5 <github.com/lasselj/timebeat/beater/clocksync/clients/ptpsquared.(*PeerHandler).SendAckCancelFeed@@Base+0x275>
 4b5d9ca:	48 c1 e0 04          	shl    $0x4,%rax
 4b5d9ce:	48 8d 0d 4b a0 e3 02 	lea    0x2e3a04b(%rip),%rcx        # 7997a20 <github.com/lasselj/timebeat/beater/clocksync/clients/ptpsquared.MSG_CMD@@Base>
 4b5d9d5:	48 8b 14 01          	mov    (%rcx,%rax,1),%rdx
 4b5d9d9:	48 8b 5c 01 08       	mov    0x8(%rcx,%rax,1),%rbx
 4b5d9de:	48 89 d0             	mov    %rdx,%rax
 4b5d9e1:	e8 7a 03 39 fd       	call   1eedd60 <runtime.convTstring@@Base>
 4b5d9e6:	48 8d 0d b3 0c c5 00 	lea    0xc50cb3(%rip),%rcx        # 57ae6a0 <type:string@@Base>
 4b5d9ed:	48 89 4c 24 68       	mov    %rcx,0x68(%rsp)
 4b5d9f2:	48 89 44 24 70       	mov    %rax,0x70(%rsp)
 4b5d9f7:	48 8b 1d 42 18 2d 03 	mov    0x32d1842(%rip),%rbx        # 7e2f240 <os.Stdout@@Base>
 4b5d9fe:	48 8d 05 1b 78 3a 01 	lea    0x13a781b(%rip),%rax        # 5f05220 <go:itab.*os.File,io.Writer@@Base>
 4b5da05:	48 8d 0d ae fe 11 00 	lea    0x11feae(%rip),%rcx        # 4c7d8ba <_IO_stdin_used@@Base+0x4a8ba>
 4b5da0c:	bf 0d 00 00 00       	mov    $0xd,%edi
 4b5da11:	48 8d 74 24 68       	lea    0x68(%rsp),%rsi
 4b5da16:	41 b8 01 00 00 00    	mov    $0x1,%r8d
 4b5da1c:	4d 89 c1             	mov    %r8,%r9
 4b5da1f:	90                   	nop
 4b5da20:	e8 bb 6d 49 fd       	call   1ff47e0 <fmt.Fprintf@@Base>
 4b5da25:	48 8b ac 24 88 00 00 	mov    0x88(%rsp),%rbp
 4b5da2c:	00 
 4b5da2d:	48 81 c4 90 00 00 00 	add    $0x90,%rsp
 4b5da34:	c3                   	ret
 4b5da35:	48 8d 44 24 38       	lea    0x38(%rsp),%rax
 4b5da3a:	48 8b 9c 24 a0 00 00 	mov    0xa0(%rsp),%rbx
 4b5da41:	00 
 4b5da42:	48 8b 8c 24 a8 00 00 	mov    0xa8(%rsp),%rcx
 4b5da49:	00 
 4b5da4a:	e8 71 ce 3d fd       	call   1f3a8c0 <runtime.stringtoslicebyte@@Base>
 4b5da4f:	90                   	nop
 4b5da50:	48 8b 3d f1 ed 2c 03 	mov    0x32cedf1(%rip),%rdi        # 7e2c848 <github.com/mr-tron/base58/base58.BTCAlphabet@@Base>
 4b5da57:	e8 84 41 a9 ff       	call   45f1be0 <github.com/mr-tron/base58/base58.FastBase58EncodingAlphabet@@Base>
 4b5da5c:	44 0f 11 7c 24 78    	movups %xmm15,0x78(%rsp)
 4b5da62:	e8 f9 02 39 fd       	call   1eedd60 <runtime.convTstring@@Base>
 4b5da67:	48 8d 15 32 0c c5 00 	lea    0xc50c32(%rip),%rdx        # 57ae6a0 <type:string@@Base>
 4b5da6e:	48 89 54 24 78       	mov    %rdx,0x78(%rsp)
 4b5da73:	48 89 84 24 80 00 00 	mov    %rax,0x80(%rsp)
 4b5da7a:	00 
 4b5da7b:	48 8d 05 95 27 29 00 	lea    0x292795(%rip),%rax        # 4df0217 <_IO_stdin_used@@Base+0x1bd217>
 4b5da82:	bb 1e 00 00 00       	mov    $0x1e,%ebx
 4b5da87:	48 8d 4c 24 78       	lea    0x78(%rsp),%rcx
 4b5da8c:	bf 01 00 00 00       	mov    $0x1,%edi
 4b5da91:	48 89 fe             	mov    %rdi,%rsi
 4b5da94:	e8 67 6e 49 fd       	call   1ff4900 <fmt.Sprintf@@Base>
 4b5da99:	48 8b 94 24 98 00 00 	mov    0x98(%rsp),%rdx
 4b5daa0:	00 
 4b5daa1:	48 8b 52 18          	mov    0x18(%rdx),%rdx
 4b5daa5:	48 89 d9             	mov    %rbx,%rcx
 4b5daa8:	48 89 c3             	mov    %rax,%rbx
 4b5daab:	48 89 d0             	mov    %rdx,%rax
 4b5daae:	e8 ad 95 8a ff       	call   4407060 <github.com/lasselj/timebeat/beater/logging.(*Logger).Error@@Base>
 4b5dab3:	48 8b ac 24 88 00 00 	mov    0x88(%rsp),%rbp
 4b5daba:	00 
 4b5dabb:	48 81 c4 90 00 00 00 	add    $0x90,%rsp
 4b5dac2:	c3                   	ret
 4b5dac3:	48 8b 94 24 98 00 00 	mov    0x98(%rsp),%rdx
 4b5daca:	00 
 4b5dacb:	48 8b 42 18          	mov    0x18(%rdx),%rax
 4b5dacf:	48 8d 1d 41 b7 27 00 	lea    0x27b741(%rip),%rbx        # 4dd9217 <_IO_stdin_used@@Base+0x1a6217>
 4b5dad6:	b9 18 00 00 00       	mov    $0x18,%ecx
 4b5dadb:	0f 1f 44 00 00       	nopl   0x0(%rax,%rax,1)
 4b5dae0:	e8 7b 95 8a ff       	call   4407060 <github.com/lasselj/timebeat/beater/logging.(*Logger).Error@@Base>
 4b5dae5:	48 8b ac 24 88 00 00 	mov    0x88(%rsp),%rbp
 4b5daec:	00 
 4b5daed:	48 81 c4 90 00 00 00 	add    $0x90,%rsp
 4b5daf4:	c3                   	ret
 4b5daf5:	b9 08 00 00 00       	mov    $0x8,%ecx
 4b5dafa:	e8 a1 8f 3f fd       	call   1f56aa0 <runtime.panicIndex@@Base>
 4b5daff:	90                   	nop
 4b5db00:	48 89 44 24 08       	mov    %rax,0x8(%rsp)
 4b5db05:	48 89 5c 24 10       	mov    %rbx,0x10(%rsp)
 4b5db0a:	48 89 4c 24 18       	mov    %rcx,0x18(%rsp)
 4b5db0f:	e8 4c 69 3f fd       	call   1f54460 <runtime.morestack_noctxt.abi0@@Base>
 4b5db14:	48 8b 44 24 08       	mov    0x8(%rsp),%rax
 4b5db19:	48 8b 5c 24 10       	mov    0x10(%rsp),%rbx
 4b5db1e:	48 8b 4c 24 18       	mov    0x18(%rsp),%rcx
 4b5db23:	e9 58 fd ff ff       	jmp    4b5d880 <github.com/lasselj/timebeat/beater/clocksync/clients/ptpsquared.(*PeerHandler).SendAckCancelFeed@@Base>
 4b5db28:	cc                   	int3
 4b5db29:	cc                   	int3
 4b5db2a:	cc                   	int3
 4b5db2b:	cc                   	int3
 4b5db2c:	cc                   	int3
 4b5db2d:	cc                   	int3
 4b5db2e:	cc                   	int3
 4b5db2f:	cc                   	int3
 4b5db30:	cc                   	int3
 4b5db31:	cc                   	int3
 4b5db32:	cc                   	int3
 4b5db33:	cc                   	int3
 4b5db34:	cc                   	int3
 4b5db35:	cc                   	int3
 4b5db36:	cc                   	int3
 4b5db37:	cc                   	int3
 4b5db38:	cc                   	int3
 4b5db39:	cc                   	int3
 4b5db3a:	cc                   	int3
 4b5db3b:	cc                   	int3
 4b5db3c:	cc                   	int3
 4b5db3d:	cc                   	int3
 4b5db3e:	cc                   	int3
 4b5db3f:	cc                   	int3
