# github.com/lasselj/timebeat/beater/clocksync/phc.(*NL).parseRtAttrs
# addr 0x458a7e0 size 800 (0x320)


/mnt/c/Users/SHIWA/GitHub/TimeCard-Mini/timebeat-extracted/usr/share/timebeat/bin/timebeat:     file format elf64-x86-64


Disassembly of section .text:

000000000458a7e0 <github.com/lasselj/timebeat/beater/clocksync/phc.(*NL).parseRtAttrs@@Base>:
 458a7e0:	49 3b 66 10          	cmp    0x10(%r14),%rsp
 458a7e4:	0f 86 c7 02 00 00    	jbe    458aab1 <github.com/lasselj/timebeat/beater/clocksync/phc.(*NL).parseRtAttrs@@Base+0x2d1>
 458a7ea:	48 83 c4 80          	add    $0xffffffffffffff80,%rsp
 458a7ee:	48 89 6c 24 78       	mov    %rbp,0x78(%rsp)
 458a7f3:	48 8d 6c 24 78       	lea    0x78(%rsp),%rbp
 458a7f8:	48 89 8c 24 98 00 00 	mov    %rcx,0x98(%rsp)
 458a7ff:	00 
 458a800:	48 89 bc 24 a0 00 00 	mov    %rdi,0xa0(%rsp)
 458a807:	00 
 458a808:	48 89 9c 24 90 00 00 	mov    %rbx,0x90(%rsp)
 458a80f:	00 
 458a810:	48 89 84 24 88 00 00 	mov    %rax,0x88(%rsp)
 458a817:	00 
 458a818:	66 c7 44 24 36 00 00 	movw   $0x0,0x36(%rsp)
 458a81f:	90                   	nop
 458a820:	48 8d 05 b9 26 60 01 	lea    0x16026b9(%rip),%rax        # 5b8cee0 <type:qfCPvgog@@Base>
 458a827:	e8 b4 5c 96 fd       	call   1ef04e0 <runtime.newobject@@Base>
 458a82c:	48 8b 8c 24 98 00 00 	mov    0x98(%rsp),%rcx
 458a833:	00 
 458a834:	48 89 48 08          	mov    %rcx,0x8(%rax)
 458a838:	48 8b 94 24 a0 00 00 	mov    0xa0(%rsp),%rdx
 458a83f:	00 
 458a840:	48 89 50 10          	mov    %rdx,0x10(%rax)
 458a844:	83 3d 15 11 8f 03 00 	cmpl   $0x0,0x38f1115(%rip)        # 7e7b960 <runtime.writeBarrier@@Base>
 458a84b:	75 0d                	jne    458a85a <github.com/lasselj/timebeat/beater/clocksync/phc.(*NL).parseRtAttrs@@Base+0x7a>
 458a84d:	48 8b 9c 24 90 00 00 	mov    0x90(%rsp),%rbx
 458a854:	00 
 458a855:	48 89 18             	mov    %rbx,(%rax)
 458a858:	eb 10                	jmp    458a86a <github.com/lasselj/timebeat/beater/clocksync/phc.(*NL).parseRtAttrs@@Base+0x8a>
 458a85a:	48 89 c7             	mov    %rax,%rdi
 458a85d:	48 8b 9c 24 90 00 00 	mov    0x90(%rsp),%rbx
 458a864:	00 
 458a865:	e8 d6 be 9c fd       	call   1f56740 <runtime.gcWriteBarrierBX@@Base>
 458a86a:	48 89 44 24 58       	mov    %rax,0x58(%rsp)
 458a86f:	48 c7 40 18 00 00 00 	movq   $0x0,0x18(%rax)
 458a876:	00 
 458a877:	48 c7 40 20 ff ff ff 	movq   $0xffffffffffffffff,0x20(%rax)
 458a87e:	ff 
 458a87f:	90                   	nop
 458a880:	e8 bb 69 96 fd       	call   1ef1240 <runtime.makemap_small@@Base>
 458a885:	48 89 44 24 68       	mov    %rax,0x68(%rsp)
 458a88a:	31 c9                	xor    %ecx,%ecx
 458a88c:	eb 03                	jmp    458a891 <github.com/lasselj/timebeat/beater/clocksync/phc.(*NL).parseRtAttrs@@Base+0xb1>
 458a88e:	48 89 d1             	mov    %rdx,%rcx
 458a891:	48 89 4c 24 38       	mov    %rcx,0x38(%rsp)
 458a896:	48 8d 05 e3 8d 59 01 	lea    0x1598de3(%rip),%rax        # 5b23680 <type:8skgzRoU@@Base>
 458a89d:	0f 1f 00             	nopl   (%rax)
 458a8a0:	e8 3b 5c 96 fd       	call   1ef04e0 <runtime.newobject@@Base>
 458a8a5:	48 89 44 24 60       	mov    %rax,0x60(%rsp)
 458a8aa:	48 8b 5c 24 58       	mov    0x58(%rsp),%rbx
 458a8af:	48 8d 0d 3a 96 9b 01 	lea    0x19b963a(%rip),%rcx        # 5f43ef0 <go:itab.encoding/binary.littleEndian,encoding/binary.ByteOrder@@Base>
 458a8b6:	48 8d 3d b3 07 8f 03 	lea    0x38f07b3(%rip),%rdi        # 7e7b070 <runtime.zerobase@@Base>
 458a8bd:	48 8d 35 3c 72 16 01 	lea    0x116723c(%rip),%rsi        # 56f1b00 <type:JjUyG9Oe@@Base>
 458a8c4:	49 89 c0             	mov    %rax,%r8
 458a8c7:	48 8d 05 32 31 97 01 	lea    0x1973132(%rip),%rax        # 5efda00 <go:itab.*bytes.Reader,io.Reader@@Base>
 458a8ce:	e8 ed 86 ae fd       	call   2072fc0 <encoding/binary.Read@@Base>
 458a8d3:	48 8b 4c 24 60       	mov    0x60(%rsp),%rcx
 458a8d8:	0f b7 11             	movzwl (%rcx),%edx
 458a8db:	48 8b 5c 24 38       	mov    0x38(%rsp),%rbx
 458a8e0:	48 8d 34 13          	lea    (%rbx,%rdx,1),%rsi
 458a8e4:	48 8b bc 24 a0 00 00 	mov    0xa0(%rsp),%rdi
 458a8eb:	00 
 458a8ec:	48 39 f7             	cmp    %rsi,%rdi
 458a8ef:	0f 82 b0 01 00 00    	jb     458aaa5 <github.com/lasselj/timebeat/beater/clocksync/phc.(*NL).parseRtAttrs@@Base+0x2c5>
 458a8f5:	4c 8d 43 04          	lea    0x4(%rbx),%r8
 458a8f9:	0f 1f 80 00 00 00 00 	nopl   0x0(%rax)
 458a900:	49 39 f0             	cmp    %rsi,%r8
 458a903:	0f 87 90 01 00 00    	ja     458aa99 <github.com/lasselj/timebeat/beater/clocksync/phc.(*NL).parseRtAttrs@@Base+0x2b9>
 458a909:	4c 89 44 24 50       	mov    %r8,0x50(%rsp)
 458a90e:	48 89 44 24 40       	mov    %rax,0x40(%rsp)
 458a913:	48 89 54 24 48       	mov    %rdx,0x48(%rsp)
 458a918:	48 8d 05 01 8a 58 01 	lea    0x1588a01(%rip),%rax        # 5b13320 <type:bIBJeX0w@@Base>
 458a91f:	90                   	nop
 458a920:	e8 bb 5b 96 fd       	call   1ef04e0 <runtime.newobject@@Base>
 458a925:	48 8b 8c 24 a0 00 00 	mov    0xa0(%rsp),%rcx
 458a92c:	00 
 458a92d:	48 8b 54 24 38       	mov    0x38(%rsp),%rdx
 458a932:	48 89 cb             	mov    %rcx,%rbx
 458a935:	48 29 d1             	sub    %rdx,%rcx
 458a938:	48 83 c1 fc          	add    $0xfffffffffffffffc,%rcx
 458a93c:	48 89 ce             	mov    %rcx,%rsi
 458a93f:	48 f7 d9             	neg    %rcx
 458a942:	48 c1 f9 3f          	sar    $0x3f,%rcx
 458a946:	48 8b 7c 24 50       	mov    0x50(%rsp),%rdi
 458a94b:	48 21 cf             	and    %rcx,%rdi
 458a94e:	48 8b 8c 24 90 00 00 	mov    0x90(%rsp),%rcx
 458a955:	00 
 458a956:	48 01 cf             	add    %rcx,%rdi
 458a959:	83 3d 00 10 8f 03 00 	cmpl   $0x0,0x38f1000(%rip)        # 7e7b960 <runtime.writeBarrier@@Base>
 458a960:	75 0a                	jne    458a96c <github.com/lasselj/timebeat/beater/clocksync/phc.(*NL).parseRtAttrs@@Base+0x18c>
 458a962:	4c 8b 44 24 60       	mov    0x60(%rsp),%r8
 458a967:	4c 89 00             	mov    %r8,(%rax)
 458a96a:	eb 16                	jmp    458a982 <github.com/lasselj/timebeat/beater/clocksync/phc.(*NL).parseRtAttrs@@Base+0x1a2>
 458a96c:	49 89 f8             	mov    %rdi,%r8
 458a96f:	48 89 c7             	mov    %rax,%rdi
 458a972:	4c 8b 4c 24 60       	mov    0x60(%rsp),%r9
 458a977:	e8 24 be 9c fd       	call   1f567a0 <runtime.gcWriteBarrierR9@@Base>
 458a97c:	4c 89 c7             	mov    %r8,%rdi
 458a97f:	4d 89 c8             	mov    %r9,%r8
 458a982:	4c 8b 4c 24 48       	mov    0x48(%rsp),%r9
 458a987:	49 83 c1 fc          	add    $0xfffffffffffffffc,%r9
 458a98b:	4c 89 48 10          	mov    %r9,0x10(%rax)
 458a98f:	48 89 70 18          	mov    %rsi,0x18(%rax)
 458a993:	83 3d c6 0f 8f 03 00 	cmpl   $0x0,0x38f0fc6(%rip)        # 7e7b960 <runtime.writeBarrier@@Base>
 458a99a:	75 06                	jne    458a9a2 <github.com/lasselj/timebeat/beater/clocksync/phc.(*NL).parseRtAttrs@@Base+0x1c2>
 458a99c:	48 89 78 08          	mov    %rdi,0x8(%rax)
 458a9a0:	eb 0f                	jmp    458a9b1 <github.com/lasselj/timebeat/beater/clocksync/phc.(*NL).parseRtAttrs@@Base+0x1d1>
 458a9a2:	48 8d 70 08          	lea    0x8(%rax),%rsi
 458a9a6:	49 89 f9             	mov    %rdi,%r9
 458a9a9:	48 89 f7             	mov    %rsi,%rdi
 458a9ac:	e8 ef bd 9c fd       	call   1f567a0 <runtime.gcWriteBarrierR9@@Base>
 458a9b1:	48 89 44 24 70       	mov    %rax,0x70(%rsp)
 458a9b6:	48 8b b4 24 88 00 00 	mov    0x88(%rsp),%rsi
 458a9bd:	00 
 458a9be:	80 7e 10 00          	cmpb   $0x0,0x10(%rsi)
 458a9c2:	74 46                	je     458aa0a <github.com/lasselj/timebeat/beater/clocksync/phc.(*NL).parseRtAttrs@@Base+0x22a>
 458a9c4:	48 8d 05 75 60 3c 01 	lea    0x13c6075(%rip),%rax        # 5950a40 <type:sQl3Fu4Z@@Base>
 458a9cb:	48 8b 5c 24 68       	mov    0x68(%rsp),%rbx
 458a9d0:	48 8d 4c 24 36       	lea    0x36(%rsp),%rcx
 458a9d5:	e8 86 73 96 fd       	call   1ef1d60 <runtime.mapassign@@Base>
 458a9da:	84 00                	test   %al,(%rax)
 458a9dc:	83 3d 7d 0f 8f 03 00 	cmpl   $0x0,0x38f0f7d(%rip)        # 7e7b960 <runtime.writeBarrier@@Base>
 458a9e3:	75 0a                	jne    458a9ef <github.com/lasselj/timebeat/beater/clocksync/phc.(*NL).parseRtAttrs@@Base+0x20f>
 458a9e5:	48 8b 54 24 70       	mov    0x70(%rsp),%rdx
 458a9ea:	48 89 10             	mov    %rdx,(%rax)
 458a9ed:	eb 0d                	jmp    458a9fc <github.com/lasselj/timebeat/beater/clocksync/phc.(*NL).parseRtAttrs@@Base+0x21c>
 458a9ef:	48 89 c7             	mov    %rax,%rdi
 458a9f2:	48 8b 54 24 70       	mov    0x70(%rsp),%rdx
 458a9f7:	e8 24 bd 9c fd       	call   1f56720 <runtime.gcWriteBarrierDX@@Base>
 458a9fc:	0f b7 54 24 36       	movzwl 0x36(%rsp),%edx
 458aa01:	ff c2                	inc    %edx
 458aa03:	66 89 54 24 36       	mov    %dx,0x36(%rsp)
 458aa08:	eb 3b                	jmp    458aa45 <github.com/lasselj/timebeat/beater/clocksync/phc.(*NL).parseRtAttrs@@Base+0x265>
 458aa0a:	49 8d 48 02          	lea    0x2(%r8),%rcx
 458aa0e:	48 8d 05 2b 60 3c 01 	lea    0x13c602b(%rip),%rax        # 5950a40 <type:sQl3Fu4Z@@Base>
 458aa15:	48 8b 5c 24 68       	mov    0x68(%rsp),%rbx
 458aa1a:	e8 41 73 96 fd       	call   1ef1d60 <runtime.mapassign@@Base>
 458aa1f:	84 00                	test   %al,(%rax)
 458aa21:	83 3d 38 0f 8f 03 00 	cmpl   $0x0,0x38f0f38(%rip)        # 7e7b960 <runtime.writeBarrier@@Base>
 458aa28:	75 0a                	jne    458aa34 <github.com/lasselj/timebeat/beater/clocksync/phc.(*NL).parseRtAttrs@@Base+0x254>
 458aa2a:	48 8b 54 24 70       	mov    0x70(%rsp),%rdx
 458aa2f:	48 89 10             	mov    %rdx,(%rax)
 458aa32:	eb 11                	jmp    458aa45 <github.com/lasselj/timebeat/beater/clocksync/phc.(*NL).parseRtAttrs@@Base+0x265>
 458aa34:	48 89 c7             	mov    %rax,%rdi
 458aa37:	48 8b 54 24 70       	mov    0x70(%rsp),%rdx
 458aa3c:	0f 1f 40 00          	nopl   0x0(%rax)
 458aa40:	e8 db bc 9c fd       	call   1f56720 <runtime.gcWriteBarrierDX@@Base>
 458aa45:	48 8b 54 24 40       	mov    0x40(%rsp),%rdx
 458aa4a:	48 85 d2             	test   %rdx,%rdx
 458aa4d:	75 3b                	jne    458aa8a <github.com/lasselj/timebeat/beater/clocksync/phc.(*NL).parseRtAttrs@@Base+0x2aa>
 458aa4f:	48 8b 84 24 88 00 00 	mov    0x88(%rsp),%rax
 458aa56:	00 
 458aa57:	48 8b 5c 24 60       	mov    0x60(%rsp),%rbx
 458aa5c:	48 8b 4c 24 58       	mov    0x58(%rsp),%rcx
 458aa61:	e8 9a 00 00 00       	call   458ab00 <github.com/lasselj/timebeat/beater/clocksync/phc.(*NL).fourByteAlignReader@@Base>
 458aa66:	48 8b 54 24 60       	mov    0x60(%rsp),%rdx
 458aa6b:	0f b7 12             	movzwl (%rdx),%edx
 458aa6e:	48 01 c2             	add    %rax,%rdx
 458aa71:	48 8b 74 24 38       	mov    0x38(%rsp),%rsi
 458aa76:	48 01 f2             	add    %rsi,%rdx
 458aa79:	48 8b b4 24 98 00 00 	mov    0x98(%rsp),%rsi
 458aa80:	00 
 458aa81:	48 39 d6             	cmp    %rdx,%rsi
 458aa84:	0f 85 04 fe ff ff    	jne    458a88e <github.com/lasselj/timebeat/beater/clocksync/phc.(*NL).parseRtAttrs@@Base+0xae>
 458aa8a:	48 8b 44 24 68       	mov    0x68(%rsp),%rax
 458aa8f:	48 8b 6c 24 78       	mov    0x78(%rsp),%rbp
 458aa94:	48 83 ec 80          	sub    $0xffffffffffffff80,%rsp
 458aa98:	c3                   	ret
 458aa99:	4c 89 c0             	mov    %r8,%rax
 458aa9c:	48 89 f1             	mov    %rsi,%rcx
 458aa9f:	90                   	nop
 458aaa0:	e8 bb c0 9c fd       	call   1f56b60 <runtime.panicSliceB@@Base>
 458aaa5:	48 89 f1             	mov    %rsi,%rcx
 458aaa8:	48 89 fa             	mov    %rdi,%rdx
 458aaab:	e8 70 c0 9c fd       	call   1f56b20 <runtime.panicSliceAcap@@Base>
 458aab0:	90                   	nop
 458aab1:	48 89 44 24 08       	mov    %rax,0x8(%rsp)
 458aab6:	48 89 5c 24 10       	mov    %rbx,0x10(%rsp)
 458aabb:	48 89 4c 24 18       	mov    %rcx,0x18(%rsp)
 458aac0:	48 89 7c 24 20       	mov    %rdi,0x20(%rsp)
 458aac5:	e8 96 99 9c fd       	call   1f54460 <runtime.morestack_noctxt.abi0@@Base>
 458aaca:	48 8b 44 24 08       	mov    0x8(%rsp),%rax
 458aacf:	48 8b 5c 24 10       	mov    0x10(%rsp),%rbx
 458aad4:	48 8b 4c 24 18       	mov    0x18(%rsp),%rcx
 458aad9:	48 8b 7c 24 20       	mov    0x20(%rsp),%rdi
 458aade:	66 90                	xchg   %ax,%ax
 458aae0:	e9 fb fc ff ff       	jmp    458a7e0 <github.com/lasselj/timebeat/beater/clocksync/phc.(*NL).parseRtAttrs@@Base>
 458aae5:	cc                   	int3
 458aae6:	cc                   	int3
 458aae7:	cc                   	int3
 458aae8:	cc                   	int3
 458aae9:	cc                   	int3
 458aaea:	cc                   	int3
 458aaeb:	cc                   	int3
 458aaec:	cc                   	int3
 458aaed:	cc                   	int3
 458aaee:	cc                   	int3
 458aaef:	cc                   	int3
 458aaf0:	cc                   	int3
 458aaf1:	cc                   	int3
 458aaf2:	cc                   	int3
 458aaf3:	cc                   	int3
 458aaf4:	cc                   	int3
 458aaf5:	cc                   	int3
 458aaf6:	cc                   	int3
 458aaf7:	cc                   	int3
 458aaf8:	cc                   	int3
 458aaf9:	cc                   	int3
 458aafa:	cc                   	int3
 458aafb:	cc                   	int3
 458aafc:	cc                   	int3
 458aafd:	cc                   	int3
 458aafe:	cc                   	int3
 458aaff:	cc                   	int3
