# github.com/lasselj/timebeat/beater/clocksync/sources.(*TimeSourceStore).AdjustFor_G_8275_2
# addr 0x4414ba0 size 832 (0x340)


/mnt/c/Users/SHIWA/GitHub/TimeCard-Mini/timebeat-extracted/usr/share/timebeat/bin/timebeat:     file format elf64-x86-64


Disassembly of section .text:

0000000004414ba0 <github.com/lasselj/timebeat/beater/clocksync/sources.(*TimeSourceStore).AdjustFor_G_8275_2@@Base>:
 4414ba0:	49 3b 66 10          	cmp    0x10(%r14),%rsp
 4414ba4:	0f 86 02 03 00 00    	jbe    4414eac <github.com/lasselj/timebeat/beater/clocksync/sources.(*TimeSourceStore).AdjustFor_G_8275_2@@Base+0x30c>
 4414baa:	48 83 ec 40          	sub    $0x40,%rsp
 4414bae:	48 89 6c 24 38       	mov    %rbp,0x38(%rsp)
 4414bb3:	48 8d 6c 24 38       	lea    0x38(%rsp),%rbp
 4414bb8:	48 89 44 24 48       	mov    %rax,0x48(%rsp)
 4414bbd:	48 89 5c 24 50       	mov    %rbx,0x50(%rsp)
 4414bc2:	80 7b 10 00          	cmpb   $0x0,0x10(%rbx)
 4414bc6:	74 2e                	je     4414bf6 <github.com/lasselj/timebeat/beater/clocksync/sources.(*TimeSourceStore).AdjustFor_G_8275_2@@Base+0x56>
 4414bc8:	48 8b 50 78          	mov    0x78(%rax),%rdx
 4414bcc:	48 8d 1d 3b b0 a5 00 	lea    0xa5b03b(%rip),%rbx        # 4e6fc0e <_IO_stdin_used@@Base+0x23cc0e>
 4414bd3:	b9 45 00 00 00       	mov    $0x45,%ecx
 4414bd8:	48 89 d0             	mov    %rdx,%rax
 4414bdb:	0f 1f 44 00 00       	nopl   0x0(%rax,%rax,1)
 4414be0:	e8 bb 25 ff ff       	call   44071a0 <github.com/lasselj/timebeat/beater/logging.(*Logger).Warn@@Base>
 4414be5:	48 8b 54 24 50       	mov    0x50(%rsp),%rdx
 4414bea:	c6 42 10 00          	movb   $0x0,0x10(%rdx)
 4414bee:	48 8b 44 24 48       	mov    0x48(%rsp),%rax
 4414bf3:	48 89 d3             	mov    %rdx,%rbx
 4414bf6:	48 83 7b 48 00       	cmpq   $0x0,0x48(%rbx)
 4414bfb:	75 72                	jne    4414c6f <github.com/lasselj/timebeat/beater/clocksync/sources.(*TimeSourceStore).AdjustFor_G_8275_2@@Base+0xcf>
 4414bfd:	48 8b 50 78          	mov    0x78(%rax),%rdx
 4414c01:	48 8d 1d 1c 88 a6 00 	lea    0xa6881c(%rip),%rbx        # 4e7d424 <_IO_stdin_used@@Base+0x24a424>
 4414c08:	b9 51 00 00 00       	mov    $0x51,%ecx
 4414c0d:	48 89 d0             	mov    %rdx,%rax
 4414c10:	e8 6b 22 ff ff       	call   4406e80 <github.com/lasselj/timebeat/beater/logging.(*Logger).Critical@@Base>
 4414c15:	44 0f 11 7c 24 28    	movups %xmm15,0x28(%rsp)
 4414c1b:	48 8d 05 02 88 a6 00 	lea    0xa68802(%rip),%rax        # 4e7d424 <_IO_stdin_used@@Base+0x24a424>
 4414c22:	bb 51 00 00 00       	mov    $0x51,%ebx
 4414c27:	e8 34 91 ad fd       	call   1eedd60 <runtime.convTstring@@Base>
 4414c2c:	48 8d 15 6d 9a 39 01 	lea    0x1399a6d(%rip),%rdx        # 57ae6a0 <type:string@@Base>
 4414c33:	48 89 54 24 28       	mov    %rdx,0x28(%rsp)
 4414c38:	48 89 44 24 30       	mov    %rax,0x30(%rsp)
 4414c3d:	48 8b 1d fc a5 a1 03 	mov    0x3a1a5fc(%rip),%rbx        # 7e2f240 <os.Stdout@@Base>
 4414c44:	48 8d 05 d5 05 af 01 	lea    0x1af05d5(%rip),%rax        # 5f05220 <go:itab.*os.File,io.Writer@@Base>
 4414c4b:	48 8d 4c 24 28       	lea    0x28(%rsp),%rcx
 4414c50:	bf 01 00 00 00       	mov    $0x1,%edi
 4414c55:	48 89 fe             	mov    %rdi,%rsi
 4414c58:	e8 c3 00 be fd       	call   1ff4d20 <fmt.Fprintln@@Base>
 4414c5d:	31 c0                	xor    %eax,%eax
 4414c5f:	90                   	nop
 4414c60:	e8 5b 90 bd fd       	call   1fedcc0 <os.Exit@@Base>
 4414c65:	48 8b 44 24 48       	mov    0x48(%rsp),%rax
 4414c6a:	48 8b 5c 24 50       	mov    0x50(%rsp),%rbx
 4414c6f:	80 7b 38 00          	cmpb   $0x0,0x38(%rbx)
 4414c73:	74 29                	je     4414c9e <github.com/lasselj/timebeat/beater/clocksync/sources.(*TimeSourceStore).AdjustFor_G_8275_2@@Base+0xfe>
 4414c75:	48 8b 50 78          	mov    0x78(%rax),%rdx
 4414c79:	48 8d 1d 72 a6 a6 00 	lea    0xa6a672(%rip),%rbx        # 4e7f2f2 <_IO_stdin_used@@Base+0x24c2f2>
 4414c80:	b9 54 00 00 00       	mov    $0x54,%ecx
 4414c85:	48 89 d0             	mov    %rdx,%rax
 4414c88:	e8 13 25 ff ff       	call   44071a0 <github.com/lasselj/timebeat/beater/logging.(*Logger).Warn@@Base>
 4414c8d:	48 8b 54 24 50       	mov    0x50(%rsp),%rdx
 4414c92:	c6 42 38 00          	movb   $0x0,0x38(%rdx)
 4414c96:	48 8b 44 24 48       	mov    0x48(%rsp),%rax
 4414c9b:	48 89 d3             	mov    %rdx,%rbx
 4414c9e:	80 7b 28 00          	cmpb   $0x0,0x28(%rbx)
 4414ca2:	74 32                	je     4414cd6 <github.com/lasselj/timebeat/beater/clocksync/sources.(*TimeSourceStore).AdjustFor_G_8275_2@@Base+0x136>
 4414ca4:	80 7b 39 00          	cmpb   $0x0,0x39(%rbx)
 4414ca8:	75 2c                	jne    4414cd6 <github.com/lasselj/timebeat/beater/clocksync/sources.(*TimeSourceStore).AdjustFor_G_8275_2@@Base+0x136>
 4414caa:	48 8b 50 78          	mov    0x78(%rax),%rdx
 4414cae:	48 8d 1d a8 0d a7 00 	lea    0xa70da8(%rip),%rbx        # 4e85a5d <_IO_stdin_used@@Base+0x252a5d>
 4414cb5:	b9 61 00 00 00       	mov    $0x61,%ecx
 4414cba:	48 89 d0             	mov    %rdx,%rax
 4414cbd:	0f 1f 00             	nopl   (%rax)
 4414cc0:	e8 db 24 ff ff       	call   44071a0 <github.com/lasselj/timebeat/beater/logging.(*Logger).Warn@@Base>
 4414cc5:	48 8b 54 24 50       	mov    0x50(%rsp),%rdx
 4414cca:	c6 42 39 01          	movb   $0x1,0x39(%rdx)
 4414cce:	48 8b 44 24 48       	mov    0x48(%rsp),%rax
 4414cd3:	48 89 d3             	mov    %rdx,%rbx
 4414cd6:	80 7b 3b 00          	cmpb   $0x0,0x3b(%rbx)
 4414cda:	7e 29                	jle    4414d05 <github.com/lasselj/timebeat/beater/clocksync/sources.(*TimeSourceStore).AdjustFor_G_8275_2@@Base+0x165>
 4414cdc:	48 8b 50 78          	mov    0x78(%rax),%rdx
 4414ce0:	48 8d 1d da 3e a4 00 	lea    0xa43eda(%rip),%rbx        # 4e58bc1 <_IO_stdin_used@@Base+0x225bc1>
 4414ce7:	b9 3a 00 00 00       	mov    $0x3a,%ecx
 4414cec:	48 89 d0             	mov    %rdx,%rax
 4414cef:	e8 ac 24 ff ff       	call   44071a0 <github.com/lasselj/timebeat/beater/logging.(*Logger).Warn@@Base>
 4414cf4:	48 8b 54 24 50       	mov    0x50(%rsp),%rdx
 4414cf9:	c6 42 3b 00          	movb   $0x0,0x3b(%rdx)
 4414cfd:	48 8b 44 24 48       	mov    0x48(%rsp),%rax
 4414d02:	48 89 d3             	mov    %rdx,%rbx
 4414d05:	80 7b 3c 00          	cmpb   $0x0,0x3c(%rbx)
 4414d09:	7e 2b                	jle    4414d36 <github.com/lasselj/timebeat/beater/clocksync/sources.(*TimeSourceStore).AdjustFor_G_8275_2@@Base+0x196>
 4414d0b:	48 8b 50 78          	mov    0x78(%rax),%rdx
 4414d0f:	48 8d 1d 8e 78 a5 00 	lea    0xa5788e(%rip),%rbx        # 4e6c5a4 <_IO_stdin_used@@Base+0x2395a4>
 4414d16:	b9 43 00 00 00       	mov    $0x43,%ecx
 4414d1b:	48 89 d0             	mov    %rdx,%rax
 4414d1e:	66 90                	xchg   %ax,%ax
 4414d20:	e8 7b 24 ff ff       	call   44071a0 <github.com/lasselj/timebeat/beater/logging.(*Logger).Warn@@Base>
 4414d25:	48 8b 54 24 50       	mov    0x50(%rsp),%rdx
 4414d2a:	c6 42 3c 00          	movb   $0x0,0x3c(%rdx)
 4414d2e:	48 8b 44 24 48       	mov    0x48(%rsp),%rax
 4414d33:	48 89 d3             	mov    %rdx,%rbx
 4414d36:	80 7b 3a 00          	cmpb   $0x0,0x3a(%rbx)
 4414d3a:	7e 29                	jle    4414d65 <github.com/lasselj/timebeat/beater/clocksync/sources.(*TimeSourceStore).AdjustFor_G_8275_2@@Base+0x1c5>
 4414d3c:	48 8b 50 78          	mov    0x78(%rax),%rdx
 4414d40:	48 8d 1d ca b0 a4 00 	lea    0xa4b0ca(%rip),%rbx        # 4e5fe11 <_IO_stdin_used@@Base+0x22ce11>
 4414d47:	b9 3d 00 00 00       	mov    $0x3d,%ecx
 4414d4c:	48 89 d0             	mov    %rdx,%rax
 4414d4f:	e8 4c 24 ff ff       	call   44071a0 <github.com/lasselj/timebeat/beater/logging.(*Logger).Warn@@Base>
 4414d54:	48 8b 54 24 50       	mov    0x50(%rsp),%rdx
 4414d59:	c6 42 3a 04          	movb   $0x4,0x3a(%rdx)
 4414d5d:	48 8b 44 24 48       	mov    0x48(%rsp),%rax
 4414d62:	48 89 d3             	mov    %rdx,%rbx
 4414d65:	80 7b 3a fd          	cmpb   $0xfd,0x3a(%rbx)
 4414d69:	7d 2b                	jge    4414d96 <github.com/lasselj/timebeat/beater/clocksync/sources.(*TimeSourceStore).AdjustFor_G_8275_2@@Base+0x1f6>
 4414d6b:	48 8b 50 78          	mov    0x78(%rax),%rdx
 4414d6f:	48 8d 1d eb 77 a5 00 	lea    0xa577eb(%rip),%rbx        # 4e6c561 <_IO_stdin_used@@Base+0x239561>
 4414d76:	b9 43 00 00 00       	mov    $0x43,%ecx
 4414d7b:	48 89 d0             	mov    %rdx,%rax
 4414d7e:	66 90                	xchg   %ax,%ax
 4414d80:	e8 fb 20 ff ff       	call   4406e80 <github.com/lasselj/timebeat/beater/logging.(*Logger).Critical@@Base>
 4414d85:	48 8b 54 24 50       	mov    0x50(%rsp),%rdx
 4414d8a:	c6 42 3a fd          	movb   $0xfd,0x3a(%rdx)
 4414d8e:	48 8b 44 24 48       	mov    0x48(%rsp),%rax
 4414d93:	48 89 d3             	mov    %rdx,%rbx
 4414d96:	80 bb e8 00 00 00 00 	cmpb   $0x0,0xe8(%rbx)
 4414d9d:	74 2c                	je     4414dcb <github.com/lasselj/timebeat/beater/clocksync/sources.(*TimeSourceStore).AdjustFor_G_8275_2@@Base+0x22b>
 4414d9f:	48 8b 50 78          	mov    0x78(%rax),%rdx
 4414da3:	48 8d 1d 24 cd a6 00 	lea    0xa6cd24(%rip),%rbx        # 4e81ace <_IO_stdin_used@@Base+0x24eace>
 4414daa:	b9 58 00 00 00       	mov    $0x58,%ecx
 4414daf:	48 89 d0             	mov    %rdx,%rax
 4414db2:	e8 e9 23 ff ff       	call   44071a0 <github.com/lasselj/timebeat/beater/logging.(*Logger).Warn@@Base>
 4414db7:	48 8b 54 24 50       	mov    0x50(%rsp),%rdx
 4414dbc:	c6 82 e8 00 00 00 00 	movb   $0x0,0xe8(%rdx)
 4414dc3:	48 8b 44 24 48       	mov    0x48(%rsp),%rax
 4414dc8:	48 89 d3             	mov    %rdx,%rbx
 4414dcb:	48 8b 93 d8 00 00 00 	mov    0xd8(%rbx),%rdx
 4414dd2:	48 83 bb e0 00 00 00 	cmpq   $0x3,0xe0(%rbx)
 4414dd9:	03 
 4414dda:	75 76                	jne    4414e52 <github.com/lasselj/timebeat/beater/clocksync/sources.(*TimeSourceStore).AdjustFor_G_8275_2@@Base+0x2b2>
 4414ddc:	66 81 3a 70 32       	cmpw   $0x3270,(%rdx)
 4414de1:	75 6f                	jne    4414e52 <github.com/lasselj/timebeat/beater/clocksync/sources.(*TimeSourceStore).AdjustFor_G_8275_2@@Base+0x2b2>
 4414de3:	80 7a 02 70          	cmpb   $0x70,0x2(%rdx)
 4414de7:	75 69                	jne    4414e52 <github.com/lasselj/timebeat/beater/clocksync/sources.(*TimeSourceStore).AdjustFor_G_8275_2@@Base+0x2b2>
 4414de9:	48 8b 50 78          	mov    0x78(%rax),%rdx
 4414ded:	48 8d 1d 34 5b a6 00 	lea    0xa65b34(%rip),%rbx        # 4e7a928 <_IO_stdin_used@@Base+0x247928>
 4414df4:	b9 4e 00 00 00       	mov    $0x4e,%ecx
 4414df9:	48 89 d0             	mov    %rdx,%rax
 4414dfc:	0f 1f 40 00          	nopl   0x0(%rax)
 4414e00:	e8 9b 23 ff ff       	call   44071a0 <github.com/lasselj/timebeat/beater/logging.(*Logger).Warn@@Base>
 4414e05:	48 8b 7c 24 50       	mov    0x50(%rsp),%rdi
 4414e0a:	48 c7 87 e0 00 00 00 	movq   $0x3,0xe0(%rdi)
 4414e11:	03 00 00 00 
 4414e15:	83 3d 44 6b a6 03 00 	cmpl   $0x0,0x3a66b44(%rip)        # 7e7b960 <runtime.writeBarrier@@Base>
 4414e1c:	75 10                	jne    4414e2e <github.com/lasselj/timebeat/beater/clocksync/sources.(*TimeSourceStore).AdjustFor_G_8275_2@@Base+0x28e>
 4414e1e:	48 8d 15 34 ee 81 00 	lea    0x81ee34(%rip),%rdx        # 4c33c59 <_IO_stdin_used@@Base+0xc59>
 4414e25:	48 89 97 d8 00 00 00 	mov    %rdx,0xd8(%rdi)
 4414e2c:	eb 1c                	jmp    4414e4a <github.com/lasselj/timebeat/beater/clocksync/sources.(*TimeSourceStore).AdjustFor_G_8275_2@@Base+0x2aa>
 4414e2e:	48 8d 97 d8 00 00 00 	lea    0xd8(%rdi),%rdx
 4414e35:	48 89 f8             	mov    %rdi,%rax
 4414e38:	48 89 d7             	mov    %rdx,%rdi
 4414e3b:	48 8d 35 17 ee 81 00 	lea    0x81ee17(%rip),%rsi        # 4c33c59 <_IO_stdin_used@@Base+0xc59>
 4414e42:	e8 19 19 b4 fd       	call   1f56760 <runtime.gcWriteBarrierSI@@Base>
 4414e47:	48 89 c7             	mov    %rax,%rdi
 4414e4a:	48 8b 44 24 48       	mov    0x48(%rsp),%rax
 4414e4f:	48 89 fb             	mov    %rdi,%rbx
 4414e52:	0f b6 53 11          	movzbl 0x11(%rbx),%edx
 4414e56:	83 c2 d4             	add    $0xffffffd4,%edx
 4414e59:	80 fa 13             	cmp    $0x13,%dl
 4414e5c:	76 04                	jbe    4414e62 <github.com/lasselj/timebeat/beater/clocksync/sources.(*TimeSourceStore).AdjustFor_G_8275_2@@Base+0x2c2>
 4414e5e:	90                   	nop
 4414e5f:	90                   	nop
 4414e60:	eb 1e                	jmp    4414e80 <github.com/lasselj/timebeat/beater/clocksync/sources.(*TimeSourceStore).AdjustFor_G_8275_2@@Base+0x2e0>
 4414e62:	48 8b 6c 24 38       	mov    0x38(%rsp),%rbp
 4414e67:	48 83 c4 40          	add    $0x40,%rsp
 4414e6b:	c3                   	ret
 4414e6c:	48 8b 44 24 48       	mov    0x48(%rsp),%rax
 4414e71:	0f b6 90 8a 00 00 00 	movzbl 0x8a(%rax),%edx
 4414e78:	ff c2                	inc    %edx
 4414e7a:	88 90 8a 00 00 00    	mov    %dl,0x8a(%rax)
 4414e80:	48 8b 98 90 00 00 00 	mov    0x90(%rax),%rbx
 4414e87:	48 8d 88 8a 00 00 00 	lea    0x8a(%rax),%rcx
 4414e8e:	48 8d 05 ab cd 53 01 	lea    0x153cdab(%rip),%rax        # 5951c40 <type:UyFO1K5m@@Base>
 4414e95:	e8 86 ca ad fd       	call   1ef1920 <runtime.mapaccess2@@Base>
 4414e9a:	84 db                	test   %bl,%bl
 4414e9c:	75 ce                	jne    4414e6c <github.com/lasselj/timebeat/beater/clocksync/sources.(*TimeSourceStore).AdjustFor_G_8275_2@@Base+0x2cc>
 4414e9e:	b8 02 00 00 00       	mov    $0x2,%eax
 4414ea3:	48 89 c1             	mov    %rax,%rcx
 4414ea6:	e8 f5 1b b4 fd       	call   1f56aa0 <runtime.panicIndex@@Base>
 4414eab:	90                   	nop
 4414eac:	48 89 44 24 08       	mov    %rax,0x8(%rsp)
 4414eb1:	48 89 5c 24 10       	mov    %rbx,0x10(%rsp)
 4414eb6:	e8 a5 f5 b3 fd       	call   1f54460 <runtime.morestack_noctxt.abi0@@Base>
 4414ebb:	48 8b 44 24 08       	mov    0x8(%rsp),%rax
 4414ec0:	48 8b 5c 24 10       	mov    0x10(%rsp),%rbx
 4414ec5:	e9 d6 fc ff ff       	jmp    4414ba0 <github.com/lasselj/timebeat/beater/clocksync/sources.(*TimeSourceStore).AdjustFor_G_8275_2@@Base>
 4414eca:	cc                   	int3
 4414ecb:	cc                   	int3
 4414ecc:	cc                   	int3
 4414ecd:	cc                   	int3
 4414ece:	cc                   	int3
 4414ecf:	cc                   	int3
 4414ed0:	cc                   	int3
 4414ed1:	cc                   	int3
 4414ed2:	cc                   	int3
 4414ed3:	cc                   	int3
 4414ed4:	cc                   	int3
 4414ed5:	cc                   	int3
 4414ed6:	cc                   	int3
 4414ed7:	cc                   	int3
 4414ed8:	cc                   	int3
 4414ed9:	cc                   	int3
 4414eda:	cc                   	int3
 4414edb:	cc                   	int3
 4414edc:	cc                   	int3
 4414edd:	cc                   	int3
 4414ede:	cc                   	int3
 4414edf:	cc                   	int3
