# github.com/lasselj/timebeat/beater/clocksync/clients/pps.(*Controller).ConfigureTimeSource
# addr 0x45bed60 size 1248 (0x4e0)


/mnt/c/Users/SHIWA/GitHub/TimeCard-Mini/timebeat-extracted/usr/share/timebeat/bin/timebeat:     file format elf64-x86-64


Disassembly of section .text:

00000000045bed60 <github.com/lasselj/timebeat/beater/clocksync/clients/pps.(*Controller).ConfigureTimeSource@@Base>:
 45bed60:	4c 8d a4 24 d0 f6 ff 	lea    -0x930(%rsp),%r12
 45bed67:	ff 
 45bed68:	4d 3b 66 10          	cmp    0x10(%r14),%r12
 45bed6c:	0f 86 78 04 00 00    	jbe    45bf1ea <github.com/lasselj/timebeat/beater/clocksync/clients/pps.(*Controller).ConfigureTimeSource@@Base+0x48a>
 45bed72:	48 81 ec b0 09 00 00 	sub    $0x9b0,%rsp
 45bed79:	48 89 ac 24 a8 09 00 	mov    %rbp,0x9a8(%rsp)
 45bed80:	00 
 45bed81:	48 8d ac 24 a8 09 00 	lea    0x9a8(%rsp),%rbp
 45bed88:	00 
 45bed89:	48 89 bc 24 d0 09 00 	mov    %rdi,0x9d0(%rsp)
 45bed90:	00 
 45bed91:	48 89 b4 24 d8 09 00 	mov    %rsi,0x9d8(%rsp)
 45bed98:	00 
 45bed99:	48 89 f9             	mov    %rdi,%rcx
 45bed9c:	48 8d bc 24 58 07 00 	lea    0x758(%rsp),%rdi
 45beda3:	00 
 45beda4:	48 8d 7f d0          	lea    -0x30(%rdi),%rdi
 45beda8:	48 89 6c 24 f0       	mov    %rbp,-0x10(%rsp)
 45bedad:	48 8d 6c 24 f0       	lea    -0x10(%rsp),%rbp
 45bedb2:	e8 61 7f 99 fd       	call   1f56d18 <runtime.duffzero@@Base+0x98>
 45bedb7:	48 8b 6d 00          	mov    0x0(%rbp),%rbp
 45bedbb:	48 8d 1d 5e 64 68 01 	lea    0x168645e(%rip),%rbx        # 5c45220 <type:K0rE3Tf5@@Base>
 45bedc2:	48 39 d9             	cmp    %rbx,%rcx
 45bedc5:	0f 85 0f 04 00 00    	jne    45bf1da <github.com/lasselj/timebeat/beater/clocksync/clients/pps.(*Controller).ConfigureTimeSource@@Base+0x47a>
 45bedcb:	48 8d bc 24 58 07 00 	lea    0x758(%rsp),%rdi
 45bedd2:	00 
 45bedd3:	66 0f 1f 84 00 00 00 	nopw   0x0(%rax,%rax,1)
 45bedda:	00 00 
 45beddc:	0f 1f 40 00          	nopl   0x0(%rax)
 45bede0:	48 89 6c 24 f0       	mov    %rbp,-0x10(%rsp)
 45bede5:	48 8d 6c 24 f0       	lea    -0x10(%rsp),%rbp
 45bedea:	e8 8b 81 99 fd       	call   1f56f7a <runtime.duffcopy@@Base+0x17a>
 45bedef:	48 8b 6d 00          	mov    0x0(%rbp),%rbp
 45bedf3:	48 8d bc 24 08 05 00 	lea    0x508(%rsp),%rdi
 45bedfa:	00 
 45bedfb:	48 8d b4 24 58 07 00 	lea    0x758(%rsp),%rsi
 45bee02:	00 
 45bee03:	48 89 6c 24 f0       	mov    %rbp,-0x10(%rsp)
 45bee08:	48 8d 6c 24 f0       	lea    -0x10(%rsp),%rbp
 45bee0d:	e8 68 81 99 fd       	call   1f56f7a <runtime.duffcopy@@Base+0x17a>
 45bee12:	48 8b 6d 00          	mov    0x0(%rbp),%rbp
 45bee16:	48 8b 8c 24 08 05 00 	mov    0x508(%rsp),%rcx
 45bee1d:	00 
 45bee1e:	48 83 bc 24 10 05 00 	cmpq   $0x3,0x510(%rsp)
 45bee25:	00 03 
 45bee27:	0f 85 98 03 00 00    	jne    45bf1c5 <github.com/lasselj/timebeat/beater/clocksync/clients/pps.(*Controller).ConfigureTimeSource@@Base+0x465>
 45bee2d:	66 81 39 70 70       	cmpw   $0x7070,(%rcx)
 45bee32:	0f 85 8d 03 00 00    	jne    45bf1c5 <github.com/lasselj/timebeat/beater/clocksync/clients/pps.(*Controller).ConfigureTimeSource@@Base+0x465>
 45bee38:	80 79 02 73          	cmpb   $0x73,0x2(%rcx)
 45bee3c:	0f 1f 40 00          	nopl   0x0(%rax)
 45bee40:	0f 85 7f 03 00 00    	jne    45bf1c5 <github.com/lasselj/timebeat/beater/clocksync/clients/pps.(*Controller).ConfigureTimeSource@@Base+0x465>
 45bee46:	48 89 84 24 b8 09 00 	mov    %rax,0x9b8(%rsp)
 45bee4d:	00 
 45bee4e:	48 83 bc 24 a8 05 00 	cmpq   $0xffffffffffffffff,0x5a8(%rsp)
 45bee55:	00 ff 
 45bee57:	0f 84 dd 02 00 00    	je     45bf13a <github.com/lasselj/timebeat/beater/clocksync/clients/pps.(*Controller).ConfigureTimeSource@@Base+0x3da>
 45bee5d:	48 83 bc 24 a0 05 00 	cmpq   $0xffffffffffffffff,0x5a0(%rsp)
 45bee64:	00 ff 
 45bee66:	0f 84 46 02 00 00    	je     45bf0b2 <github.com/lasselj/timebeat/beater/clocksync/clients/pps.(*Controller).ConfigureTimeSource@@Base+0x352>
 45bee6c:	e8 0f 35 fc ff       	call   4582380 <github.com/lasselj/timebeat/beater/clocksync/phc.GetInstance@@Base>
 45bee71:	48 8b 9c 24 80 05 00 	mov    0x580(%rsp),%rbx
 45bee78:	00 
 45bee79:	48 8b 8c 24 88 05 00 	mov    0x588(%rsp),%rcx
 45bee80:	00 
 45bee81:	e8 3a 3c fc ff       	call   4582ac0 <github.com/lasselj/timebeat/beater/clocksync/phc.(*PHCController).IsDeviceRegistered@@Base>
 45bee86:	84 c0                	test   %al,%al
 45bee88:	0f 84 97 01 00 00    	je     45bf025 <github.com/lasselj/timebeat/beater/clocksync/clients/pps.(*Controller).ConfigureTimeSource@@Base+0x2c5>
 45bee8e:	48 8d bc 24 b8 02 00 	lea    0x2b8(%rsp),%rdi
 45bee95:	00 
 45bee96:	48 8d b4 24 08 05 00 	lea    0x508(%rsp),%rsi
 45bee9d:	00 
 45bee9e:	66 90                	xchg   %ax,%ax
 45beea0:	48 89 6c 24 f0       	mov    %rbp,-0x10(%rsp)
 45beea5:	48 8d 6c 24 f0       	lea    -0x10(%rsp),%rbp
 45beeaa:	e8 cb 80 99 fd       	call   1f56f7a <runtime.duffcopy@@Base+0x17a>
 45beeaf:	48 8b 6d 00          	mov    0x0(%rbp),%rbp
 45beeb3:	44 0f 11 bc 24 98 02 	movups %xmm15,0x298(%rsp)
 45beeba:	00 00 
 45beebc:	44 0f 11 bc 24 a8 02 	movups %xmm15,0x2a8(%rsp)
 45beec3:	00 00 
 45beec5:	48 8b 84 24 30 03 00 	mov    0x330(%rsp),%rax
 45beecc:	00 
 45beecd:	48 8b 9c 24 38 03 00 	mov    0x338(%rsp),%rbx
 45beed4:	00 
 45beed5:	e8 86 ee 92 fd       	call   1eedd60 <runtime.convTstring@@Base>
 45beeda:	48 8d 0d bf f7 1e 01 	lea    0x11ef7bf(%rip),%rcx        # 57ae6a0 <type:string@@Base>
 45beee1:	48 89 8c 24 98 02 00 	mov    %rcx,0x298(%rsp)
 45beee8:	00 
 45beee9:	48 89 84 24 a0 02 00 	mov    %rax,0x2a0(%rsp)
 45beef0:	00 
 45beef1:	48 8b 84 24 50 03 00 	mov    0x350(%rsp),%rax
 45beef8:	00 
 45beef9:	e8 e2 ed 92 fd       	call   1eedce0 <runtime.convT64@@Base>
 45beefe:	48 8d 0d 5b b7 1e 01 	lea    0x11eb75b(%rip),%rcx        # 57aa660 <type:int@@Base>
 45bef05:	48 89 8c 24 a8 02 00 	mov    %rcx,0x2a8(%rsp)
 45bef0c:	00 
 45bef0d:	48 89 84 24 b0 02 00 	mov    %rax,0x2b0(%rsp)
 45bef14:	00 
 45bef15:	48 8d 05 98 52 67 00 	lea    0x675298(%rip),%rax        # 4c341b4 <_IO_stdin_used@@Base+0x11b4>
 45bef1c:	bb 04 00 00 00       	mov    $0x4,%ebx
 45bef21:	48 8d 8c 24 98 02 00 	lea    0x298(%rsp),%rcx
 45bef28:	00 
 45bef29:	bf 02 00 00 00       	mov    $0x2,%edi
 45bef2e:	48 89 fe             	mov    %rdi,%rsi
 45bef31:	e8 ca 59 a3 fd       	call   1ff4900 <fmt.Sprintf@@Base>
 45bef36:	48 89 84 24 60 02 00 	mov    %rax,0x260(%rsp)
 45bef3d:	00 
 45bef3e:	48 89 9c 24 58 02 00 	mov    %rbx,0x258(%rsp)
 45bef45:	00 
 45bef46:	48 89 84 24 78 02 00 	mov    %rax,0x278(%rsp)
 45bef4d:	00 
 45bef4e:	48 89 9c 24 80 02 00 	mov    %rbx,0x280(%rsp)
 45bef55:	00 
 45bef56:	48 8b 8c 24 b8 09 00 	mov    0x9b8(%rsp),%rcx
 45bef5d:	00 
 45bef5e:	48 8b 51 18          	mov    0x18(%rcx),%rdx
 45bef62:	48 89 d0             	mov    %rdx,%rax
 45bef65:	48 8d 1d 34 f7 1e 01 	lea    0x11ef734(%rip),%rbx        # 57ae6a0 <type:string@@Base>
 45bef6c:	48 8d 8c 24 78 02 00 	lea    0x278(%rsp),%rcx
 45bef73:	00 
 45bef74:	e8 a7 79 9b fd       	call   1f76920 <sync.(*Map).Load@@Base>
 45bef79:	0f 1f 80 00 00 00 00 	nopl   0x0(%rax)
 45bef80:	84 c9                	test   %cl,%cl
 45bef82:	0f 85 3d 02 00 00    	jne    45bf1c5 <github.com/lasselj/timebeat/beater/clocksync/clients/pps.(*Controller).ConfigureTimeSource@@Base+0x465>
 45bef88:	90                   	nop
 45bef89:	48 8b 8c 24 b8 09 00 	mov    0x9b8(%rsp),%rcx
 45bef90:	00 
 45bef91:	48 8b 01             	mov    (%rcx),%rax
 45bef94:	48 89 e7             	mov    %rsp,%rdi
 45bef97:	48 8d b4 24 08 05 00 	lea    0x508(%rsp),%rsi
 45bef9e:	00 
 45bef9f:	90                   	nop
 45befa0:	48 89 6c 24 f0       	mov    %rbp,-0x10(%rsp)
 45befa5:	48 8d 6c 24 f0       	lea    -0x10(%rsp),%rbp
 45befaa:	e8 cb 7f 99 fd       	call   1f56f7a <runtime.duffcopy@@Base+0x17a>
 45befaf:	48 8b 6d 00          	mov    0x0(%rbp),%rbp
 45befb3:	e8 68 df ff ff       	call   45bcf20 <github.com/lasselj/timebeat/beater/clocksync/clients/pps/client.NewClient@@Base>
 45befb8:	48 89 84 24 68 02 00 	mov    %rax,0x268(%rsp)
 45befbf:	00 
 45befc0:	48 8b 8c 24 b8 09 00 	mov    0x9b8(%rsp),%rcx
 45befc7:	00 
 45befc8:	48 8b 49 18          	mov    0x18(%rcx),%rcx
 45befcc:	48 89 8c 24 70 02 00 	mov    %rcx,0x270(%rsp)
 45befd3:	00 
 45befd4:	48 8b 9c 24 58 02 00 	mov    0x258(%rsp),%rbx
 45befdb:	00 
 45befdc:	48 8b 84 24 60 02 00 	mov    0x260(%rsp),%rax
 45befe3:	00 
 45befe4:	e8 77 ed 92 fd       	call   1eedd60 <runtime.convTstring@@Base>
 45befe9:	48 8d 1d b0 f6 1e 01 	lea    0x11ef6b0(%rip),%rbx        # 57ae6a0 <type:string@@Base>
 45beff0:	48 89 c1             	mov    %rax,%rcx
 45beff3:	48 8d 3d a6 7d 70 01 	lea    0x1707da6(%rip),%rdi        # 5cc6da0 <type:gU0wjPqB@@Base>
 45beffa:	48 8b b4 24 68 02 00 	mov    0x268(%rsp),%rsi
 45bf001:	00 
 45bf002:	48 8b 84 24 70 02 00 	mov    0x270(%rsp),%rax
 45bf009:	00 
 45bf00a:	e8 51 86 9b fd       	call   1f77660 <sync.(*Map).Swap@@Base>
 45bf00f:	48 8b 84 24 68 02 00 	mov    0x268(%rsp),%rax
 45bf016:	00 
 45bf017:	e8 84 e4 ff ff       	call   45bd4a0 <github.com/lasselj/timebeat/beater/clocksync/clients/pps/client.(*Client).Start@@Base>
 45bf01c:	0f 1f 40 00          	nopl   0x0(%rax)
 45bf020:	e9 a0 01 00 00       	jmp    45bf1c5 <github.com/lasselj/timebeat/beater/clocksync/clients/pps.(*Controller).ConfigureTimeSource@@Base+0x465>
 45bf025:	44 0f 11 bc 24 88 02 	movups %xmm15,0x288(%rsp)
 45bf02c:	00 00 
 45bf02e:	48 8b 84 24 80 05 00 	mov    0x580(%rsp),%rax
 45bf035:	00 
 45bf036:	48 8b 9c 24 88 05 00 	mov    0x588(%rsp),%rbx
 45bf03d:	00 
 45bf03e:	66 90                	xchg   %ax,%ax
 45bf040:	e8 1b ed 92 fd       	call   1eedd60 <runtime.convTstring@@Base>
 45bf045:	48 8d 0d 54 f6 1e 01 	lea    0x11ef654(%rip),%rcx        # 57ae6a0 <type:string@@Base>
 45bf04c:	48 89 8c 24 88 02 00 	mov    %rcx,0x288(%rsp)
 45bf053:	00 
 45bf054:	48 89 84 24 90 02 00 	mov    %rax,0x290(%rsp)
 45bf05b:	00 
 45bf05c:	48 8d 05 3a 69 8b 00 	lea    0x8b693a(%rip),%rax        # 4e7599d <_IO_stdin_used@@Base+0x24299d>
 45bf063:	bb 49 00 00 00       	mov    $0x49,%ebx
 45bf068:	48 8d 8c 24 88 02 00 	lea    0x288(%rsp),%rcx
 45bf06f:	00 
 45bf070:	bf 01 00 00 00       	mov    $0x1,%edi
 45bf075:	48 89 fe             	mov    %rdi,%rsi
 45bf078:	e8 83 58 a3 fd       	call   1ff4900 <fmt.Sprintf@@Base>
 45bf07d:	48 8b 8c 24 b8 09 00 	mov    0x9b8(%rsp),%rcx
 45bf084:	00 
 45bf085:	48 8b 49 10          	mov    0x10(%rcx),%rcx
 45bf089:	48 89 c2             	mov    %rax,%rdx
 45bf08c:	48 89 c8             	mov    %rcx,%rax
 45bf08f:	48 89 de             	mov    %rbx,%rsi
 45bf092:	48 89 d3             	mov    %rdx,%rbx
 45bf095:	48 89 f1             	mov    %rsi,%rcx
 45bf098:	e8 c3 7f e4 ff       	call   4407060 <github.com/lasselj/timebeat/beater/logging.(*Logger).Error@@Base>
 45bf09d:	b8 01 00 00 00       	mov    $0x1,%eax
 45bf0a2:	48 8b ac 24 a8 09 00 	mov    0x9a8(%rsp),%rbp
 45bf0a9:	00 
 45bf0aa:	48 81 c4 b0 09 00 00 	add    $0x9b0,%rsp
 45bf0b1:	c3                   	ret
 45bf0b2:	44 0f 11 bc 24 88 02 	movups %xmm15,0x288(%rsp)
 45bf0b9:	00 00 
 45bf0bb:	48 8b 84 24 a0 05 00 	mov    0x5a0(%rsp),%rax
 45bf0c2:	00 
 45bf0c3:	e8 18 ec 92 fd       	call   1eedce0 <runtime.convT64@@Base>
 45bf0c8:	48 8d 0d 91 b5 1e 01 	lea    0x11eb591(%rip),%rcx        # 57aa660 <type:int@@Base>
 45bf0cf:	48 89 8c 24 88 02 00 	mov    %rcx,0x288(%rsp)
 45bf0d6:	00 
 45bf0d7:	48 89 84 24 90 02 00 	mov    %rax,0x290(%rsp)
 45bf0de:	00 
 45bf0df:	48 8d 05 2d 7e 8b 00 	lea    0x8b7e2d(%rip),%rax        # 4e76f13 <_IO_stdin_used@@Base+0x243f13>
 45bf0e6:	bb 4a 00 00 00       	mov    $0x4a,%ebx
 45bf0eb:	48 8d 8c 24 88 02 00 	lea    0x288(%rsp),%rcx
 45bf0f2:	00 
 45bf0f3:	bf 01 00 00 00       	mov    $0x1,%edi
 45bf0f8:	48 89 fe             	mov    %rdi,%rsi
 45bf0fb:	0f 1f 44 00 00       	nopl   0x0(%rax,%rax,1)
 45bf100:	e8 fb 57 a3 fd       	call   1ff4900 <fmt.Sprintf@@Base>
 45bf105:	48 8b 8c 24 b8 09 00 	mov    0x9b8(%rsp),%rcx
 45bf10c:	00 
 45bf10d:	48 8b 49 10          	mov    0x10(%rcx),%rcx
 45bf111:	48 89 c2             	mov    %rax,%rdx
 45bf114:	48 89 c8             	mov    %rcx,%rax
 45bf117:	48 89 de             	mov    %rbx,%rsi
 45bf11a:	48 89 d3             	mov    %rdx,%rbx
 45bf11d:	48 89 f1             	mov    %rsi,%rcx
 45bf120:	e8 3b 7f e4 ff       	call   4407060 <github.com/lasselj/timebeat/beater/logging.(*Logger).Error@@Base>
 45bf125:	b8 01 00 00 00       	mov    $0x1,%eax
 45bf12a:	48 8b ac 24 a8 09 00 	mov    0x9a8(%rsp),%rbp
 45bf131:	00 
 45bf132:	48 81 c4 b0 09 00 00 	add    $0x9b0,%rsp
 45bf139:	c3                   	ret
 45bf13a:	44 0f 11 bc 24 88 02 	movups %xmm15,0x288(%rsp)
 45bf141:	00 00 
 45bf143:	48 8b 84 24 80 05 00 	mov    0x580(%rsp),%rax
 45bf14a:	00 
 45bf14b:	48 8b 9c 24 88 05 00 	mov    0x588(%rsp),%rbx
 45bf152:	00 
 45bf153:	e8 08 ec 92 fd       	call   1eedd60 <runtime.convTstring@@Base>
 45bf158:	48 8d 0d 41 f5 1e 01 	lea    0x11ef541(%rip),%rcx        # 57ae6a0 <type:string@@Base>
 45bf15f:	48 89 8c 24 88 02 00 	mov    %rcx,0x288(%rsp)
 45bf166:	00 
 45bf167:	48 89 84 24 90 02 00 	mov    %rax,0x290(%rsp)
 45bf16e:	00 
 45bf16f:	48 8d 05 af 54 8b 00 	lea    0x8b54af(%rip),%rax        # 4e74625 <_IO_stdin_used@@Base+0x241625>
 45bf176:	bb 48 00 00 00       	mov    $0x48,%ebx
 45bf17b:	48 8d 8c 24 88 02 00 	lea    0x288(%rsp),%rcx
 45bf182:	00 
 45bf183:	bf 01 00 00 00       	mov    $0x1,%edi
 45bf188:	48 89 fe             	mov    %rdi,%rsi
 45bf18b:	e8 70 57 a3 fd       	call   1ff4900 <fmt.Sprintf@@Base>
 45bf190:	48 8b 8c 24 b8 09 00 	mov    0x9b8(%rsp),%rcx
 45bf197:	00 
 45bf198:	48 8b 49 10          	mov    0x10(%rcx),%rcx
 45bf19c:	48 89 c2             	mov    %rax,%rdx
 45bf19f:	48 89 c8             	mov    %rcx,%rax
 45bf1a2:	48 89 de             	mov    %rbx,%rsi
 45bf1a5:	48 89 d3             	mov    %rdx,%rbx
 45bf1a8:	48 89 f1             	mov    %rsi,%rcx
 45bf1ab:	e8 b0 7e e4 ff       	call   4407060 <github.com/lasselj/timebeat/beater/logging.(*Logger).Error@@Base>
 45bf1b0:	b8 01 00 00 00       	mov    $0x1,%eax
 45bf1b5:	48 8b ac 24 a8 09 00 	mov    0x9a8(%rsp),%rbp
 45bf1bc:	00 
 45bf1bd:	48 81 c4 b0 09 00 00 	add    $0x9b0,%rsp
 45bf1c4:	c3                   	ret
 45bf1c5:	b8 01 00 00 00       	mov    $0x1,%eax
 45bf1ca:	48 8b ac 24 a8 09 00 	mov    0x9a8(%rsp),%rbp
 45bf1d1:	00 
 45bf1d2:	48 81 c4 b0 09 00 00 	add    $0x9b0,%rsp
 45bf1d9:	c3                   	ret
 45bf1da:	48 89 c8             	mov    %rcx,%rax
 45bf1dd:	48 8d 0d 5c 51 2f 01 	lea    0x12f515c(%rip),%rcx        # 58b4340 <type:tpDRQG8O@@Base>
 45bf1e4:	e8 b7 e6 92 fd       	call   1eed8a0 <runtime.panicdottypeE@@Base>
 45bf1e9:	90                   	nop
 45bf1ea:	48 89 44 24 08       	mov    %rax,0x8(%rsp)
 45bf1ef:	48 89 5c 24 10       	mov    %rbx,0x10(%rsp)
 45bf1f4:	48 89 4c 24 18       	mov    %rcx,0x18(%rsp)
 45bf1f9:	48 89 7c 24 20       	mov    %rdi,0x20(%rsp)
 45bf1fe:	48 89 74 24 28       	mov    %rsi,0x28(%rsp)
 45bf203:	e8 58 52 99 fd       	call   1f54460 <runtime.morestack_noctxt.abi0@@Base>
 45bf208:	48 8b 44 24 08       	mov    0x8(%rsp),%rax
 45bf20d:	48 8b 5c 24 10       	mov    0x10(%rsp),%rbx
 45bf212:	48 8b 4c 24 18       	mov    0x18(%rsp),%rcx
 45bf217:	48 8b 7c 24 20       	mov    0x20(%rsp),%rdi
 45bf21c:	48 8b 74 24 28       	mov    0x28(%rsp),%rsi
 45bf221:	e9 3a fb ff ff       	jmp    45bed60 <github.com/lasselj/timebeat/beater/clocksync/clients/pps.(*Controller).ConfigureTimeSource@@Base>
 45bf226:	cc                   	int3
 45bf227:	cc                   	int3
 45bf228:	cc                   	int3
 45bf229:	cc                   	int3
 45bf22a:	cc                   	int3
 45bf22b:	cc                   	int3
 45bf22c:	cc                   	int3
 45bf22d:	cc                   	int3
 45bf22e:	cc                   	int3
 45bf22f:	cc                   	int3
 45bf230:	cc                   	int3
 45bf231:	cc                   	int3
 45bf232:	cc                   	int3
 45bf233:	cc                   	int3
 45bf234:	cc                   	int3
 45bf235:	cc                   	int3
 45bf236:	cc                   	int3
 45bf237:	cc                   	int3
 45bf238:	cc                   	int3
 45bf239:	cc                   	int3
 45bf23a:	cc                   	int3
 45bf23b:	cc                   	int3
 45bf23c:	cc                   	int3
 45bf23d:	cc                   	int3
 45bf23e:	cc                   	int3
 45bf23f:	cc                   	int3
