# github.com/lasselj/timebeat/beater/clocksync/clients/ptp/common.(*CMsgParser).ParsetIPPktInfo
# addr 0x459bae0 size 1376 (0x560)


/mnt/c/Users/SHIWA/GitHub/TimeCard-Mini/timebeat-extracted/usr/share/timebeat/bin/timebeat:     file format elf64-x86-64


Disassembly of section .text:

000000000459bae0 <github.com/lasselj/timebeat/beater/clocksync/clients/ptp/common.(*CMsgParser).ParsetIPPktInfo@@Base>:
 459bae0:	4c 8d 64 24 d8       	lea    -0x28(%rsp),%r12
 459bae5:	4d 3b 66 10          	cmp    0x10(%r14),%r12
 459bae9:	0f 86 fb 04 00 00    	jbe    459bfea <github.com/lasselj/timebeat/beater/clocksync/clients/ptp/common.(*CMsgParser).ParsetIPPktInfo@@Base+0x50a>
 459baef:	48 81 ec a8 00 00 00 	sub    $0xa8,%rsp
 459baf6:	48 89 ac 24 a0 00 00 	mov    %rbp,0xa0(%rsp)
 459bafd:	00 
 459bafe:	48 8d ac 24 a0 00 00 	lea    0xa0(%rsp),%rbp
 459bb05:	00 
 459bb06:	48 89 84 24 b0 00 00 	mov    %rax,0xb0(%rsp)
 459bb0d:	00 
 459bb0e:	48 89 9c 24 b8 00 00 	mov    %rbx,0xb8(%rsp)
 459bb15:	00 
 459bb16:	89 8c 24 c0 00 00 00 	mov    %ecx,0xc0(%rsp)
 459bb1d:	89 bc 24 c4 00 00 00 	mov    %edi,0xc4(%rsp)
 459bb24:	48 89 b4 24 c8 00 00 	mov    %rsi,0xc8(%rsp)
 459bb2b:	00 
 459bb2c:	4c 89 84 24 d0 00 00 	mov    %r8,0xd0(%rsp)
 459bb33:	00 
 459bb34:	4c 89 8c 24 d8 00 00 	mov    %r9,0xd8(%rsp)
 459bb3b:	00 
 459bb3c:	48 8d 05 1d 40 61 01 	lea    0x161401d(%rip),%rax        # 5bafb60 <type:al8olTGl@@Base>
 459bb43:	e8 98 49 95 fd       	call   1ef04e0 <runtime.newobject@@Base>
 459bb48:	48 89 84 24 80 00 00 	mov    %rax,0x80(%rsp)
 459bb4f:	00 
 459bb50:	48 8b 8c 24 c8 00 00 	mov    0xc8(%rsp),%rcx
 459bb57:	00 
 459bb58:	48 89 4c 24 70       	mov    %rcx,0x70(%rsp)
 459bb5d:	48 8b 94 24 d0 00 00 	mov    0xd0(%rsp),%rdx
 459bb64:	00 
 459bb65:	48 89 54 24 38       	mov    %rdx,0x38(%rsp)
 459bb6a:	48 8b 9c 24 d8 00 00 	mov    0xd8(%rsp),%rbx
 459bb71:	00 
 459bb72:	48 89 5c 24 40       	mov    %rbx,0x40(%rsp)
 459bb77:	48 8d 05 62 13 5f 01 	lea    0x15f1362(%rip),%rax        # 5b8cee0 <type:qfCPvgog@@Base>
 459bb7e:	66 90                	xchg   %ax,%ax
 459bb80:	e8 5b 49 95 fd       	call   1ef04e0 <runtime.newobject@@Base>
 459bb85:	48 8b 4c 24 38       	mov    0x38(%rsp),%rcx
 459bb8a:	48 89 48 08          	mov    %rcx,0x8(%rax)
 459bb8e:	48 8b 4c 24 40       	mov    0x40(%rsp),%rcx
 459bb93:	48 89 48 10          	mov    %rcx,0x10(%rax)
 459bb97:	83 3d c2 fd 8d 03 00 	cmpl   $0x0,0x38dfdc2(%rip)        # 7e7b960 <runtime.writeBarrier@@Base>
 459bb9e:	66 90                	xchg   %ax,%ax
 459bba0:	75 0a                	jne    459bbac <github.com/lasselj/timebeat/beater/clocksync/clients/ptp/common.(*CMsgParser).ParsetIPPktInfo@@Base+0xcc>
 459bba2:	48 8b 54 24 70       	mov    0x70(%rsp),%rdx
 459bba7:	48 89 10             	mov    %rdx,(%rax)
 459bbaa:	eb 0d                	jmp    459bbb9 <github.com/lasselj/timebeat/beater/clocksync/clients/ptp/common.(*CMsgParser).ParsetIPPktInfo@@Base+0xd9>
 459bbac:	48 89 c7             	mov    %rax,%rdi
 459bbaf:	48 8b 54 24 70       	mov    0x70(%rsp),%rdx
 459bbb4:	e8 67 ab 9b fd       	call   1f56720 <runtime.gcWriteBarrierDX@@Base>
 459bbb9:	48 c7 40 18 00 00 00 	movq   $0x0,0x18(%rax)
 459bbc0:	00 
 459bbc1:	48 c7 40 20 ff ff ff 	movq   $0xffffffffffffffff,0x20(%rax)
 459bbc8:	ff 
 459bbc9:	48 89 c3             	mov    %rax,%rbx
 459bbcc:	48 8d 0d 1d 83 9a 01 	lea    0x19a831d(%rip),%rcx        # 5f43ef0 <go:itab.encoding/binary.littleEndian,encoding/binary.ByteOrder@@Base>
 459bbd3:	48 8d 3d 96 f4 8d 03 	lea    0x38df496(%rip),%rdi        # 7e7b070 <runtime.zerobase@@Base>
 459bbda:	48 8d 35 df 59 15 01 	lea    0x11559df(%rip),%rsi        # 56f15c0 <type:Z2yYGKc+@@Base>
 459bbe1:	4c 8b 84 24 80 00 00 	mov    0x80(%rsp),%r8
 459bbe8:	00 
 459bbe9:	48 8d 05 10 1e 96 01 	lea    0x1961e10(%rip),%rax        # 5efda00 <go:itab.*bytes.Reader,io.Reader@@Base>
 459bbf0:	e8 cb 73 ad fd       	call   2072fc0 <encoding/binary.Read@@Base>
 459bbf5:	48 85 c0             	test   %rax,%rax
 459bbf8:	0f 85 b8 03 00 00    	jne    459bfb6 <github.com/lasselj/timebeat/beater/clocksync/clients/ptp/common.(*CMsgParser).ParsetIPPktInfo@@Base+0x4d6>
 459bbfe:	48 8b 94 24 80 00 00 	mov    0x80(%rsp),%rdx
 459bc05:	00 
 459bc06:	83 3a 00             	cmpl   $0x0,(%rdx)
 459bc09:	0f 84 c3 03 00 00    	je     459bfd2 <github.com/lasselj/timebeat/beater/clocksync/clients/ptp/common.(*CMsgParser).ParsetIPPktInfo@@Base+0x4f2>
 459bc0f:	be 01 00 00 00       	mov    $0x1,%esi
 459bc14:	48 8b 84 24 b0 00 00 	mov    0xb0(%rsp),%rax
 459bc1b:	00 
 459bc1c:	f0 0f c1 70 20       	lock xadd %esi,0x20(%rax)
 459bc21:	ff c6                	inc    %esi
 459bc23:	85 f6                	test   %esi,%esi
 459bc25:	7d 20                	jge    459bc47 <github.com/lasselj/timebeat/beater/clocksync/clients/ptp/common.(*CMsgParser).ParsetIPPktInfo@@Base+0x167>
 459bc27:	48 8d 50 1c          	lea    0x1c(%rax),%rdx
 459bc2b:	31 db                	xor    %ebx,%ebx
 459bc2d:	31 c9                	xor    %ecx,%ecx
 459bc2f:	48 89 d0             	mov    %rdx,%rax
 459bc32:	e8 a9 66 9b fd       	call   1f522e0 <sync.runtime_SemacquireRWMutexR@@Base>
 459bc37:	48 8b 84 24 b0 00 00 	mov    0xb0(%rsp),%rax
 459bc3e:	00 
 459bc3f:	48 8b 94 24 80 00 00 	mov    0x80(%rsp),%rdx
 459bc46:	00 
 459bc47:	48 8b 58 08          	mov    0x8(%rax),%rbx
 459bc4b:	8b 0a                	mov    (%rdx),%ecx
 459bc4d:	48 8d 05 0c 80 3a 01 	lea    0x13a800c(%rip),%rax        # 5943c60 <type:ai+8epy3@@Base>
 459bc54:	e8 67 7f 95 fd       	call   1ef3bc0 <runtime.mapaccess2_fast32@@Base>
 459bc59:	48 8b 10             	mov    (%rax),%rdx
 459bc5c:	90                   	nop
 459bc5d:	be ff ff ff ff       	mov    $0xffffffff,%esi
 459bc62:	48 8b 84 24 b0 00 00 	mov    0xb0(%rsp),%rax
 459bc69:	00 
 459bc6a:	f0 0f c1 70 20       	lock xadd %esi,0x20(%rax)
 459bc6f:	48 8d 78 10          	lea    0x10(%rax),%rdi
 459bc73:	48 89 7c 24 48       	mov    %rdi,0x48(%rsp)
 459bc78:	ff ce                	dec    %esi
 459bc7a:	85 f6                	test   %esi,%esi
 459bc7c:	7d 2a                	jge    459bca8 <github.com/lasselj/timebeat/beater/clocksync/clients/ptp/common.(*CMsgParser).ParsetIPPktInfo@@Base+0x1c8>
 459bc7e:	88 5c 24 33          	mov    %bl,0x33(%rsp)
 459bc82:	48 89 54 24 60       	mov    %rdx,0x60(%rsp)
 459bc87:	48 89 f8             	mov    %rdi,%rax
 459bc8a:	89 f3                	mov    %esi,%ebx
 459bc8c:	e8 cf df 9d fd       	call   1f79c60 <sync.(*RWMutex).rUnlockSlow@@Base>
 459bc91:	48 8b 84 24 b0 00 00 	mov    0xb0(%rsp),%rax
 459bc98:	00 
 459bc99:	48 8b 54 24 60       	mov    0x60(%rsp),%rdx
 459bc9e:	0f b6 5c 24 33       	movzbl 0x33(%rsp),%ebx
 459bca3:	48 8b 7c 24 48       	mov    0x48(%rsp),%rdi
 459bca8:	84 db                	test   %bl,%bl
 459bcaa:	0f 85 e1 02 00 00    	jne    459bf91 <github.com/lasselj/timebeat/beater/clocksync/clients/ptp/common.(*CMsgParser).ParsetIPPktInfo@@Base+0x4b1>
 459bcb0:	48 8b 8c 24 80 00 00 	mov    0x80(%rsp),%rcx
 459bcb7:	00 
 459bcb8:	48 63 01             	movslq (%rcx),%rax
 459bcbb:	0f 1f 44 00 00       	nopl   0x0(%rax,%rax,1)
 459bcc0:	e8 3b 43 aa fd       	call   2040000 <net.InterfaceByIndex@@Base>
 459bcc5:	48 85 db             	test   %rbx,%rbx
 459bcc8:	0f 85 04 03 00 00    	jne    459bfd2 <github.com/lasselj/timebeat/beater/clocksync/clients/ptp/common.(*CMsgParser).ParsetIPPktInfo@@Base+0x4f2>
 459bcce:	48 89 44 24 68       	mov    %rax,0x68(%rsp)
 459bcd3:	90                   	nop
 459bcd4:	48 8d 05 23 75 69 00 	lea    0x697523(%rip),%rax        # 4c331fe <_IO_stdin_used@@Base+0x1fe>
 459bcdb:	bb 02 00 00 00       	mov    $0x2,%ebx
 459bce0:	e8 bb b0 e6 ff       	call   4406da0 <github.com/lasselj/timebeat/beater/logging.NewLogger@@Base>
 459bce5:	44 0f 11 bc 24 88 00 	movups %xmm15,0x88(%rsp)
 459bcec:	00 00 
 459bcee:	c6 84 24 98 00 00 00 	movb   $0x0,0x98(%rsp)
 459bcf5:	00 
 459bcf6:	48 c7 84 24 88 00 00 	movq   $0x0,0x88(%rsp)
 459bcfd:	00 00 00 00 00 
 459bd02:	48 89 84 24 90 00 00 	mov    %rax,0x90(%rsp)
 459bd09:	00 
 459bd0a:	c6 84 24 98 00 00 00 	movb   $0x0,0x98(%rsp)
 459bd11:	00 
 459bd12:	48 8b 4c 24 68       	mov    0x68(%rsp),%rcx
 459bd17:	48 8b 59 10          	mov    0x10(%rcx),%rbx
 459bd1b:	48 8b 51 18          	mov    0x18(%rcx),%rdx
 459bd1f:	48 8d 84 24 88 00 00 	lea    0x88(%rsp),%rax
 459bd26:	00 
 459bd27:	48 89 d1             	mov    %rdx,%rcx
 459bd2a:	e8 f1 dd fe ff       	call   4589b20 <github.com/lasselj/timebeat/beater/clocksync/phc.(*NL).GetDeviceTypeAndParentIfIndex@@Base>
 459bd2f:	89 4c 24 34          	mov    %ecx,0x34(%rsp)
 459bd33:	48 83 fb 04          	cmp    $0x4,%rbx
 459bd37:	75 10                	jne    459bd49 <github.com/lasselj/timebeat/beater/clocksync/clients/ptp/common.(*CMsgParser).ParsetIPPktInfo@@Base+0x269>
 459bd39:	81 38 76 6c 61 6e    	cmpl   $0x6e616c76,(%rax)
 459bd3f:	90                   	nop
 459bd40:	75 07                	jne    459bd49 <github.com/lasselj/timebeat/beater/clocksync/clients/ptp/common.(*CMsgParser).ParsetIPPktInfo@@Base+0x269>
 459bd42:	b8 01 00 00 00       	mov    $0x1,%eax
 459bd47:	eb 02                	jmp    459bd4b <github.com/lasselj/timebeat/beater/clocksync/clients/ptp/common.(*CMsgParser).ParsetIPPktInfo@@Base+0x26b>
 459bd49:	31 c0                	xor    %eax,%eax
 459bd4b:	88 44 24 31          	mov    %al,0x31(%rsp)
 459bd4f:	48 8b 44 24 48       	mov    0x48(%rsp),%rax
 459bd54:	e8 a7 df 9d fd       	call   1f79d00 <sync.(*RWMutex).Lock@@Base>
 459bd59:	48 8d 05 00 5e 57 01 	lea    0x1575e00(%rip),%rax        # 5b11b60 <type:Z86AQP0d@@Base>
 459bd60:	e8 7b 47 95 fd       	call   1ef04e0 <runtime.newobject@@Base>
 459bd65:	48 8b 4c 24 68       	mov    0x68(%rsp),%rcx
 459bd6a:	48 8b 51 10          	mov    0x10(%rcx),%rdx
 459bd6e:	48 8b 59 18          	mov    0x18(%rcx),%rbx
 459bd72:	48 89 58 08          	mov    %rbx,0x8(%rax)
 459bd76:	83 3d e3 fb 8d 03 00 	cmpl   $0x0,0x38dfbe3(%rip)        # 7e7b960 <runtime.writeBarrier@@Base>
 459bd7d:	75 05                	jne    459bd84 <github.com/lasselj/timebeat/beater/clocksync/clients/ptp/common.(*CMsgParser).ParsetIPPktInfo@@Base+0x2a4>
 459bd7f:	48 89 10             	mov    %rdx,(%rax)
 459bd82:	eb 08                	jmp    459bd8c <github.com/lasselj/timebeat/beater/clocksync/clients/ptp/common.(*CMsgParser).ParsetIPPktInfo@@Base+0x2ac>
 459bd84:	48 89 c7             	mov    %rax,%rdi
 459bd87:	e8 94 a9 9b fd       	call   1f56720 <runtime.gcWriteBarrierDX@@Base>
 459bd8c:	48 89 44 24 78       	mov    %rax,0x78(%rsp)
 459bd91:	0f b6 54 24 31       	movzbl 0x31(%rsp),%edx
 459bd96:	88 50 10             	mov    %dl,0x10(%rax)
 459bd99:	48 8b b4 24 b0 00 00 	mov    0xb0(%rsp),%rsi
 459bda0:	00 
 459bda1:	48 8b 5e 08          	mov    0x8(%rsi),%rbx
 459bda5:	48 8b bc 24 80 00 00 	mov    0x80(%rsp),%rdi
 459bdac:	00 
 459bdad:	8b 0f                	mov    (%rdi),%ecx
 459bdaf:	48 8d 05 aa 7e 3a 01 	lea    0x13a7eaa(%rip),%rax        # 5943c60 <type:ai+8epy3@@Base>
 459bdb6:	e8 a5 7f 95 fd       	call   1ef3d60 <runtime.mapassign_fast32@@Base>
 459bdbb:	84 00                	test   %al,(%rax)
 459bdbd:	83 3d 9c fb 8d 03 00 	cmpl   $0x0,0x38dfb9c(%rip)        # 7e7b960 <runtime.writeBarrier@@Base>
 459bdc4:	75 0a                	jne    459bdd0 <github.com/lasselj/timebeat/beater/clocksync/clients/ptp/common.(*CMsgParser).ParsetIPPktInfo@@Base+0x2f0>
 459bdc6:	48 8b 4c 24 78       	mov    0x78(%rsp),%rcx
 459bdcb:	48 89 08             	mov    %rcx,(%rax)
 459bdce:	eb 0d                	jmp    459bddd <github.com/lasselj/timebeat/beater/clocksync/clients/ptp/common.(*CMsgParser).ParsetIPPktInfo@@Base+0x2fd>
 459bdd0:	48 89 c7             	mov    %rax,%rdi
 459bdd3:	48 8b 4c 24 78       	mov    0x78(%rsp),%rcx
 459bdd8:	e8 23 a9 9b fd       	call   1f56700 <runtime.gcWriteBarrierCX@@Base>
 459bddd:	48 8b 44 24 48       	mov    0x48(%rsp),%rax
 459bde2:	e8 99 e0 9d fd       	call   1f79e80 <sync.(*RWMutex).Unlock@@Base>
 459bde7:	0f b6 7c 24 31       	movzbl 0x31(%rsp),%edi
 459bdec:	40 84 ff             	test   %dil,%dil
 459bdef:	0f 84 75 01 00 00    	je     459bf6a <github.com/lasselj/timebeat/beater/clocksync/clients/ptp/common.(*CMsgParser).ParsetIPPktInfo@@Base+0x48a>
 459bdf5:	8b 4c 24 34          	mov    0x34(%rsp),%ecx
 459bdf9:	0f 1f 80 00 00 00 00 	nopl   0x0(%rax)
 459be00:	85 c9                	test   %ecx,%ecx
 459be02:	0f 84 62 01 00 00    	je     459bf6a <github.com/lasselj/timebeat/beater/clocksync/clients/ptp/common.(*CMsgParser).ParsetIPPktInfo@@Base+0x48a>
 459be08:	90                   	nop
 459be09:	ba 01 00 00 00       	mov    $0x1,%edx
 459be0e:	48 8b 84 24 b0 00 00 	mov    0xb0(%rsp),%rax
 459be15:	00 
 459be16:	f0 0f c1 50 20       	lock xadd %edx,0x20(%rax)
 459be1b:	ff c2                	inc    %edx
 459be1d:	0f 1f 00             	nopl   (%rax)
 459be20:	85 d2                	test   %edx,%edx
 459be22:	7d 1c                	jge    459be40 <github.com/lasselj/timebeat/beater/clocksync/clients/ptp/common.(*CMsgParser).ParsetIPPktInfo@@Base+0x360>
 459be24:	48 8d 50 1c          	lea    0x1c(%rax),%rdx
 459be28:	31 db                	xor    %ebx,%ebx
 459be2a:	31 c9                	xor    %ecx,%ecx
 459be2c:	48 89 d0             	mov    %rdx,%rax
 459be2f:	e8 ac 64 9b fd       	call   1f522e0 <sync.runtime_SemacquireRWMutexR@@Base>
 459be34:	48 8b 84 24 b0 00 00 	mov    0xb0(%rsp),%rax
 459be3b:	00 
 459be3c:	8b 4c 24 34          	mov    0x34(%rsp),%ecx
 459be40:	48 8b 58 08          	mov    0x8(%rax),%rbx
 459be44:	48 8d 05 15 7e 3a 01 	lea    0x13a7e15(%rip),%rax        # 5943c60 <type:ai+8epy3@@Base>
 459be4b:	e8 70 7d 95 fd       	call   1ef3bc0 <runtime.mapaccess2_fast32@@Base>
 459be50:	48 8b 10             	mov    (%rax),%rdx
 459be53:	90                   	nop
 459be54:	be ff ff ff ff       	mov    $0xffffffff,%esi
 459be59:	48 8b bc 24 b0 00 00 	mov    0xb0(%rsp),%rdi
 459be60:	00 
 459be61:	f0 0f c1 77 20       	lock xadd %esi,0x20(%rdi)
 459be66:	ff ce                	dec    %esi
 459be68:	85 f6                	test   %esi,%esi
 459be6a:	7d 2b                	jge    459be97 <github.com/lasselj/timebeat/beater/clocksync/clients/ptp/common.(*CMsgParser).ParsetIPPktInfo@@Base+0x3b7>
 459be6c:	88 5c 24 32          	mov    %bl,0x32(%rsp)
 459be70:	48 89 54 24 50       	mov    %rdx,0x50(%rsp)
 459be75:	48 8b 44 24 48       	mov    0x48(%rsp),%rax
 459be7a:	89 f3                	mov    %esi,%ebx
 459be7c:	0f 1f 40 00          	nopl   0x0(%rax)
 459be80:	e8 db dd 9d fd       	call   1f79c60 <sync.(*RWMutex).rUnlockSlow@@Base>
 459be85:	48 8b 54 24 50       	mov    0x50(%rsp),%rdx
 459be8a:	0f b6 5c 24 32       	movzbl 0x32(%rsp),%ebx
 459be8f:	48 8b bc 24 b0 00 00 	mov    0xb0(%rsp),%rdi
 459be96:	00 
 459be97:	84 db                	test   %bl,%bl
 459be99:	74 0a                	je     459bea5 <github.com/lasselj/timebeat/beater/clocksync/clients/ptp/common.(*CMsgParser).ParsetIPPktInfo@@Base+0x3c5>
 459be9b:	c6 42 10 01          	movb   $0x1,0x10(%rdx)
 459be9f:	90                   	nop
 459bea0:	e9 c0 00 00 00       	jmp    459bf65 <github.com/lasselj/timebeat/beater/clocksync/clients/ptp/common.(*CMsgParser).ParsetIPPktInfo@@Base+0x485>
 459bea5:	48 8b 8c 24 80 00 00 	mov    0x80(%rsp),%rcx
 459beac:	00 
 459bead:	48 63 01             	movslq (%rcx),%rax
 459beb0:	e8 4b 41 aa fd       	call   2040000 <net.InterfaceByIndex@@Base>
 459beb5:	48 85 db             	test   %rbx,%rbx
 459beb8:	0f 85 a7 00 00 00    	jne    459bf65 <github.com/lasselj/timebeat/beater/clocksync/clients/ptp/common.(*CMsgParser).ParsetIPPktInfo@@Base+0x485>
 459bebe:	48 89 44 24 58       	mov    %rax,0x58(%rsp)
 459bec3:	48 8b 44 24 48       	mov    0x48(%rsp),%rax
 459bec8:	e8 33 de 9d fd       	call   1f79d00 <sync.(*RWMutex).Lock@@Base>
 459becd:	48 8d 05 8c 5c 57 01 	lea    0x1575c8c(%rip),%rax        # 5b11b60 <type:Z86AQP0d@@Base>
 459bed4:	e8 07 46 95 fd       	call   1ef04e0 <runtime.newobject@@Base>
 459bed9:	48 8b 4c 24 58       	mov    0x58(%rsp),%rcx
 459bede:	48 8b 51 10          	mov    0x10(%rcx),%rdx
 459bee2:	48 8b 49 18          	mov    0x18(%rcx),%rcx
 459bee6:	48 89 48 08          	mov    %rcx,0x8(%rax)
 459beea:	83 3d 6f fa 8d 03 00 	cmpl   $0x0,0x38dfa6f(%rip)        # 7e7b960 <runtime.writeBarrier@@Base>
 459bef1:	75 05                	jne    459bef8 <github.com/lasselj/timebeat/beater/clocksync/clients/ptp/common.(*CMsgParser).ParsetIPPktInfo@@Base+0x418>
 459bef3:	48 89 10             	mov    %rdx,(%rax)
 459bef6:	eb 0d                	jmp    459bf05 <github.com/lasselj/timebeat/beater/clocksync/clients/ptp/common.(*CMsgParser).ParsetIPPktInfo@@Base+0x425>
 459bef8:	48 89 c7             	mov    %rax,%rdi
 459befb:	0f 1f 44 00 00       	nopl   0x0(%rax,%rax,1)
 459bf00:	e8 1b a8 9b fd       	call   1f56720 <runtime.gcWriteBarrierDX@@Base>
 459bf05:	48 89 44 24 78       	mov    %rax,0x78(%rsp)
 459bf0a:	0f b6 54 24 31       	movzbl 0x31(%rsp),%edx
 459bf0f:	88 50 10             	mov    %dl,0x10(%rax)
 459bf12:	48 8b b4 24 b0 00 00 	mov    0xb0(%rsp),%rsi
 459bf19:	00 
 459bf1a:	48 8b 5e 08          	mov    0x8(%rsi),%rbx
 459bf1e:	48 8b b4 24 80 00 00 	mov    0x80(%rsp),%rsi
 459bf25:	00 
 459bf26:	8b 0e                	mov    (%rsi),%ecx
 459bf28:	48 8d 05 31 7d 3a 01 	lea    0x13a7d31(%rip),%rax        # 5943c60 <type:ai+8epy3@@Base>
 459bf2f:	e8 2c 7e 95 fd       	call   1ef3d60 <runtime.mapassign_fast32@@Base>
 459bf34:	84 00                	test   %al,(%rax)
 459bf36:	83 3d 23 fa 8d 03 00 	cmpl   $0x0,0x38dfa23(%rip)        # 7e7b960 <runtime.writeBarrier@@Base>
 459bf3d:	75 0a                	jne    459bf49 <github.com/lasselj/timebeat/beater/clocksync/clients/ptp/common.(*CMsgParser).ParsetIPPktInfo@@Base+0x469>
 459bf3f:	48 8b 4c 24 78       	mov    0x78(%rsp),%rcx
 459bf44:	48 89 08             	mov    %rcx,(%rax)
 459bf47:	eb 0d                	jmp    459bf56 <github.com/lasselj/timebeat/beater/clocksync/clients/ptp/common.(*CMsgParser).ParsetIPPktInfo@@Base+0x476>
 459bf49:	48 89 c7             	mov    %rax,%rdi
 459bf4c:	48 8b 4c 24 78       	mov    0x78(%rsp),%rcx
 459bf51:	e8 aa a7 9b fd       	call   1f56700 <runtime.gcWriteBarrierCX@@Base>
 459bf56:	48 8b 44 24 48       	mov    0x48(%rsp),%rax
 459bf5b:	0f 1f 44 00 00       	nopl   0x0(%rax,%rax,1)
 459bf60:	e8 1b df 9d fd       	call   1f79e80 <sync.(*RWMutex).Unlock@@Base>
 459bf65:	0f b6 7c 24 31       	movzbl 0x31(%rsp),%edi
 459bf6a:	48 8b 94 24 80 00 00 	mov    0x80(%rsp),%rdx
 459bf71:	00 
 459bf72:	8b 02                	mov    (%rdx),%eax
 459bf74:	48 8b 54 24 68       	mov    0x68(%rsp),%rdx
 459bf79:	48 8b 5a 10          	mov    0x10(%rdx),%rbx
 459bf7d:	48 8b 4a 18          	mov    0x18(%rdx),%rcx
 459bf81:	48 8b ac 24 a0 00 00 	mov    0xa0(%rsp),%rbp
 459bf88:	00 
 459bf89:	48 81 c4 a8 00 00 00 	add    $0xa8,%rsp
 459bf90:	c3                   	ret
 459bf91:	48 8b b4 24 80 00 00 	mov    0x80(%rsp),%rsi
 459bf98:	00 
 459bf99:	8b 06                	mov    (%rsi),%eax
 459bf9b:	48 8b 1a             	mov    (%rdx),%rbx
 459bf9e:	48 8b 4a 08          	mov    0x8(%rdx),%rcx
 459bfa2:	0f b6 7a 10          	movzbl 0x10(%rdx),%edi
 459bfa6:	48 8b ac 24 a0 00 00 	mov    0xa0(%rsp),%rbp
 459bfad:	00 
 459bfae:	48 81 c4 a8 00 00 00 	add    $0xa8,%rsp
 459bfb5:	c3                   	ret
 459bfb6:	48 8b 94 24 b0 00 00 	mov    0xb0(%rsp),%rdx
 459bfbd:	00 
 459bfbe:	48 8b 02             	mov    (%rdx),%rax
 459bfc1:	48 8d 1d b5 7c 82 00 	lea    0x827cb5(%rip),%rbx        # 4dc3c7d <_IO_stdin_used@@Base+0x190c7d>
 459bfc8:	b9 13 00 00 00       	mov    $0x13,%ecx
 459bfcd:	e8 0e b3 e6 ff       	call   44072e0 <github.com/lasselj/timebeat/beater/logging.(*Logger).Info@@Base>
 459bfd2:	31 c0                	xor    %eax,%eax
 459bfd4:	31 db                	xor    %ebx,%ebx
 459bfd6:	31 c9                	xor    %ecx,%ecx
 459bfd8:	31 ff                	xor    %edi,%edi
 459bfda:	48 8b ac 24 a0 00 00 	mov    0xa0(%rsp),%rbp
 459bfe1:	00 
 459bfe2:	48 81 c4 a8 00 00 00 	add    $0xa8,%rsp
 459bfe9:	c3                   	ret
 459bfea:	48 89 44 24 08       	mov    %rax,0x8(%rsp)
 459bfef:	48 89 5c 24 10       	mov    %rbx,0x10(%rsp)
 459bff4:	89 4c 24 18          	mov    %ecx,0x18(%rsp)
 459bff8:	89 7c 24 1c          	mov    %edi,0x1c(%rsp)
 459bffc:	48 89 74 24 20       	mov    %rsi,0x20(%rsp)
 459c001:	4c 89 44 24 28       	mov    %r8,0x28(%rsp)
 459c006:	4c 89 4c 24 30       	mov    %r9,0x30(%rsp)
 459c00b:	e8 50 84 9b fd       	call   1f54460 <runtime.morestack_noctxt.abi0@@Base>
 459c010:	48 8b 44 24 08       	mov    0x8(%rsp),%rax
 459c015:	48 8b 5c 24 10       	mov    0x10(%rsp),%rbx
 459c01a:	8b 4c 24 18          	mov    0x18(%rsp),%ecx
 459c01e:	8b 7c 24 1c          	mov    0x1c(%rsp),%edi
 459c022:	48 8b 74 24 20       	mov    0x20(%rsp),%rsi
 459c027:	4c 8b 44 24 28       	mov    0x28(%rsp),%r8
 459c02c:	4c 8b 4c 24 30       	mov    0x30(%rsp),%r9
 459c031:	e9 aa fa ff ff       	jmp    459bae0 <github.com/lasselj/timebeat/beater/clocksync/clients/ptp/common.(*CMsgParser).ParsetIPPktInfo@@Base>
 459c036:	cc                   	int3
 459c037:	cc                   	int3
 459c038:	cc                   	int3
 459c039:	cc                   	int3
 459c03a:	cc                   	int3
 459c03b:	cc                   	int3
 459c03c:	cc                   	int3
 459c03d:	cc                   	int3
 459c03e:	cc                   	int3
 459c03f:	cc                   	int3
