# github.com/lasselj/timebeat/beater/clocksync/clients/vendors/helper/ubx.init
# addr 0x4402a40 size 9056 (0x2360)


/mnt/c/Users/SHIWA/GitHub/TimeCard-Mini/timebeat-extracted/usr/share/timebeat/bin/timebeat:     file format elf64-x86-64


Disassembly of section .text:

0000000004402a40 <github.com/lasselj/timebeat/beater/clocksync/clients/vendors/helper/ubx.init@@Base>:
 4402a40:	49 3b 66 10          	cmp    0x10(%r14),%rsp
 4402a44:	0f 86 65 05 00 00    	jbe    4402faf <github.com/lasselj/timebeat/beater/clocksync/clients/vendors/helper/ubx.init@@Base+0x56f>
 4402a4a:	48 83 ec 50          	sub    $0x50,%rsp
 4402a4e:	48 89 6c 24 48       	mov    %rbp,0x48(%rsp)
 4402a53:	48 8d 6c 24 48       	lea    0x48(%rsp),%rbp
 4402a58:	48 8d 05 41 c2 54 01 	lea    0x154c241(%rip),%rax        # 594eca0 <type:kVRamjhx@@Base>
 4402a5f:	bb 09 00 00 00       	mov    $0x9,%ebx
 4402a64:	31 c9                	xor    %ecx,%ecx
 4402a66:	e8 55 e8 ae fd       	call   1ef12c0 <runtime.makemap@@Base>
 4402a6b:	48 89 44 24 40       	mov    %rax,0x40(%rsp)
 4402a70:	48 89 c3             	mov    %rax,%rbx
 4402a73:	48 8d 0d d5 6d 86 00 	lea    0x866dd5(%rip),%rcx        # 4c6984f <_IO_stdin_used@@Base+0x3684f>
 4402a7a:	bf 0a 00 00 00       	mov    $0xa,%edi
 4402a7f:	48 8d 05 1a c2 54 01 	lea    0x154c21a(%rip),%rax        # 594eca0 <type:kVRamjhx@@Base>
 4402a86:	e8 55 37 af fd       	call   1ef61e0 <runtime.mapassign_faststr@@Base>
 4402a8b:	48 c7 00 00 00 00 00 	movq   $0x0,(%rax)
 4402a92:	48 8d 05 07 c2 54 01 	lea    0x154c207(%rip),%rax        # 594eca0 <type:kVRamjhx@@Base>
 4402a99:	48 8b 5c 24 40       	mov    0x40(%rsp),%rbx
 4402a9e:	48 8d 0d bc ef 85 00 	lea    0x85efbc(%rip),%rcx        # 4c61a61 <_IO_stdin_used@@Base+0x2ea61>
 4402aa5:	bf 07 00 00 00       	mov    $0x7,%edi
 4402aaa:	e8 31 37 af fd       	call   1ef61e0 <runtime.mapassign_faststr@@Base>
 4402aaf:	48 c7 00 01 00 00 00 	movq   $0x1,(%rax)
 4402ab6:	48 8d 05 e3 c1 54 01 	lea    0x154c1e3(%rip),%rax        # 594eca0 <type:kVRamjhx@@Base>
 4402abd:	48 8b 5c 24 40       	mov    0x40(%rsp),%rbx
 4402ac2:	48 8d 0d da e2 85 00 	lea    0x85e2da(%rip),%rcx        # 4c60da3 <_IO_stdin_used@@Base+0x2dda3>
 4402ac9:	bf 07 00 00 00       	mov    $0x7,%edi
 4402ace:	e8 0d 37 af fd       	call   1ef61e0 <runtime.mapassign_faststr@@Base>
 4402ad3:	48 c7 00 02 00 00 00 	movq   $0x2,(%rax)
 4402ada:	48 8d 05 bf c1 54 01 	lea    0x154c1bf(%rip),%rax        # 594eca0 <type:kVRamjhx@@Base>
 4402ae1:	48 8b 5c 24 40       	mov    0x40(%rsp),%rbx
 4402ae6:	48 8d 0d af e2 85 00 	lea    0x85e2af(%rip),%rcx        # 4c60d9c <_IO_stdin_used@@Base+0x2dd9c>
 4402aed:	bf 07 00 00 00       	mov    $0x7,%edi
 4402af2:	e8 e9 36 af fd       	call   1ef61e0 <runtime.mapassign_faststr@@Base>
 4402af7:	48 c7 00 03 00 00 00 	movq   $0x3,(%rax)
 4402afe:	48 8d 05 9b c1 54 01 	lea    0x154c19b(%rip),%rax        # 594eca0 <type:kVRamjhx@@Base>
 4402b05:	48 8b 5c 24 40       	mov    0x40(%rsp),%rbx
 4402b0a:	48 8d 0d 16 e5 85 00 	lea    0x85e516(%rip),%rcx        # 4c61027 <_IO_stdin_used@@Base+0x2e027>
 4402b11:	bf 07 00 00 00       	mov    $0x7,%edi
 4402b16:	e8 c5 36 af fd       	call   1ef61e0 <runtime.mapassign_faststr@@Base>
 4402b1b:	48 c7 00 04 00 00 00 	movq   $0x4,(%rax)
 4402b22:	48 8d 05 77 c1 54 01 	lea    0x154c177(%rip),%rax        # 594eca0 <type:kVRamjhx@@Base>
 4402b29:	48 8b 5c 24 40       	mov    0x40(%rsp),%rbx
 4402b2e:	48 8d 0d b0 0c 86 00 	lea    0x860cb0(%rip),%rcx        # 4c637e5 <_IO_stdin_used@@Base+0x307e5>
 4402b35:	bf 08 00 00 00       	mov    $0x8,%edi
 4402b3a:	e8 a1 36 af fd       	call   1ef61e0 <runtime.mapassign_faststr@@Base>
 4402b3f:	48 c7 00 05 00 00 00 	movq   $0x5,(%rax)
 4402b46:	48 8d 05 53 c1 54 01 	lea    0x154c153(%rip),%rax        # 594eca0 <type:kVRamjhx@@Base>
 4402b4d:	48 8b 5c 24 40       	mov    0x40(%rsp),%rbx
 4402b52:	48 8d 0d 3c e2 85 00 	lea    0x85e23c(%rip),%rcx        # 4c60d95 <_IO_stdin_used@@Base+0x2dd95>
 4402b59:	bf 07 00 00 00       	mov    $0x7,%edi
 4402b5e:	66 90                	xchg   %ax,%ax
 4402b60:	e8 7b 36 af fd       	call   1ef61e0 <runtime.mapassign_faststr@@Base>
 4402b65:	48 c7 00 06 00 00 00 	movq   $0x6,(%rax)
 4402b6c:	48 8d 05 2d c1 54 01 	lea    0x154c12d(%rip),%rax        # 594eca0 <type:kVRamjhx@@Base>
 4402b73:	48 8b 5c 24 40       	mov    0x40(%rsp),%rbx
 4402b78:	48 8d 0d 5e 0c 86 00 	lea    0x860c5e(%rip),%rcx        # 4c637dd <_IO_stdin_used@@Base+0x307dd>
 4402b7f:	bf 08 00 00 00       	mov    $0x8,%edi
 4402b84:	e8 57 36 af fd       	call   1ef61e0 <runtime.mapassign_faststr@@Base>
 4402b89:	48 c7 00 07 00 00 00 	movq   $0x7,(%rax)
 4402b90:	48 8d 05 09 c1 54 01 	lea    0x154c109(%rip),%rax        # 594eca0 <type:kVRamjhx@@Base>
 4402b97:	48 8b 5c 24 40       	mov    0x40(%rsp),%rbx
 4402b9c:	48 8d 0d 12 0d 86 00 	lea    0x860d12(%rip),%rcx        # 4c638b5 <_IO_stdin_used@@Base+0x308b5>
 4402ba3:	bf 08 00 00 00       	mov    $0x8,%edi
 4402ba8:	e8 33 36 af fd       	call   1ef61e0 <runtime.mapassign_faststr@@Base>
 4402bad:	48 c7 00 08 00 00 00 	movq   $0x8,(%rax)
 4402bb4:	83 3d a5 8d a7 03 00 	cmpl   $0x0,0x3a78da5(%rip)        # 7e7b960 <runtime.writeBarrier@@Base>
 4402bbb:	75 0e                	jne    4402bcb <github.com/lasselj/timebeat/beater/clocksync/clients/vendors/helper/ubx.init@@Base+0x18b>
 4402bbd:	48 8b 44 24 40       	mov    0x40(%rsp),%rax
 4402bc2:	48 89 05 cf 95 a2 03 	mov    %rax,0x3a295cf(%rip)        # 7e2c198 <github.com/lasselj/timebeat/beater/clocksync/clients/vendors/helper/ubx.UbloxReceivers@@Base>
 4402bc9:	eb 11                	jmp    4402bdc <github.com/lasselj/timebeat/beater/clocksync/clients/vendors/helper/ubx.init@@Base+0x19c>
 4402bcb:	48 8d 3d c6 95 a2 03 	lea    0x3a295c6(%rip),%rdi        # 7e2c198 <github.com/lasselj/timebeat/beater/clocksync/clients/vendors/helper/ubx.UbloxReceivers@@Base>
 4402bd2:	48 8b 44 24 40       	mov    0x40(%rsp),%rax
 4402bd7:	e8 24 3a b5 fd       	call   1f56600 <runtime.gcWriteBarrier@@Base>
 4402bdc:	0f 1f 40 00          	nopl   0x0(%rax)
 4402be0:	e8 5b e6 ae fd       	call   1ef1240 <runtime.makemap_small@@Base>
 4402be5:	48 89 44 24 38       	mov    %rax,0x38(%rsp)
 4402bea:	48 89 c3             	mov    %rax,%rbx
 4402bed:	48 8d 0d f8 10 83 00 	lea    0x8310f8(%rip),%rcx        # 4c33cec <_IO_stdin_used@@Base+0xcec>
 4402bf4:	bf 03 00 00 00       	mov    $0x3,%edi
 4402bf9:	48 8d 05 a0 c0 54 01 	lea    0x154c0a0(%rip),%rax        # 594eca0 <type:kVRamjhx@@Base>
 4402c00:	e8 db 35 af fd       	call   1ef61e0 <runtime.mapassign_faststr@@Base>
 4402c05:	48 c7 00 01 00 00 00 	movq   $0x1,(%rax)
 4402c0c:	48 8d 05 8d c0 54 01 	lea    0x154c08d(%rip),%rax        # 594eca0 <type:kVRamjhx@@Base>
 4402c13:	48 8b 5c 24 38       	mov    0x38(%rsp),%rbx
 4402c18:	48 8d 0d 61 3a 83 00 	lea    0x833a61(%rip),%rcx        # 4c36680 <_IO_stdin_used@@Base+0x3680>
 4402c1f:	bf 04 00 00 00       	mov    $0x4,%edi
 4402c24:	e8 b7 35 af fd       	call   1ef61e0 <runtime.mapassign_faststr@@Base>
 4402c29:	48 c7 00 02 00 00 00 	movq   $0x2,(%rax)
 4402c30:	48 8d 05 69 c0 54 01 	lea    0x154c069(%rip),%rax        # 594eca0 <type:kVRamjhx@@Base>
 4402c37:	48 8b 5c 24 38       	mov    0x38(%rsp),%rbx
 4402c3c:	48 8d 0d 9a dd 85 00 	lea    0x85dd9a(%rip),%rcx        # 4c609dd <_IO_stdin_used@@Base+0x2d9dd>
 4402c43:	bf 07 00 00 00       	mov    $0x7,%edi
 4402c48:	e8 93 35 af fd       	call   1ef61e0 <runtime.mapassign_faststr@@Base>
 4402c4d:	48 c7 00 04 00 00 00 	movq   $0x4,(%rax)
 4402c54:	48 8d 05 45 c0 54 01 	lea    0x154c045(%rip),%rax        # 594eca0 <type:kVRamjhx@@Base>
 4402c5b:	48 8b 5c 24 38       	mov    0x38(%rsp),%rbx
 4402c60:	48 8d 0d 36 b1 85 00 	lea    0x85b136(%rip),%rcx        # 4c5dd9d <_IO_stdin_used@@Base+0x2ad9d>
 4402c67:	bf 06 00 00 00       	mov    $0x6,%edi
 4402c6c:	e8 6f 35 af fd       	call   1ef61e0 <runtime.mapassign_faststr@@Base>
 4402c71:	48 c7 00 08 00 00 00 	movq   $0x8,(%rax)
 4402c78:	48 8d 05 21 c0 54 01 	lea    0x154c021(%rip),%rax        # 594eca0 <type:kVRamjhx@@Base>
 4402c7f:	48 8b 5c 24 38       	mov    0x38(%rsp),%rbx
 4402c84:	48 8d 0d 75 39 83 00 	lea    0x833975(%rip),%rcx        # 4c36600 <_IO_stdin_used@@Base+0x3600>
 4402c8b:	bf 04 00 00 00       	mov    $0x4,%edi
 4402c90:	e8 4b 35 af fd       	call   1ef61e0 <runtime.mapassign_faststr@@Base>
 4402c95:	48 c7 00 10 00 00 00 	movq   $0x10,(%rax)
 4402c9c:	48 8d 05 fd bf 54 01 	lea    0x154bffd(%rip),%rax        # 594eca0 <type:kVRamjhx@@Base>
 4402ca3:	48 8b 5c 24 38       	mov    0x38(%rsp),%rbx
 4402ca8:	48 8d 0d b3 dd 85 00 	lea    0x85ddb3(%rip),%rcx        # 4c60a62 <_IO_stdin_used@@Base+0x2da62>
 4402caf:	bf 07 00 00 00       	mov    $0x7,%edi
 4402cb4:	e8 27 35 af fd       	call   1ef61e0 <runtime.mapassign_faststr@@Base>
 4402cb9:	48 c7 00 20 00 00 00 	movq   $0x20,(%rax)
 4402cc0:	83 3d 99 8c a7 03 00 	cmpl   $0x0,0x3a78c99(%rip)        # 7e7b960 <runtime.writeBarrier@@Base>
 4402cc7:	75 0e                	jne    4402cd7 <github.com/lasselj/timebeat/beater/clocksync/clients/vendors/helper/ubx.init@@Base+0x297>
 4402cc9:	48 8b 44 24 38       	mov    0x38(%rsp),%rax
 4402cce:	48 89 05 b3 94 a2 03 	mov    %rax,0x3a294b3(%rip)        # 7e2c188 <github.com/lasselj/timebeat/beater/clocksync/clients/vendors/helper/ubx.GNSSConstellations@@Base>
 4402cd5:	eb 11                	jmp    4402ce8 <github.com/lasselj/timebeat/beater/clocksync/clients/vendors/helper/ubx.init@@Base+0x2a8>
 4402cd7:	48 8d 3d aa 94 a2 03 	lea    0x3a294aa(%rip),%rdi        # 7e2c188 <github.com/lasselj/timebeat/beater/clocksync/clients/vendors/helper/ubx.GNSSConstellations@@Base>
 4402cde:	48 8b 44 24 38       	mov    0x38(%rsp),%rax
 4402ce3:	e8 18 39 b5 fd       	call   1f56600 <runtime.gcWriteBarrier@@Base>
 4402ce8:	e8 53 e5 ae fd       	call   1ef1240 <runtime.makemap_small@@Base>
 4402ced:	48 89 44 24 30       	mov    %rax,0x30(%rsp)
 4402cf2:	48 89 c3             	mov    %rax,%rbx
 4402cf5:	b9 06 00 00 00       	mov    $0x6,%ecx
 4402cfa:	48 8d 05 9f 23 54 01 	lea    0x154239f(%rip),%rax        # 59450a0 <type:EAlsZ0ao@@Base>
 4402d01:	e8 3a 1e af fd       	call   1ef4b40 <runtime.mapassign_fast64@@Base>
 4402d06:	48 c7 40 08 09 00 00 	movq   $0x9,0x8(%rax)
 4402d0d:	00 
 4402d0e:	83 3d 4b 8c a7 03 00 	cmpl   $0x0,0x3a78c4b(%rip)        # 7e7b960 <runtime.writeBarrier@@Base>
 4402d15:	75 0c                	jne    4402d23 <github.com/lasselj/timebeat/beater/clocksync/clients/vendors/helper/ubx.init@@Base+0x2e3>
 4402d17:	48 8d 15 2c 2e 86 00 	lea    0x862e2c(%rip),%rdx        # 4c65b4a <_IO_stdin_used@@Base+0x32b4a>
 4402d1e:	48 89 10             	mov    %rdx,(%rax)
 4402d21:	eb 0f                	jmp    4402d32 <github.com/lasselj/timebeat/beater/clocksync/clients/vendors/helper/ubx.init@@Base+0x2f2>
 4402d23:	48 89 c7             	mov    %rax,%rdi
 4402d26:	48 8d 15 1d 2e 86 00 	lea    0x862e1d(%rip),%rdx        # 4c65b4a <_IO_stdin_used@@Base+0x32b4a>
 4402d2d:	e8 ee 39 b5 fd       	call   1f56720 <runtime.gcWriteBarrierDX@@Base>
 4402d32:	48 8d 05 67 23 54 01 	lea    0x1542367(%rip),%rax        # 59450a0 <type:EAlsZ0ao@@Base>
 4402d39:	48 8b 5c 24 30       	mov    0x30(%rsp),%rbx
 4402d3e:	b9 31 00 00 00       	mov    $0x31,%ecx
 4402d43:	e8 f8 1d af fd       	call   1ef4b40 <runtime.mapassign_fast64@@Base>
 4402d48:	48 c7 40 08 03 00 00 	movq   $0x3,0x8(%rax)
 4402d4f:	00 
 4402d50:	83 3d 09 8c a7 03 00 	cmpl   $0x0,0x3a78c09(%rip)        # 7e7b960 <runtime.writeBarrier@@Base>
 4402d57:	75 0c                	jne    4402d65 <github.com/lasselj/timebeat/beater/clocksync/clients/vendors/helper/ubx.init@@Base+0x325>
 4402d59:	48 8d 15 f0 11 83 00 	lea    0x8311f0(%rip),%rdx        # 4c33f50 <_IO_stdin_used@@Base+0xf50>
 4402d60:	48 89 10             	mov    %rdx,(%rax)
 4402d63:	eb 0f                	jmp    4402d74 <github.com/lasselj/timebeat/beater/clocksync/clients/vendors/helper/ubx.init@@Base+0x334>
 4402d65:	48 89 c7             	mov    %rax,%rdi
 4402d68:	48 8d 15 e1 11 83 00 	lea    0x8311e1(%rip),%rdx        # 4c33f50 <_IO_stdin_used@@Base+0xf50>
 4402d6f:	e8 ac 39 b5 fd       	call   1f56720 <runtime.gcWriteBarrierDX@@Base>
 4402d74:	48 8d 05 25 23 54 01 	lea    0x1542325(%rip),%rax        # 59450a0 <type:EAlsZ0ao@@Base>
 4402d7b:	48 8b 5c 24 30       	mov    0x30(%rsp),%rbx
 4402d80:	b9 3e 00 00 00       	mov    $0x3e,%ecx
 4402d85:	e8 b6 1d af fd       	call   1ef4b40 <runtime.mapassign_fast64@@Base>
 4402d8a:	48 c7 40 08 04 00 00 	movq   $0x4,0x8(%rax)
 4402d91:	00 
 4402d92:	83 3d c7 8b a7 03 00 	cmpl   $0x0,0x3a78bc7(%rip)        # 7e7b960 <runtime.writeBarrier@@Base>
 4402d99:	75 0c                	jne    4402da7 <github.com/lasselj/timebeat/beater/clocksync/clients/vendors/helper/ubx.init@@Base+0x367>
 4402d9b:	48 8d 15 22 35 83 00 	lea    0x833522(%rip),%rdx        # 4c362c4 <_IO_stdin_used@@Base+0x32c4>
 4402da2:	48 89 10             	mov    %rdx,(%rax)
 4402da5:	eb 0f                	jmp    4402db6 <github.com/lasselj/timebeat/beater/clocksync/clients/vendors/helper/ubx.init@@Base+0x376>
 4402da7:	48 89 c7             	mov    %rax,%rdi
 4402daa:	48 8d 15 13 35 83 00 	lea    0x833513(%rip),%rdx        # 4c362c4 <_IO_stdin_used@@Base+0x32c4>
 4402db1:	e8 6a 39 b5 fd       	call   1f56720 <runtime.gcWriteBarrierDX@@Base>
 4402db6:	48 8d 05 e3 22 54 01 	lea    0x15422e3(%rip),%rax        # 59450a0 <type:EAlsZ0ao@@Base>
 4402dbd:	48 8b 5c 24 30       	mov    0x30(%rsp),%rbx
 4402dc2:	b9 60 00 00 00       	mov    $0x60,%ecx
 4402dc7:	e8 74 1d af fd       	call   1ef4b40 <runtime.mapassign_fast64@@Base>
 4402dcc:	48 c7 40 08 04 00 00 	movq   $0x4,0x8(%rax)
 4402dd3:	00 
 4402dd4:	83 3d 85 8b a7 03 00 	cmpl   $0x0,0x3a78b85(%rip)        # 7e7b960 <runtime.writeBarrier@@Base>
 4402ddb:	75 0c                	jne    4402de9 <github.com/lasselj/timebeat/beater/clocksync/clients/vendors/helper/ubx.init@@Base+0x3a9>
 4402ddd:	48 8d 15 24 34 83 00 	lea    0x833424(%rip),%rdx        # 4c36208 <_IO_stdin_used@@Base+0x3208>
 4402de4:	48 89 10             	mov    %rdx,(%rax)
 4402de7:	eb 0f                	jmp    4402df8 <github.com/lasselj/timebeat/beater/clocksync/clients/vendors/helper/ubx.init@@Base+0x3b8>
 4402de9:	48 89 c7             	mov    %rax,%rdi
 4402dec:	48 8d 15 15 34 83 00 	lea    0x833415(%rip),%rdx        # 4c36208 <_IO_stdin_used@@Base+0x3208>
 4402df3:	e8 28 39 b5 fd       	call   1f56720 <runtime.gcWriteBarrierDX@@Base>
 4402df8:	48 8d 05 a1 22 54 01 	lea    0x15422a1(%rip),%rax        # 59450a0 <type:EAlsZ0ao@@Base>
 4402dff:	48 8b 5c 24 30       	mov    0x30(%rsp),%rbx
 4402e04:	b9 62 00 00 00       	mov    $0x62,%ecx
 4402e09:	e8 32 1d af fd       	call   1ef4b40 <runtime.mapassign_fast64@@Base>
 4402e0e:	48 c7 40 08 04 00 00 	movq   $0x4,0x8(%rax)
 4402e15:	00 
 4402e16:	83 3d 43 8b a7 03 00 	cmpl   $0x0,0x3a78b43(%rip)        # 7e7b960 <runtime.writeBarrier@@Base>
 4402e1d:	75 0c                	jne    4402e2b <github.com/lasselj/timebeat/beater/clocksync/clients/vendors/helper/ubx.init@@Base+0x3eb>
 4402e1f:	48 8d 15 ce 38 83 00 	lea    0x8338ce(%rip),%rdx        # 4c366f4 <_IO_stdin_used@@Base+0x36f4>
 4402e26:	48 89 10             	mov    %rdx,(%rax)
 4402e29:	eb 0f                	jmp    4402e3a <github.com/lasselj/timebeat/beater/clocksync/clients/vendors/helper/ubx.init@@Base+0x3fa>
 4402e2b:	48 89 c7             	mov    %rax,%rdi
 4402e2e:	48 8d 15 bf 38 83 00 	lea    0x8338bf(%rip),%rdx        # 4c366f4 <_IO_stdin_used@@Base+0x36f4>
 4402e35:	e8 e6 38 b5 fd       	call   1f56720 <runtime.gcWriteBarrierDX@@Base>
 4402e3a:	48 8d 05 5f 22 54 01 	lea    0x154225f(%rip),%rax        # 59450a0 <type:EAlsZ0ao@@Base>
 4402e41:	48 8b 5c 24 30       	mov    0x30(%rsp),%rbx
 4402e46:	b9 8a 00 00 00       	mov    $0x8a,%ecx
 4402e4b:	e8 f0 1c af fd       	call   1ef4b40 <runtime.mapassign_fast64@@Base>
 4402e50:	48 c7 40 08 06 00 00 	movq   $0x6,0x8(%rax)
 4402e57:	00 
 4402e58:	83 3d 01 8b a7 03 00 	cmpl   $0x0,0x3a78b01(%rip)        # 7e7b960 <runtime.writeBarrier@@Base>
 4402e5f:	90                   	nop
 4402e60:	75 0c                	jne    4402e6e <github.com/lasselj/timebeat/beater/clocksync/clients/vendors/helper/ubx.init@@Base+0x42e>
 4402e62:	48 8d 15 3c c2 85 00 	lea    0x85c23c(%rip),%rdx        # 4c5f0a5 <_IO_stdin_used@@Base+0x2c0a5>
 4402e69:	48 89 10             	mov    %rdx,(%rax)
 4402e6c:	eb 0f                	jmp    4402e7d <github.com/lasselj/timebeat/beater/clocksync/clients/vendors/helper/ubx.init@@Base+0x43d>
 4402e6e:	48 89 c7             	mov    %rax,%rdi
 4402e71:	48 8d 15 2d c2 85 00 	lea    0x85c22d(%rip),%rdx        # 4c5f0a5 <_IO_stdin_used@@Base+0x2c0a5>
 4402e78:	e8 a3 38 b5 fd       	call   1f56720 <runtime.gcWriteBarrierDX@@Base>
 4402e7d:	48 8d 05 1c 22 54 01 	lea    0x154221c(%rip),%rax        # 59450a0 <type:EAlsZ0ao@@Base>
 4402e84:	48 8b 5c 24 30       	mov    0x30(%rsp),%rbx
 4402e89:	b9 8b 00 00 00       	mov    $0x8b,%ecx
 4402e8e:	e8 ad 1c af fd       	call   1ef4b40 <runtime.mapassign_fast64@@Base>
 4402e93:	48 c7 40 08 06 00 00 	movq   $0x6,0x8(%rax)
 4402e9a:	00 
 4402e9b:	83 3d be 8a a7 03 00 	cmpl   $0x0,0x3a78abe(%rip)        # 7e7b960 <runtime.writeBarrier@@Base>
 4402ea2:	75 0c                	jne    4402eb0 <github.com/lasselj/timebeat/beater/clocksync/clients/vendors/helper/ubx.init@@Base+0x470>
 4402ea4:	48 8d 15 ee c1 85 00 	lea    0x85c1ee(%rip),%rdx        # 4c5f099 <_IO_stdin_used@@Base+0x2c099>
 4402eab:	48 89 10             	mov    %rdx,(%rax)
 4402eae:	eb 0f                	jmp    4402ebf <github.com/lasselj/timebeat/beater/clocksync/clients/vendors/helper/ubx.init@@Base+0x47f>
 4402eb0:	48 89 c7             	mov    %rax,%rdi
 4402eb3:	48 8d 15 df c1 85 00 	lea    0x85c1df(%rip),%rdx        # 4c5f099 <_IO_stdin_used@@Base+0x2c099>
 4402eba:	e8 61 38 b5 fd       	call   1f56720 <runtime.gcWriteBarrierDX@@Base>
 4402ebf:	48 8d 05 da 21 54 01 	lea    0x15421da(%rip),%rax        # 59450a0 <type:EAlsZ0ao@@Base>
 4402ec6:	48 8b 5c 24 30       	mov    0x30(%rsp),%rbx
 4402ecb:	b9 8c 00 00 00       	mov    $0x8c,%ecx
 4402ed0:	e8 6b 1c af fd       	call   1ef4b40 <runtime.mapassign_fast64@@Base>
 4402ed5:	48 c7 40 08 06 00 00 	movq   $0x6,0x8(%rax)
 4402edc:	00 
 4402edd:	83 3d 7c 8a a7 03 00 	cmpl   $0x0,0x3a78a7c(%rip)        # 7e7b960 <runtime.writeBarrier@@Base>
 4402ee4:	75 18                	jne    4402efe <github.com/lasselj/timebeat/beater/clocksync/clients/vendors/helper/ubx.init@@Base+0x4be>
 4402ee6:	48 8d 0d a6 c1 85 00 	lea    0x85c1a6(%rip),%rcx        # 4c5f093 <_IO_stdin_used@@Base+0x2c093>
 4402eed:	48 89 08             	mov    %rcx,(%rax)
 4402ef0:	48 8b 44 24 30       	mov    0x30(%rsp),%rax
 4402ef5:	48 89 05 a4 92 a2 03 	mov    %rax,0x3a292a4(%rip)        # 7e2c1a0 <github.com/lasselj/timebeat/beater/clocksync/clients/vendors/helper/ubx.UbxCfgLookup@@Base>
 4402efc:	eb 20                	jmp    4402f1e <github.com/lasselj/timebeat/beater/clocksync/clients/vendors/helper/ubx.init@@Base+0x4de>
 4402efe:	48 89 c7             	mov    %rax,%rdi
 4402f01:	48 8d 05 8b c1 85 00 	lea    0x85c18b(%rip),%rax        # 4c5f093 <_IO_stdin_used@@Base+0x2c093>
 4402f08:	e8 f3 36 b5 fd       	call   1f56600 <runtime.gcWriteBarrier@@Base>
 4402f0d:	48 8d 3d 8c 92 a2 03 	lea    0x3a2928c(%rip),%rdi        # 7e2c1a0 <github.com/lasselj/timebeat/beater/clocksync/clients/vendors/helper/ubx.UbxCfgLookup@@Base>
 4402f14:	48 8b 44 24 30       	mov    0x30(%rsp),%rax
 4402f19:	e8 e2 36 b5 fd       	call   1f56600 <runtime.gcWriteBarrier@@Base>
 4402f1e:	66 90                	xchg   %ax,%ax
 4402f20:	e8 1b e3 ae fd       	call   1ef1240 <runtime.makemap_small@@Base>
 4402f25:	48 89 44 24 28       	mov    %rax,0x28(%rsp)
 4402f2a:	66 c7 44 24 26 00 00 	movw   $0x0,0x26(%rsp)
 4402f31:	66 c7 44 24 26 05 01 	movw   $0x105,0x26(%rsp)
 4402f38:	48 89 c3             	mov    %rax,%rbx
 4402f3b:	48 8d 4c 24 26       	lea    0x26(%rsp),%rcx
 4402f40:	48 8d 05 19 a4 53 01 	lea    0x153a419(%rip),%rax        # 593d360 <type:9a14+bu8@@Base>
 4402f47:	e8 14 ee ae fd       	call   1ef1d60 <runtime.mapassign@@Base>
 4402f4c:	48 c7 00 02 00 00 00 	movq   $0x2,(%rax)
 4402f53:	66 c7 44 24 26 05 00 	movw   $0x5,0x26(%rsp)
 4402f5a:	48 8d 05 ff a3 53 01 	lea    0x153a3ff(%rip),%rax        # 593d360 <type:9a14+bu8@@Base>
 4402f61:	48 8b 5c 24 28       	mov    0x28(%rsp),%rbx
 4402f66:	48 8d 4c 24 26       	lea    0x26(%rsp),%rcx
 4402f6b:	e8 f0 ed ae fd       	call   1ef1d60 <runtime.mapassign@@Base>
 4402f70:	48 c7 00 02 00 00 00 	movq   $0x2,(%rax)
 4402f77:	83 3d e2 89 a7 03 00 	cmpl   $0x0,0x3a789e2(%rip)        # 7e7b960 <runtime.writeBarrier@@Base>
 4402f7e:	66 90                	xchg   %ax,%ax
 4402f80:	75 0e                	jne    4402f90 <github.com/lasselj/timebeat/beater/clocksync/clients/vendors/helper/ubx.init@@Base+0x550>
 4402f82:	48 8b 44 24 28       	mov    0x28(%rsp),%rax
 4402f87:	48 89 05 02 92 a2 03 	mov    %rax,0x3a29202(%rip)        # 7e2c190 <github.com/lasselj/timebeat/beater/clocksync/clients/vendors/helper/ubx.UBX_MESSAGE_LENGTHS@@Base>
 4402f8e:	eb 15                	jmp    4402fa5 <github.com/lasselj/timebeat/beater/clocksync/clients/vendors/helper/ubx.init@@Base+0x565>
 4402f90:	48 8d 3d f9 91 a2 03 	lea    0x3a291f9(%rip),%rdi        # 7e2c190 <github.com/lasselj/timebeat/beater/clocksync/clients/vendors/helper/ubx.UBX_MESSAGE_LENGTHS@@Base>
 4402f97:	48 8b 44 24 28       	mov    0x28(%rsp),%rax
 4402f9c:	0f 1f 40 00          	nopl   0x0(%rax)
 4402fa0:	e8 5b 36 b5 fd       	call   1f56600 <runtime.gcWriteBarrier@@Base>
 4402fa5:	48 8b 6c 24 48       	mov    0x48(%rsp),%rbp
 4402faa:	48 83 c4 50          	add    $0x50,%rsp
 4402fae:	c3                   	ret
 4402faf:	e8 ac 14 b5 fd       	call   1f54460 <runtime.morestack_noctxt.abi0@@Base>
 4402fb4:	e9 87 fa ff ff       	jmp    4402a40 <github.com/lasselj/timebeat/beater/clocksync/clients/vendors/helper/ubx.init@@Base>
 4402fb9:	cc                   	int3
 4402fba:	cc                   	int3
 4402fbb:	cc                   	int3
 4402fbc:	cc                   	int3
 4402fbd:	cc                   	int3
 4402fbe:	cc                   	int3
 4402fbf:	cc                   	int3

0000000004402fc0 <type:.RP9DH1hY@@Base>:
 4402fc0:	49 3b 66 10          	cmp    0x10(%r14),%rsp
 4402fc4:	0f 86 7e 00 00 00    	jbe    4403048 <type:.RP9DH1hY@@Base+0x88>
 4402fca:	48 83 ec 20          	sub    $0x20,%rsp
 4402fce:	48 89 6c 24 18       	mov    %rbp,0x18(%rsp)
 4402fd3:	48 8d 6c 24 18       	lea    0x18(%rsp),%rbp
 4402fd8:	0f b6 10             	movzbl (%rax),%edx
 4402fdb:	38 13                	cmp    %dl,(%rbx)
 4402fdd:	75 5d                	jne    440303c <type:.RP9DH1hY@@Base+0x7c>
 4402fdf:	48 8b 48 10          	mov    0x10(%rax),%rcx
 4402fe3:	48 8b 53 08          	mov    0x8(%rbx),%rdx
 4402fe7:	48 8b 70 08          	mov    0x8(%rax),%rsi
 4402feb:	48 39 4b 10          	cmp    %rcx,0x10(%rbx)
 4402fef:	75 4b                	jne    440303c <type:.RP9DH1hY@@Base+0x7c>
 4402ff1:	0f b6 78 18          	movzbl 0x18(%rax),%edi
 4402ff5:	40 38 7b 18          	cmp    %dil,0x18(%rbx)
 4402ff9:	75 41                	jne    440303c <type:.RP9DH1hY@@Base+0x7c>
 4402ffb:	48 8b 78 28          	mov    0x28(%rax),%rdi
 4402fff:	90                   	nop
 4403000:	48 39 7b 28          	cmp    %rdi,0x28(%rbx)
 4403004:	75 36                	jne    440303c <type:.RP9DH1hY@@Base+0x7c>
 4403006:	48 89 44 24 28       	mov    %rax,0x28(%rsp)
 440300b:	48 89 5c 24 30       	mov    %rbx,0x30(%rsp)
 4403010:	48 89 f0             	mov    %rsi,%rax
 4403013:	48 89 d3             	mov    %rdx,%rbx
 4403016:	e8 05 0b ae fd       	call   1ee3b20 <runtime.memequal@@Base>
 440301b:	84 c0                	test   %al,%al
 440301d:	74 1d                	je     440303c <type:.RP9DH1hY@@Base+0x7c>
 440301f:	48 8b 54 24 30       	mov    0x30(%rsp),%rdx
 4403024:	48 8b 5a 20          	mov    0x20(%rdx),%rbx
 4403028:	48 8b 54 24 28       	mov    0x28(%rsp),%rdx
 440302d:	48 8b 42 20          	mov    0x20(%rdx),%rax
 4403031:	48 8b 4a 28          	mov    0x28(%rdx),%rcx
 4403035:	e8 e6 0a ae fd       	call   1ee3b20 <runtime.memequal@@Base>
 440303a:	eb 02                	jmp    440303e <type:.RP9DH1hY@@Base+0x7e>
 440303c:	31 c0                	xor    %eax,%eax
 440303e:	48 8b 6c 24 18       	mov    0x18(%rsp),%rbp
 4403043:	48 83 c4 20          	add    $0x20,%rsp
 4403047:	c3                   	ret
 4403048:	48 89 44 24 08       	mov    %rax,0x8(%rsp)
 440304d:	48 89 5c 24 10       	mov    %rbx,0x10(%rsp)
 4403052:	e8 09 14 b5 fd       	call   1f54460 <runtime.morestack_noctxt.abi0@@Base>
 4403057:	48 8b 44 24 08       	mov    0x8(%rsp),%rax
 440305c:	48 8b 5c 24 10       	mov    0x10(%rsp),%rbx
 4403061:	e9 5a ff ff ff       	jmp    4402fc0 <type:.RP9DH1hY@@Base>
 4403066:	cc                   	int3
 4403067:	cc                   	int3
 4403068:	cc                   	int3
 4403069:	cc                   	int3
 440306a:	cc                   	int3
 440306b:	cc                   	int3
 440306c:	cc                   	int3
 440306d:	cc                   	int3
 440306e:	cc                   	int3
 440306f:	cc                   	int3
 4403070:	cc                   	int3
 4403071:	cc                   	int3
 4403072:	cc                   	int3
 4403073:	cc                   	int3
 4403074:	cc                   	int3
 4403075:	cc                   	int3
 4403076:	cc                   	int3
 4403077:	cc                   	int3
 4403078:	cc                   	int3
 4403079:	cc                   	int3
 440307a:	cc                   	int3
 440307b:	cc                   	int3
 440307c:	cc                   	int3
 440307d:	cc                   	int3
 440307e:	cc                   	int3
 440307f:	cc                   	int3

0000000004403080 <type:.j2pTpB1P@@Base>:
 4403080:	0f b7 0b             	movzwl (%rbx),%ecx
 4403083:	66 39 08             	cmp    %cx,(%rax)
 4403086:	0f 85 84 00 00 00    	jne    4403110 <type:.j2pTpB1P@@Base+0x90>
 440308c:	0f b6 48 02          	movzbl 0x2(%rax),%ecx
 4403090:	38 4b 02             	cmp    %cl,0x2(%rbx)
 4403093:	75 7b                	jne    4403110 <type:.j2pTpB1P@@Base+0x90>
 4403095:	0f b6 48 03          	movzbl 0x3(%rax),%ecx
 4403099:	38 4b 03             	cmp    %cl,0x3(%rbx)
 440309c:	75 72                	jne    4403110 <type:.j2pTpB1P@@Base+0x90>
 440309e:	0f b7 48 04          	movzwl 0x4(%rax),%ecx
 44030a2:	66 39 4b 04          	cmp    %cx,0x4(%rbx)
 44030a6:	75 68                	jne    4403110 <type:.j2pTpB1P@@Base+0x90>
 44030a8:	0f b6 48 06          	movzbl 0x6(%rax),%ecx
 44030ac:	38 4b 06             	cmp    %cl,0x6(%rbx)
 44030af:	75 5f                	jne    4403110 <type:.j2pTpB1P@@Base+0x90>
 44030b1:	0f b6 48 07          	movzbl 0x7(%rax),%ecx
 44030b5:	38 4b 07             	cmp    %cl,0x7(%rbx)
 44030b8:	75 56                	jne    4403110 <type:.j2pTpB1P@@Base+0x90>
 44030ba:	0f b7 48 08          	movzwl 0x8(%rax),%ecx
 44030be:	66 90                	xchg   %ax,%ax
 44030c0:	66 39 4b 08          	cmp    %cx,0x8(%rbx)
 44030c4:	75 4a                	jne    4403110 <type:.j2pTpB1P@@Base+0x90>
 44030c6:	0f b7 48 0a          	movzwl 0xa(%rax),%ecx
 44030ca:	66 39 4b 0a          	cmp    %cx,0xa(%rbx)
 44030ce:	75 40                	jne    4403110 <type:.j2pTpB1P@@Base+0x90>
 44030d0:	0f b7 4b 0c          	movzwl 0xc(%rbx),%ecx
 44030d4:	66 39 48 0c          	cmp    %cx,0xc(%rax)
 44030d8:	75 36                	jne    4403110 <type:.j2pTpB1P@@Base+0x90>
 44030da:	0f b7 48 0e          	movzwl 0xe(%rax),%ecx
 44030de:	66 90                	xchg   %ax,%ax
 44030e0:	66 39 4b 0e          	cmp    %cx,0xe(%rbx)
 44030e4:	75 2a                	jne    4403110 <type:.j2pTpB1P@@Base+0x90>
 44030e6:	0f b7 48 10          	movzwl 0x10(%rax),%ecx
 44030ea:	66 39 4b 10          	cmp    %cx,0x10(%rbx)
 44030ee:	75 20                	jne    4403110 <type:.j2pTpB1P@@Base+0x90>
 44030f0:	0f b7 48 12          	movzwl 0x12(%rax),%ecx
 44030f4:	66 39 4b 12          	cmp    %cx,0x12(%rbx)
 44030f8:	75 16                	jne    4403110 <type:.j2pTpB1P@@Base+0x90>
 44030fa:	0f b7 48 14          	movzwl 0x14(%rax),%ecx
 44030fe:	66 90                	xchg   %ax,%ax
 4403100:	66 39 4b 14          	cmp    %cx,0x14(%rbx)
 4403104:	75 0a                	jne    4403110 <type:.j2pTpB1P@@Base+0x90>
 4403106:	8b 48 18             	mov    0x18(%rax),%ecx
 4403109:	39 4b 18             	cmp    %ecx,0x18(%rbx)
 440310c:	0f 94 c0             	sete   %al
 440310f:	c3                   	ret
 4403110:	31 c0                	xor    %eax,%eax
 4403112:	c3                   	ret
 4403113:	cc                   	int3
 4403114:	cc                   	int3
 4403115:	cc                   	int3
 4403116:	cc                   	int3
 4403117:	cc                   	int3
 4403118:	cc                   	int3
 4403119:	cc                   	int3
 440311a:	cc                   	int3
 440311b:	cc                   	int3
 440311c:	cc                   	int3
 440311d:	cc                   	int3
 440311e:	cc                   	int3
 440311f:	cc                   	int3

0000000004403120 <type:.USgO+/zh@@Base>:
 4403120:	0f b7 0b             	movzwl (%rbx),%ecx
 4403123:	66 39 08             	cmp    %cx,(%rax)
 4403126:	0f 85 83 00 00 00    	jne    44031af <type:.USgO+/zh@@Base+0x8f>
 440312c:	0f b6 48 02          	movzbl 0x2(%rax),%ecx
 4403130:	38 4b 02             	cmp    %cl,0x2(%rbx)
 4403133:	75 7a                	jne    44031af <type:.USgO+/zh@@Base+0x8f>
 4403135:	0f b6 48 03          	movzbl 0x3(%rax),%ecx
 4403139:	38 4b 03             	cmp    %cl,0x3(%rbx)
 440313c:	75 71                	jne    44031af <type:.USgO+/zh@@Base+0x8f>
 440313e:	0f b7 48 04          	movzwl 0x4(%rax),%ecx
 4403142:	66 39 4b 04          	cmp    %cx,0x4(%rbx)
 4403146:	75 67                	jne    44031af <type:.USgO+/zh@@Base+0x8f>
 4403148:	0f b6 48 06          	movzbl 0x6(%rax),%ecx
 440314c:	38 4b 06             	cmp    %cl,0x6(%rbx)
 440314f:	75 5e                	jne    44031af <type:.USgO+/zh@@Base+0x8f>
 4403151:	0f b6 48 07          	movzbl 0x7(%rax),%ecx
 4403155:	38 4b 07             	cmp    %cl,0x7(%rbx)
 4403158:	75 55                	jne    44031af <type:.USgO+/zh@@Base+0x8f>
 440315a:	0f b7 4b 08          	movzwl 0x8(%rbx),%ecx
 440315e:	66 90                	xchg   %ax,%ax
 4403160:	66 39 48 08          	cmp    %cx,0x8(%rax)
 4403164:	75 49                	jne    44031af <type:.USgO+/zh@@Base+0x8f>
 4403166:	0f b7 48 0a          	movzwl 0xa(%rax),%ecx
 440316a:	66 39 4b 0a          	cmp    %cx,0xa(%rbx)
 440316e:	75 3f                	jne    44031af <type:.USgO+/zh@@Base+0x8f>
 4403170:	0f b7 48 0c          	movzwl 0xc(%rax),%ecx
 4403174:	66 39 4b 0c          	cmp    %cx,0xc(%rbx)
 4403178:	75 35                	jne    44031af <type:.USgO+/zh@@Base+0x8f>
 440317a:	8b 48 10             	mov    0x10(%rax),%ecx
 440317d:	0f 1f 00             	nopl   (%rax)
 4403180:	39 4b 10             	cmp    %ecx,0x10(%rbx)
 4403183:	75 2a                	jne    44031af <type:.USgO+/zh@@Base+0x8f>
 4403185:	8b 48 14             	mov    0x14(%rax),%ecx
 4403188:	39 4b 14             	cmp    %ecx,0x14(%rbx)
 440318b:	75 22                	jne    44031af <type:.USgO+/zh@@Base+0x8f>
 440318d:	8b 48 18             	mov    0x18(%rax),%ecx
 4403190:	39 4b 18             	cmp    %ecx,0x18(%rbx)
 4403193:	75 1a                	jne    44031af <type:.USgO+/zh@@Base+0x8f>
 4403195:	8b 48 1c             	mov    0x1c(%rax),%ecx
 4403198:	39 4b 1c             	cmp    %ecx,0x1c(%rbx)
 440319b:	75 12                	jne    44031af <type:.USgO+/zh@@Base+0x8f>
 440319d:	8b 48 20             	mov    0x20(%rax),%ecx
 44031a0:	39 4b 20             	cmp    %ecx,0x20(%rbx)
 44031a3:	75 0a                	jne    44031af <type:.USgO+/zh@@Base+0x8f>
 44031a5:	8b 48 24             	mov    0x24(%rax),%ecx
 44031a8:	39 4b 24             	cmp    %ecx,0x24(%rbx)
 44031ab:	0f 94 c0             	sete   %al
 44031ae:	c3                   	ret
 44031af:	31 c0                	xor    %eax,%eax
 44031b1:	c3                   	ret
 44031b2:	cc                   	int3
 44031b3:	cc                   	int3
 44031b4:	cc                   	int3
 44031b5:	cc                   	int3
 44031b6:	cc                   	int3
 44031b7:	cc                   	int3
 44031b8:	cc                   	int3
 44031b9:	cc                   	int3
 44031ba:	cc                   	int3
 44031bb:	cc                   	int3
 44031bc:	cc                   	int3
 44031bd:	cc                   	int3
 44031be:	cc                   	int3
 44031bf:	cc                   	int3

00000000044031c0 <type:.KkBZ016j@@Base>:
 44031c0:	49 3b 66 10          	cmp    0x10(%r14),%rsp
 44031c4:	76 34                	jbe    44031fa <type:.KkBZ016j@@Base+0x3a>
 44031c6:	48 83 ec 20          	sub    $0x20,%rsp
 44031ca:	48 89 6c 24 18       	mov    %rbp,0x18(%rsp)
 44031cf:	48 8d 6c 24 18       	lea    0x18(%rsp),%rbp
 44031d4:	8b 10                	mov    (%rax),%edx
 44031d6:	39 13                	cmp    %edx,(%rbx)
 44031d8:	74 04                	je     44031de <type:.KkBZ016j@@Base+0x1e>
 44031da:	31 c0                	xor    %eax,%eax
 44031dc:	eb 12                	jmp    44031f0 <type:.KkBZ016j@@Base+0x30>
 44031de:	48 83 c0 08          	add    $0x8,%rax
 44031e2:	48 83 c3 08          	add    $0x8,%rbx
 44031e6:	b9 44 00 00 00       	mov    $0x44,%ecx
 44031eb:	e8 30 09 ae fd       	call   1ee3b20 <runtime.memequal@@Base>
 44031f0:	48 8b 6c 24 18       	mov    0x18(%rsp),%rbp
 44031f5:	48 83 c4 20          	add    $0x20,%rsp
 44031f9:	c3                   	ret
 44031fa:	48 89 44 24 08       	mov    %rax,0x8(%rsp)
 44031ff:	48 89 5c 24 10       	mov    %rbx,0x10(%rsp)
 4403204:	e8 57 12 b5 fd       	call   1f54460 <runtime.morestack_noctxt.abi0@@Base>
 4403209:	48 8b 44 24 08       	mov    0x8(%rsp),%rax
 440320e:	48 8b 5c 24 10       	mov    0x10(%rsp),%rbx
 4403213:	eb ab                	jmp    44031c0 <type:.KkBZ016j@@Base>
 4403215:	cc                   	int3
 4403216:	cc                   	int3
 4403217:	cc                   	int3
 4403218:	cc                   	int3
 4403219:	cc                   	int3
 440321a:	cc                   	int3
 440321b:	cc                   	int3
 440321c:	cc                   	int3
 440321d:	cc                   	int3
 440321e:	cc                   	int3
 440321f:	cc                   	int3

0000000004403220 <github.com/lasselj/timebeat/config.(*PPSPin).ToPPSClockConfig@@Base>:
 4403220:	48 83 ec 08          	sub    $0x8,%rsp
 4403224:	48 89 2c 24          	mov    %rbp,(%rsp)
 4403228:	48 8d 2c 24          	lea    (%rsp),%rbp
 440322c:	44 0f 11 7c 24 10    	movups %xmm15,0x10(%rsp)
 4403232:	48 8d 7c 24 18       	lea    0x18(%rsp),%rdi
 4403237:	48 8d 7f e0          	lea    -0x20(%rdi),%rdi
 440323b:	0f 1f 44 00 00       	nopl   0x0(%rax,%rax,1)
 4403240:	48 89 6c 24 f0       	mov    %rbp,-0x10(%rsp)
 4403245:	48 8d 6c 24 f0       	lea    -0x10(%rsp),%rbp
 440324a:	e8 db 3a b5 fd       	call   1f56d2a <runtime.duffzero@@Base+0xaa>
 440324f:	48 8b 6d 00          	mov    0x0(%rbp),%rbp
 4403253:	48 8b 0d 16 9e b6 01 	mov    0x1b69e16(%rip),%rcx        # 5f6d070 <github.com/quic-go/quic-go/internal/utils/linkedlist..dict.List[github.com/quic-go/quic-go/internal/ackhandler.interval]@@Base+0x670>
 440325a:	48 89 4c 24 10       	mov    %rcx,0x10(%rsp)
 440325f:	48 8d 7c 24 18       	lea    0x18(%rsp),%rdi
 4403264:	48 8d 35 0d 9e b6 01 	lea    0x1b69e0d(%rip),%rsi        # 5f6d078 <github.com/quic-go/quic-go/internal/utils/linkedlist..dict.List[github.com/quic-go/quic-go/internal/ackhandler.interval]@@Base+0x678>
 440326b:	48 89 6c 24 f0       	mov    %rbp,-0x10(%rsp)
 4403270:	48 8d 6c 24 f0       	lea    -0x10(%rsp),%rbp
 4403275:	e8 2a 3d b5 fd       	call   1f56fa4 <runtime.duffcopy@@Base+0x1a4>
 440327a:	48 8b 6d 00          	mov    0x0(%rbp),%rbp
 440327e:	48 8b 08             	mov    (%rax),%rcx
 4403281:	48 8b 50 08          	mov    0x8(%rax),%rdx
 4403285:	48 89 8c 24 88 00 00 	mov    %rcx,0x88(%rsp)
 440328c:	00 
 440328d:	48 89 94 24 90 00 00 	mov    %rdx,0x90(%rsp)
 4403294:	00 
 4403295:	48 8b 48 18          	mov    0x18(%rax),%rcx
 4403299:	48 89 8c 24 b0 00 00 	mov    %rcx,0xb0(%rsp)
 44032a0:	00 
 44032a1:	48 8b 48 10          	mov    0x10(%rax),%rcx
 44032a5:	48 89 8c 24 a8 00 00 	mov    %rcx,0xa8(%rsp)
 44032ac:	00 
 44032ad:	48 8b 48 20          	mov    0x20(%rax),%rcx
 44032b1:	48 89 8c 24 b8 00 00 	mov    %rcx,0xb8(%rsp)
 44032b8:	00 
 44032b9:	48 8b 48 28          	mov    0x28(%rax),%rcx
 44032bd:	48 8b 50 30          	mov    0x30(%rax),%rdx
 44032c1:	48 89 8c 24 c0 00 00 	mov    %rcx,0xc0(%rsp)
 44032c8:	00 
 44032c9:	48 89 94 24 c8 00 00 	mov    %rdx,0xc8(%rsp)
 44032d0:	00 
 44032d1:	0f b6 40 38          	movzbl 0x38(%rax),%eax
 44032d5:	88 84 24 d0 00 00 00 	mov    %al,0xd0(%rsp)
 44032dc:	48 8b 2c 24          	mov    (%rsp),%rbp
 44032e0:	48 83 c4 08          	add    $0x8,%rsp
 44032e4:	c3                   	ret
 44032e5:	cc                   	int3
 44032e6:	cc                   	int3
 44032e7:	cc                   	int3
 44032e8:	cc                   	int3
 44032e9:	cc                   	int3
 44032ea:	cc                   	int3
 44032eb:	cc                   	int3
 44032ec:	cc                   	int3
 44032ed:	cc                   	int3
 44032ee:	cc                   	int3
 44032ef:	cc                   	int3
 44032f0:	cc                   	int3
 44032f1:	cc                   	int3
 44032f2:	cc                   	int3
 44032f3:	cc                   	int3
 44032f4:	cc                   	int3
 44032f5:	cc                   	int3
 44032f6:	cc                   	int3
 44032f7:	cc                   	int3
 44032f8:	cc                   	int3
 44032f9:	cc                   	int3
 44032fa:	cc                   	int3
 44032fb:	cc                   	int3
 44032fc:	cc                   	int3
 44032fd:	cc                   	int3
 44032fe:	cc                   	int3
 44032ff:	cc                   	int3

0000000004403300 <github.com/lasselj/timebeat/config.SetAppConfig@@Base>:
 4403300:	49 3b 66 10          	cmp    0x10(%r14),%rsp
 4403304:	0f 86 1b 01 00 00    	jbe    4403425 <github.com/lasselj/timebeat/config.SetAppConfig@@Base+0x125>
 440330a:	48 83 ec 40          	sub    $0x40,%rsp
 440330e:	48 89 6c 24 38       	mov    %rbp,0x38(%rsp)
 4403313:	48 8d 6c 24 38       	lea    0x38(%rsp),%rbp
 4403318:	49 c7 c5 00 00 00 00 	mov    $0x0,%r13
 440331f:	4c 89 6c 24 30       	mov    %r13,0x30(%rsp)
 4403324:	c6 44 24 1f 00       	movb   $0x0,0x1f(%rsp)
 4403329:	90                   	nop
 440332a:	31 c0                	xor    %eax,%eax
 440332c:	4c 8d 05 55 79 a7 03 	lea    0x3a77955(%rip),%r8        # 7e7ac88 <github.com/lasselj/timebeat/config.lock@@Base>
 4403333:	41 b9 01 00 00 00    	mov    $0x1,%r9d
 4403339:	f0 45 0f b1 08       	lock cmpxchg %r9d,(%r8)
 440333e:	41 0f 94 c0          	sete   %r8b
 4403342:	45 84 c0             	test   %r8b,%r8b
 4403345:	75 0c                	jne    4403353 <github.com/lasselj/timebeat/config.SetAppConfig@@Base+0x53>
 4403347:	48 8d 05 3a 79 a7 03 	lea    0x3a7793a(%rip),%rax        # 7e7ac88 <github.com/lasselj/timebeat/config.lock@@Base>
 440334e:	e8 ed 51 b7 fd       	call   1f78540 <sync.(*Mutex).lockSlow@@Base>
 4403353:	44 0f 11 7c 24 20    	movups %xmm15,0x20(%rsp)
 4403359:	4c 8d 05 e0 00 00 00 	lea    0xe0(%rip),%r8        # 4403440 <github.com/lasselj/timebeat/config.SetAppConfig.func1@@Base>
 4403360:	4c 89 44 24 20       	mov    %r8,0x20(%rsp)
 4403365:	4c 8d 05 1c 79 a7 03 	lea    0x3a7791c(%rip),%r8        # 7e7ac88 <github.com/lasselj/timebeat/config.lock@@Base>
 440336c:	4c 89 44 24 28       	mov    %r8,0x28(%rsp)
 4403371:	4c 8d 44 24 20       	lea    0x20(%rsp),%r8
 4403376:	4c 89 44 24 30       	mov    %r8,0x30(%rsp)
 440337b:	c6 44 24 1f 01       	movb   $0x1,0x1f(%rsp)
 4403380:	83 3d d9 85 a7 03 00 	cmpl   $0x0,0x3a785d9(%rip)        # 7e7b960 <runtime.writeBarrier@@Base>
 4403387:	75 42                	jne    44033cb <github.com/lasselj/timebeat/config.SetAppConfig@@Base+0xcb>
 4403389:	48 8b 44 24 48       	mov    0x48(%rsp),%rax
 440338e:	48 89 05 4b 18 a4 03 	mov    %rax,0x3a4184b(%rip)        # 7e44be0 <github.com/lasselj/timebeat/config.appConfig@@Base>
 4403395:	48 8d 3d 4c 18 a4 03 	lea    0x3a4184c(%rip),%rdi        # 7e44be8 <github.com/lasselj/timebeat/config.appConfig@@Base+0x8>
 440339c:	48 8d 74 24 50       	lea    0x50(%rsp),%rsi
 44033a1:	b9 a2 00 00 00       	mov    $0xa2,%ecx
 44033a6:	f3 48 a5             	rep movsq %ds:(%rsi),%es:(%rdi)
 44033a9:	48 8b 44 24 48       	mov    0x48(%rsp),%rax
 44033ae:	48 89 05 4b 1d a4 03 	mov    %rax,0x3a41d4b(%rip)        # 7e45100 <github.com/lasselj/timebeat/config.startupConfig@@Base>
 44033b5:	48 8d 3d 4c 1d a4 03 	lea    0x3a41d4c(%rip),%rdi        # 7e45108 <github.com/lasselj/timebeat/config.startupConfig@@Base+0x8>
 44033bc:	48 8d 74 24 50       	lea    0x50(%rsp),%rsi
 44033c1:	b9 a2 00 00 00       	mov    $0xa2,%ecx
 44033c6:	f3 48 a5             	rep movsq %ds:(%rsi),%es:(%rdi)
 44033c9:	eb 32                	jmp    44033fd <github.com/lasselj/timebeat/config.SetAppConfig@@Base+0xfd>
 44033cb:	48 8d 05 4e d2 ac 01 	lea    0x1acd24e(%rip),%rax        # 5ed0620 <type:ugenevto@@Base>
 44033d2:	48 8d 1d 07 18 a4 03 	lea    0x3a41807(%rip),%rbx        # 7e44be0 <github.com/lasselj/timebeat/config.appConfig@@Base>
 44033d9:	48 8d 4c 24 48       	lea    0x48(%rsp),%rcx
 44033de:	66 90                	xchg   %ax,%ax
 44033e0:	e8 5b 3a af fd       	call   1ef6e40 <runtime.typedmemmove@@Base>
 44033e5:	48 8d 05 34 d2 ac 01 	lea    0x1acd234(%rip),%rax        # 5ed0620 <type:ugenevto@@Base>
 44033ec:	48 8d 1d 0d 1d a4 03 	lea    0x3a41d0d(%rip),%rbx        # 7e45100 <github.com/lasselj/timebeat/config.startupConfig@@Base>
 44033f3:	48 8d 4c 24 48       	lea    0x48(%rsp),%rcx
 44033f8:	e8 43 3a af fd       	call   1ef6e40 <runtime.typedmemmove@@Base>
 44033fd:	c6 44 24 1f 00       	movb   $0x0,0x1f(%rsp)
 4403402:	48 8b 54 24 30       	mov    0x30(%rsp),%rdx
 4403407:	48 8b 02             	mov    (%rdx),%rax
 440340a:	ff d0                	call   *%rax
 440340c:	48 8b 6c 24 38       	mov    0x38(%rsp),%rbp
 4403411:	48 83 c4 40          	add    $0x40,%rsp
 4403415:	c3                   	ret
 4403416:	e8 45 8b b1 fd       	call   1f1bf60 <runtime.deferreturn@@Base>
 440341b:	48 8b 6c 24 38       	mov    0x38(%rsp),%rbp
 4403420:	48 83 c4 40          	add    $0x40,%rsp
 4403424:	c3                   	ret
 4403425:	e8 36 10 b5 fd       	call   1f54460 <runtime.morestack_noctxt.abi0@@Base>
 440342a:	e9 d1 fe ff ff       	jmp    4403300 <github.com/lasselj/timebeat/config.SetAppConfig@@Base>
 440342f:	cc                   	int3
 4403430:	cc                   	int3
 4403431:	cc                   	int3
 4403432:	cc                   	int3
 4403433:	cc                   	int3
 4403434:	cc                   	int3
 4403435:	cc                   	int3
 4403436:	cc                   	int3
 4403437:	cc                   	int3
 4403438:	cc                   	int3
 4403439:	cc                   	int3
 440343a:	cc                   	int3
 440343b:	cc                   	int3
 440343c:	cc                   	int3
 440343d:	cc                   	int3
 440343e:	cc                   	int3
 440343f:	cc                   	int3

0000000004403440 <github.com/lasselj/timebeat/config.SetAppConfig.func1@@Base>:
 4403440:	49 3b 66 10          	cmp    0x10(%r14),%rsp
 4403444:	76 2a                	jbe    4403470 <github.com/lasselj/timebeat/config.SetAppConfig.func1@@Base+0x30>
 4403446:	48 83 ec 10          	sub    $0x10,%rsp
 440344a:	48 89 6c 24 08       	mov    %rbp,0x8(%rsp)
 440344f:	48 8d 6c 24 08       	lea    0x8(%rsp),%rbp
 4403454:	4d 8b 66 20          	mov    0x20(%r14),%r12
 4403458:	4d 85 e4             	test   %r12,%r12
 440345b:	75 1a                	jne    4403477 <github.com/lasselj/timebeat/config.SetAppConfig.func1@@Base+0x37>
 440345d:	48 8b 42 08          	mov    0x8(%rdx),%rax
 4403461:	e8 7a 53 b7 fd       	call   1f787e0 <sync.(*Mutex).Unlock@@Base>
 4403466:	48 8b 6c 24 08       	mov    0x8(%rsp),%rbp
 440346b:	48 83 c4 10          	add    $0x10,%rsp
 440346f:	c3                   	ret
 4403470:	e8 4b 0f b5 fd       	call   1f543c0 <runtime.morestack.abi0@@Base>
 4403475:	eb c9                	jmp    4403440 <github.com/lasselj/timebeat/config.SetAppConfig.func1@@Base>
 4403477:	4c 8d 6c 24 18       	lea    0x18(%rsp),%r13
 440347c:	0f 1f 40 00          	nopl   0x0(%rax)
 4403480:	4d 39 2c 24          	cmp    %r13,(%r12)
 4403484:	75 d7                	jne    440345d <github.com/lasselj/timebeat/config.SetAppConfig.func1@@Base+0x1d>
 4403486:	49 89 24 24          	mov    %rsp,(%r12)
 440348a:	eb d1                	jmp    440345d <github.com/lasselj/timebeat/config.SetAppConfig.func1@@Base+0x1d>
 440348c:	cc                   	int3
 440348d:	cc                   	int3
 440348e:	cc                   	int3
 440348f:	cc                   	int3
 4403490:	cc                   	int3
 4403491:	cc                   	int3
 4403492:	cc                   	int3
 4403493:	cc                   	int3
 4403494:	cc                   	int3
 4403495:	cc                   	int3
 4403496:	cc                   	int3
 4403497:	cc                   	int3
 4403498:	cc                   	int3
 4403499:	cc                   	int3
 440349a:	cc                   	int3
 440349b:	cc                   	int3
 440349c:	cc                   	int3
 440349d:	cc                   	int3
 440349e:	cc                   	int3
 440349f:	cc                   	int3

00000000044034a0 <github.com/lasselj/timebeat/config.SetBeatClient@@Base>:
 44034a0:	49 3b 66 10          	cmp    0x10(%r14),%rsp
 44034a4:	0f 86 e5 00 00 00    	jbe    440358f <github.com/lasselj/timebeat/config.SetBeatClient@@Base+0xef>
 44034aa:	48 83 ec 38          	sub    $0x38,%rsp
 44034ae:	48 89 6c 24 30       	mov    %rbp,0x30(%rsp)
 44034b3:	48 8d 6c 24 30       	lea    0x30(%rsp),%rbp
 44034b8:	48 89 44 24 40       	mov    %rax,0x40(%rsp)
 44034bd:	48 89 5c 24 48       	mov    %rbx,0x48(%rsp)
 44034c2:	49 c7 c5 00 00 00 00 	mov    $0x0,%r13
 44034c9:	4c 89 6c 24 28       	mov    %r13,0x28(%rsp)
 44034ce:	c6 44 24 0f 00       	movb   $0x0,0xf(%rsp)
 44034d3:	90                   	nop
 44034d4:	48 89 c1             	mov    %rax,%rcx
 44034d7:	31 c0                	xor    %eax,%eax
 44034d9:	48 8d 35 a8 77 a7 03 	lea    0x3a777a8(%rip),%rsi        # 7e7ac88 <github.com/lasselj/timebeat/config.lock@@Base>
 44034e0:	41 b8 01 00 00 00    	mov    $0x1,%r8d
 44034e6:	f0 44 0f b1 06       	lock cmpxchg %r8d,(%rsi)
 44034eb:	40 0f 94 c6          	sete   %sil
 44034ef:	40 84 f6             	test   %sil,%sil
 44034f2:	75 20                	jne    4403514 <github.com/lasselj/timebeat/config.SetBeatClient@@Base+0x74>
 44034f4:	48 89 4c 24 10       	mov    %rcx,0x10(%rsp)
 44034f9:	48 89 5c 24 48       	mov    %rbx,0x48(%rsp)
 44034fe:	48 8d 05 83 77 a7 03 	lea    0x3a77783(%rip),%rax        # 7e7ac88 <github.com/lasselj/timebeat/config.lock@@Base>
 4403505:	e8 36 50 b7 fd       	call   1f78540 <sync.(*Mutex).lockSlow@@Base>
 440350a:	48 8b 4c 24 10       	mov    0x10(%rsp),%rcx
 440350f:	48 8b 5c 24 48       	mov    0x48(%rsp),%rbx
 4403514:	44 0f 11 7c 24 18    	movups %xmm15,0x18(%rsp)
 440351a:	48 8d 05 9f 00 00 00 	lea    0x9f(%rip),%rax        # 44035c0 <github.com/lasselj/timebeat/config.SetBeatClient.func1@@Base>
 4403521:	48 89 44 24 18       	mov    %rax,0x18(%rsp)
 4403526:	48 8d 05 5b 77 a7 03 	lea    0x3a7775b(%rip),%rax        # 7e7ac88 <github.com/lasselj/timebeat/config.lock@@Base>
 440352d:	48 89 44 24 20       	mov    %rax,0x20(%rsp)
 4403532:	48 8d 44 24 18       	lea    0x18(%rsp),%rax
 4403537:	48 89 44 24 28       	mov    %rax,0x28(%rsp)
 440353c:	48 89 0d 9d e8 a2 03 	mov    %rcx,0x3a2e89d(%rip)        # 7e31de0 <github.com/lasselj/timebeat/config.beatClient@@Base>
 4403543:	83 3d 16 84 a7 03 00 	cmpl   $0x0,0x3a78416(%rip)        # 7e7b960 <runtime.writeBarrier@@Base>
 440354a:	75 09                	jne    4403555 <github.com/lasselj/timebeat/config.SetBeatClient@@Base+0xb5>
 440354c:	48 89 1d 95 e8 a2 03 	mov    %rbx,0x3a2e895(%rip)        # 7e31de8 <github.com/lasselj/timebeat/config.beatClient@@Base+0x8>
 4403553:	eb 10                	jmp    4403565 <github.com/lasselj/timebeat/config.SetBeatClient@@Base+0xc5>
 4403555:	48 8d 3d 8c e8 a2 03 	lea    0x3a2e88c(%rip),%rdi        # 7e31de8 <github.com/lasselj/timebeat/config.beatClient@@Base+0x8>
 440355c:	0f 1f 40 00          	nopl   0x0(%rax)
 4403560:	e8 db 31 b5 fd       	call   1f56740 <runtime.gcWriteBarrierBX@@Base>
 4403565:	c6 44 24 0f 00       	movb   $0x0,0xf(%rsp)
 440356a:	48 8b 54 24 28       	mov    0x28(%rsp),%rdx
 440356f:	48 8b 02             	mov    (%rdx),%rax
 4403572:	ff d0                	call   *%rax
 4403574:	48 8b 6c 24 30       	mov    0x30(%rsp),%rbp
 4403579:	48 83 c4 38          	add    $0x38,%rsp
 440357d:	c3                   	ret
 440357e:	66 90                	xchg   %ax,%ax
 4403580:	e8 db 89 b1 fd       	call   1f1bf60 <runtime.deferreturn@@Base>
 4403585:	48 8b 6c 24 30       	mov    0x30(%rsp),%rbp
 440358a:	48 83 c4 38          	add    $0x38,%rsp
 440358e:	c3                   	ret
 440358f:	48 89 44 24 08       	mov    %rax,0x8(%rsp)
 4403594:	48 89 5c 24 10       	mov    %rbx,0x10(%rsp)
 4403599:	e8 c2 0e b5 fd       	call   1f54460 <runtime.morestack_noctxt.abi0@@Base>
 440359e:	48 8b 44 24 08       	mov    0x8(%rsp),%rax
 44035a3:	48 8b 5c 24 10       	mov    0x10(%rsp),%rbx
 44035a8:	e9 f3 fe ff ff       	jmp    44034a0 <github.com/lasselj/timebeat/config.SetBeatClient@@Base>
 44035ad:	cc                   	int3
 44035ae:	cc                   	int3
 44035af:	cc                   	int3
 44035b0:	cc                   	int3
 44035b1:	cc                   	int3
 44035b2:	cc                   	int3
 44035b3:	cc                   	int3
 44035b4:	cc                   	int3
 44035b5:	cc                   	int3
 44035b6:	cc                   	int3
 44035b7:	cc                   	int3
 44035b8:	cc                   	int3
 44035b9:	cc                   	int3
 44035ba:	cc                   	int3
 44035bb:	cc                   	int3
 44035bc:	cc                   	int3
 44035bd:	cc                   	int3
 44035be:	cc                   	int3
 44035bf:	cc                   	int3

00000000044035c0 <github.com/lasselj/timebeat/config.SetBeatClient.func1@@Base>:
 44035c0:	49 3b 66 10          	cmp    0x10(%r14),%rsp
 44035c4:	76 2a                	jbe    44035f0 <github.com/lasselj/timebeat/config.SetBeatClient.func1@@Base+0x30>
 44035c6:	48 83 ec 10          	sub    $0x10,%rsp
 44035ca:	48 89 6c 24 08       	mov    %rbp,0x8(%rsp)
 44035cf:	48 8d 6c 24 08       	lea    0x8(%rsp),%rbp
 44035d4:	4d 8b 66 20          	mov    0x20(%r14),%r12
 44035d8:	4d 85 e4             	test   %r12,%r12
 44035db:	75 1a                	jne    44035f7 <github.com/lasselj/timebeat/config.SetBeatClient.func1@@Base+0x37>
 44035dd:	48 8b 42 08          	mov    0x8(%rdx),%rax
 44035e1:	e8 fa 51 b7 fd       	call   1f787e0 <sync.(*Mutex).Unlock@@Base>
 44035e6:	48 8b 6c 24 08       	mov    0x8(%rsp),%rbp
 44035eb:	48 83 c4 10          	add    $0x10,%rsp
 44035ef:	c3                   	ret
 44035f0:	e8 cb 0d b5 fd       	call   1f543c0 <runtime.morestack.abi0@@Base>
 44035f5:	eb c9                	jmp    44035c0 <github.com/lasselj/timebeat/config.SetBeatClient.func1@@Base>
 44035f7:	4c 8d 6c 24 18       	lea    0x18(%rsp),%r13
 44035fc:	0f 1f 40 00          	nopl   0x0(%rax)
 4403600:	4d 39 2c 24          	cmp    %r13,(%r12)
 4403604:	75 d7                	jne    44035dd <github.com/lasselj/timebeat/config.SetBeatClient.func1@@Base+0x1d>
 4403606:	49 89 24 24          	mov    %rsp,(%r12)
 440360a:	eb d1                	jmp    44035dd <github.com/lasselj/timebeat/config.SetBeatClient.func1@@Base+0x1d>
 440360c:	cc                   	int3
 440360d:	cc                   	int3
 440360e:	cc                   	int3
 440360f:	cc                   	int3
 4403610:	cc                   	int3
 4403611:	cc                   	int3
 4403612:	cc                   	int3
 4403613:	cc                   	int3
 4403614:	cc                   	int3
 4403615:	cc                   	int3
 4403616:	cc                   	int3
 4403617:	cc                   	int3
 4403618:	cc                   	int3
 4403619:	cc                   	int3
 440361a:	cc                   	int3
 440361b:	cc                   	int3
 440361c:	cc                   	int3
 440361d:	cc                   	int3
 440361e:	cc                   	int3
 440361f:	cc                   	int3

0000000004403620 <github.com/lasselj/timebeat/config.SetBeat@@Base>:
 4403620:	49 3b 66 10          	cmp    0x10(%r14),%rsp
 4403624:	0f 86 c5 00 00 00    	jbe    44036ef <github.com/lasselj/timebeat/config.SetBeat@@Base+0xcf>
 440362a:	48 83 ec 38          	sub    $0x38,%rsp
 440362e:	48 89 6c 24 30       	mov    %rbp,0x30(%rsp)
 4403633:	48 8d 6c 24 30       	lea    0x30(%rsp),%rbp
 4403638:	49 c7 c5 00 00 00 00 	mov    $0x0,%r13
 440363f:	4c 89 6c 24 28       	mov    %r13,0x28(%rsp)
 4403644:	c6 44 24 0f 00       	movb   $0x0,0xf(%rsp)
 4403649:	90                   	nop
 440364a:	48 89 c1             	mov    %rax,%rcx
 440364d:	31 c0                	xor    %eax,%eax
 440364f:	48 8d 1d 32 76 a7 03 	lea    0x3a77632(%rip),%rbx        # 7e7ac88 <github.com/lasselj/timebeat/config.lock@@Base>
 4403656:	be 01 00 00 00       	mov    $0x1,%esi
 440365b:	f0 0f b1 33          	lock cmpxchg %esi,(%rbx)
 440365f:	0f 94 c3             	sete   %bl
 4403662:	84 db                	test   %bl,%bl
 4403664:	75 16                	jne    440367c <github.com/lasselj/timebeat/config.SetBeat@@Base+0x5c>
 4403666:	48 89 4c 24 10       	mov    %rcx,0x10(%rsp)
 440366b:	48 8d 05 16 76 a7 03 	lea    0x3a77616(%rip),%rax        # 7e7ac88 <github.com/lasselj/timebeat/config.lock@@Base>
 4403672:	e8 c9 4e b7 fd       	call   1f78540 <sync.(*Mutex).lockSlow@@Base>
 4403677:	48 8b 4c 24 10       	mov    0x10(%rsp),%rcx
 440367c:	44 0f 11 7c 24 18    	movups %xmm15,0x18(%rsp)
 4403682:	48 8d 05 97 00 00 00 	lea    0x97(%rip),%rax        # 4403720 <github.com/lasselj/timebeat/config.SetBeat.func1@@Base>
 4403689:	48 89 44 24 18       	mov    %rax,0x18(%rsp)
 440368e:	48 8d 05 f3 75 a7 03 	lea    0x3a775f3(%rip),%rax        # 7e7ac88 <github.com/lasselj/timebeat/config.lock@@Base>
 4403695:	48 89 44 24 20       	mov    %rax,0x20(%rsp)
 440369a:	48 8d 44 24 18       	lea    0x18(%rsp),%rax
 440369f:	48 89 44 24 28       	mov    %rax,0x28(%rsp)
 44036a4:	83 3d b5 82 a7 03 00 	cmpl   $0x0,0x3a782b5(%rip)        # 7e7b960 <runtime.writeBarrier@@Base>
 44036ab:	75 09                	jne    44036b6 <github.com/lasselj/timebeat/config.SetBeat@@Base+0x96>
 44036ad:	48 89 0d 14 8c a2 03 	mov    %rcx,0x3a28c14(%rip)        # 7e2c2c8 <github.com/lasselj/timebeat/config.beatBeat@@Base>
 44036b4:	eb 0f                	jmp    44036c5 <github.com/lasselj/timebeat/config.SetBeat@@Base+0xa5>
 44036b6:	48 8d 3d 0b 8c a2 03 	lea    0x3a28c0b(%rip),%rdi        # 7e2c2c8 <github.com/lasselj/timebeat/config.beatBeat@@Base>
 44036bd:	0f 1f 00             	nopl   (%rax)
 44036c0:	e8 3b 30 b5 fd       	call   1f56700 <runtime.gcWriteBarrierCX@@Base>
 44036c5:	c6 44 24 0f 00       	movb   $0x0,0xf(%rsp)
 44036ca:	48 8b 54 24 28       	mov    0x28(%rsp),%rdx
 44036cf:	48 8b 02             	mov    (%rdx),%rax
 44036d2:	ff d0                	call   *%rax
 44036d4:	48 8b 6c 24 30       	mov    0x30(%rsp),%rbp
 44036d9:	48 83 c4 38          	add    $0x38,%rsp
 44036dd:	c3                   	ret
 44036de:	66 90                	xchg   %ax,%ax
 44036e0:	e8 7b 88 b1 fd       	call   1f1bf60 <runtime.deferreturn@@Base>
 44036e5:	48 8b 6c 24 30       	mov    0x30(%rsp),%rbp
 44036ea:	48 83 c4 38          	add    $0x38,%rsp
 44036ee:	c3                   	ret
 44036ef:	48 89 44 24 08       	mov    %rax,0x8(%rsp)
 44036f4:	e8 67 0d b5 fd       	call   1f54460 <runtime.morestack_noctxt.abi0@@Base>
 44036f9:	48 8b 44 24 08       	mov    0x8(%rsp),%rax
 44036fe:	66 90                	xchg   %ax,%ax
 4403700:	e9 1b ff ff ff       	jmp    4403620 <github.com/lasselj/timebeat/config.SetBeat@@Base>
 4403705:	cc                   	int3
 4403706:	cc                   	int3
 4403707:	cc                   	int3
 4403708:	cc                   	int3
 4403709:	cc                   	int3
 440370a:	cc                   	int3
 440370b:	cc                   	int3
 440370c:	cc                   	int3
 440370d:	cc                   	int3
 440370e:	cc                   	int3
 440370f:	cc                   	int3
 4403710:	cc                   	int3
 4403711:	cc                   	int3
 4403712:	cc                   	int3
 4403713:	cc                   	int3
 4403714:	cc                   	int3
 4403715:	cc                   	int3
 4403716:	cc                   	int3
 4403717:	cc                   	int3
 4403718:	cc                   	int3
 4403719:	cc                   	int3
 440371a:	cc                   	int3
 440371b:	cc                   	int3
 440371c:	cc                   	int3
 440371d:	cc                   	int3
 440371e:	cc                   	int3
 440371f:	cc                   	int3

0000000004403720 <github.com/lasselj/timebeat/config.SetBeat.func1@@Base>:
 4403720:	49 3b 66 10          	cmp    0x10(%r14),%rsp
 4403724:	76 2a                	jbe    4403750 <github.com/lasselj/timebeat/config.SetBeat.func1@@Base+0x30>
 4403726:	48 83 ec 10          	sub    $0x10,%rsp
 440372a:	48 89 6c 24 08       	mov    %rbp,0x8(%rsp)
 440372f:	48 8d 6c 24 08       	lea    0x8(%rsp),%rbp
 4403734:	4d 8b 66 20          	mov    0x20(%r14),%r12
 4403738:	4d 85 e4             	test   %r12,%r12
 440373b:	75 1a                	jne    4403757 <github.com/lasselj/timebeat/config.SetBeat.func1@@Base+0x37>
 440373d:	48 8b 42 08          	mov    0x8(%rdx),%rax
 4403741:	e8 9a 50 b7 fd       	call   1f787e0 <sync.(*Mutex).Unlock@@Base>
 4403746:	48 8b 6c 24 08       	mov    0x8(%rsp),%rbp
 440374b:	48 83 c4 10          	add    $0x10,%rsp
 440374f:	c3                   	ret
 4403750:	e8 6b 0c b5 fd       	call   1f543c0 <runtime.morestack.abi0@@Base>
 4403755:	eb c9                	jmp    4403720 <github.com/lasselj/timebeat/config.SetBeat.func1@@Base>
 4403757:	4c 8d 6c 24 18       	lea    0x18(%rsp),%r13
 440375c:	0f 1f 40 00          	nopl   0x0(%rax)
 4403760:	4d 39 2c 24          	cmp    %r13,(%r12)
 4403764:	75 d7                	jne    440373d <github.com/lasselj/timebeat/config.SetBeat.func1@@Base+0x1d>
 4403766:	49 89 24 24          	mov    %rsp,(%r12)
 440376a:	eb d1                	jmp    440373d <github.com/lasselj/timebeat/config.SetBeat.func1@@Base+0x1d>
 440376c:	cc                   	int3
 440376d:	cc                   	int3
 440376e:	cc                   	int3
 440376f:	cc                   	int3
 4403770:	cc                   	int3
 4403771:	cc                   	int3
 4403772:	cc                   	int3
 4403773:	cc                   	int3
 4403774:	cc                   	int3
 4403775:	cc                   	int3
 4403776:	cc                   	int3
 4403777:	cc                   	int3
 4403778:	cc                   	int3
 4403779:	cc                   	int3
 440377a:	cc                   	int3
 440377b:	cc                   	int3
 440377c:	cc                   	int3
 440377d:	cc                   	int3
 440377e:	cc                   	int3
 440377f:	cc                   	int3

0000000004403780 <github.com/lasselj/timebeat/config.GetPeerIdentities@@Base>:
 4403780:	49 3b 66 10          	cmp    0x10(%r14),%rsp
 4403784:	76 3c                	jbe    44037c2 <github.com/lasselj/timebeat/config.GetPeerIdentities@@Base+0x42>
 4403786:	48 83 ec 18          	sub    $0x18,%rsp
 440378a:	48 89 6c 24 10       	mov    %rbp,0x10(%rsp)
 440378f:	48 8d 6c 24 10       	lea    0x10(%rsp),%rbp
 4403794:	8b 0d 9e 7c a7 03    	mov    0x3a77c9e(%rip),%ecx        # 7e7b438 <github.com/lasselj/timebeat/config.once@@Base>
 440379a:	85 c9                	test   %ecx,%ecx
 440379c:	75 13                	jne    44037b1 <github.com/lasselj/timebeat/config.GetPeerIdentities@@Base+0x31>
 440379e:	48 8d 05 93 7c a7 03 	lea    0x3a77c93(%rip),%rax        # 7e7b438 <github.com/lasselj/timebeat/config.once@@Base>
 44037a5:	48 8d 1d fc 8a ae 01 	lea    0x1ae8afc(%rip),%rbx        # 5eec2a8 <github.com/lasselj/timebeat/config.GetPeerIdentities.func1f@@Base>
 44037ac:	e8 cf 51 b7 fd       	call   1f78980 <sync.(*Once).doSlow@@Base>
 44037b1:	48 8b 05 18 8b a2 03 	mov    0x3a28b18(%rip),%rax        # 7e2c2d0 <github.com/lasselj/timebeat/config.peerIdentities@@Base>
 44037b8:	48 8b 6c 24 10       	mov    0x10(%rsp),%rbp
 44037bd:	48 83 c4 18          	add    $0x18,%rsp
 44037c1:	c3                   	ret
 44037c2:	e8 99 0c b5 fd       	call   1f54460 <runtime.morestack_noctxt.abi0@@Base>
 44037c7:	eb b7                	jmp    4403780 <github.com/lasselj/timebeat/config.GetPeerIdentities@@Base>
 44037c9:	cc                   	int3
 44037ca:	cc                   	int3
 44037cb:	cc                   	int3
 44037cc:	cc                   	int3
 44037cd:	cc                   	int3
 44037ce:	cc                   	int3
 44037cf:	cc                   	int3
 44037d0:	cc                   	int3
 44037d1:	cc                   	int3
 44037d2:	cc                   	int3
 44037d3:	cc                   	int3
 44037d4:	cc                   	int3
 44037d5:	cc                   	int3
 44037d6:	cc                   	int3
 44037d7:	cc                   	int3
 44037d8:	cc                   	int3
 44037d9:	cc                   	int3
 44037da:	cc                   	int3
 44037db:	cc                   	int3
 44037dc:	cc                   	int3
 44037dd:	cc                   	int3
 44037de:	cc                   	int3
 44037df:	cc                   	int3

00000000044037e0 <github.com/lasselj/timebeat/config.(*Identity).DeepCopy@@Base>:
 44037e0:	49 3b 66 10          	cmp    0x10(%r14),%rsp
 44037e4:	0f 86 81 01 00 00    	jbe    440396b <github.com/lasselj/timebeat/config.(*Identity).DeepCopy@@Base+0x18b>
 44037ea:	48 83 ec 58          	sub    $0x58,%rsp
 44037ee:	48 89 6c 24 50       	mov    %rbp,0x50(%rsp)
 44037f3:	48 8d 6c 24 50       	lea    0x50(%rsp),%rbp
 44037f8:	48 89 44 24 60       	mov    %rax,0x60(%rsp)
 44037fd:	48 8b 48 28          	mov    0x28(%rax),%rcx
 4403801:	48 89 4c 24 30       	mov    %rcx,0x30(%rsp)
 4403806:	48 89 cb             	mov    %rcx,%rbx
 4403809:	48 8d 05 90 ae 3a 01 	lea    0x13aae90(%rip),%rax        # 57ae6a0 <type:string@@Base>
 4403810:	e8 cb 2b b3 fd       	call   1f363e0 <runtime.makeslice@@Base>
 4403815:	48 89 44 24 48       	mov    %rax,0x48(%rsp)
 440381a:	48 8b 54 24 60       	mov    0x60(%rsp),%rdx
 440381f:	48 8b 4a 50          	mov    0x50(%rdx),%rcx
 4403823:	48 89 4c 24 28       	mov    %rcx,0x28(%rsp)
 4403828:	48 89 cb             	mov    %rcx,%rbx
 440382b:	48 8d 05 0e 0b 4b 01 	lea    0x14b0b0e(%rip),%rax        # 58b4340 <type:tpDRQG8O@@Base>
 4403832:	e8 a9 2b b3 fd       	call   1f363e0 <runtime.makeslice@@Base>
 4403837:	48 89 44 24 40       	mov    %rax,0x40(%rsp)
 440383c:	48 8d 05 5d 8a 8a 01 	lea    0x18a8a5d(%rip),%rax        # 5cac2a0 <type:zFbdAtxm@@Base>
 4403843:	e8 98 cc ae fd       	call   1ef04e0 <runtime.newobject@@Base>
 4403848:	48 8b 54 24 60       	mov    0x60(%rsp),%rdx
 440384d:	48 8b 32             	mov    (%rdx),%rsi
 4403850:	48 8b 7a 08          	mov    0x8(%rdx),%rdi
 4403854:	48 89 78 08          	mov    %rdi,0x8(%rax)
 4403858:	83 3d 01 81 a7 03 00 	cmpl   $0x0,0x3a78101(%rip)        # 7e7b960 <runtime.writeBarrier@@Base>
 440385f:	90                   	nop
 4403860:	75 05                	jne    4403867 <github.com/lasselj/timebeat/config.(*Identity).DeepCopy@@Base+0x87>
 4403862:	48 89 30             	mov    %rsi,(%rax)
 4403865:	eb 08                	jmp    440386f <github.com/lasselj/timebeat/config.(*Identity).DeepCopy@@Base+0x8f>
 4403867:	48 89 c7             	mov    %rax,%rdi
 440386a:	e8 f1 2e b5 fd       	call   1f56760 <runtime.gcWriteBarrierSI@@Base>
 440386f:	4c 8b 42 10          	mov    0x10(%rdx),%r8
 4403873:	4c 8b 4a 18          	mov    0x18(%rdx),%r9
 4403877:	4c 89 48 18          	mov    %r9,0x18(%rax)
 440387b:	83 3d de 80 a7 03 00 	cmpl   $0x0,0x3a780de(%rip)        # 7e7b960 <runtime.writeBarrier@@Base>
 4403882:	75 06                	jne    440388a <github.com/lasselj/timebeat/config.(*Identity).DeepCopy@@Base+0xaa>
 4403884:	4c 89 40 10          	mov    %r8,0x10(%rax)
 4403888:	eb 09                	jmp    4403893 <github.com/lasselj/timebeat/config.(*Identity).DeepCopy@@Base+0xb3>
 440388a:	48 8d 78 10          	lea    0x10(%rax),%rdi
 440388e:	e8 ed 2e b5 fd       	call   1f56780 <runtime.gcWriteBarrierR8@@Base>
 4403893:	4c 8b 42 40          	mov    0x40(%rdx),%r8
 4403897:	4c 8b 4a 38          	mov    0x38(%rdx),%r9
 440389b:	4c 89 48 38          	mov    %r9,0x38(%rax)
 440389f:	83 3d ba 80 a7 03 00 	cmpl   $0x0,0x3a780ba(%rip)        # 7e7b960 <runtime.writeBarrier@@Base>
 44038a6:	75 06                	jne    44038ae <github.com/lasselj/timebeat/config.(*Identity).DeepCopy@@Base+0xce>
 44038a8:	4c 89 40 40          	mov    %r8,0x40(%rax)
 44038ac:	eb 09                	jmp    44038b7 <github.com/lasselj/timebeat/config.(*Identity).DeepCopy@@Base+0xd7>
 44038ae:	48 8d 78 40          	lea    0x40(%rax),%rdi
 44038b2:	e8 c9 2e b5 fd       	call   1f56780 <runtime.gcWriteBarrierR8@@Base>
 44038b7:	4c 8b 44 24 30       	mov    0x30(%rsp),%r8
 44038bc:	4c 89 40 28          	mov    %r8,0x28(%rax)
 44038c0:	4c 89 40 30          	mov    %r8,0x30(%rax)
 44038c4:	83 3d 95 80 a7 03 00 	cmpl   $0x0,0x3a78095(%rip)        # 7e7b960 <runtime.writeBarrier@@Base>
 44038cb:	75 0b                	jne    44038d8 <github.com/lasselj/timebeat/config.(*Identity).DeepCopy@@Base+0xf8>
 44038cd:	4c 8b 44 24 48       	mov    0x48(%rsp),%r8
 44038d2:	4c 89 40 20          	mov    %r8,0x20(%rax)
 44038d6:	eb 0e                	jmp    44038e6 <github.com/lasselj/timebeat/config.(*Identity).DeepCopy@@Base+0x106>
 44038d8:	48 8d 78 20          	lea    0x20(%rax),%rdi
 44038dc:	4c 8b 44 24 48       	mov    0x48(%rsp),%r8
 44038e1:	e8 9a 2e b5 fd       	call   1f56780 <runtime.gcWriteBarrierR8@@Base>
 44038e6:	4c 8b 44 24 28       	mov    0x28(%rsp),%r8
 44038eb:	4c 89 40 50          	mov    %r8,0x50(%rax)
 44038ef:	4c 89 40 58          	mov    %r8,0x58(%rax)
 44038f3:	83 3d 66 80 a7 03 00 	cmpl   $0x0,0x3a78066(%rip)        # 7e7b960 <runtime.writeBarrier@@Base>
 44038fa:	75 0b                	jne    4403907 <github.com/lasselj/timebeat/config.(*Identity).DeepCopy@@Base+0x127>
 44038fc:	4c 8b 44 24 40       	mov    0x40(%rsp),%r8
 4403901:	4c 89 40 48          	mov    %r8,0x48(%rax)
 4403905:	eb 0e                	jmp    4403915 <github.com/lasselj/timebeat/config.(*Identity).DeepCopy@@Base+0x135>
 4403907:	48 8d 78 48          	lea    0x48(%rax),%rdi
 440390b:	4c 8b 44 24 40       	mov    0x40(%rsp),%r8
 4403910:	e8 6b 2e b5 fd       	call   1f56780 <runtime.gcWriteBarrierR8@@Base>
 4403915:	48 89 44 24 38       	mov    %rax,0x38(%rsp)
 440391a:	48 8b 58 20          	mov    0x20(%rax),%rbx
 440391e:	48 8b 48 28          	mov    0x28(%rax),%rcx
 4403922:	48 8b 7a 20          	mov    0x20(%rdx),%rdi
 4403926:	48 8b 72 28          	mov    0x28(%rdx),%rsi
 440392a:	48 8d 05 6f ad 3a 01 	lea    0x13aad6f(%rip),%rax        # 57ae6a0 <type:string@@Base>
 4403931:	e8 ca 36 af fd       	call   1ef7000 <runtime.typedslicecopy@@Base>
 4403936:	48 8b 54 24 38       	mov    0x38(%rsp),%rdx
 440393b:	48 8b 5a 48          	mov    0x48(%rdx),%rbx
 440393f:	48 8b 4a 50          	mov    0x50(%rdx),%rcx
 4403943:	4c 8b 44 24 60       	mov    0x60(%rsp),%r8
 4403948:	49 8b 78 48          	mov    0x48(%r8),%rdi
 440394c:	49 8b 70 50          	mov    0x50(%r8),%rsi
 4403950:	48 8d 05 e9 09 4b 01 	lea    0x14b09e9(%rip),%rax        # 58b4340 <type:tpDRQG8O@@Base>
 4403957:	e8 a4 36 af fd       	call   1ef7000 <runtime.typedslicecopy@@Base>
 440395c:	48 8b 44 24 38       	mov    0x38(%rsp),%rax
 4403961:	48 8b 6c 24 50       	mov    0x50(%rsp),%rbp
 4403966:	48 83 c4 58          	add    $0x58,%rsp
 440396a:	c3                   	ret
 440396b:	48 89 44 24 08       	mov    %rax,0x8(%rsp)
 4403970:	e8 eb 0a b5 fd       	call   1f54460 <runtime.morestack_noctxt.abi0@@Base>
 4403975:	48 8b 44 24 08       	mov    0x8(%rsp),%rax
 440397a:	e9 61 fe ff ff       	jmp    44037e0 <github.com/lasselj/timebeat/config.(*Identity).DeepCopy@@Base>
 440397f:	cc                   	int3

0000000004403980 <github.com/lasselj/timebeat/config.(*Identity).SaveIdentity@@Base>:
 4403980:	4c 8d a4 24 58 ff ff 	lea    -0xa8(%rsp),%r12
 4403987:	ff 
 4403988:	4d 3b 66 10          	cmp    0x10(%r14),%r12
 440398c:	0f 86 96 02 00 00    	jbe    4403c28 <github.com/lasselj/timebeat/config.(*Identity).SaveIdentity@@Base+0x2a8>
 4403992:	48 81 ec 28 01 00 00 	sub    $0x128,%rsp
 4403999:	48 89 ac 24 20 01 00 	mov    %rbp,0x120(%rsp)
 44039a0:	00 
 44039a1:	48 8d ac 24 20 01 00 	lea    0x120(%rsp),%rbp
 44039a8:	00 
 44039a9:	49 c7 c5 00 00 00 00 	mov    $0x0,%r13
 44039b0:	4c 89 ac 24 18 01 00 	mov    %r13,0x118(%rsp)
 44039b7:	00 
 44039b8:	48 89 84 24 30 01 00 	mov    %rax,0x130(%rsp)
 44039bf:	00 
 44039c0:	c6 44 24 2f 00       	movb   $0x0,0x2f(%rsp)
 44039c5:	90                   	nop
 44039c6:	48 89 c1             	mov    %rax,%rcx
 44039c9:	31 c0                	xor    %eax,%eax
 44039cb:	48 8d 15 b6 72 a7 03 	lea    0x3a772b6(%rip),%rdx        # 7e7ac88 <github.com/lasselj/timebeat/config.lock@@Base>
 44039d2:	be 01 00 00 00       	mov    $0x1,%esi
 44039d7:	f0 0f b1 32          	lock cmpxchg %esi,(%rdx)
 44039db:	0f 94 c2             	sete   %dl
 44039de:	66 90                	xchg   %ax,%ax
 44039e0:	84 d2                	test   %dl,%dl
 44039e2:	75 14                	jne    44039f8 <github.com/lasselj/timebeat/config.(*Identity).SaveIdentity@@Base+0x78>
 44039e4:	48 8d 05 9d 72 a7 03 	lea    0x3a7729d(%rip),%rax        # 7e7ac88 <github.com/lasselj/timebeat/config.lock@@Base>
 44039eb:	e8 50 4b b7 fd       	call   1f78540 <sync.(*Mutex).lockSlow@@Base>
 44039f0:	48 8b 8c 24 30 01 00 	mov    0x130(%rsp),%rcx
 44039f7:	00 
 44039f8:	44 0f 11 7c 24 48    	movups %xmm15,0x48(%rsp)
 44039fe:	48 8d 15 3b 02 00 00 	lea    0x23b(%rip),%rdx        # 4403c40 <github.com/lasselj/timebeat/config.(*Identity).SaveIdentity.func1@@Base>
 4403a05:	48 89 54 24 48       	mov    %rdx,0x48(%rsp)
 4403a0a:	48 8d 15 77 72 a7 03 	lea    0x3a77277(%rip),%rdx        # 7e7ac88 <github.com/lasselj/timebeat/config.lock@@Base>
 4403a11:	48 89 54 24 50       	mov    %rdx,0x50(%rsp)
 4403a16:	48 8d 54 24 48       	lea    0x48(%rsp),%rdx
 4403a1b:	48 89 94 24 18 01 00 	mov    %rdx,0x118(%rsp)
 4403a22:	00 
 4403a23:	c6 44 24 2f 01       	movb   $0x1,0x2f(%rsp)
 4403a28:	90                   	nop
 4403a29:	48 8b 59 28          	mov    0x28(%rcx),%rbx
 4403a2d:	48 89 5c 24 38       	mov    %rbx,0x38(%rsp)
 4403a32:	48 8d 05 67 ac 3a 01 	lea    0x13aac67(%rip),%rax        # 57ae6a0 <type:string@@Base>
 4403a39:	48 89 d9             	mov    %rbx,%rcx
 4403a3c:	0f 1f 40 00          	nopl   0x0(%rax)
 4403a40:	e8 9b 29 b3 fd       	call   1f363e0 <runtime.makeslice@@Base>
 4403a45:	48 89 44 24 40       	mov    %rax,0x40(%rsp)
 4403a4a:	48 8b 94 24 30 01 00 	mov    0x130(%rsp),%rdx
 4403a51:	00 
 4403a52:	48 8b 4a 50          	mov    0x50(%rdx),%rcx
 4403a56:	48 89 4c 24 30       	mov    %rcx,0x30(%rsp)
 4403a5b:	48 89 cb             	mov    %rcx,%rbx
 4403a5e:	48 8d 05 db 08 4b 01 	lea    0x14b08db(%rip),%rax        # 58b4340 <type:tpDRQG8O@@Base>
 4403a65:	e8 76 29 b3 fd       	call   1f363e0 <runtime.makeslice@@Base>
 4403a6a:	48 8d 7c 24 58       	lea    0x58(%rsp),%rdi
 4403a6f:	48 8d 7f e0          	lea    -0x20(%rdi),%rdi
 4403a73:	66 0f 1f 84 00 00 00 	nopw   0x0(%rax,%rax,1)
 4403a7a:	00 00 
 4403a7c:	0f 1f 40 00          	nopl   0x0(%rax)
 4403a80:	48 89 6c 24 f0       	mov    %rbp,-0x10(%rsp)
 4403a85:	48 8d 6c 24 f0       	lea    -0x10(%rsp),%rbp
 4403a8a:	e8 3c 33 b5 fd       	call   1f56dcb <runtime.duffzero@@Base+0x14b>
 4403a8f:	48 8b 6d 00          	mov    0x0(%rbp),%rbp
 4403a93:	48 8b 94 24 30 01 00 	mov    0x130(%rsp),%rdx
 4403a9a:	00 
 4403a9b:	48 8b 32             	mov    (%rdx),%rsi
 4403a9e:	48 8b 7a 08          	mov    0x8(%rdx),%rdi
 4403aa2:	48 89 74 24 58       	mov    %rsi,0x58(%rsp)
 4403aa7:	48 89 7c 24 60       	mov    %rdi,0x60(%rsp)
 4403aac:	48 8b 72 10          	mov    0x10(%rdx),%rsi
 4403ab0:	48 8b 7a 18          	mov    0x18(%rdx),%rdi
 4403ab4:	48 89 74 24 68       	mov    %rsi,0x68(%rsp)
 4403ab9:	48 89 7c 24 70       	mov    %rdi,0x70(%rsp)
 4403abe:	48 8b 72 38          	mov    0x38(%rdx),%rsi
 4403ac2:	48 8b 7a 40          	mov    0x40(%rdx),%rdi
 4403ac6:	48 89 b4 24 90 00 00 	mov    %rsi,0x90(%rsp)
 4403acd:	00 
 4403ace:	48 89 bc 24 98 00 00 	mov    %rdi,0x98(%rsp)
 4403ad5:	00 
 4403ad6:	48 8b 5c 24 40       	mov    0x40(%rsp),%rbx
 4403adb:	48 89 5c 24 78       	mov    %rbx,0x78(%rsp)
 4403ae0:	48 8b 4c 24 38       	mov    0x38(%rsp),%rcx
 4403ae5:	48 89 8c 24 80 00 00 	mov    %rcx,0x80(%rsp)
 4403aec:	00 
 4403aed:	48 89 8c 24 88 00 00 	mov    %rcx,0x88(%rsp)
 4403af4:	00 
 4403af5:	48 89 84 24 a0 00 00 	mov    %rax,0xa0(%rsp)
 4403afc:	00 
 4403afd:	48 8b 74 24 30       	mov    0x30(%rsp),%rsi
 4403b02:	48 89 b4 24 a8 00 00 	mov    %rsi,0xa8(%rsp)
 4403b09:	00 
 4403b0a:	48 89 b4 24 b0 00 00 	mov    %rsi,0xb0(%rsp)
 4403b11:	00 
 4403b12:	48 8b 7a 20          	mov    0x20(%rdx),%rdi
 4403b16:	48 8b 72 28          	mov    0x28(%rdx),%rsi
 4403b1a:	48 8d 05 7f ab 3a 01 	lea    0x13aab7f(%rip),%rax        # 57ae6a0 <type:string@@Base>
 4403b21:	e8 da 34 af fd       	call   1ef7000 <runtime.typedslicecopy@@Base>
 4403b26:	48 8b 9c 24 a0 00 00 	mov    0xa0(%rsp),%rbx
 4403b2d:	00 
 4403b2e:	48 8b 8c 24 a8 00 00 	mov    0xa8(%rsp),%rcx
 4403b35:	00 
 4403b36:	48 8b 94 24 30 01 00 	mov    0x130(%rsp),%rdx
 4403b3d:	00 
 4403b3e:	48 8b 7a 48          	mov    0x48(%rdx),%rdi
 4403b42:	48 8b 72 50          	mov    0x50(%rdx),%rsi
 4403b46:	48 8d 05 f3 07 4b 01 	lea    0x14b07f3(%rip),%rax        # 58b4340 <type:tpDRQG8O@@Base>
 4403b4d:	e8 ae 34 af fd       	call   1ef7000 <runtime.typedslicecopy@@Base>
 4403b52:	e8 29 fc ff ff       	call   4403780 <github.com/lasselj/timebeat/config.GetPeerIdentities@@Base>
 4403b57:	48 8d bc 24 b8 00 00 	lea    0xb8(%rsp),%rdi
 4403b5e:	00 
 4403b5f:	48 8d 74 24 58       	lea    0x58(%rsp),%rsi
 4403b64:	48 89 6c 24 f0       	mov    %rbp,-0x10(%rsp)
 4403b69:	48 8d 6c 24 f0       	lea    -0x10(%rsp),%rbp
 4403b6e:	e8 b9 35 b5 fd       	call   1f5712c <runtime.duffcopy@@Base+0x32c>
 4403b73:	48 8b 6d 00          	mov    0x0(%rbp),%rbp
 4403b77:	48 8b 18             	mov    (%rax),%rbx
 4403b7a:	48 8b 94 24 30 01 00 	mov    0x130(%rsp),%rdx
 4403b81:	00 
 4403b82:	48 8b 0a             	mov    (%rdx),%rcx
 4403b85:	48 8b 7a 08          	mov    0x8(%rdx),%rdi
 4403b89:	48 8d 05 10 9c 54 01 	lea    0x1549c10(%rip),%rax        # 594d7a0 <type:7G1EDQaC@@Base>
 4403b90:	e8 4b 26 af fd       	call   1ef61e0 <runtime.mapassign_faststr@@Base>
 4403b95:	84 00                	test   %al,(%rax)
 4403b97:	83 3d c2 7d a7 03 00 	cmpl   $0x0,0x3a77dc2(%rip)        # 7e7b960 <runtime.writeBarrier@@Base>
 4403b9e:	66 90                	xchg   %ax,%ax
 4403ba0:	75 33                	jne    4403bd5 <github.com/lasselj/timebeat/config.(*Identity).SaveIdentity@@Base+0x255>
 4403ba2:	48 89 c7             	mov    %rax,%rdi
 4403ba5:	48 8d b4 24 b8 00 00 	lea    0xb8(%rsp),%rsi
 4403bac:	00 
 4403bad:	66 0f 1f 84 00 00 00 	nopw   0x0(%rax,%rax,1)
 4403bb4:	00 00 
 4403bb6:	66 0f 1f 84 00 00 00 	nopw   0x0(%rax,%rax,1)
 4403bbd:	00 00 
 4403bbf:	90                   	nop
 4403bc0:	48 89 6c 24 f0       	mov    %rbp,-0x10(%rsp)
 4403bc5:	48 8d 6c 24 f0       	lea    -0x10(%rsp),%rbp
 4403bca:	e8 5d 35 b5 fd       	call   1f5712c <runtime.duffcopy@@Base+0x32c>
 4403bcf:	48 8b 6d 00          	mov    0x0(%rbp),%rbp
 4403bd3:	eb 17                	jmp    4403bec <github.com/lasselj/timebeat/config.(*Identity).SaveIdentity@@Base+0x26c>
 4403bd5:	48 89 c3             	mov    %rax,%rbx
 4403bd8:	48 8d 8c 24 b8 00 00 	lea    0xb8(%rsp),%rcx
 4403bdf:	00 
 4403be0:	48 8d 05 b9 86 8a 01 	lea    0x18a86b9(%rip),%rax        # 5cac2a0 <type:zFbdAtxm@@Base>
 4403be7:	e8 54 32 af fd       	call   1ef6e40 <runtime.typedmemmove@@Base>
 4403bec:	e8 6f 05 00 00       	call   4404160 <github.com/lasselj/timebeat/config.saveToFileLocked@@Base>
 4403bf1:	c6 44 24 2f 00       	movb   $0x0,0x2f(%rsp)
 4403bf6:	48 8b 94 24 18 01 00 	mov    0x118(%rsp),%rdx
 4403bfd:	00 
 4403bfe:	48 8b 02             	mov    (%rdx),%rax
 4403c01:	ff d0                	call   *%rax
 4403c03:	48 8b ac 24 20 01 00 	mov    0x120(%rsp),%rbp
 4403c0a:	00 
 4403c0b:	48 81 c4 28 01 00 00 	add    $0x128,%rsp
 4403c12:	c3                   	ret
 4403c13:	e8 48 83 b1 fd       	call   1f1bf60 <runtime.deferreturn@@Base>
 4403c18:	48 8b ac 24 20 01 00 	mov    0x120(%rsp),%rbp
 4403c1f:	00 
 4403c20:	48 81 c4 28 01 00 00 	add    $0x128,%rsp
 4403c27:	c3                   	ret
 4403c28:	48 89 44 24 08       	mov    %rax,0x8(%rsp)
 4403c2d:	e8 2e 08 b5 fd       	call   1f54460 <runtime.morestack_noctxt.abi0@@Base>
 4403c32:	48 8b 44 24 08       	mov    0x8(%rsp),%rax
 4403c37:	e9 44 fd ff ff       	jmp    4403980 <github.com/lasselj/timebeat/config.(*Identity).SaveIdentity@@Base>
 4403c3c:	cc                   	int3
 4403c3d:	cc                   	int3
 4403c3e:	cc                   	int3
 4403c3f:	cc                   	int3

0000000004403c40 <github.com/lasselj/timebeat/config.(*Identity).SaveIdentity.func1@@Base>:
 4403c40:	49 3b 66 10          	cmp    0x10(%r14),%rsp
 4403c44:	76 2a                	jbe    4403c70 <github.com/lasselj/timebeat/config.(*Identity).SaveIdentity.func1@@Base+0x30>
 4403c46:	48 83 ec 10          	sub    $0x10,%rsp
 4403c4a:	48 89 6c 24 08       	mov    %rbp,0x8(%rsp)
 4403c4f:	48 8d 6c 24 08       	lea    0x8(%rsp),%rbp
 4403c54:	4d 8b 66 20          	mov    0x20(%r14),%r12
 4403c58:	4d 85 e4             	test   %r12,%r12
 4403c5b:	75 1a                	jne    4403c77 <github.com/lasselj/timebeat/config.(*Identity).SaveIdentity.func1@@Base+0x37>
 4403c5d:	48 8b 42 08          	mov    0x8(%rdx),%rax
 4403c61:	e8 7a 4b b7 fd       	call   1f787e0 <sync.(*Mutex).Unlock@@Base>
 4403c66:	48 8b 6c 24 08       	mov    0x8(%rsp),%rbp
 4403c6b:	48 83 c4 10          	add    $0x10,%rsp
 4403c6f:	c3                   	ret
 4403c70:	e8 4b 07 b5 fd       	call   1f543c0 <runtime.morestack.abi0@@Base>
 4403c75:	eb c9                	jmp    4403c40 <github.com/lasselj/timebeat/config.(*Identity).SaveIdentity.func1@@Base>
 4403c77:	4c 8d 6c 24 18       	lea    0x18(%rsp),%r13
 4403c7c:	0f 1f 40 00          	nopl   0x0(%rax)
 4403c80:	4d 39 2c 24          	cmp    %r13,(%r12)
 4403c84:	75 d7                	jne    4403c5d <github.com/lasselj/timebeat/config.(*Identity).SaveIdentity.func1@@Base+0x1d>
 4403c86:	49 89 24 24          	mov    %rsp,(%r12)
 4403c8a:	eb d1                	jmp    4403c5d <github.com/lasselj/timebeat/config.(*Identity).SaveIdentity.func1@@Base+0x1d>
 4403c8c:	cc                   	int3
 4403c8d:	cc                   	int3
 4403c8e:	cc                   	int3
 4403c8f:	cc                   	int3
 4403c90:	cc                   	int3
 4403c91:	cc                   	int3
 4403c92:	cc                   	int3
 4403c93:	cc                   	int3
 4403c94:	cc                   	int3
 4403c95:	cc                   	int3
 4403c96:	cc                   	int3
 4403c97:	cc                   	int3
 4403c98:	cc                   	int3
 4403c99:	cc                   	int3
 4403c9a:	cc                   	int3
 4403c9b:	cc                   	int3
 4403c9c:	cc                   	int3
 4403c9d:	cc                   	int3
 4403c9e:	cc                   	int3
 4403c9f:	cc                   	int3

0000000004403ca0 <github.com/lasselj/timebeat/config.LoadIdentity@@Base>:
 4403ca0:	4c 8d a4 24 20 ff ff 	lea    -0xe0(%rsp),%r12
 4403ca7:	ff 
 4403ca8:	4d 3b 66 10          	cmp    0x10(%r14),%r12
 4403cac:	0f 86 2c 04 00 00    	jbe    44040de <github.com/lasselj/timebeat/config.LoadIdentity@@Base+0x43e>
 4403cb2:	48 81 ec 60 01 00 00 	sub    $0x160,%rsp
 4403cb9:	48 89 ac 24 58 01 00 	mov    %rbp,0x158(%rsp)
 4403cc0:	00 
 4403cc1:	48 8d ac 24 58 01 00 	lea    0x158(%rsp),%rbp
 4403cc8:	00 
 4403cc9:	49 c7 c5 00 00 00 00 	mov    $0x0,%r13
 4403cd0:	4c 89 ac 24 50 01 00 	mov    %r13,0x150(%rsp)
 4403cd7:	00 
 4403cd8:	48 89 9c 24 70 01 00 	mov    %rbx,0x170(%rsp)
 4403cdf:	00 
 4403ce0:	48 89 84 24 68 01 00 	mov    %rax,0x168(%rsp)
 4403ce7:	00 
 4403ce8:	c6 44 24 2f 00       	movb   $0x0,0x2f(%rsp)
 4403ced:	48 c7 44 24 40 00 00 	movq   $0x0,0x40(%rsp)
 4403cf4:	00 00 
 4403cf6:	44 0f 11 7c 24 70    	movups %xmm15,0x70(%rsp)
 4403cfc:	90                   	nop
 4403cfd:	31 c0                	xor    %eax,%eax
 4403cff:	48 8d 15 82 6f a7 03 	lea    0x3a76f82(%rip),%rdx        # 7e7ac88 <github.com/lasselj/timebeat/config.lock@@Base>
 4403d06:	be 01 00 00 00       	mov    $0x1,%esi
 4403d0b:	f0 0f b1 32          	lock cmpxchg %esi,(%rdx)
 4403d0f:	0f 94 c2             	sete   %dl
 4403d12:	84 d2                	test   %dl,%dl
 4403d14:	75 0f                	jne    4403d25 <github.com/lasselj/timebeat/config.LoadIdentity@@Base+0x85>
 4403d16:	48 8d 05 6b 6f a7 03 	lea    0x3a76f6b(%rip),%rax        # 7e7ac88 <github.com/lasselj/timebeat/config.lock@@Base>
 4403d1d:	0f 1f 00             	nopl   (%rax)
 4403d20:	e8 1b 48 b7 fd       	call   1f78540 <sync.(*Mutex).lockSlow@@Base>
 4403d25:	44 0f 11 bc 24 80 00 	movups %xmm15,0x80(%rsp)
 4403d2c:	00 00 
 4403d2e:	48 8d 05 cb 03 00 00 	lea    0x3cb(%rip),%rax        # 4404100 <github.com/lasselj/timebeat/config.LoadIdentity.func1@@Base>
 4403d35:	48 89 84 24 80 00 00 	mov    %rax,0x80(%rsp)
 4403d3c:	00 
 4403d3d:	48 8d 05 44 6f a7 03 	lea    0x3a76f44(%rip),%rax        # 7e7ac88 <github.com/lasselj/timebeat/config.lock@@Base>
 4403d44:	48 89 84 24 88 00 00 	mov    %rax,0x88(%rsp)
 4403d4b:	00 
 4403d4c:	48 8d 84 24 80 00 00 	lea    0x80(%rsp),%rax
 4403d53:	00 
 4403d54:	48 89 84 24 50 01 00 	mov    %rax,0x150(%rsp)
 4403d5b:	00 
 4403d5c:	c6 44 24 2f 01       	movb   $0x1,0x2f(%rsp)
 4403d61:	e8 1a fa ff ff       	call   4403780 <github.com/lasselj/timebeat/config.GetPeerIdentities@@Base>
 4403d66:	48 8d bc 24 f0 00 00 	lea    0xf0(%rsp),%rdi
 4403d6d:	00 
 4403d6e:	48 8d 7f e0          	lea    -0x20(%rdi),%rdi
 4403d72:	66 0f 1f 84 00 00 00 	nopw   0x0(%rax,%rax,1)
 4403d79:	00 00 
 4403d7b:	0f 1f 44 00 00       	nopl   0x0(%rax,%rax,1)
 4403d80:	48 89 6c 24 f0       	mov    %rbp,-0x10(%rsp)
 4403d85:	48 8d 6c 24 f0       	lea    -0x10(%rsp),%rbp
 4403d8a:	e8 3c 30 b5 fd       	call   1f56dcb <runtime.duffzero@@Base+0x14b>
 4403d8f:	48 8b 6d 00          	mov    0x0(%rbp),%rbp
 4403d93:	48 8b 18             	mov    (%rax),%rbx
 4403d96:	48 8d 05 03 9a 54 01 	lea    0x1549a03(%rip),%rax        # 594d7a0 <type:7G1EDQaC@@Base>
 4403d9d:	48 8b 8c 24 68 01 00 	mov    0x168(%rsp),%rcx
 4403da4:	00 
 4403da5:	48 8b bc 24 70 01 00 	mov    0x170(%rsp),%rdi
 4403dac:	00 
 4403dad:	e8 0e 20 af fd       	call   1ef5dc0 <runtime.mapaccess2_faststr@@Base>
 4403db2:	48 8d bc 24 f0 00 00 	lea    0xf0(%rsp),%rdi
 4403db9:	00 
 4403dba:	48 89 c6             	mov    %rax,%rsi
 4403dbd:	0f 1f 00             	nopl   (%rax)
 4403dc0:	48 89 6c 24 f0       	mov    %rbp,-0x10(%rsp)
 4403dc5:	48 8d 6c 24 f0       	lea    -0x10(%rsp),%rbp
 4403dca:	e8 5d 33 b5 fd       	call   1f5712c <runtime.duffcopy@@Base+0x32c>
 4403dcf:	48 8b 6d 00          	mov    0x0(%rbp),%rbp
 4403dd3:	48 8d bc 24 90 00 00 	lea    0x90(%rsp),%rdi
 4403dda:	00 
 4403ddb:	48 8d b4 24 f0 00 00 	lea    0xf0(%rsp),%rsi
 4403de2:	00 
 4403de3:	48 89 6c 24 f0       	mov    %rbp,-0x10(%rsp)
 4403de8:	48 8d 6c 24 f0       	lea    -0x10(%rsp),%rbp
 4403ded:	e8 3a 33 b5 fd       	call   1f5712c <runtime.duffcopy@@Base+0x32c>
 4403df2:	48 8b 6d 00          	mov    0x0(%rbp),%rbp
 4403df6:	84 db                	test   %bl,%bl
 4403df8:	0f 84 ca 01 00 00    	je     4403fc8 <github.com/lasselj/timebeat/config.LoadIdentity@@Base+0x328>
 4403dfe:	90                   	nop
 4403dff:	48 8b 8c 24 b8 00 00 	mov    0xb8(%rsp),%rcx
 4403e06:	00 
 4403e07:	48 89 4c 24 38       	mov    %rcx,0x38(%rsp)
 4403e0c:	48 8d 05 8d a8 3a 01 	lea    0x13aa88d(%rip),%rax        # 57ae6a0 <type:string@@Base>
 4403e13:	48 89 cb             	mov    %rcx,%rbx
 4403e16:	e8 c5 25 b3 fd       	call   1f363e0 <runtime.makeslice@@Base>
 4403e1b:	48 89 44 24 68       	mov    %rax,0x68(%rsp)
 4403e20:	48 8b 8c 24 e0 00 00 	mov    0xe0(%rsp),%rcx
 4403e27:	00 
 4403e28:	48 89 4c 24 30       	mov    %rcx,0x30(%rsp)
 4403e2d:	48 89 cb             	mov    %rcx,%rbx
 4403e30:	48 8d 05 09 05 4b 01 	lea    0x14b0509(%rip),%rax        # 58b4340 <type:tpDRQG8O@@Base>
 4403e37:	e8 a4 25 b3 fd       	call   1f363e0 <runtime.makeslice@@Base>
 4403e3c:	48 89 44 24 60       	mov    %rax,0x60(%rsp)
 4403e41:	48 8d 05 58 84 8a 01 	lea    0x18a8458(%rip),%rax        # 5cac2a0 <type:zFbdAtxm@@Base>
 4403e48:	e8 93 c6 ae fd       	call   1ef04e0 <runtime.newobject@@Base>
 4403e4d:	48 8b 94 24 90 00 00 	mov    0x90(%rsp),%rdx
 4403e54:	00 
 4403e55:	48 8b b4 24 98 00 00 	mov    0x98(%rsp),%rsi
 4403e5c:	00 
 4403e5d:	48 89 70 08          	mov    %rsi,0x8(%rax)
 4403e61:	83 3d f8 7a a7 03 00 	cmpl   $0x0,0x3a77af8(%rip)        # 7e7b960 <runtime.writeBarrier@@Base>
 4403e68:	75 05                	jne    4403e6f <github.com/lasselj/timebeat/config.LoadIdentity@@Base+0x1cf>
 4403e6a:	48 89 10             	mov    %rdx,(%rax)
 4403e6d:	eb 08                	jmp    4403e77 <github.com/lasselj/timebeat/config.LoadIdentity@@Base+0x1d7>
 4403e6f:	48 89 c7             	mov    %rax,%rdi
 4403e72:	e8 a9 28 b5 fd       	call   1f56720 <runtime.gcWriteBarrierDX@@Base>
 4403e77:	48 8b 94 24 a0 00 00 	mov    0xa0(%rsp),%rdx
 4403e7e:	00 
 4403e7f:	4c 8b 84 24 a8 00 00 	mov    0xa8(%rsp),%r8
 4403e86:	00 
 4403e87:	4c 89 40 18          	mov    %r8,0x18(%rax)
 4403e8b:	83 3d ce 7a a7 03 00 	cmpl   $0x0,0x3a77ace(%rip)        # 7e7b960 <runtime.writeBarrier@@Base>
 4403e92:	75 06                	jne    4403e9a <github.com/lasselj/timebeat/config.LoadIdentity@@Base+0x1fa>
 4403e94:	48 89 50 10          	mov    %rdx,0x10(%rax)
 4403e98:	eb 0b                	jmp    4403ea5 <github.com/lasselj/timebeat/config.LoadIdentity@@Base+0x205>
 4403e9a:	48 8d 78 10          	lea    0x10(%rax),%rdi
 4403e9e:	66 90                	xchg   %ax,%ax
 4403ea0:	e8 7b 28 b5 fd       	call   1f56720 <runtime.gcWriteBarrierDX@@Base>
 4403ea5:	48 8b 94 24 d0 00 00 	mov    0xd0(%rsp),%rdx
 4403eac:	00 
 4403ead:	4c 8b 84 24 c8 00 00 	mov    0xc8(%rsp),%r8
 4403eb4:	00 
 4403eb5:	4c 89 40 38          	mov    %r8,0x38(%rax)
 4403eb9:	83 3d a0 7a a7 03 00 	cmpl   $0x0,0x3a77aa0(%rip)        # 7e7b960 <runtime.writeBarrier@@Base>
 4403ec0:	75 06                	jne    4403ec8 <github.com/lasselj/timebeat/config.LoadIdentity@@Base+0x228>
 4403ec2:	48 89 50 40          	mov    %rdx,0x40(%rax)
 4403ec6:	eb 09                	jmp    4403ed1 <github.com/lasselj/timebeat/config.LoadIdentity@@Base+0x231>
 4403ec8:	48 8d 78 40          	lea    0x40(%rax),%rdi
 4403ecc:	e8 4f 28 b5 fd       	call   1f56720 <runtime.gcWriteBarrierDX@@Base>
 4403ed1:	48 8b 54 24 38       	mov    0x38(%rsp),%rdx
 4403ed6:	48 89 50 28          	mov    %rdx,0x28(%rax)
 4403eda:	48 89 50 30          	mov    %rdx,0x30(%rax)
 4403ede:	83 3d 7b 7a a7 03 00 	cmpl   $0x0,0x3a77a7b(%rip)        # 7e7b960 <runtime.writeBarrier@@Base>
 4403ee5:	75 0b                	jne    4403ef2 <github.com/lasselj/timebeat/config.LoadIdentity@@Base+0x252>
 4403ee7:	48 8b 54 24 68       	mov    0x68(%rsp),%rdx
 4403eec:	48 89 50 20          	mov    %rdx,0x20(%rax)
 4403ef0:	eb 13                	jmp    4403f05 <github.com/lasselj/timebeat/config.LoadIdentity@@Base+0x265>
 4403ef2:	48 8d 78 20          	lea    0x20(%rax),%rdi
 4403ef6:	48 8b 54 24 68       	mov    0x68(%rsp),%rdx
 4403efb:	0f 1f 44 00 00       	nopl   0x0(%rax,%rax,1)
 4403f00:	e8 1b 28 b5 fd       	call   1f56720 <runtime.gcWriteBarrierDX@@Base>
 4403f05:	48 8b 54 24 30       	mov    0x30(%rsp),%rdx
 4403f0a:	48 89 50 50          	mov    %rdx,0x50(%rax)
 4403f0e:	48 89 50 58          	mov    %rdx,0x58(%rax)
 4403f12:	83 3d 47 7a a7 03 00 	cmpl   $0x0,0x3a77a47(%rip)        # 7e7b960 <runtime.writeBarrier@@Base>
 4403f19:	75 0b                	jne    4403f26 <github.com/lasselj/timebeat/config.LoadIdentity@@Base+0x286>
 4403f1b:	48 8b 54 24 60       	mov    0x60(%rsp),%rdx
 4403f20:	48 89 50 48          	mov    %rdx,0x48(%rax)
 4403f24:	eb 0e                	jmp    4403f34 <github.com/lasselj/timebeat/config.LoadIdentity@@Base+0x294>
 4403f26:	48 8d 78 48          	lea    0x48(%rax),%rdi
 4403f2a:	48 8b 54 24 60       	mov    0x60(%rsp),%rdx
 4403f2f:	e8 ec 27 b5 fd       	call   1f56720 <runtime.gcWriteBarrierDX@@Base>
 4403f34:	48 89 44 24 48       	mov    %rax,0x48(%rsp)
 4403f39:	48 8b 58 20          	mov    0x20(%rax),%rbx
 4403f3d:	48 8b 48 28          	mov    0x28(%rax),%rcx
 4403f41:	48 8b bc 24 b0 00 00 	mov    0xb0(%rsp),%rdi
 4403f48:	00 
 4403f49:	48 8b b4 24 b8 00 00 	mov    0xb8(%rsp),%rsi
 4403f50:	00 
 4403f51:	48 8d 05 48 a7 3a 01 	lea    0x13aa748(%rip),%rax        # 57ae6a0 <type:string@@Base>
 4403f58:	e8 a3 30 af fd       	call   1ef7000 <runtime.typedslicecopy@@Base>
 4403f5d:	48 8b 54 24 48       	mov    0x48(%rsp),%rdx
 4403f62:	48 8b 5a 48          	mov    0x48(%rdx),%rbx
 4403f66:	48 8b 4a 50          	mov    0x50(%rdx),%rcx
 4403f6a:	48 8b bc 24 d8 00 00 	mov    0xd8(%rsp),%rdi
 4403f71:	00 
 4403f72:	48 8b b4 24 e0 00 00 	mov    0xe0(%rsp),%rsi
 4403f79:	00 
 4403f7a:	48 8d 05 bf 03 4b 01 	lea    0x14b03bf(%rip),%rax        # 58b4340 <type:tpDRQG8O@@Base>
 4403f81:	e8 7a 30 af fd       	call   1ef7000 <runtime.typedslicecopy@@Base>
 4403f86:	48 8b 54 24 48       	mov    0x48(%rsp),%rdx
 4403f8b:	48 89 54 24 40       	mov    %rdx,0x40(%rsp)
 4403f90:	44 0f 11 7c 24 70    	movups %xmm15,0x70(%rsp)
 4403f96:	c6 44 24 2f 00       	movb   $0x0,0x2f(%rsp)
 4403f9b:	48 8b 94 24 50 01 00 	mov    0x150(%rsp),%rdx
 4403fa2:	00 
 4403fa3:	4c 8b 02             	mov    (%rdx),%r8
 4403fa6:	41 ff d0             	call   *%r8
 4403fa9:	48 8b 5c 24 70       	mov    0x70(%rsp),%rbx
 4403fae:	48 8b 44 24 40       	mov    0x40(%rsp),%rax
 4403fb3:	48 8b 4c 24 78       	mov    0x78(%rsp),%rcx
 4403fb8:	48 8b ac 24 58 01 00 	mov    0x158(%rsp),%rbp
 4403fbf:	00 
 4403fc0:	48 81 c4 60 01 00 00 	add    $0x160,%rsp
 4403fc7:	c3                   	ret
 4403fc8:	48 8d 05 d1 a6 3a 01 	lea    0x13aa6d1(%rip),%rax        # 57ae6a0 <type:string@@Base>
 4403fcf:	31 db                	xor    %ebx,%ebx
 4403fd1:	48 89 d9             	mov    %rbx,%rcx
 4403fd4:	e8 07 24 b3 fd       	call   1f363e0 <runtime.makeslice@@Base>
 4403fd9:	48 89 44 24 68       	mov    %rax,0x68(%rsp)
 4403fde:	31 db                	xor    %ebx,%ebx
 4403fe0:	48 89 d9             	mov    %rbx,%rcx
 4403fe3:	48 8d 05 56 03 4b 01 	lea    0x14b0356(%rip),%rax        # 58b4340 <type:tpDRQG8O@@Base>
 4403fea:	e8 f1 23 b3 fd       	call   1f363e0 <runtime.makeslice@@Base>
 4403fef:	48 89 44 24 60       	mov    %rax,0x60(%rsp)
 4403ff4:	bb 17 00 00 00       	mov    $0x17,%ebx
 4403ff9:	31 c9                	xor    %ecx,%ecx
 4403ffb:	31 ff                	xor    %edi,%edi
 4403ffd:	48 89 fe             	mov    %rdi,%rsi
 4404000:	48 8d 05 56 23 9d 00 	lea    0x9d2356(%rip),%rax        # 4dd635d <_IO_stdin_used@@Base+0x1a335d>
 4404007:	e8 54 d2 be fd       	call   1ff1260 <fmt.Errorf@@Base>
 440400c:	48 89 44 24 58       	mov    %rax,0x58(%rsp)
 4404011:	48 89 5c 24 50       	mov    %rbx,0x50(%rsp)
 4404016:	48 8d 05 83 82 8a 01 	lea    0x18a8283(%rip),%rax        # 5cac2a0 <type:zFbdAtxm@@Base>
 440401d:	0f 1f 00             	nopl   (%rax)
 4404020:	e8 bb c4 ae fd       	call   1ef04e0 <runtime.newobject@@Base>
 4404025:	83 3d 34 79 a7 03 00 	cmpl   $0x0,0x3a77934(%rip)        # 7e7b960 <runtime.writeBarrier@@Base>
 440402c:	75 0b                	jne    4404039 <github.com/lasselj/timebeat/config.LoadIdentity@@Base+0x399>
 440402e:	48 8b 4c 24 68       	mov    0x68(%rsp),%rcx
 4404033:	48 89 48 20          	mov    %rcx,0x20(%rax)
 4404037:	eb 0e                	jmp    4404047 <github.com/lasselj/timebeat/config.LoadIdentity@@Base+0x3a7>
 4404039:	48 8d 78 20          	lea    0x20(%rax),%rdi
 440403d:	48 8b 4c 24 68       	mov    0x68(%rsp),%rcx
 4404042:	e8 b9 26 b5 fd       	call   1f56700 <runtime.gcWriteBarrierCX@@Base>
 4404047:	44 0f 11 78 50       	movups %xmm15,0x50(%rax)
 440404c:	83 3d 0d 79 a7 03 00 	cmpl   $0x0,0x3a7790d(%rip)        # 7e7b960 <runtime.writeBarrier@@Base>
 4404053:	75 0d                	jne    4404062 <github.com/lasselj/timebeat/config.LoadIdentity@@Base+0x3c2>
 4404055:	48 8b 4c 24 60       	mov    0x60(%rsp),%rcx
 440405a:	48 89 48 48          	mov    %rcx,0x48(%rax)
 440405e:	66 90                	xchg   %ax,%ax
 4404060:	eb 0e                	jmp    4404070 <github.com/lasselj/timebeat/config.LoadIdentity@@Base+0x3d0>
 4404062:	48 8d 78 48          	lea    0x48(%rax),%rdi
 4404066:	48 8b 4c 24 60       	mov    0x60(%rsp),%rcx
 440406b:	e8 90 26 b5 fd       	call   1f56700 <runtime.gcWriteBarrierCX@@Base>
 4404070:	48 89 44 24 40       	mov    %rax,0x40(%rsp)
 4404075:	48 8b 44 24 58       	mov    0x58(%rsp),%rax
 440407a:	48 89 44 24 70       	mov    %rax,0x70(%rsp)
 440407f:	48 8b 44 24 50       	mov    0x50(%rsp),%rax
 4404084:	48 89 44 24 78       	mov    %rax,0x78(%rsp)
 4404089:	c6 44 24 2f 00       	movb   $0x0,0x2f(%rsp)
 440408e:	48 8b 94 24 50 01 00 	mov    0x150(%rsp),%rdx
 4404095:	00 
 4404096:	48 8b 02             	mov    (%rdx),%rax
 4404099:	ff d0                	call   *%rax
 440409b:	48 8b 5c 24 70       	mov    0x70(%rsp),%rbx
 44040a0:	48 8b 44 24 40       	mov    0x40(%rsp),%rax
 44040a5:	48 8b 4c 24 78       	mov    0x78(%rsp),%rcx
 44040aa:	48 8b ac 24 58 01 00 	mov    0x158(%rsp),%rbp
 44040b1:	00 
 44040b2:	48 81 c4 60 01 00 00 	add    $0x160,%rsp
 44040b9:	c3                   	ret
 44040ba:	e8 a1 7e b1 fd       	call   1f1bf60 <runtime.deferreturn@@Base>
 44040bf:	48 8b 44 24 40       	mov    0x40(%rsp),%rax
 44040c4:	48 8b 5c 24 70       	mov    0x70(%rsp),%rbx
 44040c9:	48 8b 4c 24 78       	mov    0x78(%rsp),%rcx
 44040ce:	48 8b ac 24 58 01 00 	mov    0x158(%rsp),%rbp
 44040d5:	00 
 44040d6:	48 81 c4 60 01 00 00 	add    $0x160,%rsp
 44040dd:	c3                   	ret
 44040de:	48 89 44 24 08       	mov    %rax,0x8(%rsp)
 44040e3:	48 89 5c 24 10       	mov    %rbx,0x10(%rsp)
 44040e8:	e8 73 03 b5 fd       	call   1f54460 <runtime.morestack_noctxt.abi0@@Base>
 44040ed:	48 8b 44 24 08       	mov    0x8(%rsp),%rax
 44040f2:	48 8b 5c 24 10       	mov    0x10(%rsp),%rbx
 44040f7:	e9 a4 fb ff ff       	jmp    4403ca0 <github.com/lasselj/timebeat/config.LoadIdentity@@Base>
 44040fc:	cc                   	int3
 44040fd:	cc                   	int3
 44040fe:	cc                   	int3
 44040ff:	cc                   	int3

0000000004404100 <github.com/lasselj/timebeat/config.LoadIdentity.func1@@Base>:
 4404100:	49 3b 66 10          	cmp    0x10(%r14),%rsp
 4404104:	76 2a                	jbe    4404130 <github.com/lasselj/timebeat/config.LoadIdentity.func1@@Base+0x30>
 4404106:	48 83 ec 10          	sub    $0x10,%rsp
 440410a:	48 89 6c 24 08       	mov    %rbp,0x8(%rsp)
 440410f:	48 8d 6c 24 08       	lea    0x8(%rsp),%rbp
 4404114:	4d 8b 66 20          	mov    0x20(%r14),%r12
 4404118:	4d 85 e4             	test   %r12,%r12
 440411b:	75 1a                	jne    4404137 <github.com/lasselj/timebeat/config.LoadIdentity.func1@@Base+0x37>
 440411d:	48 8b 42 08          	mov    0x8(%rdx),%rax
 4404121:	e8 ba 46 b7 fd       	call   1f787e0 <sync.(*Mutex).Unlock@@Base>
 4404126:	48 8b 6c 24 08       	mov    0x8(%rsp),%rbp
 440412b:	48 83 c4 10          	add    $0x10,%rsp
 440412f:	c3                   	ret
 4404130:	e8 8b 02 b5 fd       	call   1f543c0 <runtime.morestack.abi0@@Base>
 4404135:	eb c9                	jmp    4404100 <github.com/lasselj/timebeat/config.LoadIdentity.func1@@Base>
 4404137:	4c 8d 6c 24 18       	lea    0x18(%rsp),%r13
 440413c:	0f 1f 40 00          	nopl   0x0(%rax)
 4404140:	4d 39 2c 24          	cmp    %r13,(%r12)
 4404144:	75 d7                	jne    440411d <github.com/lasselj/timebeat/config.LoadIdentity.func1@@Base+0x1d>
 4404146:	49 89 24 24          	mov    %rsp,(%r12)
 440414a:	eb d1                	jmp    440411d <github.com/lasselj/timebeat/config.LoadIdentity.func1@@Base+0x1d>
 440414c:	cc                   	int3
 440414d:	cc                   	int3
 440414e:	cc                   	int3
 440414f:	cc                   	int3
 4404150:	cc                   	int3
 4404151:	cc                   	int3
 4404152:	cc                   	int3
 4404153:	cc                   	int3
 4404154:	cc                   	int3
 4404155:	cc                   	int3
 4404156:	cc                   	int3
 4404157:	cc                   	int3
 4404158:	cc                   	int3
 4404159:	cc                   	int3
 440415a:	cc                   	int3
 440415b:	cc                   	int3
 440415c:	cc                   	int3
 440415d:	cc                   	int3
 440415e:	cc                   	int3
 440415f:	cc                   	int3

0000000004404160 <github.com/lasselj/timebeat/config.saveToFileLocked@@Base>:
 4404160:	49 3b 66 10          	cmp    0x10(%r14),%rsp
 4404164:	0f 86 2f 01 00 00    	jbe    4404299 <github.com/lasselj/timebeat/config.saveToFileLocked@@Base+0x139>
 440416a:	48 83 ec 78          	sub    $0x78,%rsp
 440416e:	48 89 6c 24 70       	mov    %rbp,0x70(%rsp)
 4404173:	48 8d 6c 24 70       	lea    0x70(%rsp),%rbp
 4404178:	48 8b 05 79 0a a4 03 	mov    0x3a40a79(%rip),%rax        # 7e44bf8 <github.com/lasselj/timebeat/config.appConfig@@Base+0x18>
 440417f:	48 8b 0d 6a 0a a4 03 	mov    0x3a40a6a(%rip),%rcx        # 7e44bf0 <github.com/lasselj/timebeat/config.appConfig@@Base+0x10>
 4404186:	48 85 c0             	test   %rax,%rax
 4404189:	0f 84 00 01 00 00    	je     440428f <github.com/lasselj/timebeat/config.saveToFileLocked@@Base+0x12f>
 440418f:	48 89 44 24 38       	mov    %rax,0x38(%rsp)
 4404194:	48 89 4c 24 50       	mov    %rcx,0x50(%rsp)
 4404199:	e8 e2 f5 ff ff       	call   4403780 <github.com/lasselj/timebeat/config.GetPeerIdentities@@Base>
 440419e:	48 8b 18             	mov    (%rax),%rbx
 44041a1:	48 8d 05 f8 95 54 01 	lea    0x15495f8(%rip),%rax        # 594d7a0 <type:7G1EDQaC@@Base>
 44041a8:	31 c9                	xor    %ecx,%ecx
 44041aa:	31 ff                	xor    %edi,%edi
 44041ac:	48 8d 35 a5 23 0d 01 	lea    0x10d23a5(%rip),%rsi        # 54d6558 <_IO_stdin_used@@Base+0x8a3558>
 44041b3:	41 b8 01 00 00 00    	mov    $0x1,%r8d
 44041b9:	e8 a2 85 e6 fd       	call   226c760 <encoding/json.MarshalIndent@@Base>
 44041be:	66 90                	xchg   %ax,%ax
 44041c0:	48 85 ff             	test   %rdi,%rdi
 44041c3:	0f 85 94 00 00 00    	jne    440425d <github.com/lasselj/timebeat/config.saveToFileLocked@@Base+0xfd>
 44041c9:	48 89 44 24 58       	mov    %rax,0x58(%rsp)
 44041ce:	48 89 5c 24 40       	mov    %rbx,0x40(%rsp)
 44041d3:	48 89 4c 24 48       	mov    %rcx,0x48(%rsp)
 44041d8:	48 89 df             	mov    %rbx,%rdi
 44041db:	48 89 ce             	mov    %rcx,%rsi
 44041de:	41 b8 a4 01 00 00    	mov    $0x1a4,%r8d
 44041e4:	48 8b 5c 24 38       	mov    0x38(%rsp),%rbx
 44041e9:	48 89 c1             	mov    %rax,%rcx
 44041ec:	48 8b 44 24 50       	mov    0x50(%rsp),%rax
 44041f1:	e8 6a 6f be fd       	call   1feb160 <os.WriteFile@@Base>
 44041f6:	48 85 c0             	test   %rax,%rax
 44041f9:	74 58                	je     4404253 <github.com/lasselj/timebeat/config.saveToFileLocked@@Base+0xf3>
 44041fb:	44 0f 11 7c 24 60    	movups %xmm15,0x60(%rsp)
 4404201:	48 8b 44 24 58       	mov    0x58(%rsp),%rax
 4404206:	48 8b 5c 24 40       	mov    0x40(%rsp),%rbx
 440420b:	48 8b 4c 24 48       	mov    0x48(%rsp),%rcx
 4404210:	e8 eb 9b ae fd       	call   1eede00 <runtime.convTslice@@Base>
 4404215:	48 8d 15 04 a7 33 01 	lea    0x133a704(%rip),%rdx        # 573e920 <type:[]uint8@@Base>
 440421c:	48 89 54 24 60       	mov    %rdx,0x60(%rsp)
 4404221:	48 89 44 24 68       	mov    %rax,0x68(%rsp)
 4404226:	48 8b 1d 13 b0 a2 03 	mov    0x3a2b013(%rip),%rbx        # 7e2f240 <os.Stdout@@Base>
 440422d:	48 8d 05 ec 0f b0 01 	lea    0x1b00fec(%rip),%rax        # 5f05220 <go:itab.*os.File,io.Writer@@Base>
 4404234:	48 8d 0d 79 65 9e 00 	lea    0x9e6579(%rip),%rcx        # 4dea7b4 <_IO_stdin_used@@Base+0x1b77b4>
 440423b:	bf 1c 00 00 00       	mov    $0x1c,%edi
 4404240:	48 8d 74 24 60       	lea    0x60(%rsp),%rsi
 4404245:	41 b8 01 00 00 00    	mov    $0x1,%r8d
 440424b:	4d 89 c1             	mov    %r8,%r9
 440424e:	e8 8d 05 bf fd       	call   1ff47e0 <fmt.Fprintf@@Base>
 4404253:	48 8b 6c 24 70       	mov    0x70(%rsp),%rbp
 4404258:	48 83 c4 78          	add    $0x78,%rsp
 440425c:	c3                   	ret
 440425d:	90                   	nop
 440425e:	48 8b 1d db af a2 03 	mov    0x3a2afdb(%rip),%rbx        # 7e2f240 <os.Stdout@@Base>
 4404265:	48 8d 05 b4 0f b0 01 	lea    0x1b00fb4(%rip),%rax        # 5f05220 <go:itab.*os.File,io.Writer@@Base>
 440426c:	48 8d 0d 41 e2 9d 00 	lea    0x9de241(%rip),%rcx        # 4de24b4 <_IO_stdin_used@@Base+0x1af4b4>
 4404273:	bf 1a 00 00 00       	mov    $0x1a,%edi
 4404278:	31 f6                	xor    %esi,%esi
 440427a:	45 31 c0             	xor    %r8d,%r8d
 440427d:	4d 89 c1             	mov    %r8,%r9
 4404280:	e8 5b 05 bf fd       	call   1ff47e0 <fmt.Fprintf@@Base>
 4404285:	48 8b 6c 24 70       	mov    0x70(%rsp),%rbp
 440428a:	48 83 c4 78          	add    $0x78,%rsp
 440428e:	c3                   	ret
 440428f:	48 8b 6c 24 70       	mov    0x70(%rsp),%rbp
 4404294:	48 83 c4 78          	add    $0x78,%rsp
 4404298:	c3                   	ret
 4404299:	e8 c2 01 b5 fd       	call   1f54460 <runtime.morestack_noctxt.abi0@@Base>
 440429e:	66 90                	xchg   %ax,%ax
 44042a0:	e9 bb fe ff ff       	jmp    4404160 <github.com/lasselj/timebeat/config.saveToFileLocked@@Base>
 44042a5:	cc                   	int3
 44042a6:	cc                   	int3
 44042a7:	cc                   	int3
 44042a8:	cc                   	int3
 44042a9:	cc                   	int3
 44042aa:	cc                   	int3
 44042ab:	cc                   	int3
 44042ac:	cc                   	int3
 44042ad:	cc                   	int3
 44042ae:	cc                   	int3
 44042af:	cc                   	int3
 44042b0:	cc                   	int3
 44042b1:	cc                   	int3
 44042b2:	cc                   	int3
 44042b3:	cc                   	int3
 44042b4:	cc                   	int3
 44042b5:	cc                   	int3
 44042b6:	cc                   	int3
 44042b7:	cc                   	int3
 44042b8:	cc                   	int3
 44042b9:	cc                   	int3
 44042ba:	cc                   	int3
 44042bb:	cc                   	int3
 44042bc:	cc                   	int3
 44042bd:	cc                   	int3
 44042be:	cc                   	int3
 44042bf:	cc                   	int3

00000000044042c0 <github.com/lasselj/timebeat/config.loadConfigFromFileLocked@@Base>:
 44042c0:	4c 8d 64 24 f0       	lea    -0x10(%rsp),%r12
 44042c5:	4d 3b 66 10          	cmp    0x10(%r14),%r12
 44042c9:	0f 86 bc 01 00 00    	jbe    440448b <github.com/lasselj/timebeat/config.loadConfigFromFileLocked@@Base+0x1cb>
 44042cf:	48 81 ec 90 00 00 00 	sub    $0x90,%rsp
 44042d6:	48 89 ac 24 88 00 00 	mov    %rbp,0x88(%rsp)
 44042dd:	00 
 44042de:	48 8d ac 24 88 00 00 	lea    0x88(%rsp),%rbp
 44042e5:	00 
 44042e6:	48 8b 1d 0b 09 a4 03 	mov    0x3a4090b(%rip),%rbx        # 7e44bf8 <github.com/lasselj/timebeat/config.appConfig@@Base+0x18>
 44042ed:	48 8b 05 fc 08 a4 03 	mov    0x3a408fc(%rip),%rax        # 7e44bf0 <github.com/lasselj/timebeat/config.appConfig@@Base+0x10>
 44042f4:	48 85 db             	test   %rbx,%rbx
 44042f7:	0f 84 7e 01 00 00    	je     440447b <github.com/lasselj/timebeat/config.loadConfigFromFileLocked@@Base+0x1bb>
 44042fd:	48 89 44 24 50       	mov    %rax,0x50(%rsp)
 4404302:	48 89 5c 24 38       	mov    %rbx,0x38(%rsp)
 4404307:	e8 b4 6a be fd       	call   1feadc0 <os.ReadFile@@Base>
 440430c:	48 85 ff             	test   %rdi,%rdi
 440430f:	0f 85 00 01 00 00    	jne    4404415 <github.com/lasselj/timebeat/config.loadConfigFromFileLocked@@Base+0x155>
 4404315:	48 89 5c 24 40       	mov    %rbx,0x40(%rsp)
 440431a:	48 89 44 24 58       	mov    %rax,0x58(%rsp)
 440431f:	48 89 4c 24 48       	mov    %rcx,0x48(%rsp)
 4404324:	48 8d 05 75 94 54 01 	lea    0x1549475(%rip),%rax        # 594d7a0 <type:7G1EDQaC@@Base>
 440432b:	e8 b0 c1 ae fd       	call   1ef04e0 <runtime.newobject@@Base>
 4404330:	48 89 44 24 60       	mov    %rax,0x60(%rsp)
 4404335:	e8 06 cf ae fd       	call   1ef1240 <runtime.makemap_small@@Base>
 440433a:	83 3d 1f 76 a7 03 00 	cmpl   $0x0,0x3a7761f(%rip)        # 7e7b960 <runtime.writeBarrier@@Base>
 4404341:	75 0a                	jne    440434d <github.com/lasselj/timebeat/config.loadConfigFromFileLocked@@Base+0x8d>
 4404343:	48 8b 74 24 60       	mov    0x60(%rsp),%rsi
 4404348:	48 89 06             	mov    %rax,(%rsi)
 440434b:	eb 0d                	jmp    440435a <github.com/lasselj/timebeat/config.loadConfigFromFileLocked@@Base+0x9a>
 440434d:	48 8b 7c 24 60       	mov    0x60(%rsp),%rdi
 4404352:	e8 a9 22 b5 fd       	call   1f56600 <runtime.gcWriteBarrier@@Base>
 4404357:	48 89 fe             	mov    %rdi,%rsi
 440435a:	48 8b 44 24 58       	mov    0x58(%rsp),%rax
 440435f:	48 8b 5c 24 40       	mov    0x40(%rsp),%rbx
 4404364:	48 8b 4c 24 48       	mov    0x48(%rsp),%rcx
 4404369:	48 8d 3d 50 ec 2f 01 	lea    0x12fec50(%rip),%rdi        # 5702fc0 <type:vSbY6ndP@@Base>
 4404370:	e8 4b 10 e6 fd       	call   22653c0 <encoding/json.Unmarshal@@Base>
 4404375:	48 85 c0             	test   %rax,%rax
 4404378:	75 34                	jne    44043ae <github.com/lasselj/timebeat/config.loadConfigFromFileLocked@@Base+0xee>
 440437a:	48 8b 3d 4f 7f a2 03 	mov    0x3a27f4f(%rip),%rdi        # 7e2c2d0 <github.com/lasselj/timebeat/config.peerIdentities@@Base>
 4404381:	84 07                	test   %al,(%rdi)
 4404383:	48 8b 44 24 60       	mov    0x60(%rsp),%rax
 4404388:	48 8b 00             	mov    (%rax),%rax
 440438b:	83 3d ce 75 a7 03 00 	cmpl   $0x0,0x3a775ce(%rip)        # 7e7b960 <runtime.writeBarrier@@Base>
 4404392:	75 05                	jne    4404399 <github.com/lasselj/timebeat/config.loadConfigFromFileLocked@@Base+0xd9>
 4404394:	48 89 07             	mov    %rax,(%rdi)
 4404397:	eb 05                	jmp    440439e <github.com/lasselj/timebeat/config.loadConfigFromFileLocked@@Base+0xde>
 4404399:	e8 62 22 b5 fd       	call   1f56600 <runtime.gcWriteBarrier@@Base>
 440439e:	48 8b ac 24 88 00 00 	mov    0x88(%rsp),%rbp
 44043a5:	00 
 44043a6:	48 81 c4 90 00 00 00 	add    $0x90,%rsp
 44043ad:	c3                   	ret
 44043ae:	48 8b 48 18          	mov    0x18(%rax),%rcx
 44043b2:	48 89 d8             	mov    %rbx,%rax
 44043b5:	ff d1                	call   *%rcx
 44043b7:	44 0f 11 7c 24 68    	movups %xmm15,0x68(%rsp)
 44043bd:	0f 1f 00             	nopl   (%rax)
 44043c0:	e8 9b 99 ae fd       	call   1eedd60 <runtime.convTstring@@Base>
 44043c5:	48 8d 0d d4 a2 3a 01 	lea    0x13aa2d4(%rip),%rcx        # 57ae6a0 <type:string@@Base>
 44043cc:	48 89 4c 24 68       	mov    %rcx,0x68(%rsp)
 44043d1:	48 89 44 24 70       	mov    %rax,0x70(%rsp)
 44043d6:	48 8b 1d 63 ae a2 03 	mov    0x3a2ae63(%rip),%rbx        # 7e2f240 <os.Stdout@@Base>
 44043dd:	48 8d 05 3c 0e b0 01 	lea    0x1b00e3c(%rip),%rax        # 5f05220 <go:itab.*os.File,io.Writer@@Base>
 44043e4:	48 8d 0d 13 d8 a1 00 	lea    0xa1d813(%rip),%rcx        # 4e21bfe <_IO_stdin_used@@Base+0x1eebfe>
 44043eb:	bf 2a 00 00 00       	mov    $0x2a,%edi
 44043f0:	48 8d 74 24 68       	lea    0x68(%rsp),%rsi
 44043f5:	41 b8 01 00 00 00    	mov    $0x1,%r8d
 44043fb:	4d 89 c1             	mov    %r8,%r9
 44043fe:	66 90                	xchg   %ax,%ax
 4404400:	e8 db 03 bf fd       	call   1ff47e0 <fmt.Fprintf@@Base>
 4404405:	48 8b ac 24 88 00 00 	mov    0x88(%rsp),%rbp
 440440c:	00 
 440440d:	48 81 c4 90 00 00 00 	add    $0x90,%rsp
 4404414:	c3                   	ret
 4404415:	44 0f 11 7c 24 78    	movups %xmm15,0x78(%rsp)
 440441b:	48 8b 44 24 50       	mov    0x50(%rsp),%rax
 4404420:	48 8b 5c 24 38       	mov    0x38(%rsp),%rbx
 4404425:	e8 36 99 ae fd       	call   1eedd60 <runtime.convTstring@@Base>
 440442a:	48 8d 0d 6f a2 3a 01 	lea    0x13aa26f(%rip),%rcx        # 57ae6a0 <type:string@@Base>
 4404431:	48 89 4c 24 78       	mov    %rcx,0x78(%rsp)
 4404436:	48 89 84 24 80 00 00 	mov    %rax,0x80(%rsp)
 440443d:	00 
 440443e:	48 8b 1d fb ad a2 03 	mov    0x3a2adfb(%rip),%rbx        # 7e2f240 <os.Stdout@@Base>
 4404445:	48 8d 05 d4 0d b0 01 	lea    0x1b00dd4(%rip),%rax        # 5f05220 <go:itab.*os.File,io.Writer@@Base>
 440444c:	48 8d 0d 67 59 a1 00 	lea    0xa15967(%rip),%rcx        # 4e19dba <_IO_stdin_used@@Base+0x1e6dba>
 4404453:	bf 28 00 00 00       	mov    $0x28,%edi
 4404458:	48 8d 74 24 78       	lea    0x78(%rsp),%rsi
 440445d:	41 b8 01 00 00 00    	mov    $0x1,%r8d
 4404463:	4d 89 c1             	mov    %r8,%r9
 4404466:	e8 75 03 bf fd       	call   1ff47e0 <fmt.Fprintf@@Base>
 440446b:	48 8b ac 24 88 00 00 	mov    0x88(%rsp),%rbp
 4404472:	00 
 4404473:	48 81 c4 90 00 00 00 	add    $0x90,%rsp
 440447a:	c3                   	ret
 440447b:	48 8b ac 24 88 00 00 	mov    0x88(%rsp),%rbp
 4404482:	00 
 4404483:	48 81 c4 90 00 00 00 	add    $0x90,%rsp
 440448a:	c3                   	ret
 440448b:	e8 d0 ff b4 fd       	call   1f54460 <runtime.morestack_noctxt.abi0@@Base>
 4404490:	e9 2b fe ff ff       	jmp    44042c0 <github.com/lasselj/timebeat/config.loadConfigFromFileLocked@@Base>
 4404495:	cc                   	int3
 4404496:	cc                   	int3
 4404497:	cc                   	int3
 4404498:	cc                   	int3
 4404499:	cc                   	int3
 440449a:	cc                   	int3
 440449b:	cc                   	int3
 440449c:	cc                   	int3
 440449d:	cc                   	int3
 440449e:	cc                   	int3
 440449f:	cc                   	int3

00000000044044a0 <github.com/lasselj/timebeat/config.GetPeerIdentities.func1@@Base>:
 44044a0:	49 3b 66 10          	cmp    0x10(%r14),%rsp
 44044a4:	0f 86 ad 00 00 00    	jbe    4404557 <github.com/lasselj/timebeat/config.GetPeerIdentities.func1@@Base+0xb7>
 44044aa:	48 83 ec 20          	sub    $0x20,%rsp
 44044ae:	48 89 6c 24 18       	mov    %rbp,0x18(%rsp)
 44044b3:	48 8d 6c 24 18       	lea    0x18(%rsp),%rbp
 44044b8:	e8 83 cd ae fd       	call   1ef1240 <runtime.makemap_small@@Base>
 44044bd:	48 89 44 24 10       	mov    %rax,0x10(%rsp)
 44044c2:	48 8d 05 77 f6 70 01 	lea    0x170f677(%rip),%rax        # 5b13b40 <type:JoCqfO0l@@Base>
 44044c9:	e8 12 c0 ae fd       	call   1ef04e0 <runtime.newobject@@Base>
 44044ce:	83 3d 8b 74 a7 03 00 	cmpl   $0x0,0x3a7748b(%rip)        # 7e7b960 <runtime.writeBarrier@@Base>
 44044d5:	75 11                	jne    44044e8 <github.com/lasselj/timebeat/config.GetPeerIdentities.func1@@Base+0x48>
 44044d7:	48 8b 4c 24 10       	mov    0x10(%rsp),%rcx
 44044dc:	48 89 08             	mov    %rcx,(%rax)
 44044df:	48 89 05 ea 7d a2 03 	mov    %rax,0x3a27dea(%rip)        # 7e2c2d0 <github.com/lasselj/timebeat/config.peerIdentities@@Base>
 44044e6:	eb 1d                	jmp    4404505 <github.com/lasselj/timebeat/config.GetPeerIdentities.func1@@Base+0x65>
 44044e8:	48 89 c7             	mov    %rax,%rdi
 44044eb:	48 8b 4c 24 10       	mov    0x10(%rsp),%rcx
 44044f0:	e8 0b 22 b5 fd       	call   1f56700 <runtime.gcWriteBarrierCX@@Base>
 44044f5:	48 8d 3d d4 7d a2 03 	lea    0x3a27dd4(%rip),%rdi        # 7e2c2d0 <github.com/lasselj/timebeat/config.peerIdentities@@Base>
 44044fc:	0f 1f 40 00          	nopl   0x0(%rax)
 4404500:	e8 fb 20 b5 fd       	call   1f56600 <runtime.gcWriteBarrier@@Base>
 4404505:	48 89 c1             	mov    %rax,%rcx
 4404508:	31 c0                	xor    %eax,%eax
 440450a:	ba 01 00 00 00       	mov    $0x1,%edx
 440450f:	f0 0f b1 51 08       	lock cmpxchg %edx,0x8(%rcx)
 4404514:	0f 94 c2             	sete   %dl
 4404517:	84 d2                	test   %dl,%dl
 4404519:	75 0a                	jne    4404525 <github.com/lasselj/timebeat/config.GetPeerIdentities.func1@@Base+0x85>
 440451b:	48 8d 41 08          	lea    0x8(%rcx),%rax
 440451f:	90                   	nop
 4404520:	e8 1b 40 b7 fd       	call   1f78540 <sync.(*Mutex).lockSlow@@Base>
 4404525:	e8 96 fd ff ff       	call   44042c0 <github.com/lasselj/timebeat/config.loadConfigFromFileLocked@@Base>
 440452a:	48 8b 05 9f 7d a2 03 	mov    0x3a27d9f(%rip),%rax        # 7e2c2d0 <github.com/lasselj/timebeat/config.peerIdentities@@Base>
 4404531:	bb ff ff ff ff       	mov    $0xffffffff,%ebx
 4404536:	f0 0f c1 58 08       	lock xadd %ebx,0x8(%rax)
 440453b:	ff cb                	dec    %ebx
 440453d:	0f 1f 00             	nopl   (%rax)
 4404540:	85 db                	test   %ebx,%ebx
 4404542:	74 09                	je     440454d <github.com/lasselj/timebeat/config.GetPeerIdentities.func1@@Base+0xad>
 4404544:	48 83 c0 08          	add    $0x8,%rax
 4404548:	e8 f3 42 b7 fd       	call   1f78840 <sync.(*Mutex).unlockSlow@@Base>
 440454d:	48 8b 6c 24 18       	mov    0x18(%rsp),%rbp
 4404552:	48 83 c4 20          	add    $0x20,%rsp
 4404556:	c3                   	ret
 4404557:	e8 04 ff b4 fd       	call   1f54460 <runtime.morestack_noctxt.abi0@@Base>
 440455c:	0f 1f 40 00          	nopl   0x0(%rax)
 4404560:	e9 3b ff ff ff       	jmp    44044a0 <github.com/lasselj/timebeat/config.GetPeerIdentities.func1@@Base>
 4404565:	cc                   	int3
 4404566:	cc                   	int3
 4404567:	cc                   	int3
 4404568:	cc                   	int3
 4404569:	cc                   	int3
 440456a:	cc                   	int3
 440456b:	cc                   	int3
 440456c:	cc                   	int3
 440456d:	cc                   	int3
 440456e:	cc                   	int3
 440456f:	cc                   	int3
 4404570:	cc                   	int3
 4404571:	cc                   	int3
 4404572:	cc                   	int3
 4404573:	cc                   	int3
 4404574:	cc                   	int3
 4404575:	cc                   	int3
 4404576:	cc                   	int3
 4404577:	cc                   	int3
 4404578:	cc                   	int3
 4404579:	cc                   	int3
 440457a:	cc                   	int3
 440457b:	cc                   	int3
 440457c:	cc                   	int3
 440457d:	cc                   	int3
 440457e:	cc                   	int3
 440457f:	cc                   	int3

0000000004404580 <type:.OXw8IE9L@@Base>:
 4404580:	f2 0f 10 03          	movsd  (%rbx),%xmm0
 4404584:	f2 0f 10 08          	movsd  (%rax),%xmm1
 4404588:	66 0f 2e c1          	ucomisd %xmm1,%xmm0
 440458c:	75 3f                	jne    44045cd <type:.OXw8IE9L@@Base+0x4d>
 440458e:	7a 3d                	jp     44045cd <type:.OXw8IE9L@@Base+0x4d>
 4404590:	f2 0f 10 40 08       	movsd  0x8(%rax),%xmm0
 4404595:	f2 0f 10 4b 08       	movsd  0x8(%rbx),%xmm1
 440459a:	66 0f 2e c1          	ucomisd %xmm1,%xmm0
 440459e:	66 90                	xchg   %ax,%ax
 44045a0:	75 2b                	jne    44045cd <type:.OXw8IE9L@@Base+0x4d>
 44045a2:	7a 29                	jp     44045cd <type:.OXw8IE9L@@Base+0x4d>
 44045a4:	f2 0f 10 40 10       	movsd  0x10(%rax),%xmm0
 44045a9:	f2 0f 10 4b 10       	movsd  0x10(%rbx),%xmm1
 44045ae:	66 0f 2e c1          	ucomisd %xmm1,%xmm0
 44045b2:	75 19                	jne    44045cd <type:.OXw8IE9L@@Base+0x4d>
 44045b4:	7a 17                	jp     44045cd <type:.OXw8IE9L@@Base+0x4d>
 44045b6:	f2 0f 10 40 18       	movsd  0x18(%rax),%xmm0
 44045bb:	f2 0f 10 4b 18       	movsd  0x18(%rbx),%xmm1
 44045c0:	66 0f 2e c8          	ucomisd %xmm0,%xmm1
 44045c4:	0f 94 c0             	sete   %al
 44045c7:	0f 9b c1             	setnp  %cl
 44045ca:	21 c8                	and    %ecx,%eax
 44045cc:	c3                   	ret
 44045cd:	31 c0                	xor    %eax,%eax
 44045cf:	c3                   	ret
 44045d0:	cc                   	int3
 44045d1:	cc                   	int3
 44045d2:	cc                   	int3
 44045d3:	cc                   	int3
 44045d4:	cc                   	int3
 44045d5:	cc                   	int3
 44045d6:	cc                   	int3
 44045d7:	cc                   	int3
 44045d8:	cc                   	int3
 44045d9:	cc                   	int3
 44045da:	cc                   	int3
 44045db:	cc                   	int3
 44045dc:	cc                   	int3
 44045dd:	cc                   	int3
 44045de:	cc                   	int3
 44045df:	cc                   	int3

00000000044045e0 <type:.xNw2DeFj@@Base>:
 44045e0:	49 3b 66 10          	cmp    0x10(%r14),%rsp
 44045e4:	0f 86 92 00 00 00    	jbe    440467c <type:.xNw2DeFj@@Base+0x9c>
 44045ea:	48 83 ec 20          	sub    $0x20,%rsp
 44045ee:	48 89 6c 24 18       	mov    %rbp,0x18(%rsp)
 44045f3:	48 8d 6c 24 18       	lea    0x18(%rsp),%rbp
 44045f8:	48 8b 48 08          	mov    0x8(%rax),%rcx
 44045fc:	48 8b 13             	mov    (%rbx),%rdx
 44045ff:	48 8b 30             	mov    (%rax),%rsi
 4404602:	48 39 4b 08          	cmp    %rcx,0x8(%rbx)
 4404606:	75 68                	jne    4404670 <type:.xNw2DeFj@@Base+0x90>
 4404608:	48 8b 78 10          	mov    0x10(%rax),%rdi
 440460c:	48 39 7b 10          	cmp    %rdi,0x10(%rbx)
 4404610:	75 5e                	jne    4404670 <type:.xNw2DeFj@@Base+0x90>
 4404612:	48 8b 78 18          	mov    0x18(%rax),%rdi
 4404616:	48 39 7b 18          	cmp    %rdi,0x18(%rbx)
 440461a:	75 54                	jne    4404670 <type:.xNw2DeFj@@Base+0x90>
 440461c:	48 8b 78 20          	mov    0x20(%rax),%rdi
 4404620:	48 39 7b 20          	cmp    %rdi,0x20(%rbx)
 4404624:	75 4a                	jne    4404670 <type:.xNw2DeFj@@Base+0x90>
 4404626:	48 8b 78 30          	mov    0x30(%rax),%rdi
 440462a:	48 39 7b 30          	cmp    %rdi,0x30(%rbx)
 440462e:	75 40                	jne    4404670 <type:.xNw2DeFj@@Base+0x90>
 4404630:	0f b6 78 38          	movzbl 0x38(%rax),%edi
 4404634:	40 38 7b 38          	cmp    %dil,0x38(%rbx)
 4404638:	75 36                	jne    4404670 <type:.xNw2DeFj@@Base+0x90>
 440463a:	48 89 44 24 28       	mov    %rax,0x28(%rsp)
 440463f:	48 89 5c 24 30       	mov    %rbx,0x30(%rsp)
 4404644:	48 89 f0             	mov    %rsi,%rax
 4404647:	48 89 d3             	mov    %rdx,%rbx
 440464a:	e8 d1 f4 ad fd       	call   1ee3b20 <runtime.memequal@@Base>
 440464f:	84 c0                	test   %al,%al
 4404651:	74 1d                	je     4404670 <type:.xNw2DeFj@@Base+0x90>
 4404653:	48 8b 54 24 30       	mov    0x30(%rsp),%rdx
 4404658:	48 8b 5a 28          	mov    0x28(%rdx),%rbx
 440465c:	48 8b 54 24 28       	mov    0x28(%rsp),%rdx
 4404661:	48 8b 42 28          	mov    0x28(%rdx),%rax
 4404665:	48 8b 4a 30          	mov    0x30(%rdx),%rcx
 4404669:	e8 b2 f4 ad fd       	call   1ee3b20 <runtime.memequal@@Base>
 440466e:	eb 02                	jmp    4404672 <type:.xNw2DeFj@@Base+0x92>
 4404670:	31 c0                	xor    %eax,%eax
 4404672:	48 8b 6c 24 18       	mov    0x18(%rsp),%rbp
 4404677:	48 83 c4 20          	add    $0x20,%rsp
 440467b:	c3                   	ret
 440467c:	48 89 44 24 08       	mov    %rax,0x8(%rsp)
 4404681:	48 89 5c 24 10       	mov    %rbx,0x10(%rsp)
 4404686:	e8 d5 fd b4 fd       	call   1f54460 <runtime.morestack_noctxt.abi0@@Base>
 440468b:	48 8b 44 24 08       	mov    0x8(%rsp),%rax
 4404690:	48 8b 5c 24 10       	mov    0x10(%rsp),%rbx
 4404695:	e9 46 ff ff ff       	jmp    44045e0 <type:.xNw2DeFj@@Base>
 440469a:	cc                   	int3
 440469b:	cc                   	int3
 440469c:	cc                   	int3
 440469d:	cc                   	int3
 440469e:	cc                   	int3
 440469f:	cc                   	int3

00000000044046a0 <type:.m+zgU+BU@@Base>:
 44046a0:	49 3b 66 10          	cmp    0x10(%r14),%rsp
 44046a4:	0f 86 d2 01 00 00    	jbe    440487c <type:.m+zgU+BU@@Base+0x1dc>
 44046aa:	48 83 ec 20          	sub    $0x20,%rsp
 44046ae:	48 89 6c 24 18       	mov    %rbp,0x18(%rsp)
 44046b3:	48 8d 6c 24 18       	lea    0x18(%rsp),%rbp
 44046b8:	48 8b 48 08          	mov    0x8(%rax),%rcx
 44046bc:	48 8b 13             	mov    (%rbx),%rdx
 44046bf:	48 8b 30             	mov    (%rax),%rsi
 44046c2:	48 39 4b 08          	cmp    %rcx,0x8(%rbx)
 44046c6:	0f 85 a4 01 00 00    	jne    4404870 <type:.m+zgU+BU@@Base+0x1d0>
 44046cc:	48 8b 7b 18          	mov    0x18(%rbx),%rdi
 44046d0:	48 39 78 18          	cmp    %rdi,0x18(%rax)
 44046d4:	0f 85 96 01 00 00    	jne    4404870 <type:.m+zgU+BU@@Base+0x1d0>
 44046da:	0f b7 78 20          	movzwl 0x20(%rax),%edi
 44046de:	66 90                	xchg   %ax,%ax
 44046e0:	66 39 7b 20          	cmp    %di,0x20(%rbx)
 44046e4:	0f 85 86 01 00 00    	jne    4404870 <type:.m+zgU+BU@@Base+0x1d0>
 44046ea:	48 8b 7b 30          	mov    0x30(%rbx),%rdi
 44046ee:	48 39 78 30          	cmp    %rdi,0x30(%rax)
 44046f2:	0f 85 78 01 00 00    	jne    4404870 <type:.m+zgU+BU@@Base+0x1d0>
 44046f8:	48 8b 7b 40          	mov    0x40(%rbx),%rdi
 44046fc:	0f 1f 40 00          	nopl   0x0(%rax)
 4404700:	48 39 78 40          	cmp    %rdi,0x40(%rax)
 4404704:	0f 85 66 01 00 00    	jne    4404870 <type:.m+zgU+BU@@Base+0x1d0>
 440470a:	48 8b 7b 50          	mov    0x50(%rbx),%rdi
 440470e:	48 39 78 50          	cmp    %rdi,0x50(%rax)
 4404712:	0f 85 58 01 00 00    	jne    4404870 <type:.m+zgU+BU@@Base+0x1d0>
 4404718:	48 8b 78 60          	mov    0x60(%rax),%rdi
 440471c:	0f 1f 40 00          	nopl   0x0(%rax)
 4404720:	48 39 7b 60          	cmp    %rdi,0x60(%rbx)
 4404724:	0f 85 46 01 00 00    	jne    4404870 <type:.m+zgU+BU@@Base+0x1d0>
 440472a:	48 8b 7b 70          	mov    0x70(%rbx),%rdi
 440472e:	48 39 78 70          	cmp    %rdi,0x70(%rax)
 4404732:	0f 85 38 01 00 00    	jne    4404870 <type:.m+zgU+BU@@Base+0x1d0>
 4404738:	48 8b 78 78          	mov    0x78(%rax),%rdi
 440473c:	0f 1f 40 00          	nopl   0x0(%rax)
 4404740:	48 39 7b 78          	cmp    %rdi,0x78(%rbx)
 4404744:	0f 85 26 01 00 00    	jne    4404870 <type:.m+zgU+BU@@Base+0x1d0>
 440474a:	48 8b bb 88 00 00 00 	mov    0x88(%rbx),%rdi
 4404751:	48 39 b8 88 00 00 00 	cmp    %rdi,0x88(%rax)
 4404758:	0f 85 12 01 00 00    	jne    4404870 <type:.m+zgU+BU@@Base+0x1d0>
 440475e:	48 89 44 24 28       	mov    %rax,0x28(%rsp)
 4404763:	48 89 5c 24 30       	mov    %rbx,0x30(%rsp)
 4404768:	48 89 f0             	mov    %rsi,%rax
 440476b:	48 89 d3             	mov    %rdx,%rbx
 440476e:	e8 ad f3 ad fd       	call   1ee3b20 <runtime.memequal@@Base>
 4404773:	84 c0                	test   %al,%al
 4404775:	0f 84 f5 00 00 00    	je     4404870 <type:.m+zgU+BU@@Base+0x1d0>
 440477b:	48 8b 54 24 30       	mov    0x30(%rsp),%rdx
 4404780:	48 8b 5a 10          	mov    0x10(%rdx),%rbx
 4404784:	48 8b 74 24 28       	mov    0x28(%rsp),%rsi
 4404789:	48 8b 46 10          	mov    0x10(%rsi),%rax
 440478d:	48 8b 4e 18          	mov    0x18(%rsi),%rcx
 4404791:	e8 8a f3 ad fd       	call   1ee3b20 <runtime.memequal@@Base>
 4404796:	84 c0                	test   %al,%al
 4404798:	0f 84 d2 00 00 00    	je     4404870 <type:.m+zgU+BU@@Base+0x1d0>
 440479e:	48 8b 54 24 30       	mov    0x30(%rsp),%rdx
 44047a3:	48 8b 5a 28          	mov    0x28(%rdx),%rbx
 44047a7:	48 8b 74 24 28       	mov    0x28(%rsp),%rsi
 44047ac:	48 8b 46 28          	mov    0x28(%rsi),%rax
 44047b0:	48 8b 4e 30          	mov    0x30(%rsi),%rcx
 44047b4:	e8 67 f3 ad fd       	call   1ee3b20 <runtime.memequal@@Base>
 44047b9:	0f 1f 80 00 00 00 00 	nopl   0x0(%rax)
 44047c0:	84 c0                	test   %al,%al
 44047c2:	0f 84 a8 00 00 00    	je     4404870 <type:.m+zgU+BU@@Base+0x1d0>
 44047c8:	48 8b 54 24 30       	mov    0x30(%rsp),%rdx
 44047cd:	48 8b 5a 38          	mov    0x38(%rdx),%rbx
 44047d1:	48 8b 74 24 28       	mov    0x28(%rsp),%rsi
 44047d6:	48 8b 46 38          	mov    0x38(%rsi),%rax
 44047da:	48 8b 4e 40          	mov    0x40(%rsi),%rcx
 44047de:	66 90                	xchg   %ax,%ax
 44047e0:	e8 3b f3 ad fd       	call   1ee3b20 <runtime.memequal@@Base>
 44047e5:	84 c0                	test   %al,%al
 44047e7:	0f 84 83 00 00 00    	je     4404870 <type:.m+zgU+BU@@Base+0x1d0>
 44047ed:	48 8b 54 24 30       	mov    0x30(%rsp),%rdx
 44047f2:	48 8b 5a 48          	mov    0x48(%rdx),%rbx
 44047f6:	48 8b 74 24 28       	mov    0x28(%rsp),%rsi
 44047fb:	48 8b 46 48          	mov    0x48(%rsi),%rax
 44047ff:	48 8b 4e 50          	mov    0x50(%rsi),%rcx
 4404803:	e8 18 f3 ad fd       	call   1ee3b20 <runtime.memequal@@Base>
 4404808:	84 c0                	test   %al,%al
 440480a:	74 64                	je     4404870 <type:.m+zgU+BU@@Base+0x1d0>
 440480c:	48 8b 54 24 30       	mov    0x30(%rsp),%rdx
 4404811:	48 8b 5a 58          	mov    0x58(%rdx),%rbx
 4404815:	48 8b 74 24 28       	mov    0x28(%rsp),%rsi
 440481a:	48 8b 46 58          	mov    0x58(%rsi),%rax
 440481e:	48 8b 4e 60          	mov    0x60(%rsi),%rcx
 4404822:	e8 f9 f2 ad fd       	call   1ee3b20 <runtime.memequal@@Base>
 4404827:	84 c0                	test   %al,%al
 4404829:	74 45                	je     4404870 <type:.m+zgU+BU@@Base+0x1d0>
 440482b:	48 8b 54 24 30       	mov    0x30(%rsp),%rdx
 4404830:	48 8b 5a 68          	mov    0x68(%rdx),%rbx
 4404834:	48 8b 74 24 28       	mov    0x28(%rsp),%rsi
 4404839:	48 8b 46 68          	mov    0x68(%rsi),%rax
 440483d:	48 8b 4e 70          	mov    0x70(%rsi),%rcx
 4404841:	e8 da f2 ad fd       	call   1ee3b20 <runtime.memequal@@Base>
 4404846:	84 c0                	test   %al,%al
 4404848:	74 26                	je     4404870 <type:.m+zgU+BU@@Base+0x1d0>
 440484a:	48 8b 54 24 30       	mov    0x30(%rsp),%rdx
 440484f:	48 8b 9a 80 00 00 00 	mov    0x80(%rdx),%rbx
 4404856:	48 8b 54 24 28       	mov    0x28(%rsp),%rdx
 440485b:	48 8b 82 80 00 00 00 	mov    0x80(%rdx),%rax
 4404862:	48 8b 8a 88 00 00 00 	mov    0x88(%rdx),%rcx
 4404869:	e8 b2 f2 ad fd       	call   1ee3b20 <runtime.memequal@@Base>
 440486e:	eb 02                	jmp    4404872 <type:.m+zgU+BU@@Base+0x1d2>
 4404870:	31 c0                	xor    %eax,%eax
 4404872:	48 8b 6c 24 18       	mov    0x18(%rsp),%rbp
 4404877:	48 83 c4 20          	add    $0x20,%rsp
 440487b:	c3                   	ret
 440487c:	48 89 44 24 08       	mov    %rax,0x8(%rsp)
 4404881:	48 89 5c 24 10       	mov    %rbx,0x10(%rsp)
 4404886:	e8 d5 fb b4 fd       	call   1f54460 <runtime.morestack_noctxt.abi0@@Base>
 440488b:	48 8b 44 24 08       	mov    0x8(%rsp),%rax
 4404890:	48 8b 5c 24 10       	mov    0x10(%rsp),%rbx
 4404895:	e9 06 fe ff ff       	jmp    44046a0 <type:.m+zgU+BU@@Base>
 440489a:	cc                   	int3
 440489b:	cc                   	int3
 440489c:	cc                   	int3
 440489d:	cc                   	int3
 440489e:	cc                   	int3
 440489f:	cc                   	int3

00000000044048a0 <type:.TN04HuF0@@Base>:
 44048a0:	49 3b 66 10          	cmp    0x10(%r14),%rsp
 44048a4:	76 6d                	jbe    4404913 <type:.TN04HuF0@@Base+0x73>
 44048a6:	48 83 ec 20          	sub    $0x20,%rsp
 44048aa:	48 89 6c 24 18       	mov    %rbp,0x18(%rsp)
 44048af:	48 8d 6c 24 18       	lea    0x18(%rsp),%rbp
 44048b4:	48 8b 48 08          	mov    0x8(%rax),%rcx
 44048b8:	48 8b 13             	mov    (%rbx),%rdx
 44048bb:	48 8b 30             	mov    (%rax),%rsi
 44048be:	66 90                	xchg   %ax,%ax
 44048c0:	48 39 4b 08          	cmp    %rcx,0x8(%rbx)
 44048c4:	75 41                	jne    4404907 <type:.TN04HuF0@@Base+0x67>
 44048c6:	48 8b 78 18          	mov    0x18(%rax),%rdi
 44048ca:	48 39 7b 18          	cmp    %rdi,0x18(%rbx)
 44048ce:	75 37                	jne    4404907 <type:.TN04HuF0@@Base+0x67>
 44048d0:	48 89 44 24 28       	mov    %rax,0x28(%rsp)
 44048d5:	48 89 5c 24 30       	mov    %rbx,0x30(%rsp)
 44048da:	48 89 f0             	mov    %rsi,%rax
 44048dd:	48 89 d3             	mov    %rdx,%rbx
 44048e0:	e8 3b f2 ad fd       	call   1ee3b20 <runtime.memequal@@Base>
 44048e5:	84 c0                	test   %al,%al
 44048e7:	74 1e                	je     4404907 <type:.TN04HuF0@@Base+0x67>
 44048e9:	48 8b 54 24 30       	mov    0x30(%rsp),%rdx
 44048ee:	48 8b 5a 10          	mov    0x10(%rdx),%rbx
 44048f2:	48 8b 54 24 28       	mov    0x28(%rsp),%rdx
 44048f7:	48 8b 42 10          	mov    0x10(%rdx),%rax
 44048fb:	48 8b 4a 18          	mov    0x18(%rdx),%rcx
 44048ff:	90                   	nop
 4404900:	e8 1b f2 ad fd       	call   1ee3b20 <runtime.memequal@@Base>
 4404905:	eb 02                	jmp    4404909 <type:.TN04HuF0@@Base+0x69>
 4404907:	31 c0                	xor    %eax,%eax
 4404909:	48 8b 6c 24 18       	mov    0x18(%rsp),%rbp
 440490e:	48 83 c4 20          	add    $0x20,%rsp
 4404912:	c3                   	ret
 4404913:	48 89 44 24 08       	mov    %rax,0x8(%rsp)
 4404918:	48 89 5c 24 10       	mov    %rbx,0x10(%rsp)
 440491d:	0f 1f 00             	nopl   (%rax)
 4404920:	e8 3b fb b4 fd       	call   1f54460 <runtime.morestack_noctxt.abi0@@Base>
 4404925:	48 8b 44 24 08       	mov    0x8(%rsp),%rax
 440492a:	48 8b 5c 24 10       	mov    0x10(%rsp),%rbx
 440492f:	e9 6c ff ff ff       	jmp    44048a0 <type:.TN04HuF0@@Base>
 4404934:	cc                   	int3
 4404935:	cc                   	int3
 4404936:	cc                   	int3
 4404937:	cc                   	int3
 4404938:	cc                   	int3
 4404939:	cc                   	int3
 440493a:	cc                   	int3
 440493b:	cc                   	int3
 440493c:	cc                   	int3
 440493d:	cc                   	int3
 440493e:	cc                   	int3
 440493f:	cc                   	int3

0000000004404940 <type:.t0ePGS56@@Base>:
 4404940:	49 3b 66 10          	cmp    0x10(%r14),%rsp
 4404944:	0f 86 2c 02 00 00    	jbe    4404b76 <type:.t0ePGS56@@Base+0x236>
 440494a:	48 83 ec 20          	sub    $0x20,%rsp
 440494e:	48 89 6c 24 18       	mov    %rbp,0x18(%rsp)
 4404953:	48 8d 6c 24 18       	lea    0x18(%rsp),%rbp
 4404958:	48 8b 10             	mov    (%rax),%rdx
 440495b:	0f 1f 44 00 00       	nopl   0x0(%rax,%rax,1)
 4404960:	48 39 13             	cmp    %rdx,(%rbx)
 4404963:	0f 85 01 02 00 00    	jne    4404b6a <type:.t0ePGS56@@Base+0x22a>
 4404969:	48 8b 50 08          	mov    0x8(%rax),%rdx
 440496d:	48 39 53 08          	cmp    %rdx,0x8(%rbx)
 4404971:	0f 85 f3 01 00 00    	jne    4404b6a <type:.t0ePGS56@@Base+0x22a>
 4404977:	48 8b 48 18          	mov    0x18(%rax),%rcx
 440497b:	48 8b 53 10          	mov    0x10(%rbx),%rdx
 440497f:	48 8b 70 10          	mov    0x10(%rax),%rsi
 4404983:	48 39 4b 18          	cmp    %rcx,0x18(%rbx)
 4404987:	0f 85 dd 01 00 00    	jne    4404b6a <type:.t0ePGS56@@Base+0x22a>
 440498d:	48 8b 7b 28          	mov    0x28(%rbx),%rdi
 4404991:	48 39 78 28          	cmp    %rdi,0x28(%rax)
 4404995:	0f 85 cf 01 00 00    	jne    4404b6a <type:.t0ePGS56@@Base+0x22a>
 440499b:	48 8b 7b 38          	mov    0x38(%rbx),%rdi
 440499f:	90                   	nop
 44049a0:	48 39 78 38          	cmp    %rdi,0x38(%rax)
 44049a4:	0f 85 c0 01 00 00    	jne    4404b6a <type:.t0ePGS56@@Base+0x22a>
 44049aa:	48 8b 78 40          	mov    0x40(%rax),%rdi
 44049ae:	48 39 7b 40          	cmp    %rdi,0x40(%rbx)
 44049b2:	0f 85 b2 01 00 00    	jne    4404b6a <type:.t0ePGS56@@Base+0x22a>
 44049b8:	48 8b 78 48          	mov    0x48(%rax),%rdi
 44049bc:	0f 1f 40 00          	nopl   0x0(%rax)
 44049c0:	48 39 7b 48          	cmp    %rdi,0x48(%rbx)
 44049c4:	0f 85 a0 01 00 00    	jne    4404b6a <type:.t0ePGS56@@Base+0x22a>
 44049ca:	48 8b 78 50          	mov    0x50(%rax),%rdi
 44049ce:	48 39 7b 50          	cmp    %rdi,0x50(%rbx)
 44049d2:	0f 85 92 01 00 00    	jne    4404b6a <type:.t0ePGS56@@Base+0x22a>
 44049d8:	0f b6 78 58          	movzbl 0x58(%rax),%edi
 44049dc:	0f 1f 40 00          	nopl   0x0(%rax)
 44049e0:	40 38 7b 58          	cmp    %dil,0x58(%rbx)
 44049e4:	0f 85 80 01 00 00    	jne    4404b6a <type:.t0ePGS56@@Base+0x22a>
 44049ea:	48 8b 78 60          	mov    0x60(%rax),%rdi
 44049ee:	48 39 7b 60          	cmp    %rdi,0x60(%rbx)
 44049f2:	0f 85 72 01 00 00    	jne    4404b6a <type:.t0ePGS56@@Base+0x22a>
 44049f8:	48 8b 7b 70          	mov    0x70(%rbx),%rdi
 44049fc:	0f 1f 40 00          	nopl   0x0(%rax)
 4404a00:	48 39 78 70          	cmp    %rdi,0x70(%rax)
 4404a04:	0f 85 60 01 00 00    	jne    4404b6a <type:.t0ePGS56@@Base+0x22a>
 4404a0a:	48 8b b8 a0 00 00 00 	mov    0xa0(%rax),%rdi
 4404a11:	48 39 bb a0 00 00 00 	cmp    %rdi,0xa0(%rbx)
 4404a18:	0f 85 4c 01 00 00    	jne    4404b6a <type:.t0ePGS56@@Base+0x22a>
 4404a1e:	48 8b b8 b0 00 00 00 	mov    0xb0(%rax),%rdi
 4404a25:	48 39 bb b0 00 00 00 	cmp    %rdi,0xb0(%rbx)
 4404a2c:	0f 85 38 01 00 00    	jne    4404b6a <type:.t0ePGS56@@Base+0x22a>
 4404a32:	48 8b b8 b8 00 00 00 	mov    0xb8(%rax),%rdi
 4404a39:	0f 1f 80 00 00 00 00 	nopl   0x0(%rax)
 4404a40:	48 39 bb b8 00 00 00 	cmp    %rdi,0xb8(%rbx)
 4404a47:	0f 85 1d 01 00 00    	jne    4404b6a <type:.t0ePGS56@@Base+0x22a>
 4404a4d:	48 8b bb c8 00 00 00 	mov    0xc8(%rbx),%rdi
 4404a54:	66 0f 1f 84 00 00 00 	nopw   0x0(%rax,%rax,1)
 4404a5b:	00 00 
 4404a5d:	0f 1f 00             	nopl   (%rax)
 4404a60:	48 39 b8 c8 00 00 00 	cmp    %rdi,0xc8(%rax)
 4404a67:	0f 85 fd 00 00 00    	jne    4404b6a <type:.t0ePGS56@@Base+0x22a>
 4404a6d:	48 89 44 24 28       	mov    %rax,0x28(%rsp)
 4404a72:	48 89 5c 24 30       	mov    %rbx,0x30(%rsp)
 4404a77:	48 89 f0             	mov    %rsi,%rax
 4404a7a:	48 89 d3             	mov    %rdx,%rbx
 4404a7d:	0f 1f 00             	nopl   (%rax)
 4404a80:	e8 9b f0 ad fd       	call   1ee3b20 <runtime.memequal@@Base>
 4404a85:	84 c0                	test   %al,%al
 4404a87:	0f 84 dd 00 00 00    	je     4404b6a <type:.t0ePGS56@@Base+0x22a>
 4404a8d:	48 8b 54 24 30       	mov    0x30(%rsp),%rdx
 4404a92:	48 8b 5a 20          	mov    0x20(%rdx),%rbx
 4404a96:	48 8b 74 24 28       	mov    0x28(%rsp),%rsi
 4404a9b:	48 8b 46 20          	mov    0x20(%rsi),%rax
 4404a9f:	48 8b 4e 28          	mov    0x28(%rsi),%rcx
 4404aa3:	e8 78 f0 ad fd       	call   1ee3b20 <runtime.memequal@@Base>
 4404aa8:	84 c0                	test   %al,%al
 4404aaa:	0f 84 ba 00 00 00    	je     4404b6a <type:.t0ePGS56@@Base+0x22a>
 4404ab0:	48 8b 54 24 30       	mov    0x30(%rsp),%rdx
 4404ab5:	48 8b 5a 30          	mov    0x30(%rdx),%rbx
 4404ab9:	48 8b 74 24 28       	mov    0x28(%rsp),%rsi
 4404abe:	48 8b 46 30          	mov    0x30(%rsi),%rax
 4404ac2:	48 8b 4e 38          	mov    0x38(%rsi),%rcx
 4404ac6:	e8 55 f0 ad fd       	call   1ee3b20 <runtime.memequal@@Base>
 4404acb:	84 c0                	test   %al,%al
 4404acd:	0f 84 97 00 00 00    	je     4404b6a <type:.t0ePGS56@@Base+0x22a>
 4404ad3:	48 8b 54 24 30       	mov    0x30(%rsp),%rdx
 4404ad8:	48 8b 5a 68          	mov    0x68(%rdx),%rbx
 4404adc:	48 8b 74 24 28       	mov    0x28(%rsp),%rsi
 4404ae1:	48 8b 46 68          	mov    0x68(%rsi),%rax
 4404ae5:	48 8b 4e 70          	mov    0x70(%rsi),%rcx
 4404ae9:	e8 32 f0 ad fd       	call   1ee3b20 <runtime.memequal@@Base>
 4404aee:	84 c0                	test   %al,%al
 4404af0:	74 78                	je     4404b6a <type:.t0ePGS56@@Base+0x22a>
 4404af2:	48 8b 44 24 28       	mov    0x28(%rsp),%rax
 4404af7:	48 8d 50 78          	lea    0x78(%rax),%rdx
 4404afb:	48 8b 5c 24 30       	mov    0x30(%rsp),%rbx
 4404b00:	48 8d 73 78          	lea    0x78(%rbx),%rsi
 4404b04:	b9 23 00 00 00       	mov    $0x23,%ecx
 4404b09:	48 89 d0             	mov    %rdx,%rax
 4404b0c:	48 89 f3             	mov    %rsi,%rbx
 4404b0f:	e8 0c f0 ad fd       	call   1ee3b20 <runtime.memequal@@Base>
 4404b14:	84 c0                	test   %al,%al
 4404b16:	74 52                	je     4404b6a <type:.t0ePGS56@@Base+0x22a>
 4404b18:	48 8b 54 24 30       	mov    0x30(%rsp),%rdx
 4404b1d:	48 8b 9a a8 00 00 00 	mov    0xa8(%rdx),%rbx
 4404b24:	48 8b 74 24 28       	mov    0x28(%rsp),%rsi
 4404b29:	48 8b 86 a8 00 00 00 	mov    0xa8(%rsi),%rax
 4404b30:	48 8b 8e b0 00 00 00 	mov    0xb0(%rsi),%rcx
 4404b37:	e8 e4 ef ad fd       	call   1ee3b20 <runtime.memequal@@Base>
 4404b3c:	0f 1f 40 00          	nopl   0x0(%rax)
 4404b40:	84 c0                	test   %al,%al
 4404b42:	74 26                	je     4404b6a <type:.t0ePGS56@@Base+0x22a>
 4404b44:	48 8b 54 24 30       	mov    0x30(%rsp),%rdx
 4404b49:	48 8b 9a c0 00 00 00 	mov    0xc0(%rdx),%rbx
 4404b50:	48 8b 54 24 28       	mov    0x28(%rsp),%rdx
 4404b55:	48 8b 82 c0 00 00 00 	mov    0xc0(%rdx),%rax
 4404b5c:	48 8b 8a c8 00 00 00 	mov    0xc8(%rdx),%rcx
 4404b63:	e8 b8 ef ad fd       	call   1ee3b20 <runtime.memequal@@Base>
 4404b68:	eb 02                	jmp    4404b6c <type:.t0ePGS56@@Base+0x22c>
 4404b6a:	31 c0                	xor    %eax,%eax
 4404b6c:	48 8b 6c 24 18       	mov    0x18(%rsp),%rbp
 4404b71:	48 83 c4 20          	add    $0x20,%rsp
 4404b75:	c3                   	ret
 4404b76:	48 89 44 24 08       	mov    %rax,0x8(%rsp)
 4404b7b:	48 89 5c 24 10       	mov    %rbx,0x10(%rsp)
 4404b80:	e8 db f8 b4 fd       	call   1f54460 <runtime.morestack_noctxt.abi0@@Base>
 4404b85:	48 8b 44 24 08       	mov    0x8(%rsp),%rax
 4404b8a:	48 8b 5c 24 10       	mov    0x10(%rsp),%rbx
 4404b8f:	e9 ac fd ff ff       	jmp    4404940 <type:.t0ePGS56@@Base>
 4404b94:	cc                   	int3
 4404b95:	cc                   	int3
 4404b96:	cc                   	int3
 4404b97:	cc                   	int3
 4404b98:	cc                   	int3
 4404b99:	cc                   	int3
 4404b9a:	cc                   	int3
 4404b9b:	cc                   	int3
 4404b9c:	cc                   	int3
 4404b9d:	cc                   	int3
 4404b9e:	cc                   	int3
 4404b9f:	cc                   	int3

0000000004404ba0 <github.com/lasselj/timebeat/beater/utility.TrimLeadingZeroAndTrailingNulls@@Base>:
 4404ba0:	49 3b 66 10          	cmp    0x10(%r14),%rsp
 4404ba4:	76 3f                	jbe    4404be5 <github.com/lasselj/timebeat/beater/utility.TrimLeadingZeroAndTrailingNulls@@Base+0x45>
 4404ba6:	48 83 ec 28          	sub    $0x28,%rsp
 4404baa:	48 89 6c 24 20       	mov    %rbp,0x20(%rsp)
 4404baf:	48 8d 6c 24 20       	lea    0x20(%rsp),%rbp
 4404bb4:	48 89 44 24 30       	mov    %rax,0x30(%rsp)
 4404bb9:	48 8d 0d 80 23 0d 01 	lea    0x10d2380(%rip),%rcx        # 54d6f40 <_IO_stdin_used@@Base+0x8a3f40>
 4404bc0:	bf 01 00 00 00       	mov    $0x1,%edi
 4404bc5:	e8 f6 4c c0 fd       	call   20098c0 <strings.TrimLeft@@Base>
 4404bca:	48 8d 0d 17 a1 0d 01 	lea    0x10da117(%rip),%rcx        # 54dece8 <_IO_stdin_used@@Base+0x8abce8>
 4404bd1:	bf 01 00 00 00       	mov    $0x1,%edi
 4404bd6:	e8 45 4f c0 fd       	call   2009b20 <strings.TrimRight@@Base>
 4404bdb:	48 8b 6c 24 20       	mov    0x20(%rsp),%rbp
 4404be0:	48 83 c4 28          	add    $0x28,%rsp
 4404be4:	c3                   	ret
 4404be5:	48 89 44 24 08       	mov    %rax,0x8(%rsp)
 4404bea:	48 89 5c 24 10       	mov    %rbx,0x10(%rsp)
 4404bef:	e8 6c f8 b4 fd       	call   1f54460 <runtime.morestack_noctxt.abi0@@Base>
 4404bf4:	48 8b 44 24 08       	mov    0x8(%rsp),%rax
 4404bf9:	48 8b 5c 24 10       	mov    0x10(%rsp),%rbx
 4404bfe:	66 90                	xchg   %ax,%ax
 4404c00:	eb 9e                	jmp    4404ba0 <github.com/lasselj/timebeat/beater/utility.TrimLeadingZeroAndTrailingNulls@@Base>
 4404c02:	cc                   	int3
 4404c03:	cc                   	int3
 4404c04:	cc                   	int3
 4404c05:	cc                   	int3
 4404c06:	cc                   	int3
 4404c07:	cc                   	int3
 4404c08:	cc                   	int3
 4404c09:	cc                   	int3
 4404c0a:	cc                   	int3
 4404c0b:	cc                   	int3
 4404c0c:	cc                   	int3
 4404c0d:	cc                   	int3
 4404c0e:	cc                   	int3
 4404c0f:	cc                   	int3
 4404c10:	cc                   	int3
 4404c11:	cc                   	int3
 4404c12:	cc                   	int3
 4404c13:	cc                   	int3
 4404c14:	cc                   	int3
 4404c15:	cc                   	int3
 4404c16:	cc                   	int3
 4404c17:	cc                   	int3
 4404c18:	cc                   	int3
 4404c19:	cc                   	int3
 4404c1a:	cc                   	int3
 4404c1b:	cc                   	int3
 4404c1c:	cc                   	int3
 4404c1d:	cc                   	int3
 4404c1e:	cc                   	int3
 4404c1f:	cc                   	int3

0000000004404c20 <github.com/lasselj/timebeat/beater/utility.ParseTimeString@@Base>:
 4404c20:	49 3b 66 10          	cmp    0x10(%r14),%rsp
 4404c24:	0f 86 3b 01 00 00    	jbe    4404d65 <github.com/lasselj/timebeat/beater/utility.ParseTimeString@@Base+0x145>
 4404c2a:	48 83 ec 68          	sub    $0x68,%rsp
 4404c2e:	48 89 6c 24 60       	mov    %rbp,0x60(%rsp)
 4404c33:	48 8d 6c 24 60       	lea    0x60(%rsp),%rbp
 4404c38:	48 89 44 24 70       	mov    %rax,0x70(%rsp)
 4404c3d:	0f 1f 00             	nopl   (%rax)
 4404c40:	48 85 db             	test   %rbx,%rbx
 4404c43:	0f 84 e7 00 00 00    	je     4404d30 <github.com/lasselj/timebeat/beater/utility.ParseTimeString@@Base+0x110>
 4404c49:	48 89 44 24 70       	mov    %rax,0x70(%rsp)
 4404c4e:	48 89 5c 24 78       	mov    %rbx,0x78(%rsp)
 4404c53:	0f b6 4c 03 ff       	movzbl -0x1(%rbx,%rax,1),%ecx
 4404c58:	80 f9 64             	cmp    $0x64,%cl
 4404c5b:	75 49                	jne    4404ca6 <github.com/lasselj/timebeat/beater/utility.ParseTimeString@@Base+0x86>
 4404c5d:	48 8d 4b ff          	lea    -0x1(%rbx),%rcx
 4404c61:	48 89 cb             	mov    %rcx,%rbx
 4404c64:	e8 97 a4 b6 fd       	call   1f6f100 <strconv.Atoi@@Base>
 4404c69:	48 85 db             	test   %rbx,%rbx
 4404c6c:	75 10                	jne    4404c7e <github.com/lasselj/timebeat/beater/utility.ParseTimeString@@Base+0x5e>
 4404c6e:	48 ba 00 00 4f 91 94 	movabs $0x4e94914f0000,%rdx
 4404c75:	4e 00 00 
 4404c78:	48 0f af d0          	imul   %rax,%rdx
 4404c7c:	eb 22                	jmp    4404ca0 <github.com/lasselj/timebeat/beater/utility.ParseTimeString@@Base+0x80>
 4404c7e:	48 8d 44 24 38       	lea    0x38(%rsp),%rax
 4404c83:	48 8d 1d 70 d6 9d 00 	lea    0x9dd670(%rip),%rbx        # 4de22fa <_IO_stdin_used@@Base+0x1af2fa>
 4404c8a:	b9 1a 00 00 00       	mov    $0x1a,%ecx
 4404c8f:	48 8b 7c 24 70       	mov    0x70(%rsp),%rdi
 4404c94:	48 8b 74 24 78       	mov    0x78(%rsp),%rsi
 4404c99:	e8 82 56 b3 fd       	call   1f3a320 <runtime.concatstring2@@Base>
 4404c9e:	31 d2                	xor    %edx,%edx
 4404ca0:	31 db                	xor    %ebx,%ebx
 4404ca2:	31 c9                	xor    %ecx,%ecx
 4404ca4:	eb 7d                	jmp    4404d23 <github.com/lasselj/timebeat/beater/utility.ParseTimeString@@Base+0x103>
 4404ca6:	e8 d5 33 bc fd       	call   1fc8080 <time.ParseDuration@@Base>
 4404cab:	48 85 c0             	test   %rax,%rax
 4404cae:	75 70                	jne    4404d20 <github.com/lasselj/timebeat/beater/utility.ParseTimeString@@Base+0x100>
 4404cb0:	48 89 44 24 30       	mov    %rax,0x30(%rsp)
 4404cb5:	31 c0                	xor    %eax,%eax
 4404cb7:	48 8d 1d 3c d6 9d 00 	lea    0x9dd63c(%rip),%rbx        # 4de22fa <_IO_stdin_used@@Base+0x1af2fa>
 4404cbe:	b9 1a 00 00 00       	mov    $0x1a,%ecx
 4404cc3:	48 8b 7c 24 70       	mov    0x70(%rsp),%rdi
 4404cc8:	48 8b 74 24 78       	mov    0x78(%rsp),%rsi
 4404ccd:	e8 4e 56 b3 fd       	call   1f3a320 <runtime.concatstring2@@Base>
 4404cd2:	48 89 44 24 58       	mov    %rax,0x58(%rsp)
 4404cd7:	48 89 5c 24 28       	mov    %rbx,0x28(%rsp)
 4404cdc:	48 8d 05 1d f6 66 01 	lea    0x166f61d(%rip),%rax        # 5a74300 <type:hE5I1The@@Base>
 4404ce3:	e8 f8 b7 ae fd       	call   1ef04e0 <runtime.newobject@@Base>
 4404ce8:	48 8b 54 24 28       	mov    0x28(%rsp),%rdx
 4404ced:	48 89 50 08          	mov    %rdx,0x8(%rax)
 4404cf1:	83 3d 68 6c a7 03 00 	cmpl   $0x0,0x3a76c68(%rip)        # 7e7b960 <runtime.writeBarrier@@Base>
 4404cf8:	75 0a                	jne    4404d04 <github.com/lasselj/timebeat/beater/utility.ParseTimeString@@Base+0xe4>
 4404cfa:	48 8b 54 24 58       	mov    0x58(%rsp),%rdx
 4404cff:	48 89 10             	mov    %rdx,(%rax)
 4404d02:	eb 0d                	jmp    4404d11 <github.com/lasselj/timebeat/beater/utility.ParseTimeString@@Base+0xf1>
 4404d04:	48 89 c7             	mov    %rax,%rdi
 4404d07:	48 8b 54 24 58       	mov    0x58(%rsp),%rdx
 4404d0c:	e8 0f 1a b5 fd       	call   1f56720 <runtime.gcWriteBarrierDX@@Base>
 4404d11:	48 8d 1d a8 91 af 01 	lea    0x1af91a8(%rip),%rbx        # 5efdec0 <go:itab.*errors.errorString,error@@Base>
 4404d18:	48 89 c1             	mov    %rax,%rcx
 4404d1b:	48 8b 44 24 30       	mov    0x30(%rsp),%rax
 4404d20:	48 89 c2             	mov    %rax,%rdx
 4404d23:	48 89 d0             	mov    %rdx,%rax
 4404d26:	48 8b 6c 24 60       	mov    0x60(%rsp),%rbp
 4404d2b:	48 83 c4 68          	add    $0x68,%rsp
 4404d2f:	c3                   	ret
 4404d30:	90                   	nop
 4404d31:	48 8d 05 c8 f5 66 01 	lea    0x166f5c8(%rip),%rax        # 5a74300 <type:hE5I1The@@Base>
 4404d38:	e8 a3 b7 ae fd       	call   1ef04e0 <runtime.newobject@@Base>
 4404d3d:	48 c7 40 08 14 00 00 	movq   $0x14,0x8(%rax)
 4404d44:	00 
 4404d45:	48 8d 0d 6d 59 9c 00 	lea    0x9c596d(%rip),%rcx        # 4dca6b9 <_IO_stdin_used@@Base+0x1976b9>
 4404d4c:	48 89 08             	mov    %rcx,(%rax)
 4404d4f:	48 8d 1d 6a 91 af 01 	lea    0x1af916a(%rip),%rbx        # 5efdec0 <go:itab.*errors.errorString,error@@Base>
 4404d56:	48 89 c1             	mov    %rax,%rcx
 4404d59:	31 c0                	xor    %eax,%eax
 4404d5b:	48 8b 6c 24 60       	mov    0x60(%rsp),%rbp
 4404d60:	48 83 c4 68          	add    $0x68,%rsp
 4404d64:	c3                   	ret
 4404d65:	48 89 44 24 08       	mov    %rax,0x8(%rsp)
 4404d6a:	48 89 5c 24 10       	mov    %rbx,0x10(%rsp)
 4404d6f:	e8 ec f6 b4 fd       	call   1f54460 <runtime.morestack_noctxt.abi0@@Base>
 4404d74:	48 8b 44 24 08       	mov    0x8(%rsp),%rax
 4404d79:	48 8b 5c 24 10       	mov    0x10(%rsp),%rbx
 4404d7e:	66 90                	xchg   %ax,%ax
 4404d80:	e9 9b fe ff ff       	jmp    4404c20 <github.com/lasselj/timebeat/beater/utility.ParseTimeString@@Base>
 4404d85:	cc                   	int3
 4404d86:	cc                   	int3
 4404d87:	cc                   	int3
 4404d88:	cc                   	int3
 4404d89:	cc                   	int3
 4404d8a:	cc                   	int3
 4404d8b:	cc                   	int3
 4404d8c:	cc                   	int3
 4404d8d:	cc                   	int3
 4404d8e:	cc                   	int3
 4404d8f:	cc                   	int3
 4404d90:	cc                   	int3
 4404d91:	cc                   	int3
 4404d92:	cc                   	int3
 4404d93:	cc                   	int3
 4404d94:	cc                   	int3
 4404d95:	cc                   	int3
 4404d96:	cc                   	int3
 4404d97:	cc                   	int3
 4404d98:	cc                   	int3
 4404d99:	cc                   	int3
 4404d9a:	cc                   	int3
 4404d9b:	cc                   	int3
 4404d9c:	cc                   	int3
 4404d9d:	cc                   	int3
 4404d9e:	cc                   	int3
 4404d9f:	cc                   	int3
