# github.com/lasselj/timebeat/beater/clocksync/clients/ptp/udp_socket.(*PTPSocket).createListenConfig.func1.1
# addr 0x45bb1a0 size 288 (0x120)


/mnt/c/Users/SHIWA/GitHub/TimeCard-Mini/timebeat-extracted/usr/share/timebeat/bin/timebeat:     file format elf64-x86-64


Disassembly of section .text:

00000000045bb1a0 <github.com/lasselj/timebeat/beater/clocksync/clients/ptp/udp_socket.(*PTPSocket).createListenConfig.func1.1@@Base>:
 45bb1a0:	49 3b 66 10          	cmp    0x10(%r14),%rsp
 45bb1a4:	0f 86 fe 00 00 00    	jbe    45bb2a8 <github.com/lasselj/timebeat/beater/clocksync/clients/ptp/udp_socket.(*PTPSocket).createListenConfig.func1.1@@Base+0x108>
 45bb1aa:	48 83 ec 58          	sub    $0x58,%rsp
 45bb1ae:	48 89 6c 24 50       	mov    %rbp,0x50(%rsp)
 45bb1b3:	48 8d 6c 24 50       	lea    0x50(%rsp),%rbp
 45bb1b8:	48 89 44 24 38       	mov    %rax,0x38(%rsp)
 45bb1bd:	48 8b 52 08          	mov    0x8(%rdx),%rdx
 45bb1c1:	48 89 54 24 48       	mov    %rdx,0x48(%rsp)
 45bb1c6:	c7 44 24 34 01 00 00 	movl   $0x1,0x34(%rsp)
 45bb1cd:	00 
 45bb1ce:	bb 01 00 00 00       	mov    $0x1,%ebx
 45bb1d3:	b9 2d 00 00 00       	mov    $0x2d,%ecx
 45bb1d8:	48 8d 7c 24 34       	lea    0x34(%rsp),%rdi
 45bb1dd:	be 04 00 00 00       	mov    $0x4,%esi
 45bb1e2:	e8 19 12 d8 fd       	call   233c400 <golang.org/x/sys/unix.setsockopt@@Base>
 45bb1e7:	48 8b 7c 24 48       	mov    0x48(%rsp),%rdi
 45bb1ec:	48 89 07             	mov    %rax,(%rdi)
 45bb1ef:	48 8d 57 08          	lea    0x8(%rdi),%rdx
 45bb1f3:	48 89 54 24 40       	mov    %rdx,0x40(%rsp)
 45bb1f8:	83 3d 61 07 8c 03 00 	cmpl   $0x0,0x38c0761(%rip)        # 7e7b960 <runtime.writeBarrier@@Base>
 45bb1ff:	90                   	nop
 45bb200:	75 06                	jne    45bb208 <github.com/lasselj/timebeat/beater/clocksync/clients/ptp/udp_socket.(*PTPSocket).createListenConfig.func1.1@@Base+0x68>
 45bb202:	48 89 5f 08          	mov    %rbx,0x8(%rdi)
 45bb206:	eb 08                	jmp    45bb210 <github.com/lasselj/timebeat/beater/clocksync/clients/ptp/udp_socket.(*PTPSocket).createListenConfig.func1.1@@Base+0x70>
 45bb208:	48 89 d7             	mov    %rdx,%rdi
 45bb20b:	e8 30 b5 99 fd       	call   1f56740 <runtime.gcWriteBarrierBX@@Base>
 45bb210:	c7 44 24 30 01 00 00 	movl   $0x1,0x30(%rsp)
 45bb217:	00 
 45bb218:	48 8b 44 24 38       	mov    0x38(%rsp),%rax
 45bb21d:	bb 01 00 00 00       	mov    $0x1,%ebx
 45bb222:	b9 0f 00 00 00       	mov    $0xf,%ecx
 45bb227:	48 8d 7c 24 30       	lea    0x30(%rsp),%rdi
 45bb22c:	be 04 00 00 00       	mov    $0x4,%esi
 45bb231:	e8 ca 11 d8 fd       	call   233c400 <golang.org/x/sys/unix.setsockopt@@Base>
 45bb236:	48 8b 54 24 48       	mov    0x48(%rsp),%rdx
 45bb23b:	48 89 02             	mov    %rax,(%rdx)
 45bb23e:	83 3d 1b 07 8c 03 00 	cmpl   $0x0,0x38c071b(%rip)        # 7e7b960 <runtime.writeBarrier@@Base>
 45bb245:	75 06                	jne    45bb24d <github.com/lasselj/timebeat/beater/clocksync/clients/ptp/udp_socket.(*PTPSocket).createListenConfig.func1.1@@Base+0xad>
 45bb247:	48 89 5a 08          	mov    %rbx,0x8(%rdx)
 45bb24b:	eb 0a                	jmp    45bb257 <github.com/lasselj/timebeat/beater/clocksync/clients/ptp/udp_socket.(*PTPSocket).createListenConfig.func1.1@@Base+0xb7>
 45bb24d:	48 8b 7c 24 40       	mov    0x40(%rsp),%rdi
 45bb252:	e8 e9 b4 99 fd       	call   1f56740 <runtime.gcWriteBarrierBX@@Base>
 45bb257:	c7 44 24 2c 01 00 00 	movl   $0x1,0x2c(%rsp)
 45bb25e:	00 
 45bb25f:	48 8b 44 24 38       	mov    0x38(%rsp),%rax
 45bb264:	bb 01 00 00 00       	mov    $0x1,%ebx
 45bb269:	b9 02 00 00 00       	mov    $0x2,%ecx
 45bb26e:	48 8d 7c 24 2c       	lea    0x2c(%rsp),%rdi
 45bb273:	be 04 00 00 00       	mov    $0x4,%esi
 45bb278:	e8 83 11 d8 fd       	call   233c400 <golang.org/x/sys/unix.setsockopt@@Base>
 45bb27d:	48 8b 54 24 48       	mov    0x48(%rsp),%rdx
 45bb282:	48 89 02             	mov    %rax,(%rdx)
 45bb285:	83 3d d4 06 8c 03 00 	cmpl   $0x0,0x38c06d4(%rip)        # 7e7b960 <runtime.writeBarrier@@Base>
 45bb28c:	75 06                	jne    45bb294 <github.com/lasselj/timebeat/beater/clocksync/clients/ptp/udp_socket.(*PTPSocket).createListenConfig.func1.1@@Base+0xf4>
 45bb28e:	48 89 5a 08          	mov    %rbx,0x8(%rdx)
 45bb292:	eb 0a                	jmp    45bb29e <github.com/lasselj/timebeat/beater/clocksync/clients/ptp/udp_socket.(*PTPSocket).createListenConfig.func1.1@@Base+0xfe>
 45bb294:	48 8b 7c 24 40       	mov    0x40(%rsp),%rdi
 45bb299:	e8 a2 b4 99 fd       	call   1f56740 <runtime.gcWriteBarrierBX@@Base>
 45bb29e:	48 8b 6c 24 50       	mov    0x50(%rsp),%rbp
 45bb2a3:	48 83 c4 58          	add    $0x58,%rsp
 45bb2a7:	c3                   	ret
 45bb2a8:	48 89 44 24 08       	mov    %rax,0x8(%rsp)
 45bb2ad:	e8 0e 91 99 fd       	call   1f543c0 <runtime.morestack.abi0@@Base>
 45bb2b2:	48 8b 44 24 08       	mov    0x8(%rsp),%rax
 45bb2b7:	e9 e4 fe ff ff       	jmp    45bb1a0 <github.com/lasselj/timebeat/beater/clocksync/clients/ptp/udp_socket.(*PTPSocket).createListenConfig.func1.1@@Base>
 45bb2bc:	cc                   	int3
 45bb2bd:	cc                   	int3
 45bb2be:	cc                   	int3
 45bb2bf:	cc                   	int3
