# github.com/lasselj/timebeat/beater/clocksync/clients/vendors/timebeat/clock_gen/clock_gen_8A34002E.(*DPLL).setupDPLLForDCOPhase
# addr 0x4b90c20 size 672 (0x2a0)


/mnt/c/Users/SHIWA/GitHub/TimeCard-Mini/timebeat-extracted/usr/share/timebeat/bin/timebeat:     file format elf64-x86-64


Disassembly of section .text:

0000000004b90c20 <github.com/lasselj/timebeat/beater/clocksync/clients/vendors/timebeat/clock_gen/clock_gen_8A34002E.(*DPLL).setupDPLLForDCOPhase@@Base>:
 4b90c20:	49 3b 66 10          	cmp    0x10(%r14),%rsp
 4b90c24:	0f 86 6c 02 00 00    	jbe    4b90e96 <github.com/lasselj/timebeat/beater/clocksync/clients/vendors/timebeat/clock_gen/clock_gen_8A34002E.(*DPLL).setupDPLLForDCOPhase@@Base+0x276>
 4b90c2a:	48 83 ec 60          	sub    $0x60,%rsp
 4b90c2e:	48 89 6c 24 58       	mov    %rbp,0x58(%rsp)
 4b90c33:	48 8d 6c 24 58       	lea    0x58(%rsp),%rbp
 4b90c38:	48 89 44 24 68       	mov    %rax,0x68(%rsp)
 4b90c3d:	b8 80 f0 fa 02       	mov    $0x2faf080,%eax
 4b90c42:	e8 99 25 3c fd       	call   1f531e0 <time.Sleep@@Base>
 4b90c47:	48 8b 44 24 68       	mov    0x68(%rsp),%rax
 4b90c4c:	31 db                	xor    %ebx,%ebx
 4b90c4e:	e8 6d 25 00 00       	call   4b931c0 <github.com/lasselj/timebeat/beater/clocksync/clients/vendors/timebeat/clock_gen/clock_gen_8A34002E.(*DPLL).SetHoldover@@Base>
 4b90c53:	48 8b 44 24 68       	mov    0x68(%rsp),%rax
 4b90c58:	bb 01 00 00 00       	mov    $0x1,%ebx
 4b90c5d:	0f 1f 00             	nopl   (%rax)
 4b90c60:	e8 1b 0f 00 00       	call   4b91b80 <github.com/lasselj/timebeat/beater/clocksync/clients/vendors/timebeat/clock_gen/clock_gen_8A34002E.(*DPLL).SetReferenceMode@@Base>
 4b90c65:	48 85 c0             	test   %rax,%rax
 4b90c68:	0f 84 9e 00 00 00    	je     4b90d0c <github.com/lasselj/timebeat/beater/clocksync/clients/vendors/timebeat/clock_gen/clock_gen_8A34002E.(*DPLL).setupDPLLForDCOPhase@@Base+0xec>
 4b90c6e:	48 8b 48 18          	mov    0x18(%rax),%rcx
 4b90c72:	48 89 d8             	mov    %rbx,%rax
 4b90c75:	ff d1                	call   *%rcx
 4b90c77:	48 89 44 24 30       	mov    %rax,0x30(%rsp)
 4b90c7c:	48 89 5c 24 28       	mov    %rbx,0x28(%rsp)
 4b90c81:	44 0f 11 7c 24 38    	movups %xmm15,0x38(%rsp)
 4b90c87:	44 0f 11 7c 24 48    	movups %xmm15,0x48(%rsp)
 4b90c8d:	48 8b 4c 24 68       	mov    0x68(%rsp),%rcx
 4b90c92:	48 8b 11             	mov    (%rcx),%rdx
 4b90c95:	48 89 d0             	mov    %rdx,%rax
 4b90c98:	e8 43 d0 35 fd       	call   1eedce0 <runtime.convT64@@Base>
 4b90c9d:	48 8d 0d bc 99 c1 00 	lea    0xc199bc(%rip),%rcx        # 57aa660 <type:int@@Base>
 4b90ca4:	48 89 4c 24 38       	mov    %rcx,0x38(%rsp)
 4b90ca9:	48 89 44 24 40       	mov    %rax,0x40(%rsp)
 4b90cae:	48 8b 44 24 30       	mov    0x30(%rsp),%rax
 4b90cb3:	48 8b 5c 24 28       	mov    0x28(%rsp),%rbx
 4b90cb8:	e8 a3 d0 35 fd       	call   1eedd60 <runtime.convTstring@@Base>
 4b90cbd:	48 8d 0d dc d9 c1 00 	lea    0xc1d9dc(%rip),%rcx        # 57ae6a0 <type:string@@Base>
 4b90cc4:	48 89 4c 24 48       	mov    %rcx,0x48(%rsp)
 4b90cc9:	48 89 44 24 50       	mov    %rax,0x50(%rsp)
 4b90cce:	48 8d 05 37 f5 27 00 	lea    0x27f537(%rip),%rax        # 4e1020c <_IO_stdin_used@@Base+0x1dd20c>
 4b90cd5:	bb 26 00 00 00       	mov    $0x26,%ebx
 4b90cda:	bf 02 00 00 00       	mov    $0x2,%edi
 4b90cdf:	48 89 fe             	mov    %rdi,%rsi
 4b90ce2:	48 8d 4c 24 38       	lea    0x38(%rsp),%rcx
 4b90ce7:	e8 14 3c 46 fd       	call   1ff4900 <fmt.Sprintf@@Base>
 4b90cec:	48 8b 4c 24 68       	mov    0x68(%rsp),%rcx
 4b90cf1:	48 8b 51 08          	mov    0x8(%rcx),%rdx
 4b90cf5:	48 8b 12             	mov    (%rdx),%rdx
 4b90cf8:	48 89 c6             	mov    %rax,%rsi
 4b90cfb:	48 89 d0             	mov    %rdx,%rax
 4b90cfe:	48 89 df             	mov    %rbx,%rdi
 4b90d01:	48 89 f3             	mov    %rsi,%rbx
 4b90d04:	48 89 f9             	mov    %rdi,%rcx
 4b90d07:	e8 54 63 87 ff       	call   4407060 <github.com/lasselj/timebeat/beater/logging.(*Logger).Error@@Base>
 4b90d0c:	48 8b 44 24 68       	mov    0x68(%rsp),%rax
 4b90d11:	bb 10 00 00 00       	mov    $0x10,%ebx
 4b90d16:	e8 c5 0f 00 00       	call   4b91ce0 <github.com/lasselj/timebeat/beater/clocksync/clients/vendors/timebeat/clock_gen/clock_gen_8A34002E.(*DPLL).SetManualReference@@Base>
 4b90d1b:	0f 1f 44 00 00       	nopl   0x0(%rax,%rax,1)
 4b90d20:	48 85 c0             	test   %rax,%rax
 4b90d23:	0f 84 9e 00 00 00    	je     4b90dc7 <github.com/lasselj/timebeat/beater/clocksync/clients/vendors/timebeat/clock_gen/clock_gen_8A34002E.(*DPLL).setupDPLLForDCOPhase@@Base+0x1a7>
 4b90d29:	48 8b 48 18          	mov    0x18(%rax),%rcx
 4b90d2d:	48 89 d8             	mov    %rbx,%rax
 4b90d30:	ff d1                	call   *%rcx
 4b90d32:	48 89 44 24 30       	mov    %rax,0x30(%rsp)
 4b90d37:	48 89 5c 24 28       	mov    %rbx,0x28(%rsp)
 4b90d3c:	44 0f 11 7c 24 38    	movups %xmm15,0x38(%rsp)
 4b90d42:	44 0f 11 7c 24 48    	movups %xmm15,0x48(%rsp)
 4b90d48:	48 8b 4c 24 68       	mov    0x68(%rsp),%rcx
 4b90d4d:	48 8b 11             	mov    (%rcx),%rdx
 4b90d50:	48 89 d0             	mov    %rdx,%rax
 4b90d53:	e8 88 cf 35 fd       	call   1eedce0 <runtime.convT64@@Base>
 4b90d58:	48 8d 0d 01 99 c1 00 	lea    0xc19901(%rip),%rcx        # 57aa660 <type:int@@Base>
 4b90d5f:	48 89 4c 24 38       	mov    %rcx,0x38(%rsp)
 4b90d64:	48 89 44 24 40       	mov    %rax,0x40(%rsp)
 4b90d69:	48 8b 44 24 30       	mov    0x30(%rsp),%rax
 4b90d6e:	48 8b 5c 24 28       	mov    0x28(%rsp),%rbx
 4b90d73:	e8 e8 cf 35 fd       	call   1eedd60 <runtime.convTstring@@Base>
 4b90d78:	48 8d 0d 21 d9 c1 00 	lea    0xc1d921(%rip),%rcx        # 57ae6a0 <type:string@@Base>
 4b90d7f:	48 89 4c 24 48       	mov    %rcx,0x48(%rsp)
 4b90d84:	48 89 44 24 50       	mov    %rax,0x50(%rsp)
 4b90d89:	48 8d 05 7c f4 27 00 	lea    0x27f47c(%rip),%rax        # 4e1020c <_IO_stdin_used@@Base+0x1dd20c>
 4b90d90:	bb 26 00 00 00       	mov    $0x26,%ebx
 4b90d95:	bf 02 00 00 00       	mov    $0x2,%edi
 4b90d9a:	48 89 fe             	mov    %rdi,%rsi
 4b90d9d:	48 8d 4c 24 38       	lea    0x38(%rsp),%rcx
 4b90da2:	e8 59 3b 46 fd       	call   1ff4900 <fmt.Sprintf@@Base>
 4b90da7:	48 8b 4c 24 68       	mov    0x68(%rsp),%rcx
 4b90dac:	48 8b 51 08          	mov    0x8(%rcx),%rdx
 4b90db0:	48 8b 12             	mov    (%rdx),%rdx
 4b90db3:	48 89 c6             	mov    %rax,%rsi
 4b90db6:	48 89 d0             	mov    %rdx,%rax
 4b90db9:	48 89 df             	mov    %rbx,%rdi
 4b90dbc:	48 89 f3             	mov    %rsi,%rbx
 4b90dbf:	48 89 f9             	mov    %rdi,%rcx
 4b90dc2:	e8 99 62 87 ff       	call   4407060 <github.com/lasselj/timebeat/beater/logging.(*Logger).Error@@Base>
 4b90dc7:	b8 80 f0 fa 02       	mov    $0x2faf080,%eax
 4b90dcc:	e8 0f 24 3c fd       	call   1f531e0 <time.Sleep@@Base>
 4b90dd1:	48 8b 44 24 68       	mov    0x68(%rsp),%rax
 4b90dd6:	bb d0 07 00 00       	mov    $0x7d0,%ebx
 4b90ddb:	0f 1f 44 00 00       	nopl   0x0(%rax,%rax,1)
 4b90de0:	e8 fb 0b 00 00       	call   4b919e0 <github.com/lasselj/timebeat/beater/clocksync/clients/vendors/timebeat/clock_gen/clock_gen_8A34002E.(*DPLL).SetWritePhaseTimer@@Base>
 4b90de5:	48 85 c0             	test   %rax,%rax
 4b90de8:	0f 84 9e 00 00 00    	je     4b90e8c <github.com/lasselj/timebeat/beater/clocksync/clients/vendors/timebeat/clock_gen/clock_gen_8A34002E.(*DPLL).setupDPLLForDCOPhase@@Base+0x26c>
 4b90dee:	48 8b 48 18          	mov    0x18(%rax),%rcx
 4b90df2:	48 89 d8             	mov    %rbx,%rax
 4b90df5:	ff d1                	call   *%rcx
 4b90df7:	48 89 44 24 30       	mov    %rax,0x30(%rsp)
 4b90dfc:	48 89 5c 24 28       	mov    %rbx,0x28(%rsp)
 4b90e01:	44 0f 11 7c 24 38    	movups %xmm15,0x38(%rsp)
 4b90e07:	44 0f 11 7c 24 48    	movups %xmm15,0x48(%rsp)
 4b90e0d:	48 8b 4c 24 68       	mov    0x68(%rsp),%rcx
 4b90e12:	48 8b 11             	mov    (%rcx),%rdx
 4b90e15:	48 89 d0             	mov    %rdx,%rax
 4b90e18:	e8 c3 ce 35 fd       	call   1eedce0 <runtime.convT64@@Base>
 4b90e1d:	48 8d 0d 3c 98 c1 00 	lea    0xc1983c(%rip),%rcx        # 57aa660 <type:int@@Base>
 4b90e24:	48 89 4c 24 38       	mov    %rcx,0x38(%rsp)
 4b90e29:	48 89 44 24 40       	mov    %rax,0x40(%rsp)
 4b90e2e:	48 8b 44 24 30       	mov    0x30(%rsp),%rax
 4b90e33:	48 8b 5c 24 28       	mov    0x28(%rsp),%rbx
 4b90e38:	e8 23 cf 35 fd       	call   1eedd60 <runtime.convTstring@@Base>
 4b90e3d:	48 8d 0d 5c d8 c1 00 	lea    0xc1d85c(%rip),%rcx        # 57ae6a0 <type:string@@Base>
 4b90e44:	48 89 4c 24 48       	mov    %rcx,0x48(%rsp)
 4b90e49:	48 89 44 24 50       	mov    %rax,0x50(%rsp)
 4b90e4e:	48 8d 05 c0 99 2a 00 	lea    0x2a99c0(%rip),%rax        # 4e3a815 <_IO_stdin_used@@Base+0x207815>
 4b90e55:	bb 31 00 00 00       	mov    $0x31,%ebx
 4b90e5a:	48 8d 4c 24 38       	lea    0x38(%rsp),%rcx
 4b90e5f:	bf 02 00 00 00       	mov    $0x2,%edi
 4b90e64:	48 89 fe             	mov    %rdi,%rsi
 4b90e67:	e8 94 3a 46 fd       	call   1ff4900 <fmt.Sprintf@@Base>
 4b90e6c:	48 8b 4c 24 68       	mov    0x68(%rsp),%rcx
 4b90e71:	48 8b 49 08          	mov    0x8(%rcx),%rcx
 4b90e75:	48 8b 09             	mov    (%rcx),%rcx
 4b90e78:	48 89 c2             	mov    %rax,%rdx
 4b90e7b:	48 89 c8             	mov    %rcx,%rax
 4b90e7e:	48 89 de             	mov    %rbx,%rsi
 4b90e81:	48 89 d3             	mov    %rdx,%rbx
 4b90e84:	48 89 f1             	mov    %rsi,%rcx
 4b90e87:	e8 d4 61 87 ff       	call   4407060 <github.com/lasselj/timebeat/beater/logging.(*Logger).Error@@Base>
 4b90e8c:	48 8b 6c 24 58       	mov    0x58(%rsp),%rbp
 4b90e91:	48 83 c4 60          	add    $0x60,%rsp
 4b90e95:	c3                   	ret
 4b90e96:	48 89 44 24 08       	mov    %rax,0x8(%rsp)
 4b90e9b:	0f 1f 44 00 00       	nopl   0x0(%rax,%rax,1)
 4b90ea0:	e8 bb 35 3c fd       	call   1f54460 <runtime.morestack_noctxt.abi0@@Base>
 4b90ea5:	48 8b 44 24 08       	mov    0x8(%rsp),%rax
 4b90eaa:	e9 71 fd ff ff       	jmp    4b90c20 <github.com/lasselj/timebeat/beater/clocksync/clients/vendors/timebeat/clock_gen/clock_gen_8A34002E.(*DPLL).setupDPLLForDCOPhase@@Base>
 4b90eaf:	cc                   	int3
 4b90eb0:	cc                   	int3
 4b90eb1:	cc                   	int3
 4b90eb2:	cc                   	int3
 4b90eb3:	cc                   	int3
 4b90eb4:	cc                   	int3
 4b90eb5:	cc                   	int3
 4b90eb6:	cc                   	int3
 4b90eb7:	cc                   	int3
 4b90eb8:	cc                   	int3
 4b90eb9:	cc                   	int3
 4b90eba:	cc                   	int3
 4b90ebb:	cc                   	int3
 4b90ebc:	cc                   	int3
 4b90ebd:	cc                   	int3
 4b90ebe:	cc                   	int3
 4b90ebf:	cc                   	int3
