# github.com/lasselj/timebeat/beater/clocksync/clients/vendors/timebeat/eth_sw/eth_sw_KSZ9567S.NewEthSwKSZ9567S
# addr 0x4b9bac0 size 256 (0x100)


/mnt/c/Users/SHIWA/GitHub/TimeCard-Mini/timebeat-extracted/usr/share/timebeat/bin/timebeat:     file format elf64-x86-64


Disassembly of section .text:

0000000004b9bac0 <github.com/lasselj/timebeat/beater/clocksync/clients/vendors/timebeat/eth_sw/eth_sw_KSZ9567S.NewEthSwKSZ9567S@@Base>:
 4b9bac0:	49 3b 66 10          	cmp    0x10(%r14),%rsp
 4b9bac4:	0f 86 c6 00 00 00    	jbe    4b9bb90 <github.com/lasselj/timebeat/beater/clocksync/clients/vendors/timebeat/eth_sw/eth_sw_KSZ9567S.NewEthSwKSZ9567S@@Base+0xd0>
 4b9baca:	48 83 ec 40          	sub    $0x40,%rsp
 4b9bace:	48 89 6c 24 38       	mov    %rbp,0x38(%rsp)
 4b9bad3:	48 8d 6c 24 38       	lea    0x38(%rsp),%rbp
 4b9bad8:	48 89 44 24 48       	mov    %rax,0x48(%rsp)
 4b9badd:	48 8b 08             	mov    (%rax),%rcx
 4b9bae0:	48 89 c8             	mov    %rcx,%rax
 4b9bae3:	e8 d8 16 ff ff       	call   4b8d1c0 <github.com/lasselj/timebeat/beater/clocksync/clients/vendors/generic_serial_device.NewI2CDevice@@Base>
 4b9bae8:	48 85 c0             	test   %rax,%rax
 4b9baeb:	0f 84 93 00 00 00    	je     4b9bb84 <github.com/lasselj/timebeat/beater/clocksync/clients/vendors/timebeat/eth_sw/eth_sw_KSZ9567S.NewEthSwKSZ9567S@@Base+0xc4>
 4b9baf1:	48 89 44 24 28       	mov    %rax,0x28(%rsp)
 4b9baf6:	48 8d 05 2f 81 25 00 	lea    0x25812f(%rip),%rax        # 4df3c2c <_IO_stdin_used@@Base+0x1c0c2c>
 4b9bafd:	bb 1f 00 00 00       	mov    $0x1f,%ebx
 4b9bb02:	31 c9                	xor    %ecx,%ecx
 4b9bb04:	31 ff                	xor    %edi,%edi
 4b9bb06:	48 89 fe             	mov    %rdi,%rsi
 4b9bb09:	e8 f2 8d 45 fd       	call   1ff4900 <fmt.Sprintf@@Base>
 4b9bb0e:	e8 8d b2 86 ff       	call   4406da0 <github.com/lasselj/timebeat/beater/logging.NewLogger@@Base>
 4b9bb13:	48 89 44 24 30       	mov    %rax,0x30(%rsp)
 4b9bb18:	48 8d 05 c1 f7 10 01 	lea    0x110f7c1(%rip),%rax        # 5cab2e0 <type:k5y8Ltlp@@Base>
 4b9bb1f:	90                   	nop
 4b9bb20:	e8 bb 49 35 fd       	call   1ef04e0 <runtime.newobject@@Base>
 4b9bb25:	83 3d 34 fe 2d 03 00 	cmpl   $0x0,0x32dfe34(%rip)        # 7e7b960 <runtime.writeBarrier@@Base>
 4b9bb2c:	75 1c                	jne    4b9bb4a <github.com/lasselj/timebeat/beater/clocksync/clients/vendors/timebeat/eth_sw/eth_sw_KSZ9567S.NewEthSwKSZ9567S@@Base+0x8a>
 4b9bb2e:	48 8b 4c 24 28       	mov    0x28(%rsp),%rcx
 4b9bb33:	48 89 08             	mov    %rcx,(%rax)
 4b9bb36:	48 8b 4c 24 30       	mov    0x30(%rsp),%rcx
 4b9bb3b:	48 89 48 08          	mov    %rcx,0x8(%rax)
 4b9bb3f:	48 8b 4c 24 48       	mov    0x48(%rsp),%rcx
 4b9bb44:	48 89 48 10          	mov    %rcx,0x10(%rax)
 4b9bb48:	eb 2c                	jmp    4b9bb76 <github.com/lasselj/timebeat/beater/clocksync/clients/vendors/timebeat/eth_sw/eth_sw_KSZ9567S.NewEthSwKSZ9567S@@Base+0xb6>
 4b9bb4a:	48 89 c7             	mov    %rax,%rdi
 4b9bb4d:	48 8b 4c 24 28       	mov    0x28(%rsp),%rcx
 4b9bb52:	e8 a9 ab 3b fd       	call   1f56700 <runtime.gcWriteBarrierCX@@Base>
 4b9bb57:	48 8d 48 08          	lea    0x8(%rax),%rcx
 4b9bb5b:	48 89 cf             	mov    %rcx,%rdi
 4b9bb5e:	48 8b 54 24 30       	mov    0x30(%rsp),%rdx
 4b9bb63:	e8 b8 ab 3b fd       	call   1f56720 <runtime.gcWriteBarrierDX@@Base>
 4b9bb68:	48 8d 78 10          	lea    0x10(%rax),%rdi
 4b9bb6c:	48 8b 4c 24 48       	mov    0x48(%rsp),%rcx
 4b9bb71:	e8 8a ab 3b fd       	call   1f56700 <runtime.gcWriteBarrierCX@@Base>
 4b9bb76:	c6 40 18 01          	movb   $0x1,0x18(%rax)
 4b9bb7a:	48 8b 6c 24 38       	mov    0x38(%rsp),%rbp
 4b9bb7f:	48 83 c4 40          	add    $0x40,%rsp
 4b9bb83:	c3                   	ret
 4b9bb84:	31 c0                	xor    %eax,%eax
 4b9bb86:	48 8b 6c 24 38       	mov    0x38(%rsp),%rbp
 4b9bb8b:	48 83 c4 40          	add    $0x40,%rsp
 4b9bb8f:	c3                   	ret
 4b9bb90:	48 89 44 24 08       	mov    %rax,0x8(%rsp)
 4b9bb95:	e8 c6 88 3b fd       	call   1f54460 <runtime.morestack_noctxt.abi0@@Base>
 4b9bb9a:	48 8b 44 24 08       	mov    0x8(%rsp),%rax
 4b9bb9f:	90                   	nop
 4b9bba0:	e9 1b ff ff ff       	jmp    4b9bac0 <github.com/lasselj/timebeat/beater/clocksync/clients/vendors/timebeat/eth_sw/eth_sw_KSZ9567S.NewEthSwKSZ9567S@@Base>
 4b9bba5:	cc                   	int3
 4b9bba6:	cc                   	int3
 4b9bba7:	cc                   	int3
 4b9bba8:	cc                   	int3
 4b9bba9:	cc                   	int3
 4b9bbaa:	cc                   	int3
 4b9bbab:	cc                   	int3
 4b9bbac:	cc                   	int3
 4b9bbad:	cc                   	int3
 4b9bbae:	cc                   	int3
 4b9bbaf:	cc                   	int3
 4b9bbb0:	cc                   	int3
 4b9bbb1:	cc                   	int3
 4b9bbb2:	cc                   	int3
 4b9bbb3:	cc                   	int3
 4b9bbb4:	cc                   	int3
 4b9bbb5:	cc                   	int3
 4b9bbb6:	cc                   	int3
 4b9bbb7:	cc                   	int3
 4b9bbb8:	cc                   	int3
 4b9bbb9:	cc                   	int3
 4b9bbba:	cc                   	int3
 4b9bbbb:	cc                   	int3
 4b9bbbc:	cc                   	int3
 4b9bbbd:	cc                   	int3
 4b9bbbe:	cc                   	int3
 4b9bbbf:	cc                   	int3
