# github.com/lasselj/timebeat/beater/clocksync/clients/vendors/generic_serial_device.(*I2CDevice).fixDevicePath
# addr 0x4b8d820 size 288 (0x120)


/mnt/c/Users/SHIWA/GitHub/TimeCard-Mini/timebeat-extracted/usr/share/timebeat/bin/timebeat:     file format elf64-x86-64


Disassembly of section .text:

0000000004b8d820 <github.com/lasselj/timebeat/beater/clocksync/clients/vendors/generic_serial_device.(*I2CDevice).fixDevicePath@@Base>:
 4b8d820:	49 3b 66 10          	cmp    0x10(%r14),%rsp
 4b8d824:	0f 86 f0 00 00 00    	jbe    4b8d91a <github.com/lasselj/timebeat/beater/clocksync/clients/vendors/generic_serial_device.(*I2CDevice).fixDevicePath@@Base+0xfa>
 4b8d82a:	48 83 ec 60          	sub    $0x60,%rsp
 4b8d82e:	48 89 6c 24 58       	mov    %rbp,0x58(%rsp)
 4b8d833:	48 8d 6c 24 58       	lea    0x58(%rsp),%rbp
 4b8d838:	48 89 44 24 68       	mov    %rax,0x68(%rsp)
 4b8d83d:	48 8b 08             	mov    (%rax),%rcx
 4b8d840:	48 8b 51 08          	mov    0x8(%rcx),%rdx
 4b8d844:	48 8b 59 10          	mov    0x10(%rcx),%rbx
 4b8d848:	48 89 d0             	mov    %rdx,%rax
 4b8d84b:	e8 b0 18 3e fd       	call   1f6f100 <strconv.Atoi@@Base>
 4b8d850:	48 85 db             	test   %rbx,%rbx
 4b8d853:	0f 85 b4 00 00 00    	jne    4b8d90d <github.com/lasselj/timebeat/beater/clocksync/clients/vendors/generic_serial_device.(*I2CDevice).fixDevicePath@@Base+0xed>
 4b8d859:	48 89 44 24 30       	mov    %rax,0x30(%rsp)
 4b8d85e:	48 89 5c 24 28       	mov    %rbx,0x28(%rsp)
 4b8d863:	44 0f 11 7c 24 38    	movups %xmm15,0x38(%rsp)
 4b8d869:	44 0f 11 7c 24 48    	movups %xmm15,0x48(%rsp)
 4b8d86f:	48 8b 4c 24 68       	mov    0x68(%rsp),%rcx
 4b8d874:	48 8b 11             	mov    (%rcx),%rdx
 4b8d877:	48 8b 42 08          	mov    0x8(%rdx),%rax
 4b8d87b:	48 8b 5a 10          	mov    0x10(%rdx),%rbx
 4b8d87f:	90                   	nop
 4b8d880:	e8 db 04 36 fd       	call   1eedd60 <runtime.convTstring@@Base>
 4b8d885:	48 8d 0d 14 0e c2 00 	lea    0xc20e14(%rip),%rcx        # 57ae6a0 <type:string@@Base>
 4b8d88c:	48 89 4c 24 38       	mov    %rcx,0x38(%rsp)
 4b8d891:	48 89 44 24 40       	mov    %rax,0x40(%rsp)
 4b8d896:	48 8b 44 24 30       	mov    0x30(%rsp),%rax
 4b8d89b:	0f 1f 44 00 00       	nopl   0x0(%rax,%rax,1)
 4b8d8a0:	e8 3b 04 36 fd       	call   1eedce0 <runtime.convT64@@Base>
 4b8d8a5:	48 8d 0d b4 cd c1 00 	lea    0xc1cdb4(%rip),%rcx        # 57aa660 <type:int@@Base>
 4b8d8ac:	48 89 4c 24 48       	mov    %rcx,0x48(%rsp)
 4b8d8b1:	48 89 44 24 50       	mov    %rax,0x50(%rsp)
 4b8d8b6:	48 8d 05 f7 68 0a 00 	lea    0xa68f7(%rip),%rax        # 4c341b4 <_IO_stdin_used@@Base+0x11b4>
 4b8d8bd:	bb 04 00 00 00       	mov    $0x4,%ebx
 4b8d8c2:	48 8d 4c 24 38       	lea    0x38(%rsp),%rcx
 4b8d8c7:	bf 02 00 00 00       	mov    $0x2,%edi
 4b8d8cc:	48 89 fe             	mov    %rdi,%rsi
 4b8d8cf:	e8 2c 70 46 fd       	call   1ff4900 <fmt.Sprintf@@Base>
 4b8d8d4:	48 8b 4c 24 68       	mov    0x68(%rsp),%rcx
 4b8d8d9:	48 8b 39             	mov    (%rcx),%rdi
 4b8d8dc:	48 89 5f 10          	mov    %rbx,0x10(%rdi)
 4b8d8e0:	83 3d 79 e0 2e 03 00 	cmpl   $0x0,0x32ee079(%rip)        # 7e7b960 <runtime.writeBarrier@@Base>
 4b8d8e7:	75 0e                	jne    4b8d8f7 <github.com/lasselj/timebeat/beater/clocksync/clients/vendors/generic_serial_device.(*I2CDevice).fixDevicePath@@Base+0xd7>
 4b8d8e9:	48 89 47 08          	mov    %rax,0x8(%rdi)
 4b8d8ed:	48 8b 4c 24 28       	mov    0x28(%rsp),%rcx
 4b8d8f2:	48 85 c9             	test   %rcx,%rcx
 4b8d8f5:	eb 16                	jmp    4b8d90d <github.com/lasselj/timebeat/beater/clocksync/clients/vendors/generic_serial_device.(*I2CDevice).fixDevicePath@@Base+0xed>
 4b8d8f7:	48 83 c7 08          	add    $0x8,%rdi
 4b8d8fb:	0f 1f 44 00 00       	nopl   0x0(%rax,%rax,1)
 4b8d900:	e8 fb 8c 3c fd       	call   1f56600 <runtime.gcWriteBarrier@@Base>
 4b8d905:	48 8b 4c 24 28       	mov    0x28(%rsp),%rcx
 4b8d90a:	48 85 c9             	test   %rcx,%rcx
 4b8d90d:	0f 94 c0             	sete   %al
 4b8d910:	48 8b 6c 24 58       	mov    0x58(%rsp),%rbp
 4b8d915:	48 83 c4 60          	add    $0x60,%rsp
 4b8d919:	c3                   	ret
 4b8d91a:	48 89 44 24 08       	mov    %rax,0x8(%rsp)
 4b8d91f:	90                   	nop
 4b8d920:	e8 3b 6b 3c fd       	call   1f54460 <runtime.morestack_noctxt.abi0@@Base>
 4b8d925:	48 8b 44 24 08       	mov    0x8(%rsp),%rax
 4b8d92a:	e9 f1 fe ff ff       	jmp    4b8d820 <github.com/lasselj/timebeat/beater/clocksync/clients/vendors/generic_serial_device.(*I2CDevice).fixDevicePath@@Base>
 4b8d92f:	cc                   	int3
 4b8d930:	cc                   	int3
 4b8d931:	cc                   	int3
 4b8d932:	cc                   	int3
 4b8d933:	cc                   	int3
 4b8d934:	cc                   	int3
 4b8d935:	cc                   	int3
 4b8d936:	cc                   	int3
 4b8d937:	cc                   	int3
 4b8d938:	cc                   	int3
 4b8d939:	cc                   	int3
 4b8d93a:	cc                   	int3
 4b8d93b:	cc                   	int3
 4b8d93c:	cc                   	int3
 4b8d93d:	cc                   	int3
 4b8d93e:	cc                   	int3
 4b8d93f:	cc                   	int3
