# github.com/lasselj/timebeat/interactive/daemon.(*HttpServer).Run
# addr 0x4c26a00 size 864 (0x360)


/mnt/c/Users/SHIWA/GitHub/TimeCard-Mini/timebeat-extracted/usr/share/timebeat/bin/timebeat:     file format elf64-x86-64


Disassembly of section .text:

0000000004c26a00 <github.com/lasselj/timebeat/interactive/daemon.(*HttpServer).Run@@Base>:
 4c26a00:	49 3b 66 10          	cmp    0x10(%r14),%rsp
 4c26a04:	0f 86 35 03 00 00    	jbe    4c26d3f <github.com/lasselj/timebeat/interactive/daemon.(*HttpServer).Run@@Base+0x33f>
 4c26a0a:	48 83 ec 70          	sub    $0x70,%rsp
 4c26a0e:	48 89 6c 24 68       	mov    %rbp,0x68(%rsp)
 4c26a13:	48 8d 6c 24 68       	lea    0x68(%rsp),%rbp
 4c26a18:	48 89 44 24 78       	mov    %rax,0x78(%rsp)
 4c26a1d:	48 8d 05 3c c1 e8 00 	lea    0xe8c13c(%rip),%rax        # 5ab2b60 <type:zMdwp8yP@@Base>
 4c26a24:	e8 b7 9a 2c fd       	call   1ef04e0 <runtime.newobject@@Base>
 4c26a29:	48 8d 0d 70 58 00 00 	lea    0x5870(%rip),%rcx        # 4c2c2a0 <github.com/lasselj/timebeat/interactive/daemon.(*HttpServer).outputTimeSourcesStatus-fm@@Base>
 4c26a30:	48 89 08             	mov    %rcx,(%rax)
 4c26a33:	83 3d 26 4f 25 03 00 	cmpl   $0x0,0x3254f26(%rip)        # 7e7b960 <runtime.writeBarrier@@Base>
 4c26a3a:	75 0b                	jne    4c26a47 <github.com/lasselj/timebeat/interactive/daemon.(*HttpServer).Run@@Base+0x47>
 4c26a3c:	48 8b 54 24 78       	mov    0x78(%rsp),%rdx
 4c26a41:	48 89 50 08          	mov    %rdx,0x8(%rax)
 4c26a45:	eb 0e                	jmp    4c26a55 <github.com/lasselj/timebeat/interactive/daemon.(*HttpServer).Run@@Base+0x55>
 4c26a47:	48 8d 78 08          	lea    0x8(%rax),%rdi
 4c26a4b:	48 8b 54 24 78       	mov    0x78(%rsp),%rdx
 4c26a50:	e8 cb fc 32 fd       	call   1f56720 <runtime.gcWriteBarrierDX@@Base>
 4c26a55:	4c 8b 05 5c 83 d5 02 	mov    0x2d5835c(%rip),%r8        # 797edb8 <net/http.DefaultServeMux@@Base>
 4c26a5c:	0f 1f 40 00          	nopl   0x0(%rax)
 4c26a60:	48 85 c0             	test   %rax,%rax
 4c26a63:	0f 84 c2 02 00 00    	je     4c26d2b <github.com/lasselj/timebeat/interactive/daemon.(*HttpServer).Run@@Base+0x32b>
 4c26a69:	48 8d 1d a5 8a 03 00 	lea    0x38aa5(%rip),%rbx        # 4c5f515 <_IO_stdin_used@@Base+0x2c515>
 4c26a70:	b9 07 00 00 00       	mov    $0x7,%ecx
 4c26a75:	48 8d 3d 84 33 2e 01 	lea    0x12e3384(%rip),%rdi        # 5f09e00 <go:itab.net/http.HandlerFunc,net/http.Handler@@Base>
 4c26a7c:	48 89 c6             	mov    %rax,%rsi
 4c26a7f:	4c 89 c0             	mov    %r8,%rax
 4c26a82:	e8 99 f6 60 fd       	call   2236120 <net/http.(*ServeMux).Handle@@Base>
 4c26a87:	48 8d 05 d2 c0 e8 00 	lea    0xe8c0d2(%rip),%rax        # 5ab2b60 <type:zMdwp8yP@@Base>
 4c26a8e:	e8 4d 9a 2c fd       	call   1ef04e0 <runtime.newobject@@Base>
 4c26a93:	48 8d 15 86 58 00 00 	lea    0x5886(%rip),%rdx        # 4c2c320 <github.com/lasselj/timebeat/interactive/daemon.(*HttpServer).outputMasterTable-fm@@Base>
 4c26a9a:	48 89 10             	mov    %rdx,(%rax)
 4c26a9d:	83 3d bc 4e 25 03 00 	cmpl   $0x0,0x3254ebc(%rip)        # 7e7b960 <runtime.writeBarrier@@Base>
 4c26aa4:	75 0b                	jne    4c26ab1 <github.com/lasselj/timebeat/interactive/daemon.(*HttpServer).Run@@Base+0xb1>
 4c26aa6:	48 8b 54 24 78       	mov    0x78(%rsp),%rdx
 4c26aab:	48 89 50 08          	mov    %rdx,0x8(%rax)
 4c26aaf:	eb 0e                	jmp    4c26abf <github.com/lasselj/timebeat/interactive/daemon.(*HttpServer).Run@@Base+0xbf>
 4c26ab1:	48 8d 78 08          	lea    0x8(%rax),%rdi
 4c26ab5:	48 8b 54 24 78       	mov    0x78(%rsp),%rdx
 4c26aba:	e8 61 fc 32 fd       	call   1f56720 <runtime.gcWriteBarrierDX@@Base>
 4c26abf:	4c 8b 05 f2 82 d5 02 	mov    0x2d582f2(%rip),%r8        # 797edb8 <net/http.DefaultServeMux@@Base>
 4c26ac6:	48 85 c0             	test   %rax,%rax
 4c26ac9:	0f 84 49 02 00 00    	je     4c26d18 <github.com/lasselj/timebeat/interactive/daemon.(*HttpServer).Run@@Base+0x318>
 4c26acf:	48 8d 1d e2 d7 00 00 	lea    0xd7e2(%rip),%rbx        # 4c342b8 <_IO_stdin_used@@Base+0x12b8>
 4c26ad6:	b9 04 00 00 00       	mov    $0x4,%ecx
 4c26adb:	48 8d 3d 1e 33 2e 01 	lea    0x12e331e(%rip),%rdi        # 5f09e00 <go:itab.net/http.HandlerFunc,net/http.Handler@@Base>
 4c26ae2:	48 89 c6             	mov    %rax,%rsi
 4c26ae5:	4c 89 c0             	mov    %r8,%rax
 4c26ae8:	e8 33 f6 60 fd       	call   2236120 <net/http.(*ServeMux).Handle@@Base>
 4c26aed:	48 8d 05 6c c0 e8 00 	lea    0xe8c06c(%rip),%rax        # 5ab2b60 <type:zMdwp8yP@@Base>
 4c26af4:	e8 e7 99 2c fd       	call   1ef04e0 <runtime.newobject@@Base>
 4c26af9:	48 8d 15 a0 58 00 00 	lea    0x58a0(%rip),%rdx        # 4c2c3a0 <github.com/lasselj/timebeat/interactive/daemon.(*HttpServer).outputGroupOffset-fm@@Base>
 4c26b00:	48 89 10             	mov    %rdx,(%rax)
 4c26b03:	83 3d 56 4e 25 03 00 	cmpl   $0x0,0x3254e56(%rip)        # 7e7b960 <runtime.writeBarrier@@Base>
 4c26b0a:	75 0b                	jne    4c26b17 <github.com/lasselj/timebeat/interactive/daemon.(*HttpServer).Run@@Base+0x117>
 4c26b0c:	48 8b 54 24 78       	mov    0x78(%rsp),%rdx
 4c26b11:	48 89 50 08          	mov    %rdx,0x8(%rax)
 4c26b15:	eb 0e                	jmp    4c26b25 <github.com/lasselj/timebeat/interactive/daemon.(*HttpServer).Run@@Base+0x125>
 4c26b17:	48 8d 78 08          	lea    0x8(%rax),%rdi
 4c26b1b:	48 8b 54 24 78       	mov    0x78(%rsp),%rdx
 4c26b20:	e8 fb fb 32 fd       	call   1f56720 <runtime.gcWriteBarrierDX@@Base>
 4c26b25:	4c 8b 05 8c 82 d5 02 	mov    0x2d5828c(%rip),%r8        # 797edb8 <net/http.DefaultServeMux@@Base>
 4c26b2c:	48 85 c0             	test   %rax,%rax
 4c26b2f:	0f 84 d0 01 00 00    	je     4c26d05 <github.com/lasselj/timebeat/interactive/daemon.(*HttpServer).Run@@Base+0x305>
 4c26b35:	48 8d 1d ac 77 05 00 	lea    0x577ac(%rip),%rbx        # 4c7e2e8 <_IO_stdin_used@@Base+0x4b2e8>
 4c26b3c:	b9 0e 00 00 00       	mov    $0xe,%ecx
 4c26b41:	48 8d 3d b8 32 2e 01 	lea    0x12e32b8(%rip),%rdi        # 5f09e00 <go:itab.net/http.HandlerFunc,net/http.Handler@@Base>
 4c26b48:	48 89 c6             	mov    %rax,%rsi
 4c26b4b:	4c 89 c0             	mov    %r8,%rax
 4c26b4e:	e8 cd f5 60 fd       	call   2236120 <net/http.(*ServeMux).Handle@@Base>
 4c26b53:	80 3d 0e e4 21 03 00 	cmpb   $0x0,0x321e40e(%rip)        # 7e44f68 <github.com/lasselj/timebeat/config.appConfig@@Base+0x388>
 4c26b5a:	74 6b                	je     4c26bc7 <github.com/lasselj/timebeat/interactive/daemon.(*HttpServer).Run@@Base+0x1c7>
 4c26b5c:	48 8d 05 fd bf e8 00 	lea    0xe8bffd(%rip),%rax        # 5ab2b60 <type:zMdwp8yP@@Base>
 4c26b63:	e8 78 99 2c fd       	call   1ef04e0 <runtime.newobject@@Base>
 4c26b68:	48 8d 0d b1 58 00 00 	lea    0x58b1(%rip),%rcx        # 4c2c420 <github.com/lasselj/timebeat/interactive/daemon.(*HttpServer).outputCLIShow-fm@@Base>
 4c26b6f:	48 89 08             	mov    %rcx,(%rax)
 4c26b72:	83 3d e7 4d 25 03 00 	cmpl   $0x0,0x3254de7(%rip)        # 7e7b960 <runtime.writeBarrier@@Base>
 4c26b79:	75 0b                	jne    4c26b86 <github.com/lasselj/timebeat/interactive/daemon.(*HttpServer).Run@@Base+0x186>
 4c26b7b:	48 8b 54 24 78       	mov    0x78(%rsp),%rdx
 4c26b80:	48 89 50 08          	mov    %rdx,0x8(%rax)
 4c26b84:	eb 0e                	jmp    4c26b94 <github.com/lasselj/timebeat/interactive/daemon.(*HttpServer).Run@@Base+0x194>
 4c26b86:	48 8d 78 08          	lea    0x8(%rax),%rdi
 4c26b8a:	48 8b 54 24 78       	mov    0x78(%rsp),%rdx
 4c26b8f:	e8 8c fb 32 fd       	call   1f56720 <runtime.gcWriteBarrierDX@@Base>
 4c26b94:	48 8b 15 1d 82 d5 02 	mov    0x2d5821d(%rip),%rdx        # 797edb8 <net/http.DefaultServeMux@@Base>
 4c26b9b:	0f 1f 44 00 00       	nopl   0x0(%rax,%rax,1)
 4c26ba0:	48 85 c0             	test   %rax,%rax
 4c26ba3:	0f 84 46 01 00 00    	je     4c26cef <github.com/lasselj/timebeat/interactive/daemon.(*HttpServer).Run@@Base+0x2ef>
 4c26ba9:	48 8d 1d 4f 09 04 00 	lea    0x4094f(%rip),%rbx        # 4c674ff <_IO_stdin_used@@Base+0x344ff>
 4c26bb0:	b9 0a 00 00 00       	mov    $0xa,%ecx
 4c26bb5:	48 8d 3d 44 32 2e 01 	lea    0x12e3244(%rip),%rdi        # 5f09e00 <go:itab.net/http.HandlerFunc,net/http.Handler@@Base>
 4c26bbc:	48 89 c6             	mov    %rax,%rsi
 4c26bbf:	48 89 d0             	mov    %rdx,%rax
 4c26bc2:	e8 59 f5 60 fd       	call   2236120 <net/http.(*ServeMux).Handle@@Base>
 4c26bc7:	44 0f 11 7c 24 48    	movups %xmm15,0x48(%rsp)
 4c26bcd:	44 0f 11 7c 24 58    	movups %xmm15,0x58(%rsp)
 4c26bd3:	48 8b 05 7e e3 21 03 	mov    0x321e37e(%rip),%rax        # 7e44f58 <github.com/lasselj/timebeat/config.appConfig@@Base+0x378>
 4c26bda:	48 8b 1d 7f e3 21 03 	mov    0x321e37f(%rip),%rbx        # 7e44f60 <github.com/lasselj/timebeat/config.appConfig@@Base+0x380>
 4c26be1:	e8 7a 71 2c fd       	call   1eedd60 <runtime.convTstring@@Base>
 4c26be6:	48 8d 0d b3 7a b8 00 	lea    0xb87ab3(%rip),%rcx        # 57ae6a0 <type:string@@Base>
 4c26bed:	48 89 4c 24 48       	mov    %rcx,0x48(%rsp)
 4c26bf2:	48 89 44 24 50       	mov    %rax,0x50(%rsp)
 4c26bf7:	0f b7 05 54 e3 21 03 	movzwl 0x321e354(%rip),%eax        # 7e44f52 <github.com/lasselj/timebeat/config.appConfig@@Base+0x372>
 4c26bfe:	66 90                	xchg   %ax,%ax
 4c26c00:	e8 db 6f 2c fd       	call   1eedbe0 <runtime.convT16@@Base>
 4c26c05:	48 8d 0d 94 7c b8 00 	lea    0xb87c94(%rip),%rcx        # 57ae8a0 <type:uint16@@Base>
 4c26c0c:	48 89 4c 24 58       	mov    %rcx,0x58(%rsp)
 4c26c11:	48 89 44 24 60       	mov    %rax,0x60(%rsp)
 4c26c16:	48 8d 05 af fd 00 00 	lea    0xfdaf(%rip),%rax        # 4c369cc <_IO_stdin_used@@Base+0x39cc>
 4c26c1d:	bb 05 00 00 00       	mov    $0x5,%ebx
 4c26c22:	48 8d 4c 24 48       	lea    0x48(%rsp),%rcx
 4c26c27:	bf 02 00 00 00       	mov    $0x2,%edi
 4c26c2c:	48 89 fe             	mov    %rdi,%rsi
 4c26c2f:	e8 cc dc 3c fd       	call   1ff4900 <fmt.Sprintf@@Base>
 4c26c34:	48 89 44 24 30       	mov    %rax,0x30(%rsp)
 4c26c39:	48 89 5c 24 28       	mov    %rbx,0x28(%rsp)
 4c26c3e:	48 8d 05 db d0 23 01 	lea    0x123d0db(%rip),%rax        # 5e63d20 <type:4Q1MOJQP@@Base>
 4c26c45:	e8 96 98 2c fd       	call   1ef04e0 <runtime.newobject@@Base>
 4c26c4a:	48 8b 4c 24 28       	mov    0x28(%rsp),%rcx
 4c26c4f:	48 89 48 08          	mov    %rcx,0x8(%rax)
 4c26c53:	83 3d 06 4d 25 03 00 	cmpl   $0x0,0x3254d06(%rip)        # 7e7b960 <runtime.writeBarrier@@Base>
 4c26c5a:	75 0a                	jne    4c26c66 <github.com/lasselj/timebeat/interactive/daemon.(*HttpServer).Run@@Base+0x266>
 4c26c5c:	48 8b 4c 24 30       	mov    0x30(%rsp),%rcx
 4c26c61:	48 89 08             	mov    %rcx,(%rax)
 4c26c64:	eb 0d                	jmp    4c26c73 <github.com/lasselj/timebeat/interactive/daemon.(*HttpServer).Run@@Base+0x273>
 4c26c66:	48 89 c7             	mov    %rax,%rdi
 4c26c69:	48 8b 4c 24 30       	mov    0x30(%rsp),%rcx
 4c26c6e:	e8 8d fa 32 fd       	call   1f56700 <runtime.gcWriteBarrierCX@@Base>
 4c26c73:	44 0f 11 78 10       	movups %xmm15,0x10(%rax)
 4c26c78:	e8 23 0d 61 fd       	call   22379a0 <net/http.(*Server).ListenAndServe@@Base>
 4c26c7d:	0f 1f 00             	nopl   (%rax)
 4c26c80:	48 85 c0             	test   %rax,%rax
 4c26c83:	74 60                	je     4c26ce5 <github.com/lasselj/timebeat/interactive/daemon.(*HttpServer).Run@@Base+0x2e5>
 4c26c85:	48 8b 48 18          	mov    0x18(%rax),%rcx
 4c26c89:	48 89 d8             	mov    %rbx,%rax
 4c26c8c:	ff d1                	call   *%rcx
 4c26c8e:	44 0f 11 7c 24 38    	movups %xmm15,0x38(%rsp)
 4c26c94:	e8 c7 70 2c fd       	call   1eedd60 <runtime.convTstring@@Base>
 4c26c99:	48 8d 0d 00 7a b8 00 	lea    0xb87a00(%rip),%rcx        # 57ae6a0 <type:string@@Base>
 4c26ca0:	48 89 4c 24 38       	mov    %rcx,0x38(%rsp)
 4c26ca5:	48 89 44 24 40       	mov    %rax,0x40(%rsp)
 4c26caa:	48 8d 05 2c d5 1c 00 	lea    0x1cd52c(%rip),%rax        # 4df41dd <_IO_stdin_used@@Base+0x1c11dd>
 4c26cb1:	bb 1f 00 00 00       	mov    $0x1f,%ebx
 4c26cb6:	48 8d 4c 24 38       	lea    0x38(%rsp),%rcx
 4c26cbb:	bf 01 00 00 00       	mov    $0x1,%edi
 4c26cc0:	48 89 fe             	mov    %rdi,%rsi
 4c26cc3:	e8 38 dc 3c fd       	call   1ff4900 <fmt.Sprintf@@Base>
 4c26cc8:	48 8b 0d b1 55 20 03 	mov    0x32055b1(%rip),%rcx        # 7e2c280 <github.com/lasselj/timebeat/beater/logging.ErrorLogger@@Base>
 4c26ccf:	48 89 c2             	mov    %rax,%rdx
 4c26cd2:	48 89 c8             	mov    %rcx,%rax
 4c26cd5:	48 89 de             	mov    %rbx,%rsi
 4c26cd8:	48 89 d3             	mov    %rdx,%rbx
 4c26cdb:	48 89 f1             	mov    %rsi,%rcx
 4c26cde:	66 90                	xchg   %ax,%ax
 4c26ce0:	e8 7b 03 7e ff       	call   4407060 <github.com/lasselj/timebeat/beater/logging.(*Logger).Error@@Base>
 4c26ce5:	48 8b 6c 24 68       	mov    0x68(%rsp),%rbp
 4c26cea:	48 83 c4 70          	add    $0x70,%rsp
 4c26cee:	c3                   	ret
 4c26cef:	48 8d 05 aa 79 b8 00 	lea    0xb879aa(%rip),%rax        # 57ae6a0 <type:string@@Base>
 4c26cf6:	48 8d 1d fb b6 2c 01 	lea    0x12cb6fb(%rip),%rbx        # 5ef23f8 <time..dict.leadingInt[string]@@Base+0x2168>
 4c26cfd:	0f 1f 00             	nopl   (%rax)
 4c26d00:	e8 3b 60 2f fd       	call   1f1cd40 <runtime.gopanic@@Base>
 4c26d05:	48 8d 05 94 79 b8 00 	lea    0xb87994(%rip),%rax        # 57ae6a0 <type:string@@Base>
 4c26d0c:	48 8d 1d e5 b6 2c 01 	lea    0x12cb6e5(%rip),%rbx        # 5ef23f8 <time..dict.leadingInt[string]@@Base+0x2168>
 4c26d13:	e8 28 60 2f fd       	call   1f1cd40 <runtime.gopanic@@Base>
 4c26d18:	48 8d 05 81 79 b8 00 	lea    0xb87981(%rip),%rax        # 57ae6a0 <type:string@@Base>
 4c26d1f:	48 8d 1d d2 b6 2c 01 	lea    0x12cb6d2(%rip),%rbx        # 5ef23f8 <time..dict.leadingInt[string]@@Base+0x2168>
 4c26d26:	e8 15 60 2f fd       	call   1f1cd40 <runtime.gopanic@@Base>
 4c26d2b:	48 8d 05 6e 79 b8 00 	lea    0xb8796e(%rip),%rax        # 57ae6a0 <type:string@@Base>
 4c26d32:	48 8d 1d bf b6 2c 01 	lea    0x12cb6bf(%rip),%rbx        # 5ef23f8 <time..dict.leadingInt[string]@@Base+0x2168>
 4c26d39:	e8 02 60 2f fd       	call   1f1cd40 <runtime.gopanic@@Base>
 4c26d3e:	90                   	nop
 4c26d3f:	48 89 44 24 08       	mov    %rax,0x8(%rsp)
 4c26d44:	48 89 5c 24 10       	mov    %rbx,0x10(%rsp)
 4c26d49:	e8 12 d7 32 fd       	call   1f54460 <runtime.morestack_noctxt.abi0@@Base>
 4c26d4e:	48 8b 44 24 08       	mov    0x8(%rsp),%rax
 4c26d53:	48 8b 5c 24 10       	mov    0x10(%rsp),%rbx
 4c26d58:	e9 a3 fc ff ff       	jmp    4c26a00 <github.com/lasselj/timebeat/interactive/daemon.(*HttpServer).Run@@Base>
 4c26d5d:	cc                   	int3
 4c26d5e:	cc                   	int3
 4c26d5f:	cc                   	int3
