# github.com/lasselj/timebeat/beater/clocksync/clients/vendors/timebeat/open_timecard_mini_v2_pt.(*Controller).ConfigureTimeSource-fm
# addr 0x4b99bc0 size 256 (0x100)


/mnt/c/Users/SHIWA/GitHub/TimeCard-Mini/timebeat-extracted/usr/share/timebeat/bin/timebeat:     file format elf64-x86-64


Disassembly of section .text:

0000000004b99bc0 <github.com/lasselj/timebeat/beater/clocksync/clients/vendors/timebeat/open_timecard_mini_v2_pt.(*Controller).ConfigureTimeSource-fm@@Base>:
 4b99bc0:	49 3b 66 10          	cmp    0x10(%r14),%rsp
 4b99bc4:	76 4d                	jbe    4b99c13 <github.com/lasselj/timebeat/beater/clocksync/clients/vendors/timebeat/open_timecard_mini_v2_pt.(*Controller).ConfigureTimeSource-fm@@Base+0x53>
 4b99bc6:	48 83 ec 30          	sub    $0x30,%rsp
 4b99bca:	48 89 6c 24 28       	mov    %rbp,0x28(%rsp)
 4b99bcf:	48 8d 6c 24 28       	lea    0x28(%rsp),%rbp
 4b99bd4:	4d 8b 66 20          	mov    0x20(%r14),%r12
 4b99bd8:	4d 85 e4             	test   %r12,%r12
 4b99bdb:	75 68                	jne    4b99c45 <github.com/lasselj/timebeat/beater/clocksync/clients/vendors/timebeat/open_timecard_mini_v2_pt.(*Controller).ConfigureTimeSource-fm@@Base+0x85>
 4b99bdd:	48 89 44 24 38       	mov    %rax,0x38(%rsp)
 4b99be2:	48 89 5c 24 40       	mov    %rbx,0x40(%rsp)
 4b99be7:	48 89 4c 24 48       	mov    %rcx,0x48(%rsp)
 4b99bec:	48 89 7c 24 50       	mov    %rdi,0x50(%rsp)
 4b99bf1:	48 8b 52 08          	mov    0x8(%rdx),%rdx
 4b99bf5:	48 89 fe             	mov    %rdi,%rsi
 4b99bf8:	48 89 cf             	mov    %rcx,%rdi
 4b99bfb:	48 89 d9             	mov    %rbx,%rcx
 4b99bfe:	48 89 c3             	mov    %rax,%rbx
 4b99c01:	48 89 d0             	mov    %rdx,%rax
 4b99c04:	e8 17 fb ff ff       	call   4b99720 <github.com/lasselj/timebeat/beater/clocksync/clients/vendors/timebeat/open_timecard_mini_v2_pt.(*Controller).ConfigureTimeSource@@Base>
 4b99c09:	48 8b 6c 24 28       	mov    0x28(%rsp),%rbp
 4b99c0e:	48 83 c4 30          	add    $0x30,%rsp
 4b99c12:	c3                   	ret
 4b99c13:	48 89 44 24 08       	mov    %rax,0x8(%rsp)
 4b99c18:	48 89 5c 24 10       	mov    %rbx,0x10(%rsp)
 4b99c1d:	48 89 4c 24 18       	mov    %rcx,0x18(%rsp)
 4b99c22:	48 89 7c 24 20       	mov    %rdi,0x20(%rsp)
 4b99c27:	e8 94 a7 3b fd       	call   1f543c0 <runtime.morestack.abi0@@Base>
 4b99c2c:	48 8b 44 24 08       	mov    0x8(%rsp),%rax
 4b99c31:	48 8b 5c 24 10       	mov    0x10(%rsp),%rbx
 4b99c36:	48 8b 4c 24 18       	mov    0x18(%rsp),%rcx
 4b99c3b:	48 8b 7c 24 20       	mov    0x20(%rsp),%rdi
 4b99c40:	e9 7b ff ff ff       	jmp    4b99bc0 <github.com/lasselj/timebeat/beater/clocksync/clients/vendors/timebeat/open_timecard_mini_v2_pt.(*Controller).ConfigureTimeSource-fm@@Base>
 4b99c45:	4c 8d 6c 24 38       	lea    0x38(%rsp),%r13
 4b99c4a:	4d 39 2c 24          	cmp    %r13,(%r12)
 4b99c4e:	75 8d                	jne    4b99bdd <github.com/lasselj/timebeat/beater/clocksync/clients/vendors/timebeat/open_timecard_mini_v2_pt.(*Controller).ConfigureTimeSource-fm@@Base+0x1d>
 4b99c50:	49 89 24 24          	mov    %rsp,(%r12)
 4b99c54:	eb 87                	jmp    4b99bdd <github.com/lasselj/timebeat/beater/clocksync/clients/vendors/timebeat/open_timecard_mini_v2_pt.(*Controller).ConfigureTimeSource-fm@@Base+0x1d>
 4b99c56:	cc                   	int3
 4b99c57:	cc                   	int3
 4b99c58:	cc                   	int3
 4b99c59:	cc                   	int3
 4b99c5a:	cc                   	int3
 4b99c5b:	cc                   	int3
 4b99c5c:	cc                   	int3
 4b99c5d:	cc                   	int3
 4b99c5e:	cc                   	int3
 4b99c5f:	cc                   	int3

0000000004b99c60 <type:.KeeJt1o/@@Base>:
 4b99c60:	0f b7 08             	movzwl (%rax),%ecx
 4b99c63:	66 39 0b             	cmp    %cx,(%rbx)
 4b99c66:	75 48                	jne    4b99cb0 <type:.KeeJt1o/@@Base+0x50>
 4b99c68:	0f b6 48 02          	movzbl 0x2(%rax),%ecx
 4b99c6c:	38 4b 02             	cmp    %cl,0x2(%rbx)
 4b99c6f:	75 3f                	jne    4b99cb0 <type:.KeeJt1o/@@Base+0x50>
 4b99c71:	0f b6 48 03          	movzbl 0x3(%rax),%ecx
 4b99c75:	38 4b 03             	cmp    %cl,0x3(%rbx)
 4b99c78:	75 36                	jne    4b99cb0 <type:.KeeJt1o/@@Base+0x50>
 4b99c7a:	0f b6 48 04          	movzbl 0x4(%rax),%ecx
 4b99c7e:	66 90                	xchg   %ax,%ax
 4b99c80:	38 4b 04             	cmp    %cl,0x4(%rbx)
 4b99c83:	75 2b                	jne    4b99cb0 <type:.KeeJt1o/@@Base+0x50>
 4b99c85:	0f b6 48 05          	movzbl 0x5(%rax),%ecx
 4b99c89:	38 4b 05             	cmp    %cl,0x5(%rbx)
 4b99c8c:	75 22                	jne    4b99cb0 <type:.KeeJt1o/@@Base+0x50>
 4b99c8e:	0f b6 48 06          	movzbl 0x6(%rax),%ecx
 4b99c92:	38 4b 06             	cmp    %cl,0x6(%rbx)
 4b99c95:	75 19                	jne    4b99cb0 <type:.KeeJt1o/@@Base+0x50>
 4b99c97:	0f b6 48 07          	movzbl 0x7(%rax),%ecx
 4b99c9b:	0f 1f 44 00 00       	nopl   0x0(%rax,%rax,1)
 4b99ca0:	38 4b 07             	cmp    %cl,0x7(%rbx)
 4b99ca3:	75 0b                	jne    4b99cb0 <type:.KeeJt1o/@@Base+0x50>
 4b99ca5:	0f b6 48 08          	movzbl 0x8(%rax),%ecx
 4b99ca9:	38 4b 08             	cmp    %cl,0x8(%rbx)
 4b99cac:	0f 94 c0             	sete   %al
 4b99caf:	c3                   	ret
 4b99cb0:	31 c0                	xor    %eax,%eax
 4b99cb2:	c3                   	ret
 4b99cb3:	cc                   	int3
 4b99cb4:	cc                   	int3
 4b99cb5:	cc                   	int3
 4b99cb6:	cc                   	int3
 4b99cb7:	cc                   	int3
 4b99cb8:	cc                   	int3
 4b99cb9:	cc                   	int3
 4b99cba:	cc                   	int3
 4b99cbb:	cc                   	int3
 4b99cbc:	cc                   	int3
 4b99cbd:	cc                   	int3
 4b99cbe:	cc                   	int3
 4b99cbf:	cc                   	int3
