# github.com/lasselj/timebeat/beater/clocksync/clients/phc.(*Controller).ConfigureTimeSource-fm
# addr 0x45ef240 size 12288 (0x3000)


/mnt/c/Users/SHIWA/GitHub/TimeCard-Mini/timebeat-extracted/usr/share/timebeat/bin/timebeat:     file format elf64-x86-64


Disassembly of section .text:

00000000045ef240 <github.com/lasselj/timebeat/beater/clocksync/clients/phc.(*Controller).ConfigureTimeSource-fm@@Base>:
 45ef240:	49 3b 66 10          	cmp    0x10(%r14),%rsp
 45ef244:	76 4d                	jbe    45ef293 <github.com/lasselj/timebeat/beater/clocksync/clients/phc.(*Controller).ConfigureTimeSource-fm@@Base+0x53>
 45ef246:	48 83 ec 30          	sub    $0x30,%rsp
 45ef24a:	48 89 6c 24 28       	mov    %rbp,0x28(%rsp)
 45ef24f:	48 8d 6c 24 28       	lea    0x28(%rsp),%rbp
 45ef254:	4d 8b 66 20          	mov    0x20(%r14),%r12
 45ef258:	4d 85 e4             	test   %r12,%r12
 45ef25b:	75 68                	jne    45ef2c5 <github.com/lasselj/timebeat/beater/clocksync/clients/phc.(*Controller).ConfigureTimeSource-fm@@Base+0x85>
 45ef25d:	48 89 44 24 38       	mov    %rax,0x38(%rsp)
 45ef262:	48 89 5c 24 40       	mov    %rbx,0x40(%rsp)
 45ef267:	48 89 4c 24 48       	mov    %rcx,0x48(%rsp)
 45ef26c:	48 89 7c 24 50       	mov    %rdi,0x50(%rsp)
 45ef271:	48 8b 52 08          	mov    0x8(%rdx),%rdx
 45ef275:	48 89 fe             	mov    %rdi,%rsi
 45ef278:	48 89 cf             	mov    %rcx,%rdi
 45ef27b:	48 89 d9             	mov    %rbx,%rcx
 45ef27e:	48 89 c3             	mov    %rax,%rbx
 45ef281:	48 89 d0             	mov    %rdx,%rax
 45ef284:	e8 97 fc ff ff       	call   45eef20 <github.com/lasselj/timebeat/beater/clocksync/clients/phc.(*Controller).ConfigureTimeSource@@Base>
 45ef289:	48 8b 6c 24 28       	mov    0x28(%rsp),%rbp
 45ef28e:	48 83 c4 30          	add    $0x30,%rsp
 45ef292:	c3                   	ret
 45ef293:	48 89 44 24 08       	mov    %rax,0x8(%rsp)
 45ef298:	48 89 5c 24 10       	mov    %rbx,0x10(%rsp)
 45ef29d:	48 89 4c 24 18       	mov    %rcx,0x18(%rsp)
 45ef2a2:	48 89 7c 24 20       	mov    %rdi,0x20(%rsp)
 45ef2a7:	e8 14 51 96 fd       	call   1f543c0 <runtime.morestack.abi0@@Base>
 45ef2ac:	48 8b 44 24 08       	mov    0x8(%rsp),%rax
 45ef2b1:	48 8b 5c 24 10       	mov    0x10(%rsp),%rbx
 45ef2b6:	48 8b 4c 24 18       	mov    0x18(%rsp),%rcx
 45ef2bb:	48 8b 7c 24 20       	mov    0x20(%rsp),%rdi
 45ef2c0:	e9 7b ff ff ff       	jmp    45ef240 <github.com/lasselj/timebeat/beater/clocksync/clients/phc.(*Controller).ConfigureTimeSource-fm@@Base>
 45ef2c5:	4c 8d 6c 24 38       	lea    0x38(%rsp),%r13
 45ef2ca:	4d 39 2c 24          	cmp    %r13,(%r12)
 45ef2ce:	75 8d                	jne    45ef25d <github.com/lasselj/timebeat/beater/clocksync/clients/phc.(*Controller).ConfigureTimeSource-fm@@Base+0x1d>
 45ef2d0:	49 89 24 24          	mov    %rsp,(%r12)
 45ef2d4:	eb 87                	jmp    45ef25d <github.com/lasselj/timebeat/beater/clocksync/clients/phc.(*Controller).ConfigureTimeSource-fm@@Base+0x1d>
 45ef2d6:	cc                   	int3
 45ef2d7:	cc                   	int3
 45ef2d8:	cc                   	int3
 45ef2d9:	cc                   	int3
 45ef2da:	cc                   	int3
 45ef2db:	cc                   	int3
 45ef2dc:	cc                   	int3
 45ef2dd:	cc                   	int3
 45ef2de:	cc                   	int3
 45ef2df:	cc                   	int3

00000000045ef2e0 <github.com/google/uuid.UUID.Domain@@Base>:
 45ef2e0:	0f b6 44 24 11       	movzbl 0x11(%rsp),%eax
 45ef2e5:	c3                   	ret
 45ef2e6:	cc                   	int3
 45ef2e7:	cc                   	int3
 45ef2e8:	cc                   	int3
 45ef2e9:	cc                   	int3
 45ef2ea:	cc                   	int3
 45ef2eb:	cc                   	int3
 45ef2ec:	cc                   	int3
 45ef2ed:	cc                   	int3
 45ef2ee:	cc                   	int3
 45ef2ef:	cc                   	int3
 45ef2f0:	cc                   	int3
 45ef2f1:	cc                   	int3
 45ef2f2:	cc                   	int3
 45ef2f3:	cc                   	int3
 45ef2f4:	cc                   	int3
 45ef2f5:	cc                   	int3
 45ef2f6:	cc                   	int3
 45ef2f7:	cc                   	int3
 45ef2f8:	cc                   	int3
 45ef2f9:	cc                   	int3
 45ef2fa:	cc                   	int3
 45ef2fb:	cc                   	int3
 45ef2fc:	cc                   	int3
 45ef2fd:	cc                   	int3
 45ef2fe:	cc                   	int3
 45ef2ff:	cc                   	int3

00000000045ef300 <github.com/google/uuid.UUID.ID@@Base>:
 45ef300:	8b 44 24 08          	mov    0x8(%rsp),%eax
 45ef304:	0f c8                	bswap  %eax
 45ef306:	c3                   	ret
 45ef307:	cc                   	int3
 45ef308:	cc                   	int3
 45ef309:	cc                   	int3
 45ef30a:	cc                   	int3
 45ef30b:	cc                   	int3
 45ef30c:	cc                   	int3
 45ef30d:	cc                   	int3
 45ef30e:	cc                   	int3
 45ef30f:	cc                   	int3
 45ef310:	cc                   	int3
 45ef311:	cc                   	int3
 45ef312:	cc                   	int3
 45ef313:	cc                   	int3
 45ef314:	cc                   	int3
 45ef315:	cc                   	int3
 45ef316:	cc                   	int3
 45ef317:	cc                   	int3
 45ef318:	cc                   	int3
 45ef319:	cc                   	int3
 45ef31a:	cc                   	int3
 45ef31b:	cc                   	int3
 45ef31c:	cc                   	int3
 45ef31d:	cc                   	int3
 45ef31e:	cc                   	int3
 45ef31f:	cc                   	int3

00000000045ef320 <github.com/google/uuid.Domain.String@@Base>:
 45ef320:	49 3b 66 10          	cmp    0x10(%r14),%rsp
 45ef324:	0f 86 a7 00 00 00    	jbe    45ef3d1 <github.com/google/uuid.Domain.String@@Base+0xb1>
 45ef32a:	48 83 ec 40          	sub    $0x40,%rsp
 45ef32e:	48 89 6c 24 38       	mov    %rbp,0x38(%rsp)
 45ef333:	48 8d 6c 24 38       	lea    0x38(%rsp),%rbp
 45ef338:	84 c0                	test   %al,%al
 45ef33a:	74 7f                	je     45ef3bb <github.com/google/uuid.Domain.String@@Base+0x9b>
 45ef33c:	0f 1f 40 00          	nopl   0x0(%rax)
 45ef340:	3c 01                	cmp    $0x1,%al
 45ef342:	74 61                	je     45ef3a5 <github.com/google/uuid.Domain.String@@Base+0x85>
 45ef344:	3c 02                	cmp    $0x2,%al
 45ef346:	75 16                	jne    45ef35e <github.com/google/uuid.Domain.String@@Base+0x3e>
 45ef348:	48 8d 05 76 46 64 00 	lea    0x644676(%rip),%rax        # 4c339c5 <_IO_stdin_used@@Base+0x9c5>
 45ef34f:	bb 03 00 00 00       	mov    $0x3,%ebx
 45ef354:	48 8b 6c 24 38       	mov    0x38(%rsp),%rbp
 45ef359:	48 83 c4 40          	add    $0x40,%rsp
 45ef35d:	c3                   	ret
 45ef35e:	44 0f 11 7c 24 28    	movups %xmm15,0x28(%rsp)
 45ef364:	0f b6 c0             	movzbl %al,%eax
 45ef367:	e8 74 e9 8f fd       	call   1eedce0 <runtime.convT64@@Base>
 45ef36c:	48 8d 0d ed b2 1b 01 	lea    0x11bb2ed(%rip),%rcx        # 57aa660 <type:int@@Base>
 45ef373:	48 89 4c 24 28       	mov    %rcx,0x28(%rsp)
 45ef378:	48 89 44 24 30       	mov    %rax,0x30(%rsp)
 45ef37d:	48 8d 05 11 2f 67 00 	lea    0x672f11(%rip),%rax        # 4c62295 <_IO_stdin_used@@Base+0x2f295>
 45ef384:	bb 08 00 00 00       	mov    $0x8,%ebx
 45ef389:	48 8d 4c 24 28       	lea    0x28(%rsp),%rcx
 45ef38e:	bf 01 00 00 00       	mov    $0x1,%edi
 45ef393:	48 89 fe             	mov    %rdi,%rsi
 45ef396:	e8 65 55 a0 fd       	call   1ff4900 <fmt.Sprintf@@Base>
 45ef39b:	48 8b 6c 24 38       	mov    0x38(%rsp),%rbp
 45ef3a0:	48 83 c4 40          	add    $0x40,%rsp
 45ef3a4:	c3                   	ret
 45ef3a5:	48 8d 05 52 48 65 00 	lea    0x654852(%rip),%rax        # 4c43bfe <_IO_stdin_used@@Base+0x10bfe>
 45ef3ac:	bb 05 00 00 00       	mov    $0x5,%ebx
 45ef3b1:	48 8b 6c 24 38       	mov    0x38(%rsp),%rbp
 45ef3b6:	48 83 c4 40          	add    $0x40,%rsp
 45ef3ba:	c3                   	ret
 45ef3bb:	48 8d 05 89 e4 66 00 	lea    0x66e489(%rip),%rax        # 4c5d84b <_IO_stdin_used@@Base+0x2a84b>
 45ef3c2:	bb 06 00 00 00       	mov    $0x6,%ebx
 45ef3c7:	48 8b 6c 24 38       	mov    0x38(%rsp),%rbp
 45ef3cc:	48 83 c4 40          	add    $0x40,%rsp
 45ef3d0:	c3                   	ret
 45ef3d1:	88 44 24 08          	mov    %al,0x8(%rsp)
 45ef3d5:	e8 86 50 96 fd       	call   1f54460 <runtime.morestack_noctxt.abi0@@Base>
 45ef3da:	0f b6 44 24 08       	movzbl 0x8(%rsp),%eax
 45ef3df:	90                   	nop
 45ef3e0:	e9 3b ff ff ff       	jmp    45ef320 <github.com/google/uuid.Domain.String@@Base>
 45ef3e5:	cc                   	int3
 45ef3e6:	cc                   	int3
 45ef3e7:	cc                   	int3
 45ef3e8:	cc                   	int3
 45ef3e9:	cc                   	int3
 45ef3ea:	cc                   	int3
 45ef3eb:	cc                   	int3
 45ef3ec:	cc                   	int3
 45ef3ed:	cc                   	int3
 45ef3ee:	cc                   	int3
 45ef3ef:	cc                   	int3
 45ef3f0:	cc                   	int3
 45ef3f1:	cc                   	int3
 45ef3f2:	cc                   	int3
 45ef3f3:	cc                   	int3
 45ef3f4:	cc                   	int3
 45ef3f5:	cc                   	int3
 45ef3f6:	cc                   	int3
 45ef3f7:	cc                   	int3
 45ef3f8:	cc                   	int3
 45ef3f9:	cc                   	int3
 45ef3fa:	cc                   	int3
 45ef3fb:	cc                   	int3
 45ef3fc:	cc                   	int3
 45ef3fd:	cc                   	int3
 45ef3fe:	cc                   	int3
 45ef3ff:	cc                   	int3

00000000045ef400 <github.com/google/uuid.UUID.MarshalText@@Base>:
 45ef400:	49 3b 66 10          	cmp    0x10(%r14),%rsp
 45ef404:	76 5b                	jbe    45ef461 <github.com/google/uuid.UUID.MarshalText@@Base+0x61>
 45ef406:	48 83 ec 38          	sub    $0x38,%rsp
 45ef40a:	48 89 6c 24 30       	mov    %rbp,0x30(%rsp)
 45ef40f:	48 8d 6c 24 30       	lea    0x30(%rsp),%rbp
 45ef414:	48 8d 05 45 31 1e 01 	lea    0x11e3145(%rip),%rax        # 57d2560 <type:[36]uint8@@Base>
 45ef41b:	0f 1f 44 00 00       	nopl   0x0(%rax,%rax,1)
 45ef420:	e8 bb 10 90 fd       	call   1ef04e0 <runtime.newobject@@Base>
 45ef425:	48 89 44 24 28       	mov    %rax,0x28(%rsp)
 45ef42a:	0f 10 44 24 40       	movups 0x40(%rsp),%xmm0
 45ef42f:	0f 11 04 24          	movups %xmm0,(%rsp)
 45ef433:	bb 24 00 00 00       	mov    $0x24,%ebx
 45ef438:	48 89 d9             	mov    %rbx,%rcx
 45ef43b:	0f 1f 44 00 00       	nopl   0x0(%rax,%rax,1)
 45ef440:	e8 1b 10 00 00       	call   45f0460 <github.com/google/uuid.encodeHex@@Base>
 45ef445:	48 8b 44 24 28       	mov    0x28(%rsp),%rax
 45ef44a:	bb 24 00 00 00       	mov    $0x24,%ebx
 45ef44f:	48 89 d9             	mov    %rbx,%rcx
 45ef452:	31 ff                	xor    %edi,%edi
 45ef454:	31 f6                	xor    %esi,%esi
 45ef456:	48 8b 6c 24 30       	mov    0x30(%rsp),%rbp
 45ef45b:	48 83 c4 38          	add    $0x38,%rsp
 45ef45f:	90                   	nop
 45ef460:	c3                   	ret
 45ef461:	e8 fa 4f 96 fd       	call   1f54460 <runtime.morestack_noctxt.abi0@@Base>
 45ef466:	eb 98                	jmp    45ef400 <github.com/google/uuid.UUID.MarshalText@@Base>
 45ef468:	cc                   	int3
 45ef469:	cc                   	int3
 45ef46a:	cc                   	int3
 45ef46b:	cc                   	int3
 45ef46c:	cc                   	int3
 45ef46d:	cc                   	int3
 45ef46e:	cc                   	int3
 45ef46f:	cc                   	int3
 45ef470:	cc                   	int3
 45ef471:	cc                   	int3
 45ef472:	cc                   	int3
 45ef473:	cc                   	int3
 45ef474:	cc                   	int3
 45ef475:	cc                   	int3
 45ef476:	cc                   	int3
 45ef477:	cc                   	int3
 45ef478:	cc                   	int3
 45ef479:	cc                   	int3
 45ef47a:	cc                   	int3
 45ef47b:	cc                   	int3
 45ef47c:	cc                   	int3
 45ef47d:	cc                   	int3
 45ef47e:	cc                   	int3
 45ef47f:	cc                   	int3

00000000045ef480 <github.com/google/uuid.(*UUID).UnmarshalText@@Base>:
 45ef480:	49 3b 66 10          	cmp    0x10(%r14),%rsp
 45ef484:	76 59                	jbe    45ef4df <github.com/google/uuid.(*UUID).UnmarshalText@@Base+0x5f>
 45ef486:	48 83 ec 40          	sub    $0x40,%rsp
 45ef48a:	48 89 6c 24 38       	mov    %rbp,0x38(%rsp)
 45ef48f:	48 8d 6c 24 38       	lea    0x38(%rsp),%rbp
 45ef494:	48 89 5c 24 50       	mov    %rbx,0x50(%rsp)
 45ef499:	48 89 44 24 48       	mov    %rax,0x48(%rsp)
 45ef49e:	48 89 d8             	mov    %rbx,%rax
 45ef4a1:	48 89 cb             	mov    %rcx,%rbx
 45ef4a4:	48 89 f9             	mov    %rdi,%rcx
 45ef4a7:	e8 34 0a 00 00       	call   45efee0 <github.com/google/uuid.ParseBytes@@Base>
 45ef4ac:	0f 10 04 24          	movups (%rsp),%xmm0
 45ef4b0:	0f 11 44 24 28       	movups %xmm0,0x28(%rsp)
 45ef4b5:	48 85 c0             	test   %rax,%rax
 45ef4b8:	74 0a                	je     45ef4c4 <github.com/google/uuid.(*UUID).UnmarshalText@@Base+0x44>
 45ef4ba:	48 8b 6c 24 38       	mov    0x38(%rsp),%rbp
 45ef4bf:	48 83 c4 40          	add    $0x40,%rsp
 45ef4c3:	c3                   	ret
 45ef4c4:	0f 10 44 24 28       	movups 0x28(%rsp),%xmm0
 45ef4c9:	48 8b 4c 24 48       	mov    0x48(%rsp),%rcx
 45ef4ce:	0f 11 01             	movups %xmm0,(%rcx)
 45ef4d1:	31 c0                	xor    %eax,%eax
 45ef4d3:	31 db                	xor    %ebx,%ebx
 45ef4d5:	48 8b 6c 24 38       	mov    0x38(%rsp),%rbp
 45ef4da:	48 83 c4 40          	add    $0x40,%rsp
 45ef4de:	c3                   	ret
 45ef4df:	48 89 44 24 08       	mov    %rax,0x8(%rsp)
 45ef4e4:	48 89 5c 24 10       	mov    %rbx,0x10(%rsp)
 45ef4e9:	48 89 4c 24 18       	mov    %rcx,0x18(%rsp)
 45ef4ee:	48 89 7c 24 20       	mov    %rdi,0x20(%rsp)
 45ef4f3:	e8 68 4f 96 fd       	call   1f54460 <runtime.morestack_noctxt.abi0@@Base>
 45ef4f8:	48 8b 44 24 08       	mov    0x8(%rsp),%rax
 45ef4fd:	48 8b 5c 24 10       	mov    0x10(%rsp),%rbx
 45ef502:	48 8b 4c 24 18       	mov    0x18(%rsp),%rcx
 45ef507:	48 8b 7c 24 20       	mov    0x20(%rsp),%rdi
 45ef50c:	e9 6f ff ff ff       	jmp    45ef480 <github.com/google/uuid.(*UUID).UnmarshalText@@Base>
 45ef511:	cc                   	int3
 45ef512:	cc                   	int3
 45ef513:	cc                   	int3
 45ef514:	cc                   	int3
 45ef515:	cc                   	int3
 45ef516:	cc                   	int3
 45ef517:	cc                   	int3
 45ef518:	cc                   	int3
 45ef519:	cc                   	int3
 45ef51a:	cc                   	int3
 45ef51b:	cc                   	int3
 45ef51c:	cc                   	int3
 45ef51d:	cc                   	int3
 45ef51e:	cc                   	int3
 45ef51f:	cc                   	int3

00000000045ef520 <github.com/google/uuid.UUID.MarshalBinary@@Base>:
 45ef520:	49 3b 66 10          	cmp    0x10(%r14),%rsp
 45ef524:	76 3d                	jbe    45ef563 <github.com/google/uuid.UUID.MarshalBinary@@Base+0x43>
 45ef526:	48 83 ec 18          	sub    $0x18,%rsp
 45ef52a:	48 89 6c 24 10       	mov    %rbp,0x10(%rsp)
 45ef52f:	48 8d 6c 24 10       	lea    0x10(%rsp),%rbp
 45ef534:	48 8d 05 e5 82 74 01 	lea    0x17482e5(%rip),%rax        # 5d37820 <type:ehvrmEUx@@Base>
 45ef53b:	0f 1f 44 00 00       	nopl   0x0(%rax,%rax,1)
 45ef540:	e8 9b 0f 90 fd       	call   1ef04e0 <runtime.newobject@@Base>
 45ef545:	0f 10 44 24 20       	movups 0x20(%rsp),%xmm0
 45ef54a:	0f 11 00             	movups %xmm0,(%rax)
 45ef54d:	bb 10 00 00 00       	mov    $0x10,%ebx
 45ef552:	48 89 d9             	mov    %rbx,%rcx
 45ef555:	31 ff                	xor    %edi,%edi
 45ef557:	31 f6                	xor    %esi,%esi
 45ef559:	48 8b 6c 24 10       	mov    0x10(%rsp),%rbp
 45ef55e:	48 83 c4 18          	add    $0x18,%rsp
 45ef562:	c3                   	ret
 45ef563:	e8 f8 4e 96 fd       	call   1f54460 <runtime.morestack_noctxt.abi0@@Base>
 45ef568:	eb b6                	jmp    45ef520 <github.com/google/uuid.UUID.MarshalBinary@@Base>
 45ef56a:	cc                   	int3
 45ef56b:	cc                   	int3
 45ef56c:	cc                   	int3
 45ef56d:	cc                   	int3
 45ef56e:	cc                   	int3
 45ef56f:	cc                   	int3
 45ef570:	cc                   	int3
 45ef571:	cc                   	int3
 45ef572:	cc                   	int3
 45ef573:	cc                   	int3
 45ef574:	cc                   	int3
 45ef575:	cc                   	int3
 45ef576:	cc                   	int3
 45ef577:	cc                   	int3
 45ef578:	cc                   	int3
 45ef579:	cc                   	int3
 45ef57a:	cc                   	int3
 45ef57b:	cc                   	int3
 45ef57c:	cc                   	int3
 45ef57d:	cc                   	int3
 45ef57e:	cc                   	int3
 45ef57f:	cc                   	int3

00000000045ef580 <github.com/google/uuid.(*UUID).UnmarshalBinary@@Base>:
 45ef580:	49 3b 66 10          	cmp    0x10(%r14),%rsp
 45ef584:	76 7b                	jbe    45ef601 <github.com/google/uuid.(*UUID).UnmarshalBinary@@Base+0x81>
 45ef586:	48 83 ec 40          	sub    $0x40,%rsp
 45ef58a:	48 89 6c 24 38       	mov    %rbp,0x38(%rsp)
 45ef58f:	48 8d 6c 24 38       	lea    0x38(%rsp),%rbp
 45ef594:	48 89 5c 24 50       	mov    %rbx,0x50(%rsp)
 45ef599:	48 83 f9 10          	cmp    $0x10,%rcx
 45ef59d:	75 1b                	jne    45ef5ba <github.com/google/uuid.(*UUID).UnmarshalBinary@@Base+0x3a>
 45ef59f:	84 00                	test   %al,(%rax)
 45ef5a1:	48 39 c3             	cmp    %rax,%rbx
 45ef5a4:	74 06                	je     45ef5ac <github.com/google/uuid.(*UUID).UnmarshalBinary@@Base+0x2c>
 45ef5a6:	0f 10 03             	movups (%rbx),%xmm0
 45ef5a9:	0f 11 00             	movups %xmm0,(%rax)
 45ef5ac:	31 c0                	xor    %eax,%eax
 45ef5ae:	31 db                	xor    %ebx,%ebx
 45ef5b0:	48 8b 6c 24 38       	mov    0x38(%rsp),%rbp
 45ef5b5:	48 83 c4 40          	add    $0x40,%rsp
 45ef5b9:	c3                   	ret
 45ef5ba:	44 0f 11 7c 24 28    	movups %xmm15,0x28(%rsp)
 45ef5c0:	48 89 c8             	mov    %rcx,%rax
 45ef5c3:	e8 18 e7 8f fd       	call   1eedce0 <runtime.convT64@@Base>
 45ef5c8:	48 8d 0d 91 b0 1b 01 	lea    0x11bb091(%rip),%rcx        # 57aa660 <type:int@@Base>
 45ef5cf:	48 89 4c 24 28       	mov    %rcx,0x28(%rsp)
 45ef5d4:	48 89 44 24 30       	mov    %rax,0x30(%rsp)
 45ef5d9:	48 8d 05 7d 5e 7f 00 	lea    0x7f5e7d(%rip),%rax        # 4de545d <_IO_stdin_used@@Base+0x1b245d>
 45ef5e0:	bb 1b 00 00 00       	mov    $0x1b,%ebx
 45ef5e5:	48 8d 4c 24 28       	lea    0x28(%rsp),%rcx
 45ef5ea:	bf 01 00 00 00       	mov    $0x1,%edi
 45ef5ef:	48 89 fe             	mov    %rdi,%rsi
 45ef5f2:	e8 69 1c a0 fd       	call   1ff1260 <fmt.Errorf@@Base>
 45ef5f7:	48 8b 6c 24 38       	mov    0x38(%rsp),%rbp
 45ef5fc:	48 83 c4 40          	add    $0x40,%rsp
 45ef600:	c3                   	ret
 45ef601:	48 89 44 24 08       	mov    %rax,0x8(%rsp)
 45ef606:	48 89 5c 24 10       	mov    %rbx,0x10(%rsp)
 45ef60b:	48 89 4c 24 18       	mov    %rcx,0x18(%rsp)
 45ef610:	48 89 7c 24 20       	mov    %rdi,0x20(%rsp)
 45ef615:	e8 46 4e 96 fd       	call   1f54460 <runtime.morestack_noctxt.abi0@@Base>
 45ef61a:	48 8b 44 24 08       	mov    0x8(%rsp),%rax
 45ef61f:	48 8b 5c 24 10       	mov    0x10(%rsp),%rbx
 45ef624:	48 8b 4c 24 18       	mov    0x18(%rsp),%rcx
 45ef629:	48 8b 7c 24 20       	mov    0x20(%rsp),%rdi
 45ef62e:	e9 4d ff ff ff       	jmp    45ef580 <github.com/google/uuid.(*UUID).UnmarshalBinary@@Base>
 45ef633:	cc                   	int3
 45ef634:	cc                   	int3
 45ef635:	cc                   	int3
 45ef636:	cc                   	int3
 45ef637:	cc                   	int3
 45ef638:	cc                   	int3
 45ef639:	cc                   	int3
 45ef63a:	cc                   	int3
 45ef63b:	cc                   	int3
 45ef63c:	cc                   	int3
 45ef63d:	cc                   	int3
 45ef63e:	cc                   	int3
 45ef63f:	cc                   	int3

00000000045ef640 <github.com/google/uuid.UUID.NodeID@@Base>:
 45ef640:	49 3b 66 10          	cmp    0x10(%r14),%rsp
 45ef644:	76 4a                	jbe    45ef690 <github.com/google/uuid.UUID.NodeID@@Base+0x50>
 45ef646:	48 83 ec 18          	sub    $0x18,%rsp
 45ef64a:	48 89 6c 24 10       	mov    %rbp,0x10(%rsp)
 45ef64f:	48 8d 6c 24 10       	lea    0x10(%rsp),%rbp
 45ef654:	48 8d 05 25 87 1e 01 	lea    0x11e8725(%rip),%rax        # 57d7d80 <type:[6]uint8@@Base>
 45ef65b:	0f 1f 44 00 00       	nopl   0x0(%rax,%rax,1)
 45ef660:	e8 7b 0e 90 fd       	call   1ef04e0 <runtime.newobject@@Base>
 45ef665:	48 8d 4c 24 2a       	lea    0x2a(%rsp),%rcx
 45ef66a:	48 39 c8             	cmp    %rcx,%rax
 45ef66d:	74 0f                	je     45ef67e <github.com/google/uuid.UUID.NodeID@@Base+0x3e>
 45ef66f:	8b 54 24 2a          	mov    0x2a(%rsp),%edx
 45ef673:	0f b7 74 24 2e       	movzwl 0x2e(%rsp),%esi
 45ef678:	89 10                	mov    %edx,(%rax)
 45ef67a:	66 89 70 04          	mov    %si,0x4(%rax)
 45ef67e:	bb 06 00 00 00       	mov    $0x6,%ebx
 45ef683:	48 89 d9             	mov    %rbx,%rcx
 45ef686:	48 8b 6c 24 10       	mov    0x10(%rsp),%rbp
 45ef68b:	48 83 c4 18          	add    $0x18,%rsp
 45ef68f:	c3                   	ret
 45ef690:	e8 cb 4d 96 fd       	call   1f54460 <runtime.morestack_noctxt.abi0@@Base>
 45ef695:	eb a9                	jmp    45ef640 <github.com/google/uuid.UUID.NodeID@@Base>
 45ef697:	cc                   	int3
 45ef698:	cc                   	int3
 45ef699:	cc                   	int3
 45ef69a:	cc                   	int3
 45ef69b:	cc                   	int3
 45ef69c:	cc                   	int3
 45ef69d:	cc                   	int3
 45ef69e:	cc                   	int3
 45ef69f:	cc                   	int3

00000000045ef6a0 <github.com/google/uuid.(*UUID).Scan@@Base>:
 45ef6a0:	49 3b 66 10          	cmp    0x10(%r14),%rsp
 45ef6a4:	0f 86 8d 01 00 00    	jbe    45ef837 <github.com/google/uuid.(*UUID).Scan@@Base+0x197>
 45ef6aa:	48 83 ec 50          	sub    $0x50,%rsp
 45ef6ae:	48 89 6c 24 48       	mov    %rbp,0x48(%rsp)
 45ef6b3:	48 8d 6c 24 48       	lea    0x48(%rsp),%rbp
 45ef6b8:	48 89 5c 24 60       	mov    %rbx,0x60(%rsp)
 45ef6bd:	48 89 4c 24 68       	mov    %rcx,0x68(%rsp)
 45ef6c2:	48 85 db             	test   %rbx,%rbx
 45ef6c5:	0f 84 5e 01 00 00    	je     45ef829 <github.com/google/uuid.(*UUID).Scan@@Base+0x189>
 45ef6cb:	48 89 44 24 58       	mov    %rax,0x58(%rsp)
 45ef6d0:	8b 53 10             	mov    0x10(%rbx),%edx
 45ef6d3:	81 fa b8 cd 78 07    	cmp    $0x778cdb8,%edx
 45ef6d9:	0f 85 91 00 00 00    	jne    45ef770 <github.com/google/uuid.(*UUID).Scan@@Base+0xd0>
 45ef6df:	48 8d 15 ba ef 1b 01 	lea    0x11befba(%rip),%rdx        # 57ae6a0 <type:string@@Base>
 45ef6e6:	48 39 d3             	cmp    %rdx,%rbx
 45ef6e9:	0f 85 02 01 00 00    	jne    45ef7f1 <github.com/google/uuid.(*UUID).Scan@@Base+0x151>
 45ef6ef:	48 8b 59 08          	mov    0x8(%rcx),%rbx
 45ef6f3:	48 8b 09             	mov    (%rcx),%rcx
 45ef6f6:	48 85 db             	test   %rbx,%rbx
 45ef6f9:	74 67                	je     45ef762 <github.com/google/uuid.(*UUID).Scan@@Base+0xc2>
 45ef6fb:	48 89 c8             	mov    %rcx,%rax
 45ef6fe:	66 90                	xchg   %ax,%ax
 45ef700:	e8 9b 03 00 00       	call   45efaa0 <github.com/google/uuid.Parse@@Base>
 45ef705:	0f 10 04 24          	movups (%rsp),%xmm0
 45ef709:	0f 11 44 24 28       	movups %xmm0,0x28(%rsp)
 45ef70e:	48 85 c0             	test   %rax,%rax
 45ef711:	74 3e                	je     45ef751 <github.com/google/uuid.(*UUID).Scan@@Base+0xb1>
 45ef713:	44 0f 11 7c 24 38    	movups %xmm15,0x38(%rsp)
 45ef719:	74 04                	je     45ef71f <github.com/google/uuid.(*UUID).Scan@@Base+0x7f>
 45ef71b:	48 8b 40 08          	mov    0x8(%rax),%rax
 45ef71f:	48 89 44 24 38       	mov    %rax,0x38(%rsp)
 45ef724:	48 89 5c 24 40       	mov    %rbx,0x40(%rsp)
 45ef729:	48 8d 05 55 32 67 00 	lea    0x673255(%rip),%rax        # 4c62985 <_IO_stdin_used@@Base+0x2f985>
 45ef730:	bb 08 00 00 00       	mov    $0x8,%ebx
 45ef735:	48 8d 4c 24 38       	lea    0x38(%rsp),%rcx
 45ef73a:	bf 01 00 00 00       	mov    $0x1,%edi
 45ef73f:	48 89 fe             	mov    %rdi,%rsi
 45ef742:	e8 19 1b a0 fd       	call   1ff1260 <fmt.Errorf@@Base>
 45ef747:	48 8b 6c 24 48       	mov    0x48(%rsp),%rbp
 45ef74c:	48 83 c4 50          	add    $0x50,%rsp
 45ef750:	c3                   	ret
 45ef751:	0f 10 44 24 28       	movups 0x28(%rsp),%xmm0
 45ef756:	48 8b 4c 24 58       	mov    0x58(%rsp),%rcx
 45ef75b:	0f 11 01             	movups %xmm0,(%rcx)
 45ef75e:	66 90                	xchg   %ax,%ax
 45ef760:	eb 42                	jmp    45ef7a4 <github.com/google/uuid.(*UUID).Scan@@Base+0x104>
 45ef762:	31 c0                	xor    %eax,%eax
 45ef764:	31 db                	xor    %ebx,%ebx
 45ef766:	48 8b 6c 24 48       	mov    0x48(%rsp),%rbp
 45ef76b:	48 83 c4 50          	add    $0x50,%rsp
 45ef76f:	c3                   	ret
 45ef770:	81 fa 65 40 04 81    	cmp    $0x81044065,%edx
 45ef776:	75 79                	jne    45ef7f1 <github.com/google/uuid.(*UUID).Scan@@Base+0x151>
 45ef778:	48 8d 15 a1 f1 14 01 	lea    0x114f1a1(%rip),%rdx        # 573e920 <type:[]uint8@@Base>
 45ef77f:	90                   	nop
 45ef780:	48 39 d3             	cmp    %rdx,%rbx
 45ef783:	75 6c                	jne    45ef7f1 <github.com/google/uuid.(*UUID).Scan@@Base+0x151>
 45ef785:	48 8b 51 08          	mov    0x8(%rcx),%rdx
 45ef789:	48 8b 19             	mov    (%rcx),%rbx
 45ef78c:	48 85 d2             	test   %rdx,%rdx
 45ef78f:	74 52                	je     45ef7e3 <github.com/google/uuid.(*UUID).Scan@@Base+0x143>
 45ef791:	48 83 fa 10          	cmp    $0x10,%rdx
 45ef795:	75 1b                	jne    45ef7b2 <github.com/google/uuid.(*UUID).Scan@@Base+0x112>
 45ef797:	84 00                	test   %al,(%rax)
 45ef799:	48 39 d8             	cmp    %rbx,%rax
 45ef79c:	74 06                	je     45ef7a4 <github.com/google/uuid.(*UUID).Scan@@Base+0x104>
 45ef79e:	0f 10 03             	movups (%rbx),%xmm0
 45ef7a1:	0f 11 00             	movups %xmm0,(%rax)
 45ef7a4:	31 c0                	xor    %eax,%eax
 45ef7a6:	31 db                	xor    %ebx,%ebx
 45ef7a8:	48 8b 6c 24 48       	mov    0x48(%rsp),%rbp
 45ef7ad:	48 83 c4 50          	add    $0x50,%rsp
 45ef7b1:	c3                   	ret
 45ef7b2:	31 c0                	xor    %eax,%eax
 45ef7b4:	48 89 d1             	mov    %rdx,%rcx
 45ef7b7:	e8 04 af 94 fd       	call   1f3a6c0 <runtime.slicebytetostring@@Base>
 45ef7bc:	0f 1f 40 00          	nopl   0x0(%rax)
 45ef7c0:	e8 9b e5 8f fd       	call   1eedd60 <runtime.convTstring@@Base>
 45ef7c5:	48 8d 1d d4 ee 1b 01 	lea    0x11beed4(%rip),%rbx        # 57ae6a0 <type:string@@Base>
 45ef7cc:	48 89 c1             	mov    %rax,%rcx
 45ef7cf:	48 8b 44 24 58       	mov    0x58(%rsp),%rax
 45ef7d4:	e8 c7 fe ff ff       	call   45ef6a0 <github.com/google/uuid.(*UUID).Scan@@Base>
 45ef7d9:	48 8b 6c 24 48       	mov    0x48(%rsp),%rbp
 45ef7de:	48 83 c4 50          	add    $0x50,%rsp
 45ef7e2:	c3                   	ret
 45ef7e3:	31 c0                	xor    %eax,%eax
 45ef7e5:	31 db                	xor    %ebx,%ebx
 45ef7e7:	48 8b 6c 24 48       	mov    0x48(%rsp),%rbp
 45ef7ec:	48 83 c4 50          	add    $0x50,%rsp
 45ef7f0:	c3                   	ret
 45ef7f1:	44 0f 11 7c 24 38    	movups %xmm15,0x38(%rsp)
 45ef7f7:	48 89 5c 24 38       	mov    %rbx,0x38(%rsp)
 45ef7fc:	48 89 4c 24 40       	mov    %rcx,0x40(%rsp)
 45ef801:	48 8d 05 f0 07 82 00 	lea    0x8207f0(%rip),%rax        # 4e0fff8 <_IO_stdin_used@@Base+0x1dcff8>
 45ef808:	bb 26 00 00 00       	mov    $0x26,%ebx
 45ef80d:	48 8d 4c 24 38       	lea    0x38(%rsp),%rcx
 45ef812:	bf 01 00 00 00       	mov    $0x1,%edi
 45ef817:	48 89 fe             	mov    %rdi,%rsi
 45ef81a:	e8 41 1a a0 fd       	call   1ff1260 <fmt.Errorf@@Base>
 45ef81f:	48 8b 6c 24 48       	mov    0x48(%rsp),%rbp
 45ef824:	48 83 c4 50          	add    $0x50,%rsp
 45ef828:	c3                   	ret
 45ef829:	31 c0                	xor    %eax,%eax
 45ef82b:	31 db                	xor    %ebx,%ebx
 45ef82d:	48 8b 6c 24 48       	mov    0x48(%rsp),%rbp
 45ef832:	48 83 c4 50          	add    $0x50,%rsp
 45ef836:	c3                   	ret
 45ef837:	48 89 44 24 08       	mov    %rax,0x8(%rsp)
 45ef83c:	48 89 5c 24 10       	mov    %rbx,0x10(%rsp)
 45ef841:	48 89 4c 24 18       	mov    %rcx,0x18(%rsp)
 45ef846:	e8 15 4c 96 fd       	call   1f54460 <runtime.morestack_noctxt.abi0@@Base>
 45ef84b:	48 8b 44 24 08       	mov    0x8(%rsp),%rax
 45ef850:	48 8b 5c 24 10       	mov    0x10(%rsp),%rbx
 45ef855:	48 8b 4c 24 18       	mov    0x18(%rsp),%rcx
 45ef85a:	e9 41 fe ff ff       	jmp    45ef6a0 <github.com/google/uuid.(*UUID).Scan@@Base>
 45ef85f:	cc                   	int3

00000000045ef860 <github.com/google/uuid.UUID.Value@@Base>:
 45ef860:	49 3b 66 10          	cmp    0x10(%r14),%rsp
 45ef864:	76 77                	jbe    45ef8dd <github.com/google/uuid.UUID.Value@@Base+0x7d>
 45ef866:	48 83 ec 68          	sub    $0x68,%rsp
 45ef86a:	48 89 6c 24 60       	mov    %rbp,0x60(%rsp)
 45ef86f:	48 8d 6c 24 60       	lea    0x60(%rsp),%rbp
 45ef874:	0f 10 44 24 70       	movups 0x70(%rsp),%xmm0
 45ef879:	0f 11 44 24 2c       	movups %xmm0,0x2c(%rsp)
 45ef87e:	44 0f 11 7c 24 3c    	movups %xmm15,0x3c(%rsp)
 45ef884:	44 0f 11 7c 24 40    	movups %xmm15,0x40(%rsp)
 45ef88a:	44 0f 11 7c 24 50    	movups %xmm15,0x50(%rsp)
 45ef890:	0f 10 44 24 2c       	movups 0x2c(%rsp),%xmm0
 45ef895:	0f 11 04 24          	movups %xmm0,(%rsp)
 45ef899:	48 8d 44 24 3c       	lea    0x3c(%rsp),%rax
 45ef89e:	bb 24 00 00 00       	mov    $0x24,%ebx
 45ef8a3:	48 89 d9             	mov    %rbx,%rcx
 45ef8a6:	e8 b5 0b 00 00       	call   45f0460 <github.com/google/uuid.encodeHex@@Base>
 45ef8ab:	31 c0                	xor    %eax,%eax
 45ef8ad:	48 8d 5c 24 3c       	lea    0x3c(%rsp),%rbx
 45ef8b2:	b9 24 00 00 00       	mov    $0x24,%ecx
 45ef8b7:	e8 04 ae 94 fd       	call   1f3a6c0 <runtime.slicebytetostring@@Base>
 45ef8bc:	0f 1f 40 00          	nopl   0x0(%rax)
 45ef8c0:	e8 9b e4 8f fd       	call   1eedd60 <runtime.convTstring@@Base>
 45ef8c5:	48 89 c3             	mov    %rax,%rbx
 45ef8c8:	31 c9                	xor    %ecx,%ecx
 45ef8ca:	31 ff                	xor    %edi,%edi
 45ef8cc:	48 8d 05 cd ed 1b 01 	lea    0x11bedcd(%rip),%rax        # 57ae6a0 <type:string@@Base>
 45ef8d3:	48 8b 6c 24 60       	mov    0x60(%rsp),%rbp
 45ef8d8:	48 83 c4 68          	add    $0x68,%rsp
 45ef8dc:	c3                   	ret
 45ef8dd:	0f 1f 00             	nopl   (%rax)
 45ef8e0:	e8 7b 4b 96 fd       	call   1f54460 <runtime.morestack_noctxt.abi0@@Base>
 45ef8e5:	e9 76 ff ff ff       	jmp    45ef860 <github.com/google/uuid.UUID.Value@@Base>
 45ef8ea:	cc                   	int3
 45ef8eb:	cc                   	int3
 45ef8ec:	cc                   	int3
 45ef8ed:	cc                   	int3
 45ef8ee:	cc                   	int3
 45ef8ef:	cc                   	int3
 45ef8f0:	cc                   	int3
 45ef8f1:	cc                   	int3
 45ef8f2:	cc                   	int3
 45ef8f3:	cc                   	int3
 45ef8f4:	cc                   	int3
 45ef8f5:	cc                   	int3
 45ef8f6:	cc                   	int3
 45ef8f7:	cc                   	int3
 45ef8f8:	cc                   	int3
 45ef8f9:	cc                   	int3
 45ef8fa:	cc                   	int3
 45ef8fb:	cc                   	int3
 45ef8fc:	cc                   	int3
 45ef8fd:	cc                   	int3
 45ef8fe:	cc                   	int3
 45ef8ff:	cc                   	int3

00000000045ef900 <github.com/google/uuid.Time.UnixTime@@Base>:
 45ef900:	48 b9 00 c0 7e ec 2d 	movabs $0xfe4de22dec7ec000,%rcx
 45ef907:	e2 4d fe 
 45ef90a:	48 8d 14 01          	lea    (%rcx,%rax,1),%rdx
 45ef90e:	48 89 c3             	mov    %rax,%rbx
 45ef911:	48 b8 bd 42 7a e5 d5 	movabs $0xd6bf94d5e57a42bd,%rax
 45ef918:	94 bf d6 
 45ef91b:	48 89 d6             	mov    %rdx,%rsi
 45ef91e:	48 f7 ea             	imul   %rdx
 45ef921:	48 01 da             	add    %rbx,%rdx
 45ef924:	48 8d 04 0a          	lea    (%rdx,%rcx,1),%rax
 45ef928:	48 c1 f8 17          	sar    $0x17,%rax
 45ef92c:	48 c1 fe 3f          	sar    $0x3f,%rsi
 45ef930:	48 29 f0             	sub    %rsi,%rax
 45ef933:	48 69 d0 80 96 98 00 	imul   $0x989680,%rax,%rdx
 45ef93a:	48 29 d3             	sub    %rdx,%rbx
 45ef93d:	48 01 d9             	add    %rbx,%rcx
 45ef940:	48 6b d9 64          	imul   $0x64,%rcx,%rbx
 45ef944:	c3                   	ret
 45ef945:	cc                   	int3
 45ef946:	cc                   	int3
 45ef947:	cc                   	int3
 45ef948:	cc                   	int3
 45ef949:	cc                   	int3
 45ef94a:	cc                   	int3
 45ef94b:	cc                   	int3
 45ef94c:	cc                   	int3
 45ef94d:	cc                   	int3
 45ef94e:	cc                   	int3
 45ef94f:	cc                   	int3
 45ef950:	cc                   	int3
 45ef951:	cc                   	int3
 45ef952:	cc                   	int3
 45ef953:	cc                   	int3
 45ef954:	cc                   	int3
 45ef955:	cc                   	int3
 45ef956:	cc                   	int3
 45ef957:	cc                   	int3
 45ef958:	cc                   	int3
 45ef959:	cc                   	int3
 45ef95a:	cc                   	int3
 45ef95b:	cc                   	int3
 45ef95c:	cc                   	int3
 45ef95d:	cc                   	int3
 45ef95e:	cc                   	int3
 45ef95f:	cc                   	int3

00000000045ef960 <github.com/google/uuid.UUID.Time@@Base>:
 45ef960:	48 83 ec 18          	sub    $0x18,%rsp
 45ef964:	48 89 6c 24 10       	mov    %rbp,0x10(%rsp)
 45ef969:	48 8d 6c 24 10       	lea    0x10(%rsp),%rbp
 45ef96e:	0f 10 44 24 20       	movups 0x20(%rsp),%xmm0
 45ef973:	0f 11 04 24          	movups %xmm0,(%rsp)
 45ef977:	0f b6 4c 24 06       	movzbl 0x6(%rsp),%ecx
 45ef97c:	c0 e9 04             	shr    $0x4,%cl
 45ef97f:	90                   	nop
 45ef980:	80 f9 06             	cmp    $0x6,%cl
 45ef983:	75 0b                	jne    45ef990 <github.com/google/uuid.UUID.Time@@Base+0x30>
 45ef985:	90                   	nop
 45ef986:	48 8b 4c 24 20       	mov    0x20(%rsp),%rcx
 45ef98b:	48 0f c9             	bswap  %rcx
 45ef98e:	eb 59                	jmp    45ef9e9 <github.com/google/uuid.UUID.Time@@Base+0x89>
 45ef990:	80 f9 07             	cmp    $0x7,%cl
 45ef993:	75 24                	jne    45ef9b9 <github.com/google/uuid.UUID.Time@@Base+0x59>
 45ef995:	90                   	nop
 45ef996:	48 8b 54 24 20       	mov    0x20(%rsp),%rdx
 45ef99b:	48 0f ca             	bswap  %rdx
 45ef99e:	48 c1 ea 10          	shr    $0x10,%rdx
 45ef9a2:	48 69 d2 10 27 00 00 	imul   $0x2710,%rdx,%rdx
 45ef9a9:	48 bb 00 40 81 13 d2 	movabs $0x1b21dd213814000,%rbx
 45ef9b0:	1d b2 01 
 45ef9b3:	48 8d 0c 1a          	lea    (%rdx,%rbx,1),%rcx
 45ef9b7:	eb 30                	jmp    45ef9e9 <github.com/google/uuid.UUID.Time@@Base+0x89>
 45ef9b9:	90                   	nop
 45ef9ba:	0f b7 54 24 24       	movzwl 0x24(%rsp),%edx
 45ef9bf:	66 c1 c2 08          	rol    $0x8,%dx
 45ef9c3:	0f b7 ca             	movzwl %dx,%ecx
 45ef9c6:	48 c1 e1 20          	shl    $0x20,%rcx
 45ef9ca:	8b 54 24 20          	mov    0x20(%rsp),%edx
 45ef9ce:	0f ca                	bswap  %edx
 45ef9d0:	48 09 d1             	or     %rdx,%rcx
 45ef9d3:	0f b7 54 24 26       	movzwl 0x26(%rsp),%edx
 45ef9d8:	66 c1 c2 08          	rol    $0x8,%dx
 45ef9dc:	81 e2 ff 0f 00 00    	and    $0xfff,%edx
 45ef9e2:	48 c1 e2 30          	shl    $0x30,%rdx
 45ef9e6:	48 09 d1             	or     %rdx,%rcx
 45ef9e9:	48 89 c8             	mov    %rcx,%rax
 45ef9ec:	48 8b 6c 24 10       	mov    0x10(%rsp),%rbp
 45ef9f1:	48 83 c4 18          	add    $0x18,%rsp
 45ef9f5:	c3                   	ret
 45ef9f6:	cc                   	int3
 45ef9f7:	cc                   	int3
 45ef9f8:	cc                   	int3
 45ef9f9:	cc                   	int3
 45ef9fa:	cc                   	int3
 45ef9fb:	cc                   	int3
 45ef9fc:	cc                   	int3
 45ef9fd:	cc                   	int3
 45ef9fe:	cc                   	int3
 45ef9ff:	cc                   	int3

00000000045efa00 <github.com/google/uuid.UUID.ClockSequence@@Base>:
 45efa00:	0f b7 4c 24 10       	movzwl 0x10(%rsp),%ecx
 45efa05:	66 c1 c1 08          	rol    $0x8,%cx
 45efa09:	0f b7 c1             	movzwl %cx,%eax
 45efa0c:	25 ff 3f 00 00       	and    $0x3fff,%eax
 45efa11:	c3                   	ret
 45efa12:	cc                   	int3
 45efa13:	cc                   	int3
 45efa14:	cc                   	int3
 45efa15:	cc                   	int3
 45efa16:	cc                   	int3
 45efa17:	cc                   	int3
 45efa18:	cc                   	int3
 45efa19:	cc                   	int3
 45efa1a:	cc                   	int3
 45efa1b:	cc                   	int3
 45efa1c:	cc                   	int3
 45efa1d:	cc                   	int3
 45efa1e:	cc                   	int3
 45efa1f:	cc                   	int3

00000000045efa20 <github.com/google/uuid.invalidLengthError.Error@@Base>:
 45efa20:	49 3b 66 10          	cmp    0x10(%r14),%rsp
 45efa24:	76 52                	jbe    45efa78 <github.com/google/uuid.invalidLengthError.Error@@Base+0x58>
 45efa26:	48 83 ec 40          	sub    $0x40,%rsp
 45efa2a:	48 89 6c 24 38       	mov    %rbp,0x38(%rsp)
 45efa2f:	48 8d 6c 24 38       	lea    0x38(%rsp),%rbp
 45efa34:	44 0f 11 7c 24 28    	movups %xmm15,0x28(%rsp)
 45efa3a:	e8 a1 e2 8f fd       	call   1eedce0 <runtime.convT64@@Base>
 45efa3f:	48 8d 0d 1a ac 1b 01 	lea    0x11bac1a(%rip),%rcx        # 57aa660 <type:int@@Base>
 45efa46:	48 89 4c 24 28       	mov    %rcx,0x28(%rsp)
 45efa4b:	48 89 44 24 30       	mov    %rax,0x30(%rsp)
 45efa50:	48 8d 05 9a 5e 7e 00 	lea    0x7e5e9a(%rip),%rax        # 4dd58f1 <_IO_stdin_used@@Base+0x1a28f1>
 45efa57:	bb 17 00 00 00       	mov    $0x17,%ebx
 45efa5c:	48 8d 4c 24 28       	lea    0x28(%rsp),%rcx
 45efa61:	bf 01 00 00 00       	mov    $0x1,%edi
 45efa66:	48 89 fe             	mov    %rdi,%rsi
 45efa69:	e8 92 4e a0 fd       	call   1ff4900 <fmt.Sprintf@@Base>
 45efa6e:	48 8b 6c 24 38       	mov    0x38(%rsp),%rbp
 45efa73:	48 83 c4 40          	add    $0x40,%rsp
 45efa77:	c3                   	ret
 45efa78:	48 89 44 24 08       	mov    %rax,0x8(%rsp)
 45efa7d:	0f 1f 00             	nopl   (%rax)
 45efa80:	e8 db 49 96 fd       	call   1f54460 <runtime.morestack_noctxt.abi0@@Base>
 45efa85:	48 8b 44 24 08       	mov    0x8(%rsp),%rax
 45efa8a:	eb 94                	jmp    45efa20 <github.com/google/uuid.invalidLengthError.Error@@Base>
 45efa8c:	cc                   	int3
 45efa8d:	cc                   	int3
 45efa8e:	cc                   	int3
 45efa8f:	cc                   	int3
 45efa90:	cc                   	int3
 45efa91:	cc                   	int3
 45efa92:	cc                   	int3
 45efa93:	cc                   	int3
 45efa94:	cc                   	int3
 45efa95:	cc                   	int3
 45efa96:	cc                   	int3
 45efa97:	cc                   	int3
 45efa98:	cc                   	int3
 45efa99:	cc                   	int3
 45efa9a:	cc                   	int3
 45efa9b:	cc                   	int3
 45efa9c:	cc                   	int3
 45efa9d:	cc                   	int3
 45efa9e:	cc                   	int3
 45efa9f:	cc                   	int3

00000000045efaa0 <github.com/google/uuid.Parse@@Base>:
 45efaa0:	4c 8d 64 24 b0       	lea    -0x50(%rsp),%r12
 45efaa5:	4d 3b 66 10          	cmp    0x10(%r14),%r12
 45efaa9:	0f 86 04 04 00 00    	jbe    45efeb3 <github.com/google/uuid.Parse@@Base+0x413>
 45efaaf:	48 81 ec d0 00 00 00 	sub    $0xd0,%rsp
 45efab6:	48 89 ac 24 c8 00 00 	mov    %rbp,0xc8(%rsp)
 45efabd:	00 
 45efabe:	48 8d ac 24 c8 00 00 	lea    0xc8(%rsp),%rbp
 45efac5:	00 
 45efac6:	48 89 84 24 e8 00 00 	mov    %rax,0xe8(%rsp)
 45efacd:	00 
 45eface:	44 0f 11 bc 24 d8 00 	movups %xmm15,0xd8(%rsp)
 45efad5:	00 00 
 45efad7:	44 0f 11 7c 24 28    	movups %xmm15,0x28(%rsp)
 45efadd:	0f 1f 00             	nopl   (%rax)
 45efae0:	48 83 fb 24          	cmp    $0x24,%rbx
 45efae4:	7f 1a                	jg     45efb00 <github.com/google/uuid.Parse@@Base+0x60>
 45efae6:	48 83 fb 20          	cmp    $0x20,%rbx
 45efaea:	75 07                	jne    45efaf3 <github.com/google/uuid.Parse@@Base+0x53>
 45efaec:	31 c9                	xor    %ecx,%ecx
 45efaee:	e9 cd 02 00 00       	jmp    45efdc0 <github.com/google/uuid.Parse@@Base+0x320>
 45efaf3:	48 83 fb 24          	cmp    $0x24,%rbx
 45efaf7:	74 56                	je     45efb4f <github.com/google/uuid.Parse@@Base+0xaf>
 45efaf9:	e9 71 01 00 00       	jmp    45efc6f <github.com/google/uuid.Parse@@Base+0x1cf>
 45efafe:	66 90                	xchg   %ax,%ax
 45efb00:	48 83 fb 26          	cmp    $0x26,%rbx
 45efb04:	75 0a                	jne    45efb10 <github.com/google/uuid.Parse@@Base+0x70>
 45efb06:	48 ff c0             	inc    %rax
 45efb09:	bb 25 00 00 00       	mov    $0x25,%ebx
 45efb0e:	eb 3f                	jmp    45efb4f <github.com/google/uuid.Parse@@Base+0xaf>
 45efb10:	48 83 fb 2d          	cmp    $0x2d,%rbx
 45efb14:	0f 85 55 01 00 00    	jne    45efc6f <github.com/google/uuid.Parse@@Base+0x1cf>
 45efb1a:	48 89 84 24 e8 00 00 	mov    %rax,0xe8(%rsp)
 45efb21:	00 
 45efb22:	bb 09 00 00 00       	mov    $0x9,%ebx
 45efb27:	48 8d 0d 10 75 67 00 	lea    0x677510(%rip),%rcx        # 4c6703e <_IO_stdin_used@@Base+0x3403e>
 45efb2e:	48 89 df             	mov    %rbx,%rdi
 45efb31:	e8 ea aa a1 fd       	call   200a620 <strings.EqualFold@@Base>
 45efb36:	84 c0                	test   %al,%al
 45efb38:	0f 84 c1 00 00 00    	je     45efbff <github.com/google/uuid.Parse@@Base+0x15f>
 45efb3e:	48 8b 84 24 e8 00 00 	mov    0xe8(%rsp),%rax
 45efb45:	00 
 45efb46:	48 83 c0 09          	add    $0x9,%rax
 45efb4a:	bb 24 00 00 00       	mov    $0x24,%ebx
 45efb4f:	48 83 fb 08          	cmp    $0x8,%rbx
 45efb53:	0f 86 4c 02 00 00    	jbe    45efda5 <github.com/google/uuid.Parse@@Base+0x305>
 45efb59:	80 78 08 2d          	cmpb   $0x2d,0x8(%rax)
 45efb5d:	75 5b                	jne    45efbba <github.com/google/uuid.Parse@@Base+0x11a>
 45efb5f:	90                   	nop
 45efb60:	48 83 fb 0d          	cmp    $0xd,%rbx
 45efb64:	0f 86 2b 02 00 00    	jbe    45efd95 <github.com/google/uuid.Parse@@Base+0x2f5>
 45efb6a:	80 78 0d 2d          	cmpb   $0x2d,0xd(%rax)
 45efb6e:	75 4a                	jne    45efbba <github.com/google/uuid.Parse@@Base+0x11a>
 45efb70:	48 83 fb 12          	cmp    $0x12,%rbx
 45efb74:	0f 86 0e 02 00 00    	jbe    45efd88 <github.com/google/uuid.Parse@@Base+0x2e8>
 45efb7a:	80 78 12 2d          	cmpb   $0x2d,0x12(%rax)
 45efb7e:	66 90                	xchg   %ax,%ax
 45efb80:	75 38                	jne    45efbba <github.com/google/uuid.Parse@@Base+0x11a>
 45efb82:	48 83 fb 17          	cmp    $0x17,%rbx
 45efb86:	0f 86 ef 01 00 00    	jbe    45efd7b <github.com/google/uuid.Parse@@Base+0x2db>
 45efb8c:	80 78 17 2d          	cmpb   $0x2d,0x17(%rax)
 45efb90:	75 28                	jne    45efbba <github.com/google/uuid.Parse@@Base+0x11a>
 45efb92:	48 8d 7c 24 38       	lea    0x38(%rsp),%rdi
 45efb97:	48 8d 35 62 2f ef 00 	lea    0xef2f62(%rip),%rsi        # 54e2b00 <github.com/elastic/beats/v7/libbeat/version.commit.str@@Base+0x920>
 45efb9e:	66 90                	xchg   %ax,%ax
 45efba0:	48 89 6c 24 f0       	mov    %rbp,-0x10(%rsp)
 45efba5:	48 8d 6c 24 f0       	lea    -0x10(%rsp),%rbp
 45efbaa:	e8 61 75 96 fd       	call   1f57110 <runtime.duffcopy@@Base+0x310>
 45efbaf:	48 8b 6d 00          	mov    0x0(%rbp),%rbp
 45efbb3:	31 c9                	xor    %ecx,%ecx
 45efbb5:	e9 ec 00 00 00       	jmp    45efca6 <github.com/google/uuid.Parse@@Base+0x206>
 45efbba:	48 8d 05 3f 47 48 01 	lea    0x148473f(%rip),%rax        # 5a74300 <type:hE5I1The@@Base>
 45efbc1:	e8 1a 09 90 fd       	call   1ef04e0 <runtime.newobject@@Base>
 45efbc6:	48 c7 40 08 13 00 00 	movq   $0x13,0x8(%rax)
 45efbcd:	00 
 45efbce:	48 8d 0d 2e 56 7d 00 	lea    0x7d562e(%rip),%rcx        # 4dc5203 <_IO_stdin_used@@Base+0x192203>
 45efbd5:	48 89 08             	mov    %rcx,(%rax)
 45efbd8:	0f 10 44 24 28       	movups 0x28(%rsp),%xmm0
 45efbdd:	0f 11 84 24 d8 00 00 	movups %xmm0,0xd8(%rsp)
 45efbe4:	00 
 45efbe5:	48 89 c3             	mov    %rax,%rbx
 45efbe8:	48 8d 05 d1 e2 90 01 	lea    0x190e2d1(%rip),%rax        # 5efdec0 <go:itab.*errors.errorString,error@@Base>
 45efbef:	48 8b ac 24 c8 00 00 	mov    0xc8(%rsp),%rbp
 45efbf6:	00 
 45efbf7:	48 81 c4 d0 00 00 00 	add    $0xd0,%rsp
 45efbfe:	c3                   	ret
 45efbff:	44 0f 11 bc 24 b8 00 	movups %xmm15,0xb8(%rsp)
 45efc06:	00 00 
 45efc08:	48 8b 84 24 e8 00 00 	mov    0xe8(%rsp),%rax
 45efc0f:	00 
 45efc10:	bb 09 00 00 00       	mov    $0x9,%ebx
 45efc15:	e8 46 e1 8f fd       	call   1eedd60 <runtime.convTstring@@Base>
 45efc1a:	48 8d 0d 7f ea 1b 01 	lea    0x11bea7f(%rip),%rcx        # 57ae6a0 <type:string@@Base>
 45efc21:	48 89 8c 24 b8 00 00 	mov    %rcx,0xb8(%rsp)
 45efc28:	00 
 45efc29:	48 89 84 24 c0 00 00 	mov    %rax,0xc0(%rsp)
 45efc30:	00 
 45efc31:	48 8d 05 3f 1f 7e 00 	lea    0x7e1f3f(%rip),%rax        # 4dd1b77 <_IO_stdin_used@@Base+0x19eb77>
 45efc38:	bb 16 00 00 00       	mov    $0x16,%ebx
 45efc3d:	48 8d 8c 24 b8 00 00 	lea    0xb8(%rsp),%rcx
 45efc44:	00 
 45efc45:	bf 01 00 00 00       	mov    $0x1,%edi
 45efc4a:	48 89 fe             	mov    %rdi,%rsi
 45efc4d:	e8 0e 16 a0 fd       	call   1ff1260 <fmt.Errorf@@Base>
 45efc52:	0f 10 44 24 28       	movups 0x28(%rsp),%xmm0
 45efc57:	0f 11 84 24 d8 00 00 	movups %xmm0,0xd8(%rsp)
 45efc5e:	00 
 45efc5f:	48 8b ac 24 c8 00 00 	mov    0xc8(%rsp),%rbp
 45efc66:	00 
 45efc67:	48 81 c4 d0 00 00 00 	add    $0xd0,%rsp
 45efc6e:	c3                   	ret
 45efc6f:	44 0f 11 bc 24 d8 00 	movups %xmm15,0xd8(%rsp)
 45efc76:	00 00 
 45efc78:	48 89 d8             	mov    %rbx,%rax
 45efc7b:	0f 1f 44 00 00       	nopl   0x0(%rax,%rax,1)
 45efc80:	e8 5b e0 8f fd       	call   1eedce0 <runtime.convT64@@Base>
 45efc85:	48 89 c3             	mov    %rax,%rbx
 45efc88:	48 8d 05 f1 7a 91 01 	lea    0x1917af1(%rip),%rax        # 5f07780 <go:itab.github.com/google/uuid.invalidLengthError,error@@Base>
 45efc8f:	48 8b ac 24 c8 00 00 	mov    0xc8(%rsp),%rbp
 45efc96:	00 
 45efc97:	48 81 c4 d0 00 00 00 	add    $0xd0,%rsp
 45efc9e:	c3                   	ret
 45efc9f:	88 54 0c 28          	mov    %dl,0x28(%rsp,%rcx,1)
 45efca3:	48 ff c1             	inc    %rcx
 45efca6:	48 83 f9 10          	cmp    $0x10,%rcx
 45efcaa:	0f 8d 94 00 00 00    	jge    45efd44 <github.com/google/uuid.Parse@@Base+0x2a4>
 45efcb0:	48 8b 54 cc 38       	mov    0x38(%rsp,%rcx,8),%rdx
 45efcb5:	48 39 d3             	cmp    %rdx,%rbx
 45efcb8:	0f 86 b2 00 00 00    	jbe    45efd70 <github.com/google/uuid.Parse@@Base+0x2d0>
 45efcbe:	0f b6 34 10          	movzbl (%rax,%rdx,1),%esi
 45efcc2:	48 8d 7a 01          	lea    0x1(%rdx),%rdi
 45efcc6:	48 39 fb             	cmp    %rdi,%rbx
 45efcc9:	0f 86 96 00 00 00    	jbe    45efd65 <github.com/google/uuid.Parse@@Base+0x2c5>
 45efccf:	0f b6 54 02 01       	movzbl 0x1(%rdx,%rax,1),%edx
 45efcd4:	48 8d 3d 45 39 65 03 	lea    0x3653945(%rip),%rdi        # 7c43620 <github.com/google/uuid.xvalues@@Base>
 45efcdb:	0f b6 34 37          	movzbl (%rdi,%rsi,1),%esi
 45efcdf:	0f b6 14 17          	movzbl (%rdi,%rdx,1),%edx
 45efce3:	40 80 fe ff          	cmp    $0xff,%sil
 45efce7:	74 09                	je     45efcf2 <github.com/google/uuid.Parse@@Base+0x252>
 45efce9:	80 fa ff             	cmp    $0xff,%dl
 45efcec:	41 0f 95 c0          	setne  %r8b
 45efcf0:	eb 03                	jmp    45efcf5 <github.com/google/uuid.Parse@@Base+0x255>
 45efcf2:	45 31 c0             	xor    %r8d,%r8d
 45efcf5:	c1 e6 04             	shl    $0x4,%esi
 45efcf8:	09 f2                	or     %esi,%edx
 45efcfa:	45 84 c0             	test   %r8b,%r8b
 45efcfd:	75 a0                	jne    45efc9f <github.com/google/uuid.Parse@@Base+0x1ff>
 45efcff:	48 8d 05 fa 45 48 01 	lea    0x14845fa(%rip),%rax        # 5a74300 <type:hE5I1The@@Base>
 45efd06:	e8 d5 07 90 fd       	call   1ef04e0 <runtime.newobject@@Base>
 45efd0b:	48 c7 40 08 13 00 00 	movq   $0x13,0x8(%rax)
 45efd12:	00 
 45efd13:	48 8d 0d e9 54 7d 00 	lea    0x7d54e9(%rip),%rcx        # 4dc5203 <_IO_stdin_used@@Base+0x192203>
 45efd1a:	48 89 08             	mov    %rcx,(%rax)
 45efd1d:	0f 10 44 24 28       	movups 0x28(%rsp),%xmm0
 45efd22:	0f 11 84 24 d8 00 00 	movups %xmm0,0xd8(%rsp)
 45efd29:	00 
 45efd2a:	48 89 c3             	mov    %rax,%rbx
 45efd2d:	48 8d 05 8c e1 90 01 	lea    0x190e18c(%rip),%rax        # 5efdec0 <go:itab.*errors.errorString,error@@Base>
 45efd34:	48 8b ac 24 c8 00 00 	mov    0xc8(%rsp),%rbp
 45efd3b:	00 
 45efd3c:	48 81 c4 d0 00 00 00 	add    $0xd0,%rsp
 45efd43:	c3                   	ret
 45efd44:	0f 10 44 24 28       	movups 0x28(%rsp),%xmm0
 45efd49:	0f 11 84 24 d8 00 00 	movups %xmm0,0xd8(%rsp)
 45efd50:	00 
 45efd51:	31 c0                	xor    %eax,%eax
 45efd53:	31 db                	xor    %ebx,%ebx
 45efd55:	48 8b ac 24 c8 00 00 	mov    0xc8(%rsp),%rbp
 45efd5c:	00 
 45efd5d:	48 81 c4 d0 00 00 00 	add    $0xd0,%rsp
 45efd64:	c3                   	ret
 45efd65:	48 89 f8             	mov    %rdi,%rax
 45efd68:	48 89 d9             	mov    %rbx,%rcx
 45efd6b:	e8 30 6d 96 fd       	call   1f56aa0 <runtime.panicIndex@@Base>
 45efd70:	48 89 d0             	mov    %rdx,%rax
 45efd73:	48 89 d9             	mov    %rbx,%rcx
 45efd76:	e8 25 6d 96 fd       	call   1f56aa0 <runtime.panicIndex@@Base>
 45efd7b:	b8 17 00 00 00       	mov    $0x17,%eax
 45efd80:	48 89 d9             	mov    %rbx,%rcx
 45efd83:	e8 18 6d 96 fd       	call   1f56aa0 <runtime.panicIndex@@Base>
 45efd88:	b8 12 00 00 00       	mov    $0x12,%eax
 45efd8d:	48 89 d9             	mov    %rbx,%rcx
 45efd90:	e8 0b 6d 96 fd       	call   1f56aa0 <runtime.panicIndex@@Base>
 45efd95:	b8 0d 00 00 00       	mov    $0xd,%eax
 45efd9a:	48 89 d9             	mov    %rbx,%rcx
 45efd9d:	0f 1f 00             	nopl   (%rax)
 45efda0:	e8 fb 6c 96 fd       	call   1f56aa0 <runtime.panicIndex@@Base>
 45efda5:	b8 08 00 00 00       	mov    $0x8,%eax
 45efdaa:	48 89 d9             	mov    %rbx,%rcx
 45efdad:	e8 ee 6c 96 fd       	call   1f56aa0 <runtime.panicIndex@@Base>
 45efdb2:	48 8d 4a 01          	lea    0x1(%rdx),%rcx
 45efdb6:	66 0f 1f 84 00 00 00 	nopw   0x0(%rax,%rax,1)
 45efdbd:	00 00 
 45efdbf:	90                   	nop
 45efdc0:	48 83 f9 10          	cmp    $0x10,%rcx
 45efdc4:	0f 8d ac 00 00 00    	jge    45efe76 <github.com/google/uuid.Parse@@Base+0x3d6>
 45efdca:	48 89 ca             	mov    %rcx,%rdx
 45efdcd:	48 d1 e1             	shl    $1,%rcx
 45efdd0:	48 83 f9 20          	cmp    $0x20,%rcx
 45efdd4:	0f 83 cb 00 00 00    	jae    45efea5 <github.com/google/uuid.Parse@@Base+0x405>
 45efdda:	48 8d 34 50          	lea    (%rax,%rdx,2),%rsi
 45efdde:	0f b6 36             	movzbl (%rsi),%esi
 45efde1:	48 8d 3c 12          	lea    (%rdx,%rdx,1),%rdi
 45efde5:	48 8d 7f 01          	lea    0x1(%rdi),%rdi
 45efde9:	48 83 ff 20          	cmp    $0x20,%rdi
 45efded:	0f 83 a4 00 00 00    	jae    45efe97 <github.com/google/uuid.Parse@@Base+0x3f7>
 45efdf3:	48 8d 3c 50          	lea    (%rax,%rdx,2),%rdi
 45efdf7:	48 8d 7f 01          	lea    0x1(%rdi),%rdi
 45efdfb:	0f b6 3f             	movzbl (%rdi),%edi
 45efdfe:	4c 8d 05 1b 38 65 03 	lea    0x365381b(%rip),%r8        # 7c43620 <github.com/google/uuid.xvalues@@Base>
 45efe05:	41 0f b6 34 30       	movzbl (%r8,%rsi,1),%esi
 45efe0a:	42 0f b6 3c 07       	movzbl (%rdi,%r8,1),%edi
 45efe0f:	40 80 fe ff          	cmp    $0xff,%sil
 45efe13:	74 0a                	je     45efe1f <github.com/google/uuid.Parse@@Base+0x37f>
 45efe15:	40 80 ff ff          	cmp    $0xff,%dil
 45efe19:	41 0f 95 c1          	setne  %r9b
 45efe1d:	eb 03                	jmp    45efe22 <github.com/google/uuid.Parse@@Base+0x382>
 45efe1f:	45 31 c9             	xor    %r9d,%r9d
 45efe22:	c1 e6 04             	shl    $0x4,%esi
 45efe25:	09 fe                	or     %edi,%esi
 45efe27:	40 88 74 14 28       	mov    %sil,0x28(%rsp,%rdx,1)
 45efe2c:	45 84 c9             	test   %r9b,%r9b
 45efe2f:	75 81                	jne    45efdb2 <github.com/google/uuid.Parse@@Base+0x312>
 45efe31:	48 8d 05 c8 44 48 01 	lea    0x14844c8(%rip),%rax        # 5a74300 <type:hE5I1The@@Base>
 45efe38:	e8 a3 06 90 fd       	call   1ef04e0 <runtime.newobject@@Base>
 45efe3d:	48 c7 40 08 13 00 00 	movq   $0x13,0x8(%rax)
 45efe44:	00 
 45efe45:	48 8d 0d b7 53 7d 00 	lea    0x7d53b7(%rip),%rcx        # 4dc5203 <_IO_stdin_used@@Base+0x192203>
 45efe4c:	48 89 08             	mov    %rcx,(%rax)
 45efe4f:	0f 10 44 24 28       	movups 0x28(%rsp),%xmm0
 45efe54:	0f 11 84 24 d8 00 00 	movups %xmm0,0xd8(%rsp)
 45efe5b:	00 
 45efe5c:	48 89 c3             	mov    %rax,%rbx
 45efe5f:	48 8d 05 5a e0 90 01 	lea    0x190e05a(%rip),%rax        # 5efdec0 <go:itab.*errors.errorString,error@@Base>
 45efe66:	48 8b ac 24 c8 00 00 	mov    0xc8(%rsp),%rbp
 45efe6d:	00 
 45efe6e:	48 81 c4 d0 00 00 00 	add    $0xd0,%rsp
 45efe75:	c3                   	ret
 45efe76:	0f 10 44 24 28       	movups 0x28(%rsp),%xmm0
 45efe7b:	0f 11 84 24 d8 00 00 	movups %xmm0,0xd8(%rsp)
 45efe82:	00 
 45efe83:	31 c0                	xor    %eax,%eax
 45efe85:	31 db                	xor    %ebx,%ebx
 45efe87:	48 8b ac 24 c8 00 00 	mov    0xc8(%rsp),%rbp
 45efe8e:	00 
 45efe8f:	48 81 c4 d0 00 00 00 	add    $0xd0,%rsp
 45efe96:	c3                   	ret
 45efe97:	48 89 f8             	mov    %rdi,%rax
 45efe9a:	b9 20 00 00 00       	mov    $0x20,%ecx
 45efe9f:	90                   	nop
 45efea0:	e8 fb 6b 96 fd       	call   1f56aa0 <runtime.panicIndex@@Base>
 45efea5:	48 89 c8             	mov    %rcx,%rax
 45efea8:	b9 20 00 00 00       	mov    $0x20,%ecx
 45efead:	e8 ee 6b 96 fd       	call   1f56aa0 <runtime.panicIndex@@Base>
 45efeb2:	90                   	nop
 45efeb3:	48 89 44 24 18       	mov    %rax,0x18(%rsp)
 45efeb8:	48 89 5c 24 20       	mov    %rbx,0x20(%rsp)
 45efebd:	0f 1f 00             	nopl   (%rax)
 45efec0:	e8 9b 45 96 fd       	call   1f54460 <runtime.morestack_noctxt.abi0@@Base>
 45efec5:	48 8b 44 24 18       	mov    0x18(%rsp),%rax
 45efeca:	48 8b 5c 24 20       	mov    0x20(%rsp),%rbx
 45efecf:	e9 cc fb ff ff       	jmp    45efaa0 <github.com/google/uuid.Parse@@Base>
 45efed4:	cc                   	int3
 45efed5:	cc                   	int3
 45efed6:	cc                   	int3
 45efed7:	cc                   	int3
 45efed8:	cc                   	int3
 45efed9:	cc                   	int3
 45efeda:	cc                   	int3
 45efedb:	cc                   	int3
 45efedc:	cc                   	int3
 45efedd:	cc                   	int3
 45efede:	cc                   	int3
 45efedf:	cc                   	int3

00000000045efee0 <github.com/google/uuid.ParseBytes@@Base>:
 45efee0:	4c 8d 64 24 98       	lea    -0x68(%rsp),%r12
 45efee5:	4d 3b 66 10          	cmp    0x10(%r14),%r12
 45efee9:	0f 86 3a 04 00 00    	jbe    45f0329 <github.com/google/uuid.ParseBytes@@Base+0x449>
 45efeef:	48 81 ec e8 00 00 00 	sub    $0xe8,%rsp
 45efef6:	48 89 ac 24 e0 00 00 	mov    %rbp,0xe0(%rsp)
 45efefd:	00 
 45efefe:	48 8d ac 24 e0 00 00 	lea    0xe0(%rsp),%rbp
 45eff05:	00 
 45eff06:	48 89 84 24 00 01 00 	mov    %rax,0x100(%rsp)
 45eff0d:	00 
 45eff0e:	44 0f 11 bc 24 f0 00 	movups %xmm15,0xf0(%rsp)
 45eff15:	00 00 
 45eff17:	44 0f 11 7c 24 40    	movups %xmm15,0x40(%rsp)
 45eff1d:	0f 1f 00             	nopl   (%rax)
 45eff20:	48 83 fb 24          	cmp    $0x24,%rbx
 45eff24:	7f 1f                	jg     45eff45 <github.com/google/uuid.ParseBytes@@Base+0x65>
 45eff26:	48 83 fb 20          	cmp    $0x20,%rbx
 45eff2a:	75 07                	jne    45eff33 <github.com/google/uuid.ParseBytes@@Base+0x53>
 45eff2c:	31 c9                	xor    %ecx,%ecx
 45eff2e:	e9 10 03 00 00       	jmp    45f0243 <github.com/google/uuid.ParseBytes@@Base+0x363>
 45eff33:	48 83 fb 24          	cmp    $0x24,%rbx
 45eff37:	0f 84 92 00 00 00    	je     45effcf <github.com/google/uuid.ParseBytes@@Base+0xef>
 45eff3d:	0f 1f 00             	nopl   (%rax)
 45eff40:	e9 b5 01 00 00       	jmp    45f00fa <github.com/google/uuid.ParseBytes@@Base+0x21a>
 45eff45:	48 83 fb 26          	cmp    $0x26,%rbx
 45eff49:	75 0a                	jne    45eff55 <github.com/google/uuid.ParseBytes@@Base+0x75>
 45eff4b:	48 ff c0             	inc    %rax
 45eff4e:	bb 25 00 00 00       	mov    $0x25,%ebx
 45eff53:	eb 7a                	jmp    45effcf <github.com/google/uuid.ParseBytes@@Base+0xef>
 45eff55:	48 83 fb 2d          	cmp    $0x2d,%rbx
 45eff59:	0f 85 9b 01 00 00    	jne    45f00fa <github.com/google/uuid.ParseBytes@@Base+0x21a>
 45eff5f:	48 89 8c 24 10 01 00 	mov    %rcx,0x110(%rsp)
 45eff66:	00 
 45eff67:	48 89 84 24 00 01 00 	mov    %rax,0x100(%rsp)
 45eff6e:	00 
 45eff6f:	48 ba 75 72 6e 3a 75 	movabs $0x646975753a6e7275,%rdx
 45eff76:	75 69 64 
 45eff79:	48 89 54 24 37       	mov    %rdx,0x37(%rsp)
 45eff7e:	c6 44 24 3f 3a       	movb   $0x3a,0x3f(%rsp)
 45eff83:	bb 09 00 00 00       	mov    $0x9,%ebx
 45eff88:	48 8d 7c 24 37       	lea    0x37(%rsp),%rdi
 45eff8d:	48 89 de             	mov    %rbx,%rsi
 45eff90:	49 89 d8             	mov    %rbx,%r8
 45eff93:	e8 28 0b a8 fd       	call   2070ac0 <bytes.EqualFold@@Base>
 45eff98:	0f 1f 84 00 00 00 00 	nopl   0x0(%rax,%rax,1)
 45eff9f:	00 
 45effa0:	84 c0                	test   %al,%al
 45effa2:	0f 84 d7 00 00 00    	je     45f007f <github.com/google/uuid.ParseBytes@@Base+0x19f>
 45effa8:	48 8b 94 24 10 01 00 	mov    0x110(%rsp),%rdx
 45effaf:	00 
 45effb0:	48 83 c2 f7          	add    $0xfffffffffffffff7,%rdx
 45effb4:	48 f7 da             	neg    %rdx
 45effb7:	48 c1 fa 3f          	sar    $0x3f,%rdx
 45effbb:	83 e2 09             	and    $0x9,%edx
 45effbe:	4c 8b 84 24 00 01 00 	mov    0x100(%rsp),%r8
 45effc5:	00 
 45effc6:	49 8d 04 10          	lea    (%r8,%rdx,1),%rax
 45effca:	bb 24 00 00 00       	mov    $0x24,%ebx
 45effcf:	48 83 fb 08          	cmp    $0x8,%rbx
 45effd3:	0f 86 59 02 00 00    	jbe    45f0232 <github.com/google/uuid.ParseBytes@@Base+0x352>
 45effd9:	80 78 08 2d          	cmpb   $0x2d,0x8(%rax)
 45effdd:	75 5b                	jne    45f003a <github.com/google/uuid.ParseBytes@@Base+0x15a>
 45effdf:	90                   	nop
 45effe0:	48 83 fb 0d          	cmp    $0xd,%rbx
 45effe4:	0f 86 3b 02 00 00    	jbe    45f0225 <github.com/google/uuid.ParseBytes@@Base+0x345>
 45effea:	80 78 0d 2d          	cmpb   $0x2d,0xd(%rax)
 45effee:	75 4a                	jne    45f003a <github.com/google/uuid.ParseBytes@@Base+0x15a>
 45efff0:	48 83 fb 12          	cmp    $0x12,%rbx
 45efff4:	0f 86 19 02 00 00    	jbe    45f0213 <github.com/google/uuid.ParseBytes@@Base+0x333>
 45efffa:	80 78 12 2d          	cmpb   $0x2d,0x12(%rax)
 45efffe:	66 90                	xchg   %ax,%ax
 45f0000:	75 38                	jne    45f003a <github.com/google/uuid.ParseBytes@@Base+0x15a>
 45f0002:	48 83 fb 17          	cmp    $0x17,%rbx
 45f0006:	0f 86 fa 01 00 00    	jbe    45f0206 <github.com/google/uuid.ParseBytes@@Base+0x326>
 45f000c:	80 78 17 2d          	cmpb   $0x2d,0x17(%rax)
 45f0010:	75 28                	jne    45f003a <github.com/google/uuid.ParseBytes@@Base+0x15a>
 45f0012:	48 8d 7c 24 50       	lea    0x50(%rsp),%rdi
 45f0017:	48 8d 35 e2 2a ef 00 	lea    0xef2ae2(%rip),%rsi        # 54e2b00 <github.com/elastic/beats/v7/libbeat/version.commit.str@@Base+0x920>
 45f001e:	66 90                	xchg   %ax,%ax
 45f0020:	48 89 6c 24 f0       	mov    %rbp,-0x10(%rsp)
 45f0025:	48 8d 6c 24 f0       	lea    -0x10(%rsp),%rbp
 45f002a:	e8 e1 70 96 fd       	call   1f57110 <runtime.duffcopy@@Base+0x310>
 45f002f:	48 8b 6d 00          	mov    0x0(%rbp),%rbp
 45f0033:	31 c9                	xor    %ecx,%ecx
 45f0035:	e9 f2 00 00 00       	jmp    45f012c <github.com/google/uuid.ParseBytes@@Base+0x24c>
 45f003a:	48 8d 05 bf 42 48 01 	lea    0x14842bf(%rip),%rax        # 5a74300 <type:hE5I1The@@Base>
 45f0041:	e8 9a 04 90 fd       	call   1ef04e0 <runtime.newobject@@Base>
 45f0046:	48 c7 40 08 13 00 00 	movq   $0x13,0x8(%rax)
 45f004d:	00 
 45f004e:	48 8d 0d ae 51 7d 00 	lea    0x7d51ae(%rip),%rcx        # 4dc5203 <_IO_stdin_used@@Base+0x192203>
 45f0055:	48 89 08             	mov    %rcx,(%rax)
 45f0058:	0f 10 44 24 40       	movups 0x40(%rsp),%xmm0
 45f005d:	0f 11 84 24 f0 00 00 	movups %xmm0,0xf0(%rsp)
 45f0064:	00 
 45f0065:	48 89 c3             	mov    %rax,%rbx
 45f0068:	48 8d 05 51 de 90 01 	lea    0x190de51(%rip),%rax        # 5efdec0 <go:itab.*errors.errorString,error@@Base>
 45f006f:	48 8b ac 24 e0 00 00 	mov    0xe0(%rsp),%rbp
 45f0076:	00 
 45f0077:	48 81 c4 e8 00 00 00 	add    $0xe8,%rsp
 45f007e:	c3                   	ret
 45f007f:	44 0f 11 bc 24 d0 00 	movups %xmm15,0xd0(%rsp)
 45f0086:	00 00 
 45f0088:	48 8b 84 24 00 01 00 	mov    0x100(%rsp),%rax
 45f008f:	00 
 45f0090:	bb 09 00 00 00       	mov    $0x9,%ebx
 45f0095:	48 8b 8c 24 10 01 00 	mov    0x110(%rsp),%rcx
 45f009c:	00 
 45f009d:	0f 1f 00             	nopl   (%rax)
 45f00a0:	e8 5b dd 8f fd       	call   1eede00 <runtime.convTslice@@Base>
 45f00a5:	48 8d 15 74 e8 14 01 	lea    0x114e874(%rip),%rdx        # 573e920 <type:[]uint8@@Base>
 45f00ac:	48 89 94 24 d0 00 00 	mov    %rdx,0xd0(%rsp)
 45f00b3:	00 
 45f00b4:	48 89 84 24 d8 00 00 	mov    %rax,0xd8(%rsp)
 45f00bb:	00 
 45f00bc:	48 8d 05 b4 1a 7e 00 	lea    0x7e1ab4(%rip),%rax        # 4dd1b77 <_IO_stdin_used@@Base+0x19eb77>
 45f00c3:	bb 16 00 00 00       	mov    $0x16,%ebx
 45f00c8:	48 8d 8c 24 d0 00 00 	lea    0xd0(%rsp),%rcx
 45f00cf:	00 
 45f00d0:	bf 01 00 00 00       	mov    $0x1,%edi
 45f00d5:	48 89 fe             	mov    %rdi,%rsi
 45f00d8:	e8 83 11 a0 fd       	call   1ff1260 <fmt.Errorf@@Base>
 45f00dd:	0f 10 44 24 40       	movups 0x40(%rsp),%xmm0
 45f00e2:	0f 11 84 24 f0 00 00 	movups %xmm0,0xf0(%rsp)
 45f00e9:	00 
 45f00ea:	48 8b ac 24 e0 00 00 	mov    0xe0(%rsp),%rbp
 45f00f1:	00 
 45f00f2:	48 81 c4 e8 00 00 00 	add    $0xe8,%rsp
 45f00f9:	c3                   	ret
 45f00fa:	44 0f 11 bc 24 f0 00 	movups %xmm15,0xf0(%rsp)
 45f0101:	00 00 
 45f0103:	48 89 d8             	mov    %rbx,%rax
 45f0106:	e8 d5 db 8f fd       	call   1eedce0 <runtime.convT64@@Base>
 45f010b:	48 89 c3             	mov    %rax,%rbx
 45f010e:	48 8d 05 6b 76 91 01 	lea    0x191766b(%rip),%rax        # 5f07780 <go:itab.github.com/google/uuid.invalidLengthError,error@@Base>
 45f0115:	48 8b ac 24 e0 00 00 	mov    0xe0(%rsp),%rbp
 45f011c:	00 
 45f011d:	48 81 c4 e8 00 00 00 	add    $0xe8,%rsp
 45f0124:	c3                   	ret
 45f0125:	88 54 0c 40          	mov    %dl,0x40(%rsp,%rcx,1)
 45f0129:	48 ff c1             	inc    %rcx
 45f012c:	48 83 f9 10          	cmp    $0x10,%rcx
 45f0130:	0f 8d 99 00 00 00    	jge    45f01cf <github.com/google/uuid.ParseBytes@@Base+0x2ef>
 45f0136:	48 8b 54 cc 50       	mov    0x50(%rsp,%rcx,8),%rdx
 45f013b:	0f 1f 44 00 00       	nopl   0x0(%rax,%rax,1)
 45f0140:	48 39 d3             	cmp    %rdx,%rbx
 45f0143:	0f 86 b2 00 00 00    	jbe    45f01fb <github.com/google/uuid.ParseBytes@@Base+0x31b>
 45f0149:	0f b6 34 10          	movzbl (%rax,%rdx,1),%esi
 45f014d:	48 8d 7a 01          	lea    0x1(%rdx),%rdi
 45f0151:	48 39 fb             	cmp    %rdi,%rbx
 45f0154:	0f 86 96 00 00 00    	jbe    45f01f0 <github.com/google/uuid.ParseBytes@@Base+0x310>
 45f015a:	0f b6 54 10 01       	movzbl 0x1(%rax,%rdx,1),%edx
 45f015f:	48 8d 3d ba 34 65 03 	lea    0x36534ba(%rip),%rdi        # 7c43620 <github.com/google/uuid.xvalues@@Base>
 45f0166:	0f b6 34 37          	movzbl (%rdi,%rsi,1),%esi
 45f016a:	0f b6 14 17          	movzbl (%rdi,%rdx,1),%edx
 45f016e:	40 80 fe ff          	cmp    $0xff,%sil
 45f0172:	74 09                	je     45f017d <github.com/google/uuid.ParseBytes@@Base+0x29d>
 45f0174:	80 fa ff             	cmp    $0xff,%dl
 45f0177:	41 0f 95 c0          	setne  %r8b
 45f017b:	eb 03                	jmp    45f0180 <github.com/google/uuid.ParseBytes@@Base+0x2a0>
 45f017d:	45 31 c0             	xor    %r8d,%r8d
 45f0180:	c1 e6 04             	shl    $0x4,%esi
 45f0183:	09 f2                	or     %esi,%edx
 45f0185:	45 84 c0             	test   %r8b,%r8b
 45f0188:	75 9b                	jne    45f0125 <github.com/google/uuid.ParseBytes@@Base+0x245>
 45f018a:	48 8d 05 6f 41 48 01 	lea    0x148416f(%rip),%rax        # 5a74300 <type:hE5I1The@@Base>
 45f0191:	e8 4a 03 90 fd       	call   1ef04e0 <runtime.newobject@@Base>
 45f0196:	48 c7 40 08 13 00 00 	movq   $0x13,0x8(%rax)
 45f019d:	00 
 45f019e:	48 8d 0d 5e 50 7d 00 	lea    0x7d505e(%rip),%rcx        # 4dc5203 <_IO_stdin_used@@Base+0x192203>
 45f01a5:	48 89 08             	mov    %rcx,(%rax)
 45f01a8:	0f 10 44 24 40       	movups 0x40(%rsp),%xmm0
 45f01ad:	0f 11 84 24 f0 00 00 	movups %xmm0,0xf0(%rsp)
 45f01b4:	00 
 45f01b5:	48 89 c3             	mov    %rax,%rbx
 45f01b8:	48 8d 05 01 dd 90 01 	lea    0x190dd01(%rip),%rax        # 5efdec0 <go:itab.*errors.errorString,error@@Base>
 45f01bf:	48 8b ac 24 e0 00 00 	mov    0xe0(%rsp),%rbp
 45f01c6:	00 
 45f01c7:	48 81 c4 e8 00 00 00 	add    $0xe8,%rsp
 45f01ce:	c3                   	ret
 45f01cf:	0f 10 44 24 40       	movups 0x40(%rsp),%xmm0
 45f01d4:	0f 11 84 24 f0 00 00 	movups %xmm0,0xf0(%rsp)
 45f01db:	00 
 45f01dc:	31 c0                	xor    %eax,%eax
 45f01de:	31 db                	xor    %ebx,%ebx
 45f01e0:	48 8b ac 24 e0 00 00 	mov    0xe0(%rsp),%rbp
 45f01e7:	00 
 45f01e8:	48 81 c4 e8 00 00 00 	add    $0xe8,%rsp
 45f01ef:	c3                   	ret
 45f01f0:	48 89 f8             	mov    %rdi,%rax
 45f01f3:	48 89 d9             	mov    %rbx,%rcx
 45f01f6:	e8 a5 68 96 fd       	call   1f56aa0 <runtime.panicIndex@@Base>
 45f01fb:	48 89 d0             	mov    %rdx,%rax
 45f01fe:	48 89 d9             	mov    %rbx,%rcx
 45f0201:	e8 9a 68 96 fd       	call   1f56aa0 <runtime.panicIndex@@Base>
 45f0206:	b8 17 00 00 00       	mov    $0x17,%eax
 45f020b:	48 89 d9             	mov    %rbx,%rcx
 45f020e:	e8 8d 68 96 fd       	call   1f56aa0 <runtime.panicIndex@@Base>
 45f0213:	b8 12 00 00 00       	mov    $0x12,%eax
 45f0218:	48 89 d9             	mov    %rbx,%rcx
 45f021b:	0f 1f 44 00 00       	nopl   0x0(%rax,%rax,1)
 45f0220:	e8 7b 68 96 fd       	call   1f56aa0 <runtime.panicIndex@@Base>
 45f0225:	b8 0d 00 00 00       	mov    $0xd,%eax
 45f022a:	48 89 d9             	mov    %rbx,%rcx
 45f022d:	e8 6e 68 96 fd       	call   1f56aa0 <runtime.panicIndex@@Base>
 45f0232:	b8 08 00 00 00       	mov    $0x8,%eax
 45f0237:	48 89 d9             	mov    %rbx,%rcx
 45f023a:	e8 61 68 96 fd       	call   1f56aa0 <runtime.panicIndex@@Base>
 45f023f:	49 8d 49 02          	lea    0x2(%r9),%rcx
 45f0243:	48 83 f9 20          	cmp    $0x20,%rcx
 45f0247:	0f 8d a0 00 00 00    	jge    45f02ed <github.com/google/uuid.ParseBytes@@Base+0x40d>
 45f024d:	0f b6 14 08          	movzbl (%rax,%rcx,1),%edx
 45f0251:	48 8d 71 01          	lea    0x1(%rcx),%rsi
 45f0255:	48 83 fe 20          	cmp    $0x20,%rsi
 45f0259:	0f 83 bc 00 00 00    	jae    45f031b <github.com/google/uuid.ParseBytes@@Base+0x43b>
 45f025f:	0f b6 74 08 01       	movzbl 0x1(%rax,%rcx,1),%esi
 45f0264:	48 8d 3d b5 33 65 03 	lea    0x36533b5(%rip),%rdi        # 7c43620 <github.com/google/uuid.xvalues@@Base>
 45f026b:	0f b6 14 3a          	movzbl (%rdx,%rdi,1),%edx
 45f026f:	0f b6 34 37          	movzbl (%rdi,%rsi,1),%esi
 45f0273:	80 fa ff             	cmp    $0xff,%dl
 45f0276:	74 0a                	je     45f0282 <github.com/google/uuid.ParseBytes@@Base+0x3a2>
 45f0278:	40 80 fe ff          	cmp    $0xff,%sil
 45f027c:	41 0f 95 c0          	setne  %r8b
 45f0280:	eb 03                	jmp    45f0285 <github.com/google/uuid.ParseBytes@@Base+0x3a5>
 45f0282:	45 31 c0             	xor    %r8d,%r8d
 45f0285:	49 89 c9             	mov    %rcx,%r9
 45f0288:	48 c1 e9 3f          	shr    $0x3f,%rcx
 45f028c:	4e 8d 14 09          	lea    (%rcx,%r9,1),%r10
 45f0290:	49 d1 fa             	sar    $1,%r10
 45f0293:	c1 e2 04             	shl    $0x4,%edx
 45f0296:	09 d6                	or     %edx,%esi
 45f0298:	49 83 fa 10          	cmp    $0x10,%r10
 45f029c:	73 70                	jae    45f030e <github.com/google/uuid.ParseBytes@@Base+0x42e>
 45f029e:	42 88 74 14 40       	mov    %sil,0x40(%rsp,%r10,1)
 45f02a3:	45 84 c0             	test   %r8b,%r8b
 45f02a6:	75 97                	jne    45f023f <github.com/google/uuid.ParseBytes@@Base+0x35f>
 45f02a8:	48 8d 05 51 40 48 01 	lea    0x1484051(%rip),%rax        # 5a74300 <type:hE5I1The@@Base>
 45f02af:	e8 2c 02 90 fd       	call   1ef04e0 <runtime.newobject@@Base>
 45f02b4:	48 c7 40 08 13 00 00 	movq   $0x13,0x8(%rax)
 45f02bb:	00 
 45f02bc:	48 8d 0d 40 4f 7d 00 	lea    0x7d4f40(%rip),%rcx        # 4dc5203 <_IO_stdin_used@@Base+0x192203>
 45f02c3:	48 89 08             	mov    %rcx,(%rax)
 45f02c6:	0f 10 44 24 40       	movups 0x40(%rsp),%xmm0
 45f02cb:	0f 11 84 24 f0 00 00 	movups %xmm0,0xf0(%rsp)
 45f02d2:	00 
 45f02d3:	48 89 c3             	mov    %rax,%rbx
 45f02d6:	48 8d 05 e3 db 90 01 	lea    0x190dbe3(%rip),%rax        # 5efdec0 <go:itab.*errors.errorString,error@@Base>
 45f02dd:	48 8b ac 24 e0 00 00 	mov    0xe0(%rsp),%rbp
 45f02e4:	00 
 45f02e5:	48 81 c4 e8 00 00 00 	add    $0xe8,%rsp
 45f02ec:	c3                   	ret
 45f02ed:	0f 10 44 24 40       	movups 0x40(%rsp),%xmm0
 45f02f2:	0f 11 84 24 f0 00 00 	movups %xmm0,0xf0(%rsp)
 45f02f9:	00 
 45f02fa:	31 c0                	xor    %eax,%eax
 45f02fc:	31 db                	xor    %ebx,%ebx
 45f02fe:	48 8b ac 24 e0 00 00 	mov    0xe0(%rsp),%rbp
 45f0305:	00 
 45f0306:	48 81 c4 e8 00 00 00 	add    $0xe8,%rsp
 45f030d:	c3                   	ret
 45f030e:	4c 89 d0             	mov    %r10,%rax
 45f0311:	b9 10 00 00 00       	mov    $0x10,%ecx
 45f0316:	e8 85 67 96 fd       	call   1f56aa0 <runtime.panicIndex@@Base>
 45f031b:	48 89 f0             	mov    %rsi,%rax
 45f031e:	b9 20 00 00 00       	mov    $0x20,%ecx
 45f0323:	e8 78 67 96 fd       	call   1f56aa0 <runtime.panicIndex@@Base>
 45f0328:	90                   	nop
 45f0329:	48 89 44 24 18       	mov    %rax,0x18(%rsp)
 45f032e:	48 89 5c 24 20       	mov    %rbx,0x20(%rsp)
 45f0333:	48 89 4c 24 28       	mov    %rcx,0x28(%rsp)
 45f0338:	e8 23 41 96 fd       	call   1f54460 <runtime.morestack_noctxt.abi0@@Base>
 45f033d:	48 8b 44 24 18       	mov    0x18(%rsp),%rax
 45f0342:	48 8b 5c 24 20       	mov    0x20(%rsp),%rbx
 45f0347:	48 8b 4c 24 28       	mov    0x28(%rsp),%rcx
 45f034c:	e9 8f fb ff ff       	jmp    45efee0 <github.com/google/uuid.ParseBytes@@Base>
 45f0351:	cc                   	int3
 45f0352:	cc                   	int3
 45f0353:	cc                   	int3
 45f0354:	cc                   	int3
 45f0355:	cc                   	int3
 45f0356:	cc                   	int3
 45f0357:	cc                   	int3
 45f0358:	cc                   	int3
 45f0359:	cc                   	int3
 45f035a:	cc                   	int3
 45f035b:	cc                   	int3
 45f035c:	cc                   	int3
 45f035d:	cc                   	int3
 45f035e:	cc                   	int3
 45f035f:	cc                   	int3

00000000045f0360 <github.com/google/uuid.UUID.String@@Base>:
 45f0360:	49 3b 66 10          	cmp    0x10(%r14),%rsp
 45f0364:	76 5b                	jbe    45f03c1 <github.com/google/uuid.UUID.String@@Base+0x61>
 45f0366:	48 83 ec 58          	sub    $0x58,%rsp
 45f036a:	48 89 6c 24 50       	mov    %rbp,0x50(%rsp)
 45f036f:	48 8d 6c 24 50       	lea    0x50(%rsp),%rbp
 45f0374:	44 0f 11 7c 24 2c    	movups %xmm15,0x2c(%rsp)
 45f037a:	44 0f 11 7c 24 30    	movups %xmm15,0x30(%rsp)
 45f0380:	44 0f 11 7c 24 40    	movups %xmm15,0x40(%rsp)
 45f0386:	0f 10 44 24 60       	movups 0x60(%rsp),%xmm0
 45f038b:	0f 11 04 24          	movups %xmm0,(%rsp)
 45f038f:	48 8d 44 24 2c       	lea    0x2c(%rsp),%rax
 45f0394:	bb 24 00 00 00       	mov    $0x24,%ebx
 45f0399:	48 89 d9             	mov    %rbx,%rcx
 45f039c:	0f 1f 40 00          	nopl   0x0(%rax)
 45f03a0:	e8 bb 00 00 00       	call   45f0460 <github.com/google/uuid.encodeHex@@Base>
 45f03a5:	31 c0                	xor    %eax,%eax
 45f03a7:	48 8d 5c 24 2c       	lea    0x2c(%rsp),%rbx
 45f03ac:	b9 24 00 00 00       	mov    $0x24,%ecx
 45f03b1:	e8 0a a3 94 fd       	call   1f3a6c0 <runtime.slicebytetostring@@Base>
 45f03b6:	48 8b 6c 24 50       	mov    0x50(%rsp),%rbp
 45f03bb:	48 83 c4 58          	add    $0x58,%rsp
 45f03bf:	90                   	nop
 45f03c0:	c3                   	ret
 45f03c1:	e8 9a 40 96 fd       	call   1f54460 <runtime.morestack_noctxt.abi0@@Base>
 45f03c6:	eb 98                	jmp    45f0360 <github.com/google/uuid.UUID.String@@Base>
 45f03c8:	cc                   	int3
 45f03c9:	cc                   	int3
 45f03ca:	cc                   	int3
 45f03cb:	cc                   	int3
 45f03cc:	cc                   	int3
 45f03cd:	cc                   	int3
 45f03ce:	cc                   	int3
 45f03cf:	cc                   	int3
 45f03d0:	cc                   	int3
 45f03d1:	cc                   	int3
 45f03d2:	cc                   	int3
 45f03d3:	cc                   	int3
 45f03d4:	cc                   	int3
 45f03d5:	cc                   	int3
 45f03d6:	cc                   	int3
 45f03d7:	cc                   	int3
 45f03d8:	cc                   	int3
 45f03d9:	cc                   	int3
 45f03da:	cc                   	int3
 45f03db:	cc                   	int3
 45f03dc:	cc                   	int3
 45f03dd:	cc                   	int3
 45f03de:	cc                   	int3
 45f03df:	cc                   	int3

00000000045f03e0 <github.com/google/uuid.UUID.URN@@Base>:
 45f03e0:	49 3b 66 10          	cmp    0x10(%r14),%rsp
 45f03e4:	76 6a                	jbe    45f0450 <github.com/google/uuid.UUID.URN@@Base+0x70>
 45f03e6:	48 83 ec 60          	sub    $0x60,%rsp
 45f03ea:	48 89 6c 24 58       	mov    %rbp,0x58(%rsp)
 45f03ef:	48 8d 6c 24 58       	lea    0x58(%rsp),%rbp
 45f03f4:	44 0f 11 7c 24 2b    	movups %xmm15,0x2b(%rsp)
 45f03fa:	44 0f 11 7c 24 38    	movups %xmm15,0x38(%rsp)
 45f0400:	44 0f 11 7c 24 48    	movups %xmm15,0x48(%rsp)
 45f0406:	48 ba 75 72 6e 3a 75 	movabs $0x646975753a6e7275,%rdx
 45f040d:	75 69 64 
 45f0410:	48 89 54 24 2b       	mov    %rdx,0x2b(%rsp)
 45f0415:	c6 44 24 33 3a       	movb   $0x3a,0x33(%rsp)
 45f041a:	0f 10 44 24 68       	movups 0x68(%rsp),%xmm0
 45f041f:	0f 11 04 24          	movups %xmm0,(%rsp)
 45f0423:	48 8d 44 24 34       	lea    0x34(%rsp),%rax
 45f0428:	bb 24 00 00 00       	mov    $0x24,%ebx
 45f042d:	48 89 d9             	mov    %rbx,%rcx
 45f0430:	e8 2b 00 00 00       	call   45f0460 <github.com/google/uuid.encodeHex@@Base>
 45f0435:	31 c0                	xor    %eax,%eax
 45f0437:	48 8d 5c 24 2b       	lea    0x2b(%rsp),%rbx
 45f043c:	b9 2d 00 00 00       	mov    $0x2d,%ecx
 45f0441:	e8 7a a2 94 fd       	call   1f3a6c0 <runtime.slicebytetostring@@Base>
 45f0446:	48 8b 6c 24 58       	mov    0x58(%rsp),%rbp
 45f044b:	48 83 c4 60          	add    $0x60,%rsp
 45f044f:	c3                   	ret
 45f0450:	e8 0b 40 96 fd       	call   1f54460 <runtime.morestack_noctxt.abi0@@Base>
 45f0455:	eb 89                	jmp    45f03e0 <github.com/google/uuid.UUID.URN@@Base>
 45f0457:	cc                   	int3
 45f0458:	cc                   	int3
 45f0459:	cc                   	int3
 45f045a:	cc                   	int3
 45f045b:	cc                   	int3
 45f045c:	cc                   	int3
 45f045d:	cc                   	int3
 45f045e:	cc                   	int3
 45f045f:	cc                   	int3

00000000045f0460 <github.com/google/uuid.encodeHex@@Base>:
 45f0460:	48 83 ec 18          	sub    $0x18,%rsp
 45f0464:	48 89 6c 24 10       	mov    %rbp,0x10(%rsp)
 45f0469:	48 8d 6c 24 10       	lea    0x10(%rsp),%rbp
 45f046e:	48 89 44 24 30       	mov    %rax,0x30(%rsp)
 45f0473:	31 d2                	xor    %edx,%edx
 45f0475:	31 f6                	xor    %esi,%esi
 45f0477:	eb 0c                	jmp    45f0485 <github.com/google/uuid.encodeHex@@Base+0x25>
 45f0479:	44 88 44 06 01       	mov    %r8b,0x1(%rsi,%rax,1)
 45f047e:	48 ff c2             	inc    %rdx
 45f0481:	48 83 c6 02          	add    $0x2,%rsi
 45f0485:	48 83 fa 04          	cmp    $0x4,%rdx
 45f0489:	7d 40                	jge    45f04cb <github.com/google/uuid.encodeHex@@Base+0x6b>
 45f048b:	0f b6 7c 14 20       	movzbl 0x20(%rsp,%rdx,1),%edi
 45f0490:	41 89 f8             	mov    %edi,%r8d
 45f0493:	40 c0 ef 04          	shr    $0x4,%dil
 45f0497:	40 0f b6 ff          	movzbl %dil,%edi
 45f049b:	4c 8d 0d 0e 9f 6e 00 	lea    0x6e9f0e(%rip),%r9        # 4cda3b0 <_IO_stdin_used@@Base+0xa73b0>
 45f04a2:	42 0f b6 3c 0f       	movzbl (%rdi,%r9,1),%edi
 45f04a7:	48 39 f3             	cmp    %rsi,%rbx
 45f04aa:	0f 86 e1 02 00 00    	jbe    45f0791 <github.com/google/uuid.encodeHex@@Base+0x331>
 45f04b0:	40 88 3c 30          	mov    %dil,(%rax,%rsi,1)
 45f04b4:	48 8d 7e 01          	lea    0x1(%rsi),%rdi
 45f04b8:	41 83 e0 0f          	and    $0xf,%r8d
 45f04bc:	47 0f b6 04 08       	movzbl (%r8,%r9,1),%r8d
 45f04c1:	48 39 fb             	cmp    %rdi,%rbx
 45f04c4:	77 b3                	ja     45f0479 <github.com/google/uuid.encodeHex@@Base+0x19>
 45f04c6:	e9 bb 02 00 00       	jmp    45f0786 <github.com/google/uuid.encodeHex@@Base+0x326>
 45f04cb:	48 83 fb 08          	cmp    $0x8,%rbx
 45f04cf:	0f 86 a4 02 00 00    	jbe    45f0779 <github.com/google/uuid.encodeHex@@Base+0x319>
 45f04d5:	c6 40 08 2d          	movb   $0x2d,0x8(%rax)
 45f04d9:	0f 1f 80 00 00 00 00 	nopl   0x0(%rax)
 45f04e0:	48 83 f9 0d          	cmp    $0xd,%rcx
 45f04e4:	0f 82 82 02 00 00    	jb     45f076c <github.com/google/uuid.encodeHex@@Base+0x30c>
 45f04ea:	31 d2                	xor    %edx,%edx
 45f04ec:	31 f6                	xor    %esi,%esi
 45f04ee:	eb 10                	jmp    45f0500 <github.com/google/uuid.encodeHex@@Base+0xa0>
 45f04f0:	44 88 44 06 0a       	mov    %r8b,0xa(%rsi,%rax,1)
 45f04f5:	48 ff c2             	inc    %rdx
 45f04f8:	48 83 c6 02          	add    $0x2,%rsi
 45f04fc:	0f 1f 40 00          	nopl   0x0(%rax)
 45f0500:	48 83 fa 02          	cmp    $0x2,%rdx
 45f0504:	7d 45                	jge    45f054b <github.com/google/uuid.encodeHex@@Base+0xeb>
 45f0506:	0f b6 7c 14 24       	movzbl 0x24(%rsp,%rdx,1),%edi
 45f050b:	41 89 f8             	mov    %edi,%r8d
 45f050e:	40 c0 ef 04          	shr    $0x4,%dil
 45f0512:	40 0f b6 ff          	movzbl %dil,%edi
 45f0516:	4c 8d 0d 93 9e 6e 00 	lea    0x6e9e93(%rip),%r9        # 4cda3b0 <_IO_stdin_used@@Base+0xa73b0>
 45f051d:	42 0f b6 3c 0f       	movzbl (%rdi,%r9,1),%edi
 45f0522:	48 83 fe 04          	cmp    $0x4,%rsi
 45f0526:	0f 83 33 02 00 00    	jae    45f075f <github.com/google/uuid.encodeHex@@Base+0x2ff>
 45f052c:	40 88 7c 30 09       	mov    %dil,0x9(%rax,%rsi,1)
 45f0531:	48 8d 7e 01          	lea    0x1(%rsi),%rdi
 45f0535:	41 83 e0 0f          	and    $0xf,%r8d
 45f0539:	47 0f b6 04 08       	movzbl (%r8,%r9,1),%r8d
 45f053e:	66 90                	xchg   %ax,%ax
 45f0540:	48 83 ff 04          	cmp    $0x4,%rdi
 45f0544:	72 aa                	jb     45f04f0 <github.com/google/uuid.encodeHex@@Base+0x90>
 45f0546:	e9 07 02 00 00       	jmp    45f0752 <github.com/google/uuid.encodeHex@@Base+0x2f2>
 45f054b:	48 83 fb 0d          	cmp    $0xd,%rbx
 45f054f:	0f 86 f0 01 00 00    	jbe    45f0745 <github.com/google/uuid.encodeHex@@Base+0x2e5>
 45f0555:	c6 40 0d 2d          	movb   $0x2d,0xd(%rax)
 45f0559:	0f 1f 80 00 00 00 00 	nopl   0x0(%rax)
 45f0560:	48 83 f9 12          	cmp    $0x12,%rcx
 45f0564:	0f 82 c9 01 00 00    	jb     45f0733 <github.com/google/uuid.encodeHex@@Base+0x2d3>
 45f056a:	31 d2                	xor    %edx,%edx
 45f056c:	31 f6                	xor    %esi,%esi
 45f056e:	eb 10                	jmp    45f0580 <github.com/google/uuid.encodeHex@@Base+0x120>
 45f0570:	44 88 44 06 0f       	mov    %r8b,0xf(%rsi,%rax,1)
 45f0575:	48 ff c2             	inc    %rdx
 45f0578:	48 83 c6 02          	add    $0x2,%rsi
 45f057c:	0f 1f 40 00          	nopl   0x0(%rax)
 45f0580:	48 83 fa 02          	cmp    $0x2,%rdx
 45f0584:	7d 45                	jge    45f05cb <github.com/google/uuid.encodeHex@@Base+0x16b>
 45f0586:	0f b6 7c 14 26       	movzbl 0x26(%rsp,%rdx,1),%edi
 45f058b:	41 89 f8             	mov    %edi,%r8d
 45f058e:	40 c0 ef 04          	shr    $0x4,%dil
 45f0592:	40 0f b6 ff          	movzbl %dil,%edi
 45f0596:	4c 8d 0d 13 9e 6e 00 	lea    0x6e9e13(%rip),%r9        # 4cda3b0 <_IO_stdin_used@@Base+0xa73b0>
 45f059d:	42 0f b6 3c 0f       	movzbl (%rdi,%r9,1),%edi
 45f05a2:	48 83 fe 04          	cmp    $0x4,%rsi
 45f05a6:	0f 83 7a 01 00 00    	jae    45f0726 <github.com/google/uuid.encodeHex@@Base+0x2c6>
 45f05ac:	40 88 7c 30 0e       	mov    %dil,0xe(%rax,%rsi,1)
 45f05b1:	48 8d 7e 01          	lea    0x1(%rsi),%rdi
 45f05b5:	41 83 e0 0f          	and    $0xf,%r8d
 45f05b9:	47 0f b6 04 08       	movzbl (%r8,%r9,1),%r8d
 45f05be:	66 90                	xchg   %ax,%ax
 45f05c0:	48 83 ff 04          	cmp    $0x4,%rdi
 45f05c4:	72 aa                	jb     45f0570 <github.com/google/uuid.encodeHex@@Base+0x110>
 45f05c6:	e9 4e 01 00 00       	jmp    45f0719 <github.com/google/uuid.encodeHex@@Base+0x2b9>
 45f05cb:	48 83 fb 12          	cmp    $0x12,%rbx
 45f05cf:	0f 86 37 01 00 00    	jbe    45f070c <github.com/google/uuid.encodeHex@@Base+0x2ac>
 45f05d5:	c6 40 12 2d          	movb   $0x2d,0x12(%rax)
 45f05d9:	0f 1f 80 00 00 00 00 	nopl   0x0(%rax)
 45f05e0:	48 83 f9 17          	cmp    $0x17,%rcx
 45f05e4:	0f 82 15 01 00 00    	jb     45f06ff <github.com/google/uuid.encodeHex@@Base+0x29f>
 45f05ea:	31 d2                	xor    %edx,%edx
 45f05ec:	31 f6                	xor    %esi,%esi
 45f05ee:	eb 10                	jmp    45f0600 <github.com/google/uuid.encodeHex@@Base+0x1a0>
 45f05f0:	44 88 44 06 14       	mov    %r8b,0x14(%rsi,%rax,1)
 45f05f5:	48 ff c2             	inc    %rdx
 45f05f8:	48 83 c6 02          	add    $0x2,%rsi
 45f05fc:	0f 1f 40 00          	nopl   0x0(%rax)
 45f0600:	48 83 fa 02          	cmp    $0x2,%rdx
 45f0604:	7d 45                	jge    45f064b <github.com/google/uuid.encodeHex@@Base+0x1eb>
 45f0606:	0f b6 7c 14 28       	movzbl 0x28(%rsp,%rdx,1),%edi
 45f060b:	41 89 f8             	mov    %edi,%r8d
 45f060e:	40 c0 ef 04          	shr    $0x4,%dil
 45f0612:	40 0f b6 ff          	movzbl %dil,%edi
 45f0616:	4c 8d 0d 93 9d 6e 00 	lea    0x6e9d93(%rip),%r9        # 4cda3b0 <_IO_stdin_used@@Base+0xa73b0>
 45f061d:	42 0f b6 3c 0f       	movzbl (%rdi,%r9,1),%edi
 45f0622:	48 83 fe 04          	cmp    $0x4,%rsi
 45f0626:	0f 83 c6 00 00 00    	jae    45f06f2 <github.com/google/uuid.encodeHex@@Base+0x292>
 45f062c:	40 88 7c 30 13       	mov    %dil,0x13(%rax,%rsi,1)
 45f0631:	48 8d 7e 01          	lea    0x1(%rsi),%rdi
 45f0635:	41 83 e0 0f          	and    $0xf,%r8d
 45f0639:	47 0f b6 04 08       	movzbl (%r8,%r9,1),%r8d
 45f063e:	66 90                	xchg   %ax,%ax
 45f0640:	48 83 ff 04          	cmp    $0x4,%rdi
 45f0644:	72 aa                	jb     45f05f0 <github.com/google/uuid.encodeHex@@Base+0x190>
 45f0646:	e9 9a 00 00 00       	jmp    45f06e5 <github.com/google/uuid.encodeHex@@Base+0x285>
 45f064b:	48 83 fb 17          	cmp    $0x17,%rbx
 45f064f:	0f 86 82 00 00 00    	jbe    45f06d7 <github.com/google/uuid.encodeHex@@Base+0x277>
 45f0655:	c6 40 17 2d          	movb   $0x2d,0x17(%rax)
 45f0659:	48 8d 51 e8          	lea    -0x18(%rcx),%rdx
 45f065d:	48 f7 da             	neg    %rdx
 45f0660:	48 c1 fa 3f          	sar    $0x3f,%rdx
 45f0664:	83 e2 18             	and    $0x18,%edx
 45f0667:	48 01 c2             	add    %rax,%rdx
 45f066a:	48 8d 4b e8          	lea    -0x18(%rbx),%rcx
 45f066e:	31 c0                	xor    %eax,%eax
 45f0670:	31 db                	xor    %ebx,%ebx
 45f0672:	eb 0c                	jmp    45f0680 <github.com/google/uuid.encodeHex@@Base+0x220>
 45f0674:	40 88 7c 13 01       	mov    %dil,0x1(%rbx,%rdx,1)
 45f0679:	48 ff c0             	inc    %rax
 45f067c:	48 83 c3 02          	add    $0x2,%rbx
 45f0680:	48 83 f8 06          	cmp    $0x6,%rax
 45f0684:	7d 37                	jge    45f06bd <github.com/google/uuid.encodeHex@@Base+0x25d>
 45f0686:	0f b6 74 04 2a       	movzbl 0x2a(%rsp,%rax,1),%esi
 45f068b:	89 f7                	mov    %esi,%edi
 45f068d:	40 c0 ee 04          	shr    $0x4,%sil
 45f0691:	40 0f b6 f6          	movzbl %sil,%esi
 45f0695:	4c 8d 05 14 9d 6e 00 	lea    0x6e9d14(%rip),%r8        # 4cda3b0 <_IO_stdin_used@@Base+0xa73b0>
 45f069c:	42 0f b6 34 06       	movzbl (%rsi,%r8,1),%esi
 45f06a1:	48 39 cb             	cmp    %rcx,%rbx
 45f06a4:	73 29                	jae    45f06cf <github.com/google/uuid.encodeHex@@Base+0x26f>
 45f06a6:	40 88 34 1a          	mov    %sil,(%rdx,%rbx,1)
 45f06aa:	48 8d 73 01          	lea    0x1(%rbx),%rsi
 45f06ae:	83 e7 0f             	and    $0xf,%edi
 45f06b1:	42 0f b6 3c 07       	movzbl (%rdi,%r8,1),%edi
 45f06b6:	48 39 ce             	cmp    %rcx,%rsi
 45f06b9:	72 b9                	jb     45f0674 <github.com/google/uuid.encodeHex@@Base+0x214>
 45f06bb:	eb 0a                	jmp    45f06c7 <github.com/google/uuid.encodeHex@@Base+0x267>
 45f06bd:	48 8b 6c 24 10       	mov    0x10(%rsp),%rbp
 45f06c2:	48 83 c4 18          	add    $0x18,%rsp
 45f06c6:	c3                   	ret
 45f06c7:	48 89 f0             	mov    %rsi,%rax
 45f06ca:	e8 d1 63 96 fd       	call   1f56aa0 <runtime.panicIndex@@Base>
 45f06cf:	48 89 d8             	mov    %rbx,%rax
 45f06d2:	e8 c9 63 96 fd       	call   1f56aa0 <runtime.panicIndex@@Base>
 45f06d7:	b8 17 00 00 00       	mov    $0x17,%eax
 45f06dc:	48 89 d9             	mov    %rbx,%rcx
 45f06df:	90                   	nop
 45f06e0:	e8 bb 63 96 fd       	call   1f56aa0 <runtime.panicIndex@@Base>
 45f06e5:	48 89 f8             	mov    %rdi,%rax
 45f06e8:	b9 04 00 00 00       	mov    $0x4,%ecx
 45f06ed:	e8 ae 63 96 fd       	call   1f56aa0 <runtime.panicIndex@@Base>
 45f06f2:	48 89 f0             	mov    %rsi,%rax
 45f06f5:	b9 04 00 00 00       	mov    $0x4,%ecx
 45f06fa:	e8 a1 63 96 fd       	call   1f56aa0 <runtime.panicIndex@@Base>
 45f06ff:	48 89 ca             	mov    %rcx,%rdx
 45f0702:	b9 17 00 00 00       	mov    $0x17,%ecx
 45f0707:	e8 14 64 96 fd       	call   1f56b20 <runtime.panicSliceAcap@@Base>
 45f070c:	b8 12 00 00 00       	mov    $0x12,%eax
 45f0711:	48 89 d9             	mov    %rbx,%rcx
 45f0714:	e8 87 63 96 fd       	call   1f56aa0 <runtime.panicIndex@@Base>
 45f0719:	48 89 f8             	mov    %rdi,%rax
 45f071c:	b9 04 00 00 00       	mov    $0x4,%ecx
 45f0721:	e8 7a 63 96 fd       	call   1f56aa0 <runtime.panicIndex@@Base>
 45f0726:	48 89 f0             	mov    %rsi,%rax
 45f0729:	b9 04 00 00 00       	mov    $0x4,%ecx
 45f072e:	e8 6d 63 96 fd       	call   1f56aa0 <runtime.panicIndex@@Base>
 45f0733:	48 89 ca             	mov    %rcx,%rdx
 45f0736:	b9 12 00 00 00       	mov    $0x12,%ecx
 45f073b:	0f 1f 44 00 00       	nopl   0x0(%rax,%rax,1)
 45f0740:	e8 db 63 96 fd       	call   1f56b20 <runtime.panicSliceAcap@@Base>
 45f0745:	b8 0d 00 00 00       	mov    $0xd,%eax
 45f074a:	48 89 d9             	mov    %rbx,%rcx
 45f074d:	e8 4e 63 96 fd       	call   1f56aa0 <runtime.panicIndex@@Base>
 45f0752:	48 89 f8             	mov    %rdi,%rax
 45f0755:	b9 04 00 00 00       	mov    $0x4,%ecx
 45f075a:	e8 41 63 96 fd       	call   1f56aa0 <runtime.panicIndex@@Base>
 45f075f:	48 89 f0             	mov    %rsi,%rax
 45f0762:	b9 04 00 00 00       	mov    $0x4,%ecx
 45f0767:	e8 34 63 96 fd       	call   1f56aa0 <runtime.panicIndex@@Base>
 45f076c:	48 89 ca             	mov    %rcx,%rdx
 45f076f:	b9 0d 00 00 00       	mov    $0xd,%ecx
 45f0774:	e8 a7 63 96 fd       	call   1f56b20 <runtime.panicSliceAcap@@Base>
 45f0779:	b8 08 00 00 00       	mov    $0x8,%eax
 45f077e:	48 89 d9             	mov    %rbx,%rcx
 45f0781:	e8 1a 63 96 fd       	call   1f56aa0 <runtime.panicIndex@@Base>
 45f0786:	48 89 f8             	mov    %rdi,%rax
 45f0789:	48 89 d9             	mov    %rbx,%rcx
 45f078c:	e8 0f 63 96 fd       	call   1f56aa0 <runtime.panicIndex@@Base>
 45f0791:	48 89 f0             	mov    %rsi,%rax
 45f0794:	48 89 d9             	mov    %rbx,%rcx
 45f0797:	e8 04 63 96 fd       	call   1f56aa0 <runtime.panicIndex@@Base>
 45f079c:	90                   	nop
 45f079d:	cc                   	int3
 45f079e:	cc                   	int3
 45f079f:	cc                   	int3

00000000045f07a0 <github.com/google/uuid.UUID.Variant@@Base>:
 45f07a0:	0f b6 4c 24 10       	movzbl 0x10(%rsp),%ecx
 45f07a5:	89 ca                	mov    %ecx,%edx
 45f07a7:	83 e1 c0             	and    $0xffffffc0,%ecx
 45f07aa:	80 f9 80             	cmp    $0x80,%cl
 45f07ad:	74 1f                	je     45f07ce <github.com/google/uuid.UUID.Variant@@Base+0x2e>
 45f07af:	83 e2 e0             	and    $0xffffffe0,%edx
 45f07b2:	80 fa c0             	cmp    $0xc0,%dl
 45f07b5:	74 11                	je     45f07c8 <github.com/google/uuid.UUID.Variant@@Base+0x28>
 45f07b7:	80 fa e0             	cmp    $0xe0,%dl
 45f07ba:	75 06                	jne    45f07c2 <github.com/google/uuid.UUID.Variant@@Base+0x22>
 45f07bc:	b8 04 00 00 00       	mov    $0x4,%eax
 45f07c1:	c3                   	ret
 45f07c2:	b8 02 00 00 00       	mov    $0x2,%eax
 45f07c7:	c3                   	ret
 45f07c8:	b8 03 00 00 00       	mov    $0x3,%eax
 45f07cd:	c3                   	ret
 45f07ce:	b8 01 00 00 00       	mov    $0x1,%eax
 45f07d3:	c3                   	ret
 45f07d4:	cc                   	int3
 45f07d5:	cc                   	int3
 45f07d6:	cc                   	int3
 45f07d7:	cc                   	int3
 45f07d8:	cc                   	int3
 45f07d9:	cc                   	int3
 45f07da:	cc                   	int3
 45f07db:	cc                   	int3
 45f07dc:	cc                   	int3
 45f07dd:	cc                   	int3
 45f07de:	cc                   	int3
 45f07df:	cc                   	int3

00000000045f07e0 <github.com/google/uuid.UUID.Version@@Base>:
 45f07e0:	0f b6 44 24 0e       	movzbl 0xe(%rsp),%eax
 45f07e5:	c0 e8 04             	shr    $0x4,%al
 45f07e8:	c3                   	ret
 45f07e9:	cc                   	int3
 45f07ea:	cc                   	int3
 45f07eb:	cc                   	int3
 45f07ec:	cc                   	int3
 45f07ed:	cc                   	int3
 45f07ee:	cc                   	int3
 45f07ef:	cc                   	int3
 45f07f0:	cc                   	int3
 45f07f1:	cc                   	int3
 45f07f2:	cc                   	int3
 45f07f3:	cc                   	int3
 45f07f4:	cc                   	int3
 45f07f5:	cc                   	int3
 45f07f6:	cc                   	int3
 45f07f7:	cc                   	int3
 45f07f8:	cc                   	int3
 45f07f9:	cc                   	int3
 45f07fa:	cc                   	int3
 45f07fb:	cc                   	int3
 45f07fc:	cc                   	int3
 45f07fd:	cc                   	int3
 45f07fe:	cc                   	int3
 45f07ff:	cc                   	int3

00000000045f0800 <github.com/google/uuid.Version.String@@Base>:
 45f0800:	49 3b 66 10          	cmp    0x10(%r14),%rsp
 45f0804:	0f 86 ac 00 00 00    	jbe    45f08b6 <github.com/google/uuid.Version.String@@Base+0xb6>
 45f080a:	48 83 ec 40          	sub    $0x40,%rsp
 45f080e:	48 89 6c 24 38       	mov    %rbp,0x38(%rsp)
 45f0813:	48 8d 6c 24 38       	lea    0x38(%rsp),%rbp
 45f0818:	3c 0f                	cmp    $0xf,%al
 45f081a:	76 4d                	jbe    45f0869 <github.com/google/uuid.Version.String@@Base+0x69>
 45f081c:	44 0f 11 7c 24 28    	movups %xmm15,0x28(%rsp)
 45f0822:	48 8d 15 57 0a 2c 01 	lea    0x12c0a57(%rip),%rdx        # 58b1280 <type:cieLw3ss@@Base>
 45f0829:	48 89 54 24 28       	mov    %rdx,0x28(%rsp)
 45f082e:	0f b6 d0             	movzbl %al,%edx
 45f0831:	4c 8d 05 e8 b8 67 03 	lea    0x367b8e8(%rip),%r8        # 7c6c120 <runtime.staticuint64s@@Base>
 45f0838:	49 8d 14 d0          	lea    (%r8,%rdx,8),%rdx
 45f083c:	48 89 54 24 30       	mov    %rdx,0x30(%rsp)
 45f0841:	48 8d 05 f4 0c 6e 00 	lea    0x6e0cf4(%rip),%rax        # 4cd153c <_IO_stdin_used@@Base+0x9e53c>
 45f0848:	bb 0e 00 00 00       	mov    $0xe,%ebx
 45f084d:	48 8d 4c 24 28       	lea    0x28(%rsp),%rcx
 45f0852:	bf 01 00 00 00       	mov    $0x1,%edi
 45f0857:	48 89 fe             	mov    %rdi,%rsi
 45f085a:	e8 a1 40 a0 fd       	call   1ff4900 <fmt.Sprintf@@Base>
 45f085f:	48 8b 6c 24 38       	mov    0x38(%rsp),%rbp
 45f0864:	48 83 c4 40          	add    $0x40,%rsp
 45f0868:	c3                   	ret
 45f0869:	44 0f 11 7c 24 28    	movups %xmm15,0x28(%rsp)
 45f086f:	48 8d 15 0a 0a 2c 01 	lea    0x12c0a0a(%rip),%rdx        # 58b1280 <type:cieLw3ss@@Base>
 45f0876:	48 89 54 24 28       	mov    %rdx,0x28(%rsp)
 45f087b:	0f b6 d0             	movzbl %al,%edx
 45f087e:	4c 8d 05 9b b8 67 03 	lea    0x367b89b(%rip),%r8        # 7c6c120 <runtime.staticuint64s@@Base>
 45f0885:	49 8d 14 d0          	lea    (%r8,%rdx,8),%rdx
 45f0889:	48 89 54 24 30       	mov    %rdx,0x30(%rsp)
 45f088e:	48 8d 05 9c 7b 67 00 	lea    0x677b9c(%rip),%rax        # 4c68431 <_IO_stdin_used@@Base+0x35431>
 45f0895:	bb 0a 00 00 00       	mov    $0xa,%ebx
 45f089a:	48 8d 4c 24 28       	lea    0x28(%rsp),%rcx
 45f089f:	bf 01 00 00 00       	mov    $0x1,%edi
 45f08a4:	48 89 fe             	mov    %rdi,%rsi
 45f08a7:	e8 54 40 a0 fd       	call   1ff4900 <fmt.Sprintf@@Base>
 45f08ac:	48 8b 6c 24 38       	mov    0x38(%rsp),%rbp
 45f08b1:	48 83 c4 40          	add    $0x40,%rsp
 45f08b5:	c3                   	ret
 45f08b6:	88 44 24 08          	mov    %al,0x8(%rsp)
 45f08ba:	e8 a1 3b 96 fd       	call   1f54460 <runtime.morestack_noctxt.abi0@@Base>
 45f08bf:	0f b6 44 24 08       	movzbl 0x8(%rsp),%eax
 45f08c4:	e9 37 ff ff ff       	jmp    45f0800 <github.com/google/uuid.Version.String@@Base>
 45f08c9:	cc                   	int3
 45f08ca:	cc                   	int3
 45f08cb:	cc                   	int3
 45f08cc:	cc                   	int3
 45f08cd:	cc                   	int3
 45f08ce:	cc                   	int3
 45f08cf:	cc                   	int3
 45f08d0:	cc                   	int3
 45f08d1:	cc                   	int3
 45f08d2:	cc                   	int3
 45f08d3:	cc                   	int3
 45f08d4:	cc                   	int3
 45f08d5:	cc                   	int3
 45f08d6:	cc                   	int3
 45f08d7:	cc                   	int3
 45f08d8:	cc                   	int3
 45f08d9:	cc                   	int3
 45f08da:	cc                   	int3
 45f08db:	cc                   	int3
 45f08dc:	cc                   	int3
 45f08dd:	cc                   	int3
 45f08de:	cc                   	int3
 45f08df:	cc                   	int3

00000000045f08e0 <github.com/google/uuid.Variant.String@@Base>:
 45f08e0:	49 3b 66 10          	cmp    0x10(%r14),%rsp
 45f08e4:	0f 86 e3 00 00 00    	jbe    45f09cd <github.com/google/uuid.Variant.String@@Base+0xed>
 45f08ea:	48 83 ec 40          	sub    $0x40,%rsp
 45f08ee:	48 89 6c 24 38       	mov    %rbp,0x38(%rsp)
 45f08f3:	48 8d 6c 24 38       	lea    0x38(%rsp),%rbp
 45f08f8:	3c 01                	cmp    $0x1,%al
 45f08fa:	77 34                	ja     45f0930 <github.com/google/uuid.Variant.String@@Base+0x50>
 45f08fc:	0f 1f 40 00          	nopl   0x0(%rax)
 45f0900:	84 c0                	test   %al,%al
 45f0902:	75 16                	jne    45f091a <github.com/google/uuid.Variant.String@@Base+0x3a>
 45f0904:	48 8d 05 0e f2 66 00 	lea    0x66f20e(%rip),%rax        # 4c5fb19 <_IO_stdin_used@@Base+0x2cb19>
 45f090b:	bb 07 00 00 00       	mov    $0x7,%ebx
 45f0910:	48 8b 6c 24 38       	mov    0x38(%rsp),%rbp
 45f0915:	48 83 c4 40          	add    $0x40,%rsp
 45f0919:	c3                   	ret
 45f091a:	48 8d 05 9f f4 66 00 	lea    0x66f49f(%rip),%rax        # 4c5fdc0 <_IO_stdin_used@@Base+0x2cdc0>
 45f0921:	bb 07 00 00 00       	mov    $0x7,%ebx
 45f0926:	48 8b 6c 24 38       	mov    0x38(%rsp),%rbp
 45f092b:	48 83 c4 40          	add    $0x40,%rsp
 45f092f:	c3                   	ret
 45f0930:	3c 02                	cmp    $0x2,%al
 45f0932:	0f 84 7f 00 00 00    	je     45f09b7 <github.com/google/uuid.Variant.String@@Base+0xd7>
 45f0938:	3c 03                	cmp    $0x3,%al
 45f093a:	74 65                	je     45f09a1 <github.com/google/uuid.Variant.String@@Base+0xc1>
 45f093c:	0f 1f 40 00          	nopl   0x0(%rax)
 45f0940:	3c 04                	cmp    $0x4,%al
 45f0942:	75 16                	jne    45f095a <github.com/google/uuid.Variant.String@@Base+0x7a>
 45f0944:	48 8d 05 66 cc 66 00 	lea    0x66cc66(%rip),%rax        # 4c5d5b1 <_IO_stdin_used@@Base+0x2a5b1>
 45f094b:	bb 06 00 00 00       	mov    $0x6,%ebx
 45f0950:	48 8b 6c 24 38       	mov    0x38(%rsp),%rbp
 45f0955:	48 83 c4 40          	add    $0x40,%rsp
 45f0959:	c3                   	ret
 45f095a:	44 0f 11 7c 24 28    	movups %xmm15,0x28(%rsp)
 45f0960:	0f b6 c0             	movzbl %al,%eax
 45f0963:	e8 78 d3 8f fd       	call   1eedce0 <runtime.convT64@@Base>
 45f0968:	48 8d 0d f1 9c 1b 01 	lea    0x11b9cf1(%rip),%rcx        # 57aa660 <type:int@@Base>
 45f096f:	48 89 4c 24 28       	mov    %rcx,0x28(%rsp)
 45f0974:	48 89 44 24 30       	mov    %rax,0x30(%rsp)
 45f0979:	48 8d 05 bf de 67 00 	lea    0x67debf(%rip),%rax        # 4c6e83f <_IO_stdin_used@@Base+0x3b83f>
 45f0980:	bb 0c 00 00 00       	mov    $0xc,%ebx
 45f0985:	48 8d 4c 24 28       	lea    0x28(%rsp),%rcx
 45f098a:	bf 01 00 00 00       	mov    $0x1,%edi
 45f098f:	48 89 fe             	mov    %rdi,%rsi
 45f0992:	e8 69 3f a0 fd       	call   1ff4900 <fmt.Sprintf@@Base>
 45f0997:	48 8b 6c 24 38       	mov    0x38(%rsp),%rbp
 45f099c:	48 83 c4 40          	add    $0x40,%rsp
 45f09a0:	c3                   	ret
 45f09a1:	48 8d 05 2c 46 67 00 	lea    0x67462c(%rip),%rax        # 4c64fd4 <_IO_stdin_used@@Base+0x31fd4>
 45f09a8:	bb 09 00 00 00       	mov    $0x9,%ebx
 45f09ad:	48 8b 6c 24 38       	mov    0x38(%rsp),%rbp
 45f09b2:	48 83 c4 40          	add    $0x40,%rsp
 45f09b6:	c3                   	ret
 45f09b7:	48 8d 05 b7 1e 67 00 	lea    0x671eb7(%rip),%rax        # 4c62875 <_IO_stdin_used@@Base+0x2f875>
 45f09be:	bb 08 00 00 00       	mov    $0x8,%ebx
 45f09c3:	48 8b 6c 24 38       	mov    0x38(%rsp),%rbp
 45f09c8:	48 83 c4 40          	add    $0x40,%rsp
 45f09cc:	c3                   	ret
 45f09cd:	88 44 24 08          	mov    %al,0x8(%rsp)
 45f09d1:	e8 8a 3a 96 fd       	call   1f54460 <runtime.morestack_noctxt.abi0@@Base>
 45f09d6:	0f b6 44 24 08       	movzbl 0x8(%rsp),%eax
 45f09db:	0f 1f 44 00 00       	nopl   0x0(%rax,%rax,1)
 45f09e0:	e9 fb fe ff ff       	jmp    45f08e0 <github.com/google/uuid.Variant.String@@Base>
 45f09e5:	cc                   	int3
 45f09e6:	cc                   	int3
 45f09e7:	cc                   	int3
 45f09e8:	cc                   	int3
 45f09e9:	cc                   	int3
 45f09ea:	cc                   	int3
 45f09eb:	cc                   	int3
 45f09ec:	cc                   	int3
 45f09ed:	cc                   	int3
 45f09ee:	cc                   	int3
 45f09ef:	cc                   	int3
 45f09f0:	cc                   	int3
 45f09f1:	cc                   	int3
 45f09f2:	cc                   	int3
 45f09f3:	cc                   	int3
 45f09f4:	cc                   	int3
 45f09f5:	cc                   	int3
 45f09f6:	cc                   	int3
 45f09f7:	cc                   	int3
 45f09f8:	cc                   	int3
 45f09f9:	cc                   	int3
 45f09fa:	cc                   	int3
 45f09fb:	cc                   	int3
 45f09fc:	cc                   	int3
 45f09fd:	cc                   	int3
 45f09fe:	cc                   	int3
 45f09ff:	cc                   	int3

00000000045f0a00 <github.com/google/uuid.NewRandom@@Base>:
 45f0a00:	49 3b 66 10          	cmp    0x10(%r14),%rsp
 45f0a04:	76 6f                	jbe    45f0a75 <github.com/google/uuid.NewRandom@@Base+0x75>
 45f0a06:	48 83 ec 38          	sub    $0x38,%rsp
 45f0a0a:	48 89 6c 24 30       	mov    %rbp,0x30(%rsp)
 45f0a0f:	48 8d 6c 24 30       	lea    0x30(%rsp),%rbp
 45f0a14:	44 0f 11 7c 24 40    	movups %xmm15,0x40(%rsp)
 45f0a1a:	80 3d f7 9e 88 03 00 	cmpb   $0x0,0x3889ef7(%rip)        # 7e7a918 <github.com/google/uuid.poolEnabled@@Base>
 45f0a21:	74 22                	je     45f0a45 <github.com/google/uuid.NewRandom@@Base+0x45>
 45f0a23:	e8 38 01 00 00       	call   45f0b60 <github.com/google/uuid.newRandomFromPool@@Base>
 45f0a28:	0f 10 04 24          	movups (%rsp),%xmm0
 45f0a2c:	0f 11 44 24 20       	movups %xmm0,0x20(%rsp)
 45f0a31:	0f 10 44 24 20       	movups 0x20(%rsp),%xmm0
 45f0a36:	0f 11 44 24 40       	movups %xmm0,0x40(%rsp)
 45f0a3b:	48 8b 6c 24 30       	mov    0x30(%rsp),%rbp
 45f0a40:	48 83 c4 38          	add    $0x38,%rsp
 45f0a44:	c3                   	ret
 45f0a45:	48 8b 05 64 0b 84 03 	mov    0x3840b64(%rip),%rax        # 7e315b0 <github.com/google/uuid.rander@@Base>
 45f0a4c:	48 8b 1d 65 0b 84 03 	mov    0x3840b65(%rip),%rbx        # 7e315b8 <github.com/google/uuid.rander@@Base+0x8>
 45f0a53:	e8 28 00 00 00       	call   45f0a80 <github.com/google/uuid.NewRandomFromReader@@Base>
 45f0a58:	0f 10 04 24          	movups (%rsp),%xmm0
 45f0a5c:	0f 11 44 24 20       	movups %xmm0,0x20(%rsp)
 45f0a61:	0f 10 44 24 20       	movups 0x20(%rsp),%xmm0
 45f0a66:	0f 11 44 24 40       	movups %xmm0,0x40(%rsp)
 45f0a6b:	48 8b 6c 24 30       	mov    0x30(%rsp),%rbp
 45f0a70:	48 83 c4 38          	add    $0x38,%rsp
 45f0a74:	c3                   	ret
 45f0a75:	e8 e6 39 96 fd       	call   1f54460 <runtime.morestack_noctxt.abi0@@Base>
 45f0a7a:	eb 84                	jmp    45f0a00 <github.com/google/uuid.NewRandom@@Base>
 45f0a7c:	cc                   	int3
 45f0a7d:	cc                   	int3
 45f0a7e:	cc                   	int3
 45f0a7f:	cc                   	int3

00000000045f0a80 <github.com/google/uuid.NewRandomFromReader@@Base>:
 45f0a80:	49 3b 66 10          	cmp    0x10(%r14),%rsp
 45f0a84:	0f 86 a3 00 00 00    	jbe    45f0b2d <github.com/google/uuid.NewRandomFromReader@@Base+0xad>
 45f0a8a:	48 83 ec 40          	sub    $0x40,%rsp
 45f0a8e:	48 89 6c 24 38       	mov    %rbp,0x38(%rsp)
 45f0a93:	48 8d 6c 24 38       	lea    0x38(%rsp),%rbp
 45f0a98:	48 89 44 24 58       	mov    %rax,0x58(%rsp)
 45f0a9d:	48 89 5c 24 60       	mov    %rbx,0x60(%rsp)
 45f0aa2:	44 0f 11 7c 24 48    	movups %xmm15,0x48(%rsp)
 45f0aa8:	48 8d 05 71 6d 74 01 	lea    0x1746d71(%rip),%rax        # 5d37820 <type:ehvrmEUx@@Base>
 45f0aaf:	e8 2c fa 8f fd       	call   1ef04e0 <runtime.newobject@@Base>
 45f0ab4:	48 89 44 24 30       	mov    %rax,0x30(%rsp)
 45f0ab9:	90                   	nop
 45f0aba:	48 8b 5c 24 60       	mov    0x60(%rsp),%rbx
 45f0abf:	48 89 c1             	mov    %rax,%rcx
 45f0ac2:	bf 10 00 00 00       	mov    $0x10,%edi
 45f0ac7:	48 89 fe             	mov    %rdi,%rsi
 45f0aca:	49 89 f0             	mov    %rsi,%r8
 45f0acd:	48 8b 44 24 58       	mov    0x58(%rsp),%rax
 45f0ad2:	e8 c9 fe 9b fd       	call   1fb09a0 <io.ReadAtLeast@@Base>
 45f0ad7:	48 85 db             	test   %rbx,%rbx
 45f0ada:	74 1c                	je     45f0af8 <github.com/google/uuid.NewRandomFromReader@@Base+0x78>
 45f0adc:	0f 10 05 dd ad 88 03 	movups 0x388addd(%rip),%xmm0        # 7e7b8c0 <github.com/google/uuid.Nil@@Base>
 45f0ae3:	0f 11 44 24 48       	movups %xmm0,0x48(%rsp)
 45f0ae8:	48 89 d8             	mov    %rbx,%rax
 45f0aeb:	48 89 cb             	mov    %rcx,%rbx
 45f0aee:	48 8b 6c 24 38       	mov    0x38(%rsp),%rbp
 45f0af3:	48 83 c4 40          	add    $0x40,%rsp
 45f0af7:	c3                   	ret
 45f0af8:	48 8b 4c 24 30       	mov    0x30(%rsp),%rcx
 45f0afd:	0f b6 51 06          	movzbl 0x6(%rcx),%edx
 45f0b01:	83 e2 0f             	and    $0xf,%edx
 45f0b04:	83 ca 40             	or     $0x40,%edx
 45f0b07:	88 51 06             	mov    %dl,0x6(%rcx)
 45f0b0a:	0f b6 51 08          	movzbl 0x8(%rcx),%edx
 45f0b0e:	83 e2 3f             	and    $0x3f,%edx
 45f0b11:	83 ca 80             	or     $0xffffff80,%edx
 45f0b14:	88 51 08             	mov    %dl,0x8(%rcx)
 45f0b17:	0f 10 01             	movups (%rcx),%xmm0
 45f0b1a:	0f 11 44 24 48       	movups %xmm0,0x48(%rsp)
 45f0b1f:	31 c0                	xor    %eax,%eax
 45f0b21:	31 db                	xor    %ebx,%ebx
 45f0b23:	48 8b 6c 24 38       	mov    0x38(%rsp),%rbp
 45f0b28:	48 83 c4 40          	add    $0x40,%rsp
 45f0b2c:	c3                   	ret
 45f0b2d:	48 89 44 24 18       	mov    %rax,0x18(%rsp)
 45f0b32:	48 89 5c 24 20       	mov    %rbx,0x20(%rsp)
 45f0b37:	e8 24 39 96 fd       	call   1f54460 <runtime.morestack_noctxt.abi0@@Base>
 45f0b3c:	48 8b 44 24 18       	mov    0x18(%rsp),%rax
 45f0b41:	48 8b 5c 24 20       	mov    0x20(%rsp),%rbx
 45f0b46:	e9 35 ff ff ff       	jmp    45f0a80 <github.com/google/uuid.NewRandomFromReader@@Base>
 45f0b4b:	cc                   	int3
 45f0b4c:	cc                   	int3
 45f0b4d:	cc                   	int3
 45f0b4e:	cc                   	int3
 45f0b4f:	cc                   	int3
 45f0b50:	cc                   	int3
 45f0b51:	cc                   	int3
 45f0b52:	cc                   	int3
 45f0b53:	cc                   	int3
 45f0b54:	cc                   	int3
 45f0b55:	cc                   	int3
 45f0b56:	cc                   	int3
 45f0b57:	cc                   	int3
 45f0b58:	cc                   	int3
 45f0b59:	cc                   	int3
 45f0b5a:	cc                   	int3
 45f0b5b:	cc                   	int3
 45f0b5c:	cc                   	int3
 45f0b5d:	cc                   	int3
 45f0b5e:	cc                   	int3
 45f0b5f:	cc                   	int3

00000000045f0b60 <github.com/google/uuid.newRandomFromPool@@Base>:
 45f0b60:	49 3b 66 10          	cmp    0x10(%r14),%rsp
 45f0b64:	0f 86 bc 01 00 00    	jbe    45f0d26 <github.com/google/uuid.newRandomFromPool@@Base+0x1c6>
 45f0b6a:	48 83 ec 58          	sub    $0x58,%rsp
 45f0b6e:	48 89 6c 24 50       	mov    %rbp,0x50(%rsp)
 45f0b73:	48 8d 6c 24 50       	lea    0x50(%rsp),%rbp
 45f0b78:	44 0f 11 7c 24 60    	movups %xmm15,0x60(%rsp)
 45f0b7e:	44 0f 11 7c 24 38    	movups %xmm15,0x38(%rsp)
 45f0b84:	90                   	nop
 45f0b85:	31 c0                	xor    %eax,%eax
 45f0b87:	4c 8d 0d b2 a0 88 03 	lea    0x388a0b2(%rip),%r9        # 7e7ac40 <github.com/google/uuid.poolMu@@Base>
 45f0b8e:	41 ba 01 00 00 00    	mov    $0x1,%r10d
 45f0b94:	f0 45 0f b1 11       	lock cmpxchg %r10d,(%r9)
 45f0b99:	41 0f 94 c2          	sete   %r10b
 45f0b9d:	0f 1f 00             	nopl   (%rax)
 45f0ba0:	45 84 d2             	test   %r10b,%r10b
 45f0ba3:	75 13                	jne    45f0bb8 <github.com/google/uuid.newRandomFromPool@@Base+0x58>
 45f0ba5:	48 8d 05 94 a0 88 03 	lea    0x388a094(%rip),%rax        # 7e7ac40 <github.com/google/uuid.poolMu@@Base>
 45f0bac:	e8 8f 79 98 fd       	call   1f78540 <sync.(*Mutex).lockSlow@@Base>
 45f0bb1:	4c 8d 0d 88 a0 88 03 	lea    0x388a088(%rip),%r9        # 7e7ac40 <github.com/google/uuid.poolMu@@Base>
 45f0bb8:	48 81 3d 45 6c 62 03 	cmpq   $0x100,0x3626c45(%rip)        # 7c17808 <github.com/google/uuid.poolPos@@Base>
 45f0bbf:	00 01 00 00 
 45f0bc3:	0f 85 94 00 00 00    	jne    45f0c5d <github.com/google/uuid.newRandomFromPool@@Base+0xfd>
 45f0bc9:	48 8b 05 e0 09 84 03 	mov    0x38409e0(%rip),%rax        # 7e315b0 <github.com/google/uuid.rander@@Base>
 45f0bd0:	48 8b 1d e1 09 84 03 	mov    0x38409e1(%rip),%rbx        # 7e315b8 <github.com/google/uuid.rander@@Base+0x8>
 45f0bd7:	48 8d 0d 42 ca 88 03 	lea    0x388ca42(%rip),%rcx        # 7e7d620 <github.com/google/uuid.pool@@Base>
 45f0bde:	bf 00 01 00 00       	mov    $0x100,%edi
 45f0be3:	48 89 fe             	mov    %rdi,%rsi
 45f0be6:	49 89 f0             	mov    %rsi,%r8
 45f0be9:	e8 b2 fd 9b fd       	call   1fb09a0 <io.ReadAtLeast@@Base>
 45f0bee:	48 85 db             	test   %rbx,%rbx
 45f0bf1:	74 58                	je     45f0c4b <github.com/google/uuid.newRandomFromPool@@Base+0xeb>
 45f0bf3:	90                   	nop
 45f0bf4:	ba ff ff ff ff       	mov    $0xffffffff,%edx
 45f0bf9:	48 8d 35 40 a0 88 03 	lea    0x388a040(%rip),%rsi        # 7e7ac40 <github.com/google/uuid.poolMu@@Base>
 45f0c00:	f0 0f c1 16          	lock xadd %edx,(%rsi)
 45f0c04:	ff ca                	dec    %edx
 45f0c06:	85 d2                	test   %edx,%edx
 45f0c08:	74 25                	je     45f0c2f <github.com/google/uuid.newRandomFromPool@@Base+0xcf>
 45f0c0a:	48 89 4c 24 48       	mov    %rcx,0x48(%rsp)
 45f0c0f:	48 89 5c 24 30       	mov    %rbx,0x30(%rsp)
 45f0c14:	48 8d 05 25 a0 88 03 	lea    0x388a025(%rip),%rax        # 7e7ac40 <github.com/google/uuid.poolMu@@Base>
 45f0c1b:	89 d3                	mov    %edx,%ebx
 45f0c1d:	0f 1f 00             	nopl   (%rax)
 45f0c20:	e8 1b 7c 98 fd       	call   1f78840 <sync.(*Mutex).unlockSlow@@Base>
 45f0c25:	48 8b 4c 24 48       	mov    0x48(%rsp),%rcx
 45f0c2a:	48 8b 5c 24 30       	mov    0x30(%rsp),%rbx
 45f0c2f:	0f 10 05 8a ac 88 03 	movups 0x388ac8a(%rip),%xmm0        # 7e7b8c0 <github.com/google/uuid.Nil@@Base>
 45f0c36:	0f 11 44 24 60       	movups %xmm0,0x60(%rsp)
 45f0c3b:	48 89 d8             	mov    %rbx,%rax
 45f0c3e:	48 89 cb             	mov    %rcx,%rbx
 45f0c41:	48 8b 6c 24 50       	mov    0x50(%rsp),%rbp
 45f0c46:	48 83 c4 58          	add    $0x58,%rsp
 45f0c4a:	c3                   	ret
 45f0c4b:	48 c7 05 b2 6b 62 03 	movq   $0x0,0x3626bb2(%rip)        # 7c17808 <github.com/google/uuid.poolPos@@Base>
 45f0c52:	00 00 00 00 
 45f0c56:	4c 8d 0d e3 9f 88 03 	lea    0x3889fe3(%rip),%r9        # 7e7ac40 <github.com/google/uuid.poolMu@@Base>
 45f0c5d:	48 8b 0d a4 6b 62 03 	mov    0x3626ba4(%rip),%rcx        # 7c17808 <github.com/google/uuid.poolPos@@Base>
 45f0c64:	48 8d 71 10          	lea    0x10(%rcx),%rsi
 45f0c68:	48 81 fe 00 01 00 00 	cmp    $0x100,%rsi
 45f0c6f:	0f 87 9e 00 00 00    	ja     45f0d13 <github.com/google/uuid.newRandomFromPool@@Base+0x1b3>
 45f0c75:	48 39 f1             	cmp    %rsi,%rcx
 45f0c78:	0f 87 8a 00 00 00    	ja     45f0d08 <github.com/google/uuid.newRandomFromPool@@Base+0x1a8>
 45f0c7e:	48 8d 91 00 ff ff ff 	lea    -0x100(%rcx),%rdx
 45f0c85:	48 c1 fa 3f          	sar    $0x3f,%rdx
 45f0c89:	48 21 d1             	and    %rdx,%rcx
 45f0c8c:	48 8d 15 8d c9 88 03 	lea    0x388c98d(%rip),%rdx        # 7e7d620 <github.com/google/uuid.pool@@Base>
 45f0c93:	48 01 d1             	add    %rdx,%rcx
 45f0c96:	48 8d 54 24 38       	lea    0x38(%rsp),%rdx
 45f0c9b:	0f 1f 44 00 00       	nopl   0x0(%rax,%rax,1)
 45f0ca0:	48 39 ca             	cmp    %rcx,%rdx
 45f0ca3:	74 08                	je     45f0cad <github.com/google/uuid.newRandomFromPool@@Base+0x14d>
 45f0ca5:	0f 10 01             	movups (%rcx),%xmm0
 45f0ca8:	0f 11 44 24 38       	movups %xmm0,0x38(%rsp)
 45f0cad:	48 83 05 53 6b 62 03 	addq   $0x10,0x3626b53(%rip)        # 7c17808 <github.com/google/uuid.poolPos@@Base>
 45f0cb4:	10 
 45f0cb5:	90                   	nop
 45f0cb6:	bb ff ff ff ff       	mov    $0xffffffff,%ebx
 45f0cbb:	f0 41 0f c1 19       	lock xadd %ebx,(%r9)
 45f0cc0:	ff cb                	dec    %ebx
 45f0cc2:	85 db                	test   %ebx,%ebx
 45f0cc4:	74 0c                	je     45f0cd2 <github.com/google/uuid.newRandomFromPool@@Base+0x172>
 45f0cc6:	48 8d 05 73 9f 88 03 	lea    0x3889f73(%rip),%rax        # 7e7ac40 <github.com/google/uuid.poolMu@@Base>
 45f0ccd:	e8 6e 7b 98 fd       	call   1f78840 <sync.(*Mutex).unlockSlow@@Base>
 45f0cd2:	0f b6 4c 24 3e       	movzbl 0x3e(%rsp),%ecx
 45f0cd7:	83 e1 0f             	and    $0xf,%ecx
 45f0cda:	83 c9 40             	or     $0x40,%ecx
 45f0cdd:	88 4c 24 3e          	mov    %cl,0x3e(%rsp)
 45f0ce1:	0f b6 4c 24 40       	movzbl 0x40(%rsp),%ecx
 45f0ce6:	83 e1 3f             	and    $0x3f,%ecx
 45f0ce9:	83 c9 80             	or     $0xffffff80,%ecx
 45f0cec:	88 4c 24 40          	mov    %cl,0x40(%rsp)
 45f0cf0:	0f 10 44 24 38       	movups 0x38(%rsp),%xmm0
 45f0cf5:	0f 11 44 24 60       	movups %xmm0,0x60(%rsp)
 45f0cfa:	31 c0                	xor    %eax,%eax
 45f0cfc:	31 db                	xor    %ebx,%ebx
 45f0cfe:	48 8b 6c 24 50       	mov    0x50(%rsp),%rbp
 45f0d03:	48 83 c4 58          	add    $0x58,%rsp
 45f0d07:	c3                   	ret
 45f0d08:	48 89 c8             	mov    %rcx,%rax
 45f0d0b:	48 89 f1             	mov    %rsi,%rcx
 45f0d0e:	e8 4d 5e 96 fd       	call   1f56b60 <runtime.panicSliceB@@Base>
 45f0d13:	48 89 f1             	mov    %rsi,%rcx
 45f0d16:	ba 00 01 00 00       	mov    $0x100,%edx
 45f0d1b:	0f 1f 44 00 00       	nopl   0x0(%rax,%rax,1)
 45f0d20:	e8 bb 5d 96 fd       	call   1f56ae0 <runtime.panicSliceAlen@@Base>
 45f0d25:	90                   	nop
 45f0d26:	e8 35 37 96 fd       	call   1f54460 <runtime.morestack_noctxt.abi0@@Base>
 45f0d2b:	e9 30 fe ff ff       	jmp    45f0b60 <github.com/google/uuid.newRandomFromPool@@Base>
 45f0d30:	cc                   	int3
 45f0d31:	cc                   	int3
 45f0d32:	cc                   	int3
 45f0d33:	cc                   	int3
 45f0d34:	cc                   	int3
 45f0d35:	cc                   	int3
 45f0d36:	cc                   	int3
 45f0d37:	cc                   	int3
 45f0d38:	cc                   	int3
 45f0d39:	cc                   	int3
 45f0d3a:	cc                   	int3
 45f0d3b:	cc                   	int3
 45f0d3c:	cc                   	int3
 45f0d3d:	cc                   	int3
 45f0d3e:	cc                   	int3
 45f0d3f:	cc                   	int3

00000000045f0d40 <github.com/google/uuid.init@@Base>:
 45f0d40:	49 3b 66 10          	cmp    0x10(%r14),%rsp
 45f0d44:	0f 86 45 01 00 00    	jbe    45f0e8f <github.com/google/uuid.init@@Base+0x14f>
 45f0d4a:	48 83 ec 38          	sub    $0x38,%rsp
 45f0d4e:	48 89 6c 24 30       	mov    %rbp,0x30(%rsp)
 45f0d53:	48 8d 6c 24 30       	lea    0x30(%rsp),%rbp
 45f0d58:	48 8d 05 00 6d 81 00 	lea    0x816d00(%rip),%rax        # 4e07a5f <_IO_stdin_used@@Base+0x1d4a5f>
 45f0d5f:	bb 24 00 00 00       	mov    $0x24,%ebx
 45f0d64:	e8 37 ed ff ff       	call   45efaa0 <github.com/google/uuid.Parse@@Base>
 45f0d69:	0f 10 04 24          	movups (%rsp),%xmm0
 45f0d6d:	0f 11 44 24 20       	movups %xmm0,0x20(%rsp)
 45f0d72:	48 85 c0             	test   %rax,%rax
 45f0d75:	74 0e                	je     45f0d85 <github.com/google/uuid.init@@Base+0x45>
 45f0d77:	0f 85 08 01 00 00    	jne    45f0e85 <github.com/google/uuid.init@@Base+0x145>
 45f0d7d:	0f 1f 00             	nopl   (%rax)
 45f0d80:	e9 04 01 00 00       	jmp    45f0e89 <github.com/google/uuid.init@@Base+0x149>
 45f0d85:	0f 10 44 24 20       	movups 0x20(%rsp),%xmm0
 45f0d8a:	0f 11 05 ef aa 88 03 	movups %xmm0,0x388aaef(%rip)        # 7e7b880 <github.com/google/uuid.NameSpaceDNS@@Base>
 45f0d91:	48 8d 05 eb 6c 81 00 	lea    0x816ceb(%rip),%rax        # 4e07a83 <_IO_stdin_used@@Base+0x1d4a83>
 45f0d98:	bb 24 00 00 00       	mov    $0x24,%ebx
 45f0d9d:	0f 1f 00             	nopl   (%rax)
 45f0da0:	e8 fb ec ff ff       	call   45efaa0 <github.com/google/uuid.Parse@@Base>
 45f0da5:	0f 10 04 24          	movups (%rsp),%xmm0
 45f0da9:	0f 11 44 24 20       	movups %xmm0,0x20(%rsp)
 45f0dae:	48 85 c0             	test   %rax,%rax
 45f0db1:	74 0b                	je     45f0dbe <github.com/google/uuid.init@@Base+0x7e>
 45f0db3:	0f 85 c3 00 00 00    	jne    45f0e7c <github.com/google/uuid.init@@Base+0x13c>
 45f0db9:	e9 c2 00 00 00       	jmp    45f0e80 <github.com/google/uuid.init@@Base+0x140>
 45f0dbe:	0f 10 44 24 20       	movups 0x20(%rsp),%xmm0
 45f0dc3:	0f 11 05 d6 aa 88 03 	movups %xmm0,0x388aad6(%rip)        # 7e7b8a0 <github.com/google/uuid.NameSpaceURL@@Base>
 45f0dca:	48 8d 05 d6 6c 81 00 	lea    0x816cd6(%rip),%rax        # 4e07aa7 <_IO_stdin_used@@Base+0x1d4aa7>
 45f0dd1:	bb 24 00 00 00       	mov    $0x24,%ebx
 45f0dd6:	e8 c5 ec ff ff       	call   45efaa0 <github.com/google/uuid.Parse@@Base>
 45f0ddb:	0f 10 04 24          	movups (%rsp),%xmm0
 45f0ddf:	0f 11 44 24 20       	movups %xmm0,0x20(%rsp)
 45f0de4:	48 85 c0             	test   %rax,%rax
 45f0de7:	74 0b                	je     45f0df4 <github.com/google/uuid.init@@Base+0xb4>
 45f0de9:	0f 85 84 00 00 00    	jne    45f0e73 <github.com/google/uuid.init@@Base+0x133>
 45f0def:	e9 83 00 00 00       	jmp    45f0e77 <github.com/google/uuid.init@@Base+0x137>
 45f0df4:	0f 10 44 24 20       	movups 0x20(%rsp),%xmm0
 45f0df9:	0f 11 05 90 aa 88 03 	movups %xmm0,0x388aa90(%rip)        # 7e7b890 <github.com/google/uuid.NameSpaceOID@@Base>
 45f0e00:	48 8d 05 c4 6c 81 00 	lea    0x816cc4(%rip),%rax        # 4e07acb <_IO_stdin_used@@Base+0x1d4acb>
 45f0e07:	bb 24 00 00 00       	mov    $0x24,%ebx
 45f0e0c:	e8 8f ec ff ff       	call   45efaa0 <github.com/google/uuid.Parse@@Base>
 45f0e11:	0f 10 04 24          	movups (%rsp),%xmm0
 45f0e15:	0f 11 44 24 20       	movups %xmm0,0x20(%rsp)
 45f0e1a:	48 85 c0             	test   %rax,%rax
 45f0e1d:	75 49                	jne    45f0e68 <github.com/google/uuid.init@@Base+0x128>
 45f0e1f:	0f 10 44 24 20       	movups 0x20(%rsp),%xmm0
 45f0e24:	0f 11 05 85 aa 88 03 	movups %xmm0,0x388aa85(%rip)        # 7e7b8b0 <github.com/google/uuid.NameSpaceX500@@Base>
 45f0e2b:	48 8b 05 e6 e8 83 03 	mov    0x383e8e6(%rip),%rax        # 7e2f718 <crypto/rand.Reader@@Base+0x8>
 45f0e32:	48 8b 0d d7 e8 83 03 	mov    0x383e8d7(%rip),%rcx        # 7e2f710 <crypto/rand.Reader@@Base>
 45f0e39:	48 89 0d 70 07 84 03 	mov    %rcx,0x3840770(%rip)        # 7e315b0 <github.com/google/uuid.rander@@Base>
 45f0e40:	83 3d 19 ab 88 03 00 	cmpl   $0x0,0x388ab19(%rip)        # 7e7b960 <runtime.writeBarrier@@Base>
 45f0e47:	75 09                	jne    45f0e52 <github.com/google/uuid.init@@Base+0x112>
 45f0e49:	48 89 05 68 07 84 03 	mov    %rax,0x3840768(%rip)        # 7e315b8 <github.com/google/uuid.rander@@Base+0x8>
 45f0e50:	eb 0c                	jmp    45f0e5e <github.com/google/uuid.init@@Base+0x11e>
 45f0e52:	48 8d 3d 5f 07 84 03 	lea    0x384075f(%rip),%rdi        # 7e315b8 <github.com/google/uuid.rander@@Base+0x8>
 45f0e59:	e8 a2 57 96 fd       	call   1f56600 <runtime.gcWriteBarrier@@Base>
 45f0e5e:	48 8b 6c 24 30       	mov    0x30(%rsp),%rbp
 45f0e63:	48 83 c4 38          	add    $0x38,%rsp
 45f0e67:	c3                   	ret
 45f0e68:	74 04                	je     45f0e6e <github.com/google/uuid.init@@Base+0x12e>
 45f0e6a:	48 8b 40 08          	mov    0x8(%rax),%rax
 45f0e6e:	e8 cd be 92 fd       	call   1f1cd40 <runtime.gopanic@@Base>
 45f0e73:	48 8b 40 08          	mov    0x8(%rax),%rax
 45f0e77:	e8 c4 be 92 fd       	call   1f1cd40 <runtime.gopanic@@Base>
 45f0e7c:	48 8b 40 08          	mov    0x8(%rax),%rax
 45f0e80:	e8 bb be 92 fd       	call   1f1cd40 <runtime.gopanic@@Base>
 45f0e85:	48 8b 40 08          	mov    0x8(%rax),%rax
 45f0e89:	e8 b2 be 92 fd       	call   1f1cd40 <runtime.gopanic@@Base>
 45f0e8e:	90                   	nop
 45f0e8f:	e8 cc 35 96 fd       	call   1f54460 <runtime.morestack_noctxt.abi0@@Base>
 45f0e94:	e9 a7 fe ff ff       	jmp    45f0d40 <github.com/google/uuid.init@@Base>
 45f0e99:	cc                   	int3
 45f0e9a:	cc                   	int3
 45f0e9b:	cc                   	int3
 45f0e9c:	cc                   	int3
 45f0e9d:	cc                   	int3
 45f0e9e:	cc                   	int3
 45f0e9f:	cc                   	int3

00000000045f0ea0 <github.com/google/uuid.(*Domain).String@@Base>:
 45f0ea0:	49 3b 66 10          	cmp    0x10(%r14),%rsp
 45f0ea4:	0f 86 ab 00 00 00    	jbe    45f0f55 <github.com/google/uuid.(*Domain).String@@Base+0xb5>
 45f0eaa:	48 83 ec 40          	sub    $0x40,%rsp
 45f0eae:	48 89 6c 24 38       	mov    %rbp,0x38(%rsp)
 45f0eb3:	48 8d 6c 24 38       	lea    0x38(%rsp),%rbp
 45f0eb8:	4d 8b 66 20          	mov    0x20(%r14),%r12
 45f0ebc:	0f 1f 40 00          	nopl   0x0(%rax)
 45f0ec0:	4d 85 e4             	test   %r12,%r12
 45f0ec3:	0f 85 a0 00 00 00    	jne    45f0f69 <github.com/google/uuid.(*Domain).String@@Base+0xc9>
 45f0ec9:	48 85 c0             	test   %rax,%rax
 45f0ecc:	0f 84 7d 00 00 00    	je     45f0f4f <github.com/google/uuid.(*Domain).String@@Base+0xaf>
 45f0ed2:	0f b6 00             	movzbl (%rax),%eax
 45f0ed5:	84 c0                	test   %al,%al
 45f0ed7:	75 0e                	jne    45f0ee7 <github.com/google/uuid.(*Domain).String@@Base+0x47>
 45f0ed9:	bb 06 00 00 00       	mov    $0x6,%ebx
 45f0ede:	48 8d 05 66 c9 66 00 	lea    0x66c966(%rip),%rax        # 4c5d84b <_IO_stdin_used@@Base+0x2a84b>
 45f0ee5:	eb 5e                	jmp    45f0f45 <github.com/google/uuid.(*Domain).String@@Base+0xa5>
 45f0ee7:	3c 01                	cmp    $0x1,%al
 45f0ee9:	75 0e                	jne    45f0ef9 <github.com/google/uuid.(*Domain).String@@Base+0x59>
 45f0eeb:	bb 05 00 00 00       	mov    $0x5,%ebx
 45f0ef0:	48 8d 05 07 2d 65 00 	lea    0x652d07(%rip),%rax        # 4c43bfe <_IO_stdin_used@@Base+0x10bfe>
 45f0ef7:	eb 4c                	jmp    45f0f45 <github.com/google/uuid.(*Domain).String@@Base+0xa5>
 45f0ef9:	3c 02                	cmp    $0x2,%al
 45f0efb:	75 0e                	jne    45f0f0b <github.com/google/uuid.(*Domain).String@@Base+0x6b>
 45f0efd:	bb 03 00 00 00       	mov    $0x3,%ebx
 45f0f02:	48 8d 05 bc 2a 64 00 	lea    0x642abc(%rip),%rax        # 4c339c5 <_IO_stdin_used@@Base+0x9c5>
 45f0f09:	eb 3a                	jmp    45f0f45 <github.com/google/uuid.(*Domain).String@@Base+0xa5>
 45f0f0b:	44 0f 11 7c 24 28    	movups %xmm15,0x28(%rsp)
 45f0f11:	e8 ca cd 8f fd       	call   1eedce0 <runtime.convT64@@Base>
 45f0f16:	48 8d 0d 43 97 1b 01 	lea    0x11b9743(%rip),%rcx        # 57aa660 <type:int@@Base>
 45f0f1d:	48 89 4c 24 28       	mov    %rcx,0x28(%rsp)
 45f0f22:	48 89 44 24 30       	mov    %rax,0x30(%rsp)
 45f0f27:	48 8d 05 67 13 67 00 	lea    0x671367(%rip),%rax        # 4c62295 <_IO_stdin_used@@Base+0x2f295>
 45f0f2e:	bb 08 00 00 00       	mov    $0x8,%ebx
 45f0f33:	48 8d 4c 24 28       	lea    0x28(%rsp),%rcx
 45f0f38:	bf 01 00 00 00       	mov    $0x1,%edi
 45f0f3d:	48 89 fe             	mov    %rdi,%rsi
 45f0f40:	e8 bb 39 a0 fd       	call   1ff4900 <fmt.Sprintf@@Base>
 45f0f45:	48 8b 6c 24 38       	mov    0x38(%rsp),%rbp
 45f0f4a:	48 83 c4 40          	add    $0x40,%rsp
 45f0f4e:	c3                   	ret
 45f0f4f:	e8 6c b3 8f fd       	call   1eec2c0 <runtime.panicwrap@@Base>
 45f0f54:	90                   	nop
 45f0f55:	48 89 44 24 08       	mov    %rax,0x8(%rsp)
 45f0f5a:	e8 01 35 96 fd       	call   1f54460 <runtime.morestack_noctxt.abi0@@Base>
 45f0f5f:	48 8b 44 24 08       	mov    0x8(%rsp),%rax
 45f0f64:	e9 37 ff ff ff       	jmp    45f0ea0 <github.com/google/uuid.(*Domain).String@@Base>
 45f0f69:	4c 8d 6c 24 48       	lea    0x48(%rsp),%r13
 45f0f6e:	4d 39 2c 24          	cmp    %r13,(%r12)
 45f0f72:	0f 85 51 ff ff ff    	jne    45f0ec9 <github.com/google/uuid.(*Domain).String@@Base+0x29>
 45f0f78:	49 89 24 24          	mov    %rsp,(%r12)
 45f0f7c:	0f 1f 40 00          	nopl   0x0(%rax)
 45f0f80:	e9 44 ff ff ff       	jmp    45f0ec9 <github.com/google/uuid.(*Domain).String@@Base+0x29>
 45f0f85:	cc                   	int3
 45f0f86:	cc                   	int3
 45f0f87:	cc                   	int3
 45f0f88:	cc                   	int3
 45f0f89:	cc                   	int3
 45f0f8a:	cc                   	int3
 45f0f8b:	cc                   	int3
 45f0f8c:	cc                   	int3
 45f0f8d:	cc                   	int3
 45f0f8e:	cc                   	int3
 45f0f8f:	cc                   	int3
 45f0f90:	cc                   	int3
 45f0f91:	cc                   	int3
 45f0f92:	cc                   	int3
 45f0f93:	cc                   	int3
 45f0f94:	cc                   	int3
 45f0f95:	cc                   	int3
 45f0f96:	cc                   	int3
 45f0f97:	cc                   	int3
 45f0f98:	cc                   	int3
 45f0f99:	cc                   	int3
 45f0f9a:	cc                   	int3
 45f0f9b:	cc                   	int3
 45f0f9c:	cc                   	int3
 45f0f9d:	cc                   	int3
 45f0f9e:	cc                   	int3
 45f0f9f:	cc                   	int3

00000000045f0fa0 <github.com/google/uuid.(*UUID).ClockSequence@@Base>:
 45f0fa0:	48 83 ec 18          	sub    $0x18,%rsp
 45f0fa4:	48 89 6c 24 10       	mov    %rbp,0x10(%rsp)
 45f0fa9:	48 8d 6c 24 10       	lea    0x10(%rsp),%rbp
 45f0fae:	4d 8b 66 20          	mov    0x20(%r14),%r12
 45f0fb2:	4d 85 e4             	test   %r12,%r12
 45f0fb5:	75 2f                	jne    45f0fe6 <github.com/google/uuid.(*UUID).ClockSequence@@Base+0x46>
 45f0fb7:	48 85 c0             	test   %rax,%rax
 45f0fba:	74 22                	je     45f0fde <github.com/google/uuid.(*UUID).ClockSequence@@Base+0x3e>
 45f0fbc:	0f 10 00             	movups (%rax),%xmm0
 45f0fbf:	0f 11 04 24          	movups %xmm0,(%rsp)
 45f0fc3:	0f b7 4c 24 08       	movzwl 0x8(%rsp),%ecx
 45f0fc8:	66 c1 c1 08          	rol    $0x8,%cx
 45f0fcc:	0f b7 c1             	movzwl %cx,%eax
 45f0fcf:	25 ff 3f 00 00       	and    $0x3fff,%eax
 45f0fd4:	48 8b 6c 24 10       	mov    0x10(%rsp),%rbp
 45f0fd9:	48 83 c4 18          	add    $0x18,%rsp
 45f0fdd:	c3                   	ret
 45f0fde:	66 90                	xchg   %ax,%ax
 45f0fe0:	e8 db b2 8f fd       	call   1eec2c0 <runtime.panicwrap@@Base>
 45f0fe5:	90                   	nop
 45f0fe6:	4c 8d 6c 24 20       	lea    0x20(%rsp),%r13
 45f0feb:	4d 39 2c 24          	cmp    %r13,(%r12)
 45f0fef:	75 c6                	jne    45f0fb7 <github.com/google/uuid.(*UUID).ClockSequence@@Base+0x17>
 45f0ff1:	49 89 24 24          	mov    %rsp,(%r12)
 45f0ff5:	eb c0                	jmp    45f0fb7 <github.com/google/uuid.(*UUID).ClockSequence@@Base+0x17>
 45f0ff7:	cc                   	int3
 45f0ff8:	cc                   	int3
 45f0ff9:	cc                   	int3
 45f0ffa:	cc                   	int3
 45f0ffb:	cc                   	int3
 45f0ffc:	cc                   	int3
 45f0ffd:	cc                   	int3
 45f0ffe:	cc                   	int3
 45f0fff:	cc                   	int3

00000000045f1000 <github.com/google/uuid.(*UUID).Domain@@Base>:
 45f1000:	48 83 ec 18          	sub    $0x18,%rsp
 45f1004:	48 89 6c 24 10       	mov    %rbp,0x10(%rsp)
 45f1009:	48 8d 6c 24 10       	lea    0x10(%rsp),%rbp
 45f100e:	4d 8b 66 20          	mov    0x20(%r14),%r12
 45f1012:	4d 85 e4             	test   %r12,%r12
 45f1015:	75 21                	jne    45f1038 <github.com/google/uuid.(*UUID).Domain@@Base+0x38>
 45f1017:	48 85 c0             	test   %rax,%rax
 45f101a:	74 16                	je     45f1032 <github.com/google/uuid.(*UUID).Domain@@Base+0x32>
 45f101c:	0f 10 00             	movups (%rax),%xmm0
 45f101f:	0f 11 04 24          	movups %xmm0,(%rsp)
 45f1023:	0f b6 44 24 09       	movzbl 0x9(%rsp),%eax
 45f1028:	48 8b 6c 24 10       	mov    0x10(%rsp),%rbp
 45f102d:	48 83 c4 18          	add    $0x18,%rsp
 45f1031:	c3                   	ret
 45f1032:	e8 89 b2 8f fd       	call   1eec2c0 <runtime.panicwrap@@Base>
 45f1037:	90                   	nop
 45f1038:	4c 8d 6c 24 20       	lea    0x20(%rsp),%r13
 45f103d:	0f 1f 00             	nopl   (%rax)
 45f1040:	4d 39 2c 24          	cmp    %r13,(%r12)
 45f1044:	75 d1                	jne    45f1017 <github.com/google/uuid.(*UUID).Domain@@Base+0x17>
 45f1046:	49 89 24 24          	mov    %rsp,(%r12)
 45f104a:	eb cb                	jmp    45f1017 <github.com/google/uuid.(*UUID).Domain@@Base+0x17>
 45f104c:	cc                   	int3
 45f104d:	cc                   	int3
 45f104e:	cc                   	int3
 45f104f:	cc                   	int3
 45f1050:	cc                   	int3
 45f1051:	cc                   	int3
 45f1052:	cc                   	int3
 45f1053:	cc                   	int3
 45f1054:	cc                   	int3
 45f1055:	cc                   	int3
 45f1056:	cc                   	int3
 45f1057:	cc                   	int3
 45f1058:	cc                   	int3
 45f1059:	cc                   	int3
 45f105a:	cc                   	int3
 45f105b:	cc                   	int3
 45f105c:	cc                   	int3
 45f105d:	cc                   	int3
 45f105e:	cc                   	int3
 45f105f:	cc                   	int3

00000000045f1060 <github.com/google/uuid.(*UUID).ID@@Base>:
 45f1060:	48 83 ec 18          	sub    $0x18,%rsp
 45f1064:	48 89 6c 24 10       	mov    %rbp,0x10(%rsp)
 45f1069:	48 8d 6c 24 10       	lea    0x10(%rsp),%rbp
 45f106e:	4d 8b 66 20          	mov    0x20(%r14),%r12
 45f1072:	4d 85 e4             	test   %r12,%r12
 45f1075:	75 22                	jne    45f1099 <github.com/google/uuid.(*UUID).ID@@Base+0x39>
 45f1077:	48 85 c0             	test   %rax,%rax
 45f107a:	74 17                	je     45f1093 <github.com/google/uuid.(*UUID).ID@@Base+0x33>
 45f107c:	0f 10 00             	movups (%rax),%xmm0
 45f107f:	0f 11 04 24          	movups %xmm0,(%rsp)
 45f1083:	90                   	nop
 45f1084:	8b 04 24             	mov    (%rsp),%eax
 45f1087:	0f c8                	bswap  %eax
 45f1089:	48 8b 6c 24 10       	mov    0x10(%rsp),%rbp
 45f108e:	48 83 c4 18          	add    $0x18,%rsp
 45f1092:	c3                   	ret
 45f1093:	e8 28 b2 8f fd       	call   1eec2c0 <runtime.panicwrap@@Base>
 45f1098:	90                   	nop
 45f1099:	4c 8d 6c 24 20       	lea    0x20(%rsp),%r13
 45f109e:	66 90                	xchg   %ax,%ax
 45f10a0:	4d 39 2c 24          	cmp    %r13,(%r12)
 45f10a4:	75 d1                	jne    45f1077 <github.com/google/uuid.(*UUID).ID@@Base+0x17>
 45f10a6:	49 89 24 24          	mov    %rsp,(%r12)
 45f10aa:	eb cb                	jmp    45f1077 <github.com/google/uuid.(*UUID).ID@@Base+0x17>
 45f10ac:	cc                   	int3
 45f10ad:	cc                   	int3
 45f10ae:	cc                   	int3
 45f10af:	cc                   	int3
 45f10b0:	cc                   	int3
 45f10b1:	cc                   	int3
 45f10b2:	cc                   	int3
 45f10b3:	cc                   	int3
 45f10b4:	cc                   	int3
 45f10b5:	cc                   	int3
 45f10b6:	cc                   	int3
 45f10b7:	cc                   	int3
 45f10b8:	cc                   	int3
 45f10b9:	cc                   	int3
 45f10ba:	cc                   	int3
 45f10bb:	cc                   	int3
 45f10bc:	cc                   	int3
 45f10bd:	cc                   	int3
 45f10be:	cc                   	int3
 45f10bf:	cc                   	int3

00000000045f10c0 <github.com/google/uuid.(*UUID).MarshalBinary@@Base>:
 45f10c0:	49 3b 66 10          	cmp    0x10(%r14),%rsp
 45f10c4:	76 57                	jbe    45f111d <github.com/google/uuid.(*UUID).MarshalBinary@@Base+0x5d>
 45f10c6:	48 83 ec 18          	sub    $0x18,%rsp
 45f10ca:	48 89 6c 24 10       	mov    %rbp,0x10(%rsp)
 45f10cf:	48 8d 6c 24 10       	lea    0x10(%rsp),%rbp
 45f10d4:	4d 8b 66 20          	mov    0x20(%r14),%r12
 45f10d8:	4d 85 e4             	test   %r12,%r12
 45f10db:	75 51                	jne    45f112e <github.com/google/uuid.(*UUID).MarshalBinary@@Base+0x6e>
 45f10dd:	0f 1f 00             	nopl   (%rax)
 45f10e0:	48 85 c0             	test   %rax,%rax
 45f10e3:	74 32                	je     45f1117 <github.com/google/uuid.(*UUID).MarshalBinary@@Base+0x57>
 45f10e5:	48 89 44 24 20       	mov    %rax,0x20(%rsp)
 45f10ea:	48 8d 05 2f 67 74 01 	lea    0x174672f(%rip),%rax        # 5d37820 <type:ehvrmEUx@@Base>
 45f10f1:	e8 ea f3 8f fd       	call   1ef04e0 <runtime.newobject@@Base>
 45f10f6:	48 8b 4c 24 20       	mov    0x20(%rsp),%rcx
 45f10fb:	0f 10 01             	movups (%rcx),%xmm0
 45f10fe:	0f 11 00             	movups %xmm0,(%rax)
 45f1101:	bb 10 00 00 00       	mov    $0x10,%ebx
 45f1106:	48 89 d9             	mov    %rbx,%rcx
 45f1109:	31 ff                	xor    %edi,%edi
 45f110b:	31 f6                	xor    %esi,%esi
 45f110d:	48 8b 6c 24 10       	mov    0x10(%rsp),%rbp
 45f1112:	48 83 c4 18          	add    $0x18,%rsp
 45f1116:	c3                   	ret
 45f1117:	e8 a4 b1 8f fd       	call   1eec2c0 <runtime.panicwrap@@Base>
 45f111c:	90                   	nop
 45f111d:	48 89 44 24 08       	mov    %rax,0x8(%rsp)
 45f1122:	e8 39 33 96 fd       	call   1f54460 <runtime.morestack_noctxt.abi0@@Base>
 45f1127:	48 8b 44 24 08       	mov    0x8(%rsp),%rax
 45f112c:	eb 92                	jmp    45f10c0 <github.com/google/uuid.(*UUID).MarshalBinary@@Base>
 45f112e:	4c 8d 6c 24 20       	lea    0x20(%rsp),%r13
 45f1133:	4d 39 2c 24          	cmp    %r13,(%r12)
 45f1137:	75 a4                	jne    45f10dd <github.com/google/uuid.(*UUID).MarshalBinary@@Base+0x1d>
 45f1139:	49 89 24 24          	mov    %rsp,(%r12)
 45f113d:	eb 9e                	jmp    45f10dd <github.com/google/uuid.(*UUID).MarshalBinary@@Base+0x1d>
 45f113f:	cc                   	int3

00000000045f1140 <github.com/google/uuid.(*UUID).MarshalText@@Base>:
 45f1140:	49 3b 66 10          	cmp    0x10(%r14),%rsp
 45f1144:	76 6f                	jbe    45f11b5 <github.com/google/uuid.(*UUID).MarshalText@@Base+0x75>
 45f1146:	48 83 ec 48          	sub    $0x48,%rsp
 45f114a:	48 89 6c 24 40       	mov    %rbp,0x40(%rsp)
 45f114f:	48 8d 6c 24 40       	lea    0x40(%rsp),%rbp
 45f1154:	4d 8b 66 20          	mov    0x20(%r14),%r12
 45f1158:	4d 85 e4             	test   %r12,%r12
 45f115b:	75 6c                	jne    45f11c9 <github.com/google/uuid.(*UUID).MarshalText@@Base+0x89>
 45f115d:	0f 1f 00             	nopl   (%rax)
 45f1160:	48 85 c0             	test   %rax,%rax
 45f1163:	74 4a                	je     45f11af <github.com/google/uuid.(*UUID).MarshalText@@Base+0x6f>
 45f1165:	0f 10 00             	movups (%rax),%xmm0
 45f1168:	0f 11 44 24 28       	movups %xmm0,0x28(%rsp)
 45f116d:	48 8d 05 ec 13 1e 01 	lea    0x11e13ec(%rip),%rax        # 57d2560 <type:[36]uint8@@Base>
 45f1174:	e8 67 f3 8f fd       	call   1ef04e0 <runtime.newobject@@Base>
 45f1179:	48 89 44 24 38       	mov    %rax,0x38(%rsp)
 45f117e:	0f 10 44 24 28       	movups 0x28(%rsp),%xmm0
 45f1183:	0f 11 04 24          	movups %xmm0,(%rsp)
 45f1187:	bb 24 00 00 00       	mov    $0x24,%ebx
 45f118c:	48 89 d9             	mov    %rbx,%rcx
 45f118f:	e8 cc f2 ff ff       	call   45f0460 <github.com/google/uuid.encodeHex@@Base>
 45f1194:	48 8b 44 24 38       	mov    0x38(%rsp),%rax
 45f1199:	bb 24 00 00 00       	mov    $0x24,%ebx
 45f119e:	48 89 d9             	mov    %rbx,%rcx
 45f11a1:	31 ff                	xor    %edi,%edi
 45f11a3:	31 f6                	xor    %esi,%esi
 45f11a5:	48 8b 6c 24 40       	mov    0x40(%rsp),%rbp
 45f11aa:	48 83 c4 48          	add    $0x48,%rsp
 45f11ae:	c3                   	ret
 45f11af:	e8 0c b1 8f fd       	call   1eec2c0 <runtime.panicwrap@@Base>
 45f11b4:	90                   	nop
 45f11b5:	48 89 44 24 08       	mov    %rax,0x8(%rsp)
 45f11ba:	e8 a1 32 96 fd       	call   1f54460 <runtime.morestack_noctxt.abi0@@Base>
 45f11bf:	48 8b 44 24 08       	mov    0x8(%rsp),%rax
 45f11c4:	e9 77 ff ff ff       	jmp    45f1140 <github.com/google/uuid.(*UUID).MarshalText@@Base>
 45f11c9:	4c 8d 6c 24 50       	lea    0x50(%rsp),%r13
 45f11ce:	4d 39 2c 24          	cmp    %r13,(%r12)
 45f11d2:	75 89                	jne    45f115d <github.com/google/uuid.(*UUID).MarshalText@@Base+0x1d>
 45f11d4:	49 89 24 24          	mov    %rsp,(%r12)
 45f11d8:	eb 83                	jmp    45f115d <github.com/google/uuid.(*UUID).MarshalText@@Base+0x1d>
 45f11da:	cc                   	int3
 45f11db:	cc                   	int3
 45f11dc:	cc                   	int3
 45f11dd:	cc                   	int3
 45f11de:	cc                   	int3
 45f11df:	cc                   	int3

00000000045f11e0 <github.com/google/uuid.(*UUID).NodeID@@Base>:
 45f11e0:	49 3b 66 10          	cmp    0x10(%r14),%rsp
 45f11e4:	76 66                	jbe    45f124c <github.com/google/uuid.(*UUID).NodeID@@Base+0x6c>
 45f11e6:	48 83 ec 28          	sub    $0x28,%rsp
 45f11ea:	48 89 6c 24 20       	mov    %rbp,0x20(%rsp)
 45f11ef:	48 8d 6c 24 20       	lea    0x20(%rsp),%rbp
 45f11f4:	4d 8b 66 20          	mov    0x20(%r14),%r12
 45f11f8:	4d 85 e4             	test   %r12,%r12
 45f11fb:	75 60                	jne    45f125d <github.com/google/uuid.(*UUID).NodeID@@Base+0x7d>
 45f11fd:	0f 1f 00             	nopl   (%rax)
 45f1200:	48 85 c0             	test   %rax,%rax
 45f1203:	74 41                	je     45f1246 <github.com/google/uuid.(*UUID).NodeID@@Base+0x66>
 45f1205:	0f 10 00             	movups (%rax),%xmm0
 45f1208:	0f 11 44 24 10       	movups %xmm0,0x10(%rsp)
 45f120d:	48 8d 05 6c 6b 1e 01 	lea    0x11e6b6c(%rip),%rax        # 57d7d80 <type:[6]uint8@@Base>
 45f1214:	e8 c7 f2 8f fd       	call   1ef04e0 <runtime.newobject@@Base>
 45f1219:	48 8d 4c 24 1a       	lea    0x1a(%rsp),%rcx
 45f121e:	66 90                	xchg   %ax,%ax
 45f1220:	48 39 c8             	cmp    %rcx,%rax
 45f1223:	74 0f                	je     45f1234 <github.com/google/uuid.(*UUID).NodeID@@Base+0x54>
 45f1225:	8b 54 24 1a          	mov    0x1a(%rsp),%edx
 45f1229:	0f b7 74 24 1e       	movzwl 0x1e(%rsp),%esi
 45f122e:	89 10                	mov    %edx,(%rax)
 45f1230:	66 89 70 04          	mov    %si,0x4(%rax)
 45f1234:	bb 06 00 00 00       	mov    $0x6,%ebx
 45f1239:	48 89 d9             	mov    %rbx,%rcx
 45f123c:	48 8b 6c 24 20       	mov    0x20(%rsp),%rbp
 45f1241:	48 83 c4 28          	add    $0x28,%rsp
 45f1245:	c3                   	ret
 45f1246:	e8 75 b0 8f fd       	call   1eec2c0 <runtime.panicwrap@@Base>
 45f124b:	90                   	nop
 45f124c:	48 89 44 24 08       	mov    %rax,0x8(%rsp)
 45f1251:	e8 0a 32 96 fd       	call   1f54460 <runtime.morestack_noctxt.abi0@@Base>
 45f1256:	48 8b 44 24 08       	mov    0x8(%rsp),%rax
 45f125b:	eb 83                	jmp    45f11e0 <github.com/google/uuid.(*UUID).NodeID@@Base>
 45f125d:	4c 8d 6c 24 30       	lea    0x30(%rsp),%r13
 45f1262:	4d 39 2c 24          	cmp    %r13,(%r12)
 45f1266:	75 95                	jne    45f11fd <github.com/google/uuid.(*UUID).NodeID@@Base+0x1d>
 45f1268:	49 89 24 24          	mov    %rsp,(%r12)
 45f126c:	eb 8f                	jmp    45f11fd <github.com/google/uuid.(*UUID).NodeID@@Base+0x1d>
 45f126e:	cc                   	int3
 45f126f:	cc                   	int3
 45f1270:	cc                   	int3
 45f1271:	cc                   	int3
 45f1272:	cc                   	int3
 45f1273:	cc                   	int3
 45f1274:	cc                   	int3
 45f1275:	cc                   	int3
 45f1276:	cc                   	int3
 45f1277:	cc                   	int3
 45f1278:	cc                   	int3
 45f1279:	cc                   	int3
 45f127a:	cc                   	int3
 45f127b:	cc                   	int3
 45f127c:	cc                   	int3
 45f127d:	cc                   	int3
 45f127e:	cc                   	int3
 45f127f:	cc                   	int3

00000000045f1280 <github.com/google/uuid.(*UUID).String@@Base>:
 45f1280:	49 3b 66 10          	cmp    0x10(%r14),%rsp
 45f1284:	76 75                	jbe    45f12fb <github.com/google/uuid.(*UUID).String@@Base+0x7b>
 45f1286:	48 83 ec 68          	sub    $0x68,%rsp
 45f128a:	48 89 6c 24 60       	mov    %rbp,0x60(%rsp)
 45f128f:	48 8d 6c 24 60       	lea    0x60(%rsp),%rbp
 45f1294:	4d 8b 66 20          	mov    0x20(%r14),%r12
 45f1298:	4d 85 e4             	test   %r12,%r12
 45f129b:	75 72                	jne    45f130f <github.com/google/uuid.(*UUID).String@@Base+0x8f>
 45f129d:	0f 1f 00             	nopl   (%rax)
 45f12a0:	48 85 c0             	test   %rax,%rax
 45f12a3:	74 50                	je     45f12f5 <github.com/google/uuid.(*UUID).String@@Base+0x75>
 45f12a5:	0f 10 00             	movups (%rax),%xmm0
 45f12a8:	0f 11 44 24 2c       	movups %xmm0,0x2c(%rsp)
 45f12ad:	44 0f 11 7c 24 3c    	movups %xmm15,0x3c(%rsp)
 45f12b3:	44 0f 11 7c 24 40    	movups %xmm15,0x40(%rsp)
 45f12b9:	44 0f 11 7c 24 50    	movups %xmm15,0x50(%rsp)
 45f12bf:	0f 10 44 24 2c       	movups 0x2c(%rsp),%xmm0
 45f12c4:	0f 11 04 24          	movups %xmm0,(%rsp)
 45f12c8:	48 8d 44 24 3c       	lea    0x3c(%rsp),%rax
 45f12cd:	bb 24 00 00 00       	mov    $0x24,%ebx
 45f12d2:	48 89 d9             	mov    %rbx,%rcx
 45f12d5:	e8 86 f1 ff ff       	call   45f0460 <github.com/google/uuid.encodeHex@@Base>
 45f12da:	31 c0                	xor    %eax,%eax
 45f12dc:	48 8d 5c 24 3c       	lea    0x3c(%rsp),%rbx
 45f12e1:	b9 24 00 00 00       	mov    $0x24,%ecx
 45f12e6:	e8 d5 93 94 fd       	call   1f3a6c0 <runtime.slicebytetostring@@Base>
 45f12eb:	48 8b 6c 24 60       	mov    0x60(%rsp),%rbp
 45f12f0:	48 83 c4 68          	add    $0x68,%rsp
 45f12f4:	c3                   	ret
 45f12f5:	e8 c6 af 8f fd       	call   1eec2c0 <runtime.panicwrap@@Base>
 45f12fa:	90                   	nop
 45f12fb:	48 89 44 24 08       	mov    %rax,0x8(%rsp)
 45f1300:	e8 5b 31 96 fd       	call   1f54460 <runtime.morestack_noctxt.abi0@@Base>
 45f1305:	48 8b 44 24 08       	mov    0x8(%rsp),%rax
 45f130a:	e9 71 ff ff ff       	jmp    45f1280 <github.com/google/uuid.(*UUID).String@@Base>
 45f130f:	4c 8d 6c 24 70       	lea    0x70(%rsp),%r13
 45f1314:	4d 39 2c 24          	cmp    %r13,(%r12)
 45f1318:	75 83                	jne    45f129d <github.com/google/uuid.(*UUID).String@@Base+0x1d>
 45f131a:	49 89 24 24          	mov    %rsp,(%r12)
 45f131e:	66 90                	xchg   %ax,%ax
 45f1320:	e9 78 ff ff ff       	jmp    45f129d <github.com/google/uuid.(*UUID).String@@Base+0x1d>
 45f1325:	cc                   	int3
 45f1326:	cc                   	int3
 45f1327:	cc                   	int3
 45f1328:	cc                   	int3
 45f1329:	cc                   	int3
 45f132a:	cc                   	int3
 45f132b:	cc                   	int3
 45f132c:	cc                   	int3
 45f132d:	cc                   	int3
 45f132e:	cc                   	int3
 45f132f:	cc                   	int3
 45f1330:	cc                   	int3
 45f1331:	cc                   	int3
 45f1332:	cc                   	int3
 45f1333:	cc                   	int3
 45f1334:	cc                   	int3
 45f1335:	cc                   	int3
 45f1336:	cc                   	int3
 45f1337:	cc                   	int3
 45f1338:	cc                   	int3
 45f1339:	cc                   	int3
 45f133a:	cc                   	int3
 45f133b:	cc                   	int3
 45f133c:	cc                   	int3
 45f133d:	cc                   	int3
 45f133e:	cc                   	int3
 45f133f:	cc                   	int3

00000000045f1340 <github.com/google/uuid.(*UUID).Time@@Base>:
 45f1340:	49 3b 66 10          	cmp    0x10(%r14),%rsp
 45f1344:	76 45                	jbe    45f138b <github.com/google/uuid.(*UUID).Time@@Base+0x4b>
 45f1346:	48 83 ec 28          	sub    $0x28,%rsp
 45f134a:	48 89 6c 24 20       	mov    %rbp,0x20(%rsp)
 45f134f:	48 8d 6c 24 20       	lea    0x20(%rsp),%rbp
 45f1354:	4d 8b 66 20          	mov    0x20(%r14),%r12
 45f1358:	4d 85 e4             	test   %r12,%r12
 45f135b:	75 3f                	jne    45f139c <github.com/google/uuid.(*UUID).Time@@Base+0x5c>
 45f135d:	0f 1f 00             	nopl   (%rax)
 45f1360:	48 85 c0             	test   %rax,%rax
 45f1363:	74 20                	je     45f1385 <github.com/google/uuid.(*UUID).Time@@Base+0x45>
 45f1365:	0f 10 00             	movups (%rax),%xmm0
 45f1368:	0f 11 44 24 10       	movups %xmm0,0x10(%rsp)
 45f136d:	0f 10 44 24 10       	movups 0x10(%rsp),%xmm0
 45f1372:	0f 11 04 24          	movups %xmm0,(%rsp)
 45f1376:	e8 e5 e5 ff ff       	call   45ef960 <github.com/google/uuid.UUID.Time@@Base>
 45f137b:	48 8b 6c 24 20       	mov    0x20(%rsp),%rbp
 45f1380:	48 83 c4 28          	add    $0x28,%rsp
 45f1384:	c3                   	ret
 45f1385:	e8 36 af 8f fd       	call   1eec2c0 <runtime.panicwrap@@Base>
 45f138a:	90                   	nop
 45f138b:	48 89 44 24 08       	mov    %rax,0x8(%rsp)
 45f1390:	e8 cb 30 96 fd       	call   1f54460 <runtime.morestack_noctxt.abi0@@Base>
 45f1395:	48 8b 44 24 08       	mov    0x8(%rsp),%rax
 45f139a:	eb a4                	jmp    45f1340 <github.com/google/uuid.(*UUID).Time@@Base>
 45f139c:	4c 8d 6c 24 30       	lea    0x30(%rsp),%r13
 45f13a1:	4d 39 2c 24          	cmp    %r13,(%r12)
 45f13a5:	75 b6                	jne    45f135d <github.com/google/uuid.(*UUID).Time@@Base+0x1d>
 45f13a7:	49 89 24 24          	mov    %rsp,(%r12)
 45f13ab:	eb b0                	jmp    45f135d <github.com/google/uuid.(*UUID).Time@@Base+0x1d>
 45f13ad:	cc                   	int3
 45f13ae:	cc                   	int3
 45f13af:	cc                   	int3
 45f13b0:	cc                   	int3
 45f13b1:	cc                   	int3
 45f13b2:	cc                   	int3
 45f13b3:	cc                   	int3
 45f13b4:	cc                   	int3
 45f13b5:	cc                   	int3
 45f13b6:	cc                   	int3
 45f13b7:	cc                   	int3
 45f13b8:	cc                   	int3
 45f13b9:	cc                   	int3
 45f13ba:	cc                   	int3
 45f13bb:	cc                   	int3
 45f13bc:	cc                   	int3
 45f13bd:	cc                   	int3
 45f13be:	cc                   	int3
 45f13bf:	cc                   	int3

00000000045f13c0 <github.com/google/uuid.(*UUID).URN@@Base>:
 45f13c0:	49 3b 66 10          	cmp    0x10(%r14),%rsp
 45f13c4:	0f 86 8e 00 00 00    	jbe    45f1458 <github.com/google/uuid.(*UUID).URN@@Base+0x98>
 45f13ca:	48 83 ec 70          	sub    $0x70,%rsp
 45f13ce:	48 89 6c 24 68       	mov    %rbp,0x68(%rsp)
 45f13d3:	48 8d 6c 24 68       	lea    0x68(%rsp),%rbp
 45f13d8:	4d 8b 66 20          	mov    0x20(%r14),%r12
 45f13dc:	0f 1f 40 00          	nopl   0x0(%rax)
 45f13e0:	4d 85 e4             	test   %r12,%r12
 45f13e3:	0f 85 86 00 00 00    	jne    45f146f <github.com/google/uuid.(*UUID).URN@@Base+0xaf>
 45f13e9:	48 85 c0             	test   %rax,%rax
 45f13ec:	74 64                	je     45f1452 <github.com/google/uuid.(*UUID).URN@@Base+0x92>
 45f13ee:	0f 10 00             	movups (%rax),%xmm0
 45f13f1:	0f 11 44 24 2b       	movups %xmm0,0x2b(%rsp)
 45f13f6:	44 0f 11 7c 24 3b    	movups %xmm15,0x3b(%rsp)
 45f13fc:	44 0f 11 7c 24 48    	movups %xmm15,0x48(%rsp)
 45f1402:	44 0f 11 7c 24 58    	movups %xmm15,0x58(%rsp)
 45f1408:	48 ba 75 72 6e 3a 75 	movabs $0x646975753a6e7275,%rdx
 45f140f:	75 69 64 
 45f1412:	48 89 54 24 3b       	mov    %rdx,0x3b(%rsp)
 45f1417:	c6 44 24 43 3a       	movb   $0x3a,0x43(%rsp)
 45f141c:	0f 10 44 24 2b       	movups 0x2b(%rsp),%xmm0
 45f1421:	0f 11 04 24          	movups %xmm0,(%rsp)
 45f1425:	48 8d 44 24 44       	lea    0x44(%rsp),%rax
 45f142a:	bb 24 00 00 00       	mov    $0x24,%ebx
 45f142f:	48 89 d9             	mov    %rbx,%rcx
 45f1432:	e8 29 f0 ff ff       	call   45f0460 <github.com/google/uuid.encodeHex@@Base>
 45f1437:	31 c0                	xor    %eax,%eax
 45f1439:	48 8d 5c 24 3b       	lea    0x3b(%rsp),%rbx
 45f143e:	b9 2d 00 00 00       	mov    $0x2d,%ecx
 45f1443:	e8 78 92 94 fd       	call   1f3a6c0 <runtime.slicebytetostring@@Base>
 45f1448:	48 8b 6c 24 68       	mov    0x68(%rsp),%rbp
 45f144d:	48 83 c4 70          	add    $0x70,%rsp
 45f1451:	c3                   	ret
 45f1452:	e8 69 ae 8f fd       	call   1eec2c0 <runtime.panicwrap@@Base>
 45f1457:	90                   	nop
 45f1458:	48 89 44 24 08       	mov    %rax,0x8(%rsp)
 45f145d:	0f 1f 00             	nopl   (%rax)
 45f1460:	e8 fb 2f 96 fd       	call   1f54460 <runtime.morestack_noctxt.abi0@@Base>
 45f1465:	48 8b 44 24 08       	mov    0x8(%rsp),%rax
 45f146a:	e9 51 ff ff ff       	jmp    45f13c0 <github.com/google/uuid.(*UUID).URN@@Base>
 45f146f:	4c 8d 6c 24 78       	lea    0x78(%rsp),%r13
 45f1474:	4d 39 2c 24          	cmp    %r13,(%r12)
 45f1478:	0f 85 6b ff ff ff    	jne    45f13e9 <github.com/google/uuid.(*UUID).URN@@Base+0x29>
 45f147e:	49 89 24 24          	mov    %rsp,(%r12)
 45f1482:	e9 62 ff ff ff       	jmp    45f13e9 <github.com/google/uuid.(*UUID).URN@@Base+0x29>
 45f1487:	cc                   	int3
 45f1488:	cc                   	int3
 45f1489:	cc                   	int3
 45f148a:	cc                   	int3
 45f148b:	cc                   	int3
 45f148c:	cc                   	int3
 45f148d:	cc                   	int3
 45f148e:	cc                   	int3
 45f148f:	cc                   	int3
 45f1490:	cc                   	int3
 45f1491:	cc                   	int3
 45f1492:	cc                   	int3
 45f1493:	cc                   	int3
 45f1494:	cc                   	int3
 45f1495:	cc                   	int3
 45f1496:	cc                   	int3
 45f1497:	cc                   	int3
 45f1498:	cc                   	int3
 45f1499:	cc                   	int3
 45f149a:	cc                   	int3
 45f149b:	cc                   	int3
 45f149c:	cc                   	int3
 45f149d:	cc                   	int3
 45f149e:	cc                   	int3
 45f149f:	cc                   	int3

00000000045f14a0 <github.com/google/uuid.(*UUID).Value@@Base>:
 45f14a0:	49 3b 66 10          	cmp    0x10(%r14),%rsp
 45f14a4:	0f 86 9c 00 00 00    	jbe    45f1546 <github.com/google/uuid.(*UUID).Value@@Base+0xa6>
 45f14aa:	48 83 ec 78          	sub    $0x78,%rsp
 45f14ae:	48 89 6c 24 70       	mov    %rbp,0x70(%rsp)
 45f14b3:	48 8d 6c 24 70       	lea    0x70(%rsp),%rbp
 45f14b8:	4d 8b 66 20          	mov    0x20(%r14),%r12
 45f14bc:	0f 1f 40 00          	nopl   0x0(%rax)
 45f14c0:	4d 85 e4             	test   %r12,%r12
 45f14c3:	0f 85 91 00 00 00    	jne    45f155a <github.com/google/uuid.(*UUID).Value@@Base+0xba>
 45f14c9:	48 85 c0             	test   %rax,%rax
 45f14cc:	74 72                	je     45f1540 <github.com/google/uuid.(*UUID).Value@@Base+0xa0>
 45f14ce:	0f 10 00             	movups (%rax),%xmm0
 45f14d1:	0f 11 44 24 3c       	movups %xmm0,0x3c(%rsp)
 45f14d6:	0f 10 44 24 3c       	movups 0x3c(%rsp),%xmm0
 45f14db:	0f 11 44 24 2c       	movups %xmm0,0x2c(%rsp)
 45f14e0:	44 0f 11 7c 24 4c    	movups %xmm15,0x4c(%rsp)
 45f14e6:	44 0f 11 7c 24 50    	movups %xmm15,0x50(%rsp)
 45f14ec:	44 0f 11 7c 24 60    	movups %xmm15,0x60(%rsp)
 45f14f2:	0f 10 44 24 2c       	movups 0x2c(%rsp),%xmm0
 45f14f7:	0f 11 04 24          	movups %xmm0,(%rsp)
 45f14fb:	48 8d 44 24 4c       	lea    0x4c(%rsp),%rax
 45f1500:	bb 24 00 00 00       	mov    $0x24,%ebx
 45f1505:	48 89 d9             	mov    %rbx,%rcx
 45f1508:	e8 53 ef ff ff       	call   45f0460 <github.com/google/uuid.encodeHex@@Base>
 45f150d:	31 c0                	xor    %eax,%eax
 45f150f:	48 8d 5c 24 4c       	lea    0x4c(%rsp),%rbx
 45f1514:	b9 24 00 00 00       	mov    $0x24,%ecx
 45f1519:	e8 a2 91 94 fd       	call   1f3a6c0 <runtime.slicebytetostring@@Base>
 45f151e:	66 90                	xchg   %ax,%ax
 45f1520:	e8 3b c8 8f fd       	call   1eedd60 <runtime.convTstring@@Base>
 45f1525:	48 89 c3             	mov    %rax,%rbx
 45f1528:	31 c9                	xor    %ecx,%ecx
 45f152a:	31 ff                	xor    %edi,%edi
 45f152c:	48 8d 05 6d d1 1b 01 	lea    0x11bd16d(%rip),%rax        # 57ae6a0 <type:string@@Base>
 45f1533:	48 8b 6c 24 70       	mov    0x70(%rsp),%rbp
 45f1538:	48 83 c4 78          	add    $0x78,%rsp
 45f153c:	c3                   	ret
 45f153d:	0f 1f 00             	nopl   (%rax)
 45f1540:	e8 7b ad 8f fd       	call   1eec2c0 <runtime.panicwrap@@Base>
 45f1545:	90                   	nop
 45f1546:	48 89 44 24 08       	mov    %rax,0x8(%rsp)
 45f154b:	e8 10 2f 96 fd       	call   1f54460 <runtime.morestack_noctxt.abi0@@Base>
 45f1550:	48 8b 44 24 08       	mov    0x8(%rsp),%rax
 45f1555:	e9 46 ff ff ff       	jmp    45f14a0 <github.com/google/uuid.(*UUID).Value@@Base>
 45f155a:	4c 8d ac 24 80 00 00 	lea    0x80(%rsp),%r13
 45f1561:	00 
 45f1562:	4d 39 2c 24          	cmp    %r13,(%r12)
 45f1566:	0f 85 5d ff ff ff    	jne    45f14c9 <github.com/google/uuid.(*UUID).Value@@Base+0x29>
 45f156c:	49 89 24 24          	mov    %rsp,(%r12)
 45f1570:	e9 54 ff ff ff       	jmp    45f14c9 <github.com/google/uuid.(*UUID).Value@@Base+0x29>
 45f1575:	cc                   	int3
 45f1576:	cc                   	int3
 45f1577:	cc                   	int3
 45f1578:	cc                   	int3
 45f1579:	cc                   	int3
 45f157a:	cc                   	int3
 45f157b:	cc                   	int3
 45f157c:	cc                   	int3
 45f157d:	cc                   	int3
 45f157e:	cc                   	int3
 45f157f:	cc                   	int3

00000000045f1580 <github.com/google/uuid.(*UUID).Variant@@Base>:
 45f1580:	48 83 ec 18          	sub    $0x18,%rsp
 45f1584:	48 89 6c 24 10       	mov    %rbp,0x10(%rsp)
 45f1589:	48 8d 6c 24 10       	lea    0x10(%rsp),%rbp
 45f158e:	4d 8b 66 20          	mov    0x20(%r14),%r12
 45f1592:	4d 85 e4             	test   %r12,%r12
 45f1595:	75 56                	jne    45f15ed <github.com/google/uuid.(*UUID).Variant@@Base+0x6d>
 45f1597:	48 85 c0             	test   %rax,%rax
 45f159a:	74 4b                	je     45f15e7 <github.com/google/uuid.(*UUID).Variant@@Base+0x67>
 45f159c:	0f 10 00             	movups (%rax),%xmm0
 45f159f:	0f 11 04 24          	movups %xmm0,(%rsp)
 45f15a3:	0f b6 4c 24 08       	movzbl 0x8(%rsp),%ecx
 45f15a8:	89 ca                	mov    %ecx,%edx
 45f15aa:	83 e1 c0             	and    $0xffffffc0,%ecx
 45f15ad:	80 f9 80             	cmp    $0x80,%cl
 45f15b0:	75 07                	jne    45f15b9 <github.com/google/uuid.(*UUID).Variant@@Base+0x39>
 45f15b2:	b8 01 00 00 00       	mov    $0x1,%eax
 45f15b7:	eb 24                	jmp    45f15dd <github.com/google/uuid.(*UUID).Variant@@Base+0x5d>
 45f15b9:	83 e2 e0             	and    $0xffffffe0,%edx
 45f15bc:	0f 1f 40 00          	nopl   0x0(%rax)
 45f15c0:	80 fa c0             	cmp    $0xc0,%dl
 45f15c3:	75 07                	jne    45f15cc <github.com/google/uuid.(*UUID).Variant@@Base+0x4c>
 45f15c5:	b8 03 00 00 00       	mov    $0x3,%eax
 45f15ca:	eb 11                	jmp    45f15dd <github.com/google/uuid.(*UUID).Variant@@Base+0x5d>
 45f15cc:	80 fa e0             	cmp    $0xe0,%dl
 45f15cf:	75 07                	jne    45f15d8 <github.com/google/uuid.(*UUID).Variant@@Base+0x58>
 45f15d1:	b8 04 00 00 00       	mov    $0x4,%eax
 45f15d6:	eb 05                	jmp    45f15dd <github.com/google/uuid.(*UUID).Variant@@Base+0x5d>
 45f15d8:	b8 02 00 00 00       	mov    $0x2,%eax
 45f15dd:	48 8b 6c 24 10       	mov    0x10(%rsp),%rbp
 45f15e2:	48 83 c4 18          	add    $0x18,%rsp
 45f15e6:	c3                   	ret
 45f15e7:	e8 d4 ac 8f fd       	call   1eec2c0 <runtime.panicwrap@@Base>
 45f15ec:	90                   	nop
 45f15ed:	4c 8d 6c 24 20       	lea    0x20(%rsp),%r13
 45f15f2:	4d 39 2c 24          	cmp    %r13,(%r12)
 45f15f6:	75 9f                	jne    45f1597 <github.com/google/uuid.(*UUID).Variant@@Base+0x17>
 45f15f8:	49 89 24 24          	mov    %rsp,(%r12)
 45f15fc:	eb 99                	jmp    45f1597 <github.com/google/uuid.(*UUID).Variant@@Base+0x17>
 45f15fe:	cc                   	int3
 45f15ff:	cc                   	int3

00000000045f1600 <github.com/google/uuid.(*UUID).Version@@Base>:
 45f1600:	48 83 ec 18          	sub    $0x18,%rsp
 45f1604:	48 89 6c 24 10       	mov    %rbp,0x10(%rsp)
 45f1609:	48 8d 6c 24 10       	lea    0x10(%rsp),%rbp
 45f160e:	4d 8b 66 20          	mov    0x20(%r14),%r12
 45f1612:	4d 85 e4             	test   %r12,%r12
 45f1615:	75 24                	jne    45f163b <github.com/google/uuid.(*UUID).Version@@Base+0x3b>
 45f1617:	48 85 c0             	test   %rax,%rax
 45f161a:	74 19                	je     45f1635 <github.com/google/uuid.(*UUID).Version@@Base+0x35>
 45f161c:	0f 10 00             	movups (%rax),%xmm0
 45f161f:	0f 11 04 24          	movups %xmm0,(%rsp)
 45f1623:	0f b6 44 24 06       	movzbl 0x6(%rsp),%eax
 45f1628:	c0 e8 04             	shr    $0x4,%al
 45f162b:	48 8b 6c 24 10       	mov    0x10(%rsp),%rbp
 45f1630:	48 83 c4 18          	add    $0x18,%rsp
 45f1634:	c3                   	ret
 45f1635:	e8 86 ac 8f fd       	call   1eec2c0 <runtime.panicwrap@@Base>
 45f163a:	90                   	nop
 45f163b:	4c 8d 6c 24 20       	lea    0x20(%rsp),%r13
 45f1640:	4d 39 2c 24          	cmp    %r13,(%r12)
 45f1644:	75 d1                	jne    45f1617 <github.com/google/uuid.(*UUID).Version@@Base+0x17>
 45f1646:	49 89 24 24          	mov    %rsp,(%r12)
 45f164a:	eb cb                	jmp    45f1617 <github.com/google/uuid.(*UUID).Version@@Base+0x17>
 45f164c:	cc                   	int3
 45f164d:	cc                   	int3
 45f164e:	cc                   	int3
 45f164f:	cc                   	int3
 45f1650:	cc                   	int3
 45f1651:	cc                   	int3
 45f1652:	cc                   	int3
 45f1653:	cc                   	int3
 45f1654:	cc                   	int3
 45f1655:	cc                   	int3
 45f1656:	cc                   	int3
 45f1657:	cc                   	int3
 45f1658:	cc                   	int3
 45f1659:	cc                   	int3
 45f165a:	cc                   	int3
 45f165b:	cc                   	int3
 45f165c:	cc                   	int3
 45f165d:	cc                   	int3
 45f165e:	cc                   	int3
 45f165f:	cc                   	int3

00000000045f1660 <github.com/google/uuid.(*Time).UnixTime@@Base>:
 45f1660:	48 83 ec 08          	sub    $0x8,%rsp
 45f1664:	48 89 2c 24          	mov    %rbp,(%rsp)
 45f1668:	48 8d 2c 24          	lea    (%rsp),%rbp
 45f166c:	4d 8b 66 20          	mov    0x20(%r14),%r12
 45f1670:	4d 85 e4             	test   %r12,%r12
 45f1673:	75 5f                	jne    45f16d4 <github.com/google/uuid.(*Time).UnixTime@@Base+0x74>
 45f1675:	48 85 c0             	test   %rax,%rax
 45f1678:	74 54                	je     45f16ce <github.com/google/uuid.(*Time).UnixTime@@Base+0x6e>
 45f167a:	48 8b 08             	mov    (%rax),%rcx
 45f167d:	48 ba 00 c0 7e ec 2d 	movabs $0xfe4de22dec7ec000,%rdx
 45f1684:	e2 4d fe 
 45f1687:	48 8d 34 0a          	lea    (%rdx,%rcx,1),%rsi
 45f168b:	48 b8 bd 42 7a e5 d5 	movabs $0xd6bf94d5e57a42bd,%rax
 45f1692:	94 bf d6 
 45f1695:	48 f7 ee             	imul   %rsi
 45f1698:	48 01 ca             	add    %rcx,%rdx
 45f169b:	48 bf 00 c0 7e ec 2d 	movabs $0xfe4de22dec7ec000,%rdi
 45f16a2:	e2 4d fe 
 45f16a5:	48 8d 04 3a          	lea    (%rdx,%rdi,1),%rax
 45f16a9:	48 c1 f8 17          	sar    $0x17,%rax
 45f16ad:	48 c1 fe 3f          	sar    $0x3f,%rsi
 45f16b1:	48 29 f0             	sub    %rsi,%rax
 45f16b4:	48 69 d0 80 96 98 00 	imul   $0x989680,%rax,%rdx
 45f16bb:	48 29 d1             	sub    %rdx,%rcx
 45f16be:	48 01 f9             	add    %rdi,%rcx
 45f16c1:	48 6b d9 64          	imul   $0x64,%rcx,%rbx
 45f16c5:	48 8b 2c 24          	mov    (%rsp),%rbp
 45f16c9:	48 83 c4 08          	add    $0x8,%rsp
 45f16cd:	c3                   	ret
 45f16ce:	e8 ed ab 8f fd       	call   1eec2c0 <runtime.panicwrap@@Base>
 45f16d3:	90                   	nop
 45f16d4:	4c 8d 6c 24 10       	lea    0x10(%rsp),%r13
 45f16d9:	4d 39 2c 24          	cmp    %r13,(%r12)
 45f16dd:	75 96                	jne    45f1675 <github.com/google/uuid.(*Time).UnixTime@@Base+0x15>
 45f16df:	49 89 24 24          	mov    %rsp,(%r12)
 45f16e3:	eb 90                	jmp    45f1675 <github.com/google/uuid.(*Time).UnixTime@@Base+0x15>
 45f16e5:	cc                   	int3
 45f16e6:	cc                   	int3
 45f16e7:	cc                   	int3
 45f16e8:	cc                   	int3
 45f16e9:	cc                   	int3
 45f16ea:	cc                   	int3
 45f16eb:	cc                   	int3
 45f16ec:	cc                   	int3
 45f16ed:	cc                   	int3
 45f16ee:	cc                   	int3
 45f16ef:	cc                   	int3
 45f16f0:	cc                   	int3
 45f16f1:	cc                   	int3
 45f16f2:	cc                   	int3
 45f16f3:	cc                   	int3
 45f16f4:	cc                   	int3
 45f16f5:	cc                   	int3
 45f16f6:	cc                   	int3
 45f16f7:	cc                   	int3
 45f16f8:	cc                   	int3
 45f16f9:	cc                   	int3
 45f16fa:	cc                   	int3
 45f16fb:	cc                   	int3
 45f16fc:	cc                   	int3
 45f16fd:	cc                   	int3
 45f16fe:	cc                   	int3
 45f16ff:	cc                   	int3

00000000045f1700 <github.com/google/uuid.(*Variant).String@@Base>:
 45f1700:	49 3b 66 10          	cmp    0x10(%r14),%rsp
 45f1704:	76 37                	jbe    45f173d <github.com/google/uuid.(*Variant).String@@Base+0x3d>
 45f1706:	48 83 ec 10          	sub    $0x10,%rsp
 45f170a:	48 89 6c 24 08       	mov    %rbp,0x8(%rsp)
 45f170f:	48 8d 6c 24 08       	lea    0x8(%rsp),%rbp
 45f1714:	4d 8b 66 20          	mov    0x20(%r14),%r12
 45f1718:	4d 85 e4             	test   %r12,%r12
 45f171b:	75 31                	jne    45f174e <github.com/google/uuid.(*Variant).String@@Base+0x4e>
 45f171d:	0f 1f 00             	nopl   (%rax)
 45f1720:	48 85 c0             	test   %rax,%rax
 45f1723:	74 12                	je     45f1737 <github.com/google/uuid.(*Variant).String@@Base+0x37>
 45f1725:	0f b6 00             	movzbl (%rax),%eax
 45f1728:	e8 b3 f1 ff ff       	call   45f08e0 <github.com/google/uuid.Variant.String@@Base>
 45f172d:	48 8b 6c 24 08       	mov    0x8(%rsp),%rbp
 45f1732:	48 83 c4 10          	add    $0x10,%rsp
 45f1736:	c3                   	ret
 45f1737:	e8 84 ab 8f fd       	call   1eec2c0 <runtime.panicwrap@@Base>
 45f173c:	90                   	nop
 45f173d:	48 89 44 24 08       	mov    %rax,0x8(%rsp)
 45f1742:	e8 19 2d 96 fd       	call   1f54460 <runtime.morestack_noctxt.abi0@@Base>
 45f1747:	48 8b 44 24 08       	mov    0x8(%rsp),%rax
 45f174c:	eb b2                	jmp    45f1700 <github.com/google/uuid.(*Variant).String@@Base>
 45f174e:	4c 8d 6c 24 18       	lea    0x18(%rsp),%r13
 45f1753:	4d 39 2c 24          	cmp    %r13,(%r12)
 45f1757:	75 c4                	jne    45f171d <github.com/google/uuid.(*Variant).String@@Base+0x1d>
 45f1759:	49 89 24 24          	mov    %rsp,(%r12)
 45f175d:	eb be                	jmp    45f171d <github.com/google/uuid.(*Variant).String@@Base+0x1d>
 45f175f:	cc                   	int3

00000000045f1760 <github.com/google/uuid.(*Version).String@@Base>:
 45f1760:	49 3b 66 10          	cmp    0x10(%r14),%rsp
 45f1764:	76 37                	jbe    45f179d <github.com/google/uuid.(*Version).String@@Base+0x3d>
 45f1766:	48 83 ec 10          	sub    $0x10,%rsp
 45f176a:	48 89 6c 24 08       	mov    %rbp,0x8(%rsp)
 45f176f:	48 8d 6c 24 08       	lea    0x8(%rsp),%rbp
 45f1774:	4d 8b 66 20          	mov    0x20(%r14),%r12
 45f1778:	4d 85 e4             	test   %r12,%r12
 45f177b:	75 31                	jne    45f17ae <github.com/google/uuid.(*Version).String@@Base+0x4e>
 45f177d:	0f 1f 00             	nopl   (%rax)
 45f1780:	48 85 c0             	test   %rax,%rax
 45f1783:	74 12                	je     45f1797 <github.com/google/uuid.(*Version).String@@Base+0x37>
 45f1785:	0f b6 00             	movzbl (%rax),%eax
 45f1788:	e8 73 f0 ff ff       	call   45f0800 <github.com/google/uuid.Version.String@@Base>
 45f178d:	48 8b 6c 24 08       	mov    0x8(%rsp),%rbp
 45f1792:	48 83 c4 10          	add    $0x10,%rsp
 45f1796:	c3                   	ret
 45f1797:	e8 24 ab 8f fd       	call   1eec2c0 <runtime.panicwrap@@Base>
 45f179c:	90                   	nop
 45f179d:	48 89 44 24 08       	mov    %rax,0x8(%rsp)
 45f17a2:	e8 b9 2c 96 fd       	call   1f54460 <runtime.morestack_noctxt.abi0@@Base>
 45f17a7:	48 8b 44 24 08       	mov    0x8(%rsp),%rax
 45f17ac:	eb b2                	jmp    45f1760 <github.com/google/uuid.(*Version).String@@Base>
 45f17ae:	4c 8d 6c 24 18       	lea    0x18(%rsp),%r13
 45f17b3:	4d 39 2c 24          	cmp    %r13,(%r12)
 45f17b7:	75 c4                	jne    45f177d <github.com/google/uuid.(*Version).String@@Base+0x1d>
 45f17b9:	49 89 24 24          	mov    %rsp,(%r12)
 45f17bd:	eb be                	jmp    45f177d <github.com/google/uuid.(*Version).String@@Base+0x1d>
 45f17bf:	cc                   	int3

00000000045f17c0 <github.com/google/uuid.(*invalidLengthError).Error@@Base>:
 45f17c0:	49 3b 66 10          	cmp    0x10(%r14),%rsp
 45f17c4:	76 6f                	jbe    45f1835 <github.com/google/uuid.(*invalidLengthError).Error@@Base+0x75>
 45f17c6:	48 83 ec 40          	sub    $0x40,%rsp
 45f17ca:	48 89 6c 24 38       	mov    %rbp,0x38(%rsp)
 45f17cf:	48 8d 6c 24 38       	lea    0x38(%rsp),%rbp
 45f17d4:	4d 8b 66 20          	mov    0x20(%r14),%r12
 45f17d8:	4d 85 e4             	test   %r12,%r12
 45f17db:	75 6c                	jne    45f1849 <github.com/google/uuid.(*invalidLengthError).Error@@Base+0x89>
 45f17dd:	0f 1f 00             	nopl   (%rax)
 45f17e0:	48 85 c0             	test   %rax,%rax
 45f17e3:	74 4a                	je     45f182f <github.com/google/uuid.(*invalidLengthError).Error@@Base+0x6f>
 45f17e5:	48 8b 00             	mov    (%rax),%rax
 45f17e8:	44 0f 11 7c 24 28    	movups %xmm15,0x28(%rsp)
 45f17ee:	e8 ed c4 8f fd       	call   1eedce0 <runtime.convT64@@Base>
 45f17f3:	48 8d 0d 66 8e 1b 01 	lea    0x11b8e66(%rip),%rcx        # 57aa660 <type:int@@Base>
 45f17fa:	48 89 4c 24 28       	mov    %rcx,0x28(%rsp)
 45f17ff:	48 89 44 24 30       	mov    %rax,0x30(%rsp)
 45f1804:	48 8d 05 e6 40 7e 00 	lea    0x7e40e6(%rip),%rax        # 4dd58f1 <_IO_stdin_used@@Base+0x1a28f1>
 45f180b:	bb 17 00 00 00       	mov    $0x17,%ebx
 45f1810:	48 8d 4c 24 28       	lea    0x28(%rsp),%rcx
 45f1815:	bf 01 00 00 00       	mov    $0x1,%edi
 45f181a:	48 89 fe             	mov    %rdi,%rsi
 45f181d:	0f 1f 00             	nopl   (%rax)
 45f1820:	e8 db 30 a0 fd       	call   1ff4900 <fmt.Sprintf@@Base>
 45f1825:	48 8b 6c 24 38       	mov    0x38(%rsp),%rbp
 45f182a:	48 83 c4 40          	add    $0x40,%rsp
 45f182e:	c3                   	ret
 45f182f:	e8 8c aa 8f fd       	call   1eec2c0 <runtime.panicwrap@@Base>
 45f1834:	90                   	nop
 45f1835:	48 89 44 24 08       	mov    %rax,0x8(%rsp)
 45f183a:	e8 21 2c 96 fd       	call   1f54460 <runtime.morestack_noctxt.abi0@@Base>
 45f183f:	48 8b 44 24 08       	mov    0x8(%rsp),%rax
 45f1844:	e9 77 ff ff ff       	jmp    45f17c0 <github.com/google/uuid.(*invalidLengthError).Error@@Base>
 45f1849:	4c 8d 6c 24 48       	lea    0x48(%rsp),%r13
 45f184e:	4d 39 2c 24          	cmp    %r13,(%r12)
 45f1852:	75 89                	jne    45f17dd <github.com/google/uuid.(*invalidLengthError).Error@@Base+0x1d>
 45f1854:	49 89 24 24          	mov    %rsp,(%r12)
 45f1858:	eb 83                	jmp    45f17dd <github.com/google/uuid.(*invalidLengthError).Error@@Base+0x1d>
 45f185a:	cc                   	int3
 45f185b:	cc                   	int3
 45f185c:	cc                   	int3
 45f185d:	cc                   	int3
 45f185e:	cc                   	int3
 45f185f:	cc                   	int3

00000000045f1860 <github.com/multiformats/go-varint.ToUvarint@@Base>:
 45f1860:	49 3b 66 10          	cmp    0x10(%r14),%rsp
 45f1864:	0f 86 c4 00 00 00    	jbe    45f192e <github.com/multiformats/go-varint.ToUvarint@@Base+0xce>
 45f186a:	48 83 ec 28          	sub    $0x28,%rsp
 45f186e:	48 89 6c 24 20       	mov    %rbp,0x20(%rsp)
 45f1873:	48 8d 6c 24 20       	lea    0x20(%rsp),%rbp
 45f1878:	48 89 44 24 30       	mov    %rax,0x30(%rsp)
 45f187d:	48 0f bd d0          	bsr    %rax,%rdx
 45f1881:	48 c7 c6 ff ff ff ff 	mov    $0xffffffffffffffff,%rsi
 45f1888:	48 0f 44 d6          	cmove  %rsi,%rdx
 45f188c:	48 ff c2             	inc    %rdx
 45f188f:	48 89 c1             	mov    %rax,%rcx
 45f1892:	48 b8 25 49 92 24 49 	movabs $0x4924924924924925,%rax
 45f1899:	92 24 49 
 45f189c:	48 89 d3             	mov    %rdx,%rbx
 45f189f:	48 f7 ea             	imul   %rdx
 45f18a2:	48 d1 fa             	sar    $1,%rdx
 45f18a5:	48 8d 34 52          	lea    (%rdx,%rdx,2),%rsi
 45f18a9:	48 8d 34 72          	lea    (%rdx,%rsi,2),%rsi
 45f18ad:	48 29 f3             	sub    %rsi,%rbx
 45f18b0:	48 85 db             	test   %rbx,%rbx
 45f18b3:	7f 05                	jg     45f18ba <github.com/multiformats/go-varint.ToUvarint@@Base+0x5a>
 45f18b5:	48 85 d2             	test   %rdx,%rdx
 45f18b8:	75 03                	jne    45f18bd <github.com/multiformats/go-varint.ToUvarint@@Base+0x5d>
 45f18ba:	48 ff c2             	inc    %rdx
 45f18bd:	48 89 54 24 18       	mov    %rdx,0x18(%rsp)
 45f18c2:	48 8d 05 97 d0 1b 01 	lea    0x11bd097(%rip),%rax        # 57ae960 <type:uint8@@Base>
 45f18c9:	48 89 d3             	mov    %rdx,%rbx
 45f18cc:	48 89 d9             	mov    %rbx,%rcx
 45f18cf:	e8 0c 4b 94 fd       	call   1f363e0 <runtime.makeslice@@Base>
 45f18d4:	90                   	nop
 45f18d5:	48 8b 4c 24 18       	mov    0x18(%rsp),%rcx
 45f18da:	48 8b 54 24 30       	mov    0x30(%rsp),%rdx
 45f18df:	31 db                	xor    %ebx,%ebx
 45f18e1:	eb 13                	jmp    45f18f6 <github.com/multiformats/go-varint.ToUvarint@@Base+0x96>
 45f18e3:	48 89 d6             	mov    %rdx,%rsi
 45f18e6:	83 ca 80             	or     $0xffffff80,%edx
 45f18e9:	88 14 18             	mov    %dl,(%rax,%rbx,1)
 45f18ec:	48 c1 ee 07          	shr    $0x7,%rsi
 45f18f0:	48 ff c3             	inc    %rbx
 45f18f3:	48 89 f2             	mov    %rsi,%rdx
 45f18f6:	48 81 fa 80 00 00 00 	cmp    $0x80,%rdx
 45f18fd:	72 08                	jb     45f1907 <github.com/multiformats/go-varint.ToUvarint@@Base+0xa7>
 45f18ff:	90                   	nop
 45f1900:	48 39 cb             	cmp    %rcx,%rbx
 45f1903:	72 de                	jb     45f18e3 <github.com/multiformats/go-varint.ToUvarint@@Base+0x83>
 45f1905:	eb 1e                	jmp    45f1925 <github.com/multiformats/go-varint.ToUvarint@@Base+0xc5>
 45f1907:	48 39 cb             	cmp    %rcx,%rbx
 45f190a:	73 10                	jae    45f191c <github.com/multiformats/go-varint.ToUvarint@@Base+0xbc>
 45f190c:	88 14 18             	mov    %dl,(%rax,%rbx,1)
 45f190f:	48 ff c3             	inc    %rbx
 45f1912:	48 8b 6c 24 20       	mov    0x20(%rsp),%rbp
 45f1917:	48 83 c4 28          	add    $0x28,%rsp
 45f191b:	c3                   	ret
 45f191c:	48 89 d8             	mov    %rbx,%rax
 45f191f:	90                   	nop
 45f1920:	e8 7b 51 96 fd       	call   1f56aa0 <runtime.panicIndex@@Base>
 45f1925:	48 89 d8             	mov    %rbx,%rax
 45f1928:	e8 73 51 96 fd       	call   1f56aa0 <runtime.panicIndex@@Base>
 45f192d:	90                   	nop
 45f192e:	48 89 44 24 08       	mov    %rax,0x8(%rsp)
 45f1933:	e8 28 2b 96 fd       	call   1f54460 <runtime.morestack_noctxt.abi0@@Base>
 45f1938:	48 8b 44 24 08       	mov    0x8(%rsp),%rax
 45f193d:	0f 1f 00             	nopl   (%rax)
 45f1940:	e9 1b ff ff ff       	jmp    45f1860 <github.com/multiformats/go-varint.ToUvarint@@Base>
 45f1945:	cc                   	int3
 45f1946:	cc                   	int3
 45f1947:	cc                   	int3
 45f1948:	cc                   	int3
 45f1949:	cc                   	int3
 45f194a:	cc                   	int3
 45f194b:	cc                   	int3
 45f194c:	cc                   	int3
 45f194d:	cc                   	int3
 45f194e:	cc                   	int3
 45f194f:	cc                   	int3
 45f1950:	cc                   	int3
 45f1951:	cc                   	int3
 45f1952:	cc                   	int3
 45f1953:	cc                   	int3
 45f1954:	cc                   	int3
 45f1955:	cc                   	int3
 45f1956:	cc                   	int3
 45f1957:	cc                   	int3
 45f1958:	cc                   	int3
 45f1959:	cc                   	int3
 45f195a:	cc                   	int3
 45f195b:	cc                   	int3
 45f195c:	cc                   	int3
 45f195d:	cc                   	int3
 45f195e:	cc                   	int3
 45f195f:	cc                   	int3

00000000045f1960 <github.com/multiformats/go-varint.ReadUvarint@@Base>:
 45f1960:	49 3b 66 10          	cmp    0x10(%r14),%rsp
 45f1964:	0f 86 2d 01 00 00    	jbe    45f1a97 <github.com/multiformats/go-varint.ReadUvarint@@Base+0x137>
 45f196a:	48 83 ec 40          	sub    $0x40,%rsp
 45f196e:	48 89 6c 24 38       	mov    %rbp,0x38(%rsp)
 45f1973:	48 8d 6c 24 38       	lea    0x38(%rsp),%rbp
 45f1978:	48 89 5c 24 50       	mov    %rbx,0x50(%rsp)
 45f197d:	48 89 44 24 48       	mov    %rax,0x48(%rsp)
 45f1982:	31 c9                	xor    %ecx,%ecx
 45f1984:	31 d2                	xor    %edx,%edx
 45f1986:	eb 1f                	jmp    45f19a7 <github.com/multiformats/go-varint.ReadUvarint@@Base+0x47>
 45f1988:	48 8d 71 07          	lea    0x7(%rcx),%rsi
 45f198c:	83 e0 7f             	and    $0x7f,%eax
 45f198f:	48 d3 e0             	shl    %cl,%rax
 45f1992:	48 8b 54 24 18       	mov    0x18(%rsp),%rdx
 45f1997:	48 09 c2             	or     %rax,%rdx
 45f199a:	48 8b 44 24 48       	mov    0x48(%rsp),%rax
 45f199f:	48 8b 5c 24 50       	mov    0x50(%rsp),%rbx
 45f19a4:	48 89 f1             	mov    %rsi,%rcx
 45f19a7:	48 89 54 24 18       	mov    %rdx,0x18(%rsp)
 45f19ac:	48 89 4c 24 20       	mov    %rcx,0x20(%rsp)
 45f19b1:	48 8b 70 18          	mov    0x18(%rax),%rsi
 45f19b5:	48 89 d8             	mov    %rbx,%rax
 45f19b8:	ff d6                	call   *%rsi
 45f19ba:	48 85 db             	test   %rbx,%rbx
 45f19bd:	75 76                	jne    45f1a35 <github.com/multiformats/go-varint.ReadUvarint@@Base+0xd5>
 45f19bf:	48 8b 4c 24 20       	mov    0x20(%rsp),%rcx
 45f19c4:	48 83 f9 38          	cmp    $0x38,%rcx
 45f19c8:	75 04                	jne    45f19ce <github.com/multiformats/go-varint.ReadUvarint@@Base+0x6e>
 45f19ca:	3c 80                	cmp    $0x80,%al
 45f19cc:	73 4d                	jae    45f1a1b <github.com/multiformats/go-varint.ReadUvarint@@Base+0xbb>
 45f19ce:	48 83 f9 3f          	cmp    $0x3f,%rcx
 45f19d2:	73 47                	jae    45f1a1b <github.com/multiformats/go-varint.ReadUvarint@@Base+0xbb>
 45f19d4:	3c 80                	cmp    $0x80,%al
 45f19d6:	73 b0                	jae    45f1988 <github.com/multiformats/go-varint.ReadUvarint@@Base+0x28>
 45f19d8:	84 c0                	test   %al,%al
 45f19da:	75 23                	jne    45f19ff <github.com/multiformats/go-varint.ReadUvarint@@Base+0x9f>
 45f19dc:	0f 1f 40 00          	nopl   0x0(%rax)
 45f19e0:	48 85 c9             	test   %rcx,%rcx
 45f19e3:	76 1a                	jbe    45f19ff <github.com/multiformats/go-varint.ReadUvarint@@Base+0x9f>
 45f19e5:	48 8b 1d d4 11 84 03 	mov    0x38411d4(%rip),%rbx        # 7e32bc0 <github.com/multiformats/go-varint.ErrNotMinimal@@Base>
 45f19ec:	48 8b 0d d5 11 84 03 	mov    0x38411d5(%rip),%rcx        # 7e32bc8 <github.com/multiformats/go-varint.ErrNotMinimal@@Base+0x8>
 45f19f3:	31 c0                	xor    %eax,%eax
 45f19f5:	48 8b 6c 24 38       	mov    0x38(%rsp),%rbp
 45f19fa:	48 83 c4 40          	add    $0x40,%rsp
 45f19fe:	c3                   	ret
 45f19ff:	0f b6 c0             	movzbl %al,%eax
 45f1a02:	48 d3 e0             	shl    %cl,%rax
 45f1a05:	48 8b 54 24 18       	mov    0x18(%rsp),%rdx
 45f1a0a:	48 09 d0             	or     %rdx,%rax
 45f1a0d:	31 db                	xor    %ebx,%ebx
 45f1a0f:	31 c9                	xor    %ecx,%ecx
 45f1a11:	48 8b 6c 24 38       	mov    0x38(%rsp),%rbp
 45f1a16:	48 83 c4 40          	add    $0x40,%rsp
 45f1a1a:	c3                   	ret
 45f1a1b:	48 8b 1d ae 11 84 03 	mov    0x38411ae(%rip),%rbx        # 7e32bd0 <github.com/multiformats/go-varint.ErrOverflow@@Base>
 45f1a22:	48 8b 0d af 11 84 03 	mov    0x38411af(%rip),%rcx        # 7e32bd8 <github.com/multiformats/go-varint.ErrOverflow@@Base+0x8>
 45f1a29:	31 c0                	xor    %eax,%eax
 45f1a2b:	48 8b 6c 24 38       	mov    0x38(%rsp),%rbp
 45f1a30:	48 83 c4 40          	add    $0x40,%rsp
 45f1a34:	c3                   	ret
 45f1a35:	48 8b 15 0c 2a 84 03 	mov    0x3842a0c(%rip),%rdx        # 7e34448 <io.EOF@@Base+0x8>
 45f1a3c:	0f 1f 40 00          	nopl   0x0(%rax)
 45f1a40:	48 39 1d f9 29 84 03 	cmp    %rbx,0x38429f9(%rip)        # 7e34440 <io.EOF@@Base>
 45f1a47:	74 04                	je     45f1a4d <github.com/multiformats/go-varint.ReadUvarint@@Base+0xed>
 45f1a49:	31 c0                	xor    %eax,%eax
 45f1a4b:	eb 22                	jmp    45f1a6f <github.com/multiformats/go-varint.ReadUvarint@@Base+0x10f>
 45f1a4d:	48 89 5c 24 28       	mov    %rbx,0x28(%rsp)
 45f1a52:	48 89 4c 24 30       	mov    %rcx,0x30(%rsp)
 45f1a57:	48 89 d8             	mov    %rbx,%rax
 45f1a5a:	48 89 cb             	mov    %rcx,%rbx
 45f1a5d:	48 89 d1             	mov    %rdx,%rcx
 45f1a60:	e8 7b 34 8f fd       	call   1ee4ee0 <runtime.ifaceeq@@Base>
 45f1a65:	48 8b 4c 24 30       	mov    0x30(%rsp),%rcx
 45f1a6a:	48 8b 5c 24 28       	mov    0x28(%rsp),%rbx
 45f1a6f:	84 c0                	test   %al,%al
 45f1a71:	74 18                	je     45f1a8b <github.com/multiformats/go-varint.ReadUvarint@@Base+0x12b>
 45f1a73:	48 8b 54 24 20       	mov    0x20(%rsp),%rdx
 45f1a78:	48 85 d2             	test   %rdx,%rdx
 45f1a7b:	74 0e                	je     45f1a8b <github.com/multiformats/go-varint.ReadUvarint@@Base+0x12b>
 45f1a7d:	48 8b 1d 0c 2a 84 03 	mov    0x3842a0c(%rip),%rbx        # 7e34490 <io.ErrUnexpectedEOF@@Base>
 45f1a84:	48 8b 0d 0d 2a 84 03 	mov    0x3842a0d(%rip),%rcx        # 7e34498 <io.ErrUnexpectedEOF@@Base+0x8>
 45f1a8b:	31 c0                	xor    %eax,%eax
 45f1a8d:	48 8b 6c 24 38       	mov    0x38(%rsp),%rbp
 45f1a92:	48 83 c4 40          	add    $0x40,%rsp
 45f1a96:	c3                   	ret
 45f1a97:	48 89 44 24 08       	mov    %rax,0x8(%rsp)
 45f1a9c:	48 89 5c 24 10       	mov    %rbx,0x10(%rsp)
 45f1aa1:	e8 ba 29 96 fd       	call   1f54460 <runtime.morestack_noctxt.abi0@@Base>
 45f1aa6:	48 8b 44 24 08       	mov    0x8(%rsp),%rax
 45f1aab:	48 8b 5c 24 10       	mov    0x10(%rsp),%rbx
 45f1ab0:	e9 ab fe ff ff       	jmp    45f1960 <github.com/multiformats/go-varint.ReadUvarint@@Base>
 45f1ab5:	cc                   	int3
 45f1ab6:	cc                   	int3
 45f1ab7:	cc                   	int3
 45f1ab8:	cc                   	int3
 45f1ab9:	cc                   	int3
 45f1aba:	cc                   	int3
 45f1abb:	cc                   	int3
 45f1abc:	cc                   	int3
 45f1abd:	cc                   	int3
 45f1abe:	cc                   	int3
 45f1abf:	cc                   	int3

00000000045f1ac0 <github.com/multiformats/go-varint.init@@Base>:
 45f1ac0:	49 3b 66 10          	cmp    0x10(%r14),%rsp
 45f1ac4:	0f 86 f9 00 00 00    	jbe    45f1bc3 <github.com/multiformats/go-varint.init@@Base+0x103>
 45f1aca:	48 83 ec 18          	sub    $0x18,%rsp
 45f1ace:	48 89 6c 24 10       	mov    %rbp,0x10(%rsp)
 45f1ad3:	48 8d 6c 24 10       	lea    0x10(%rsp),%rbp
 45f1ad8:	48 8d 05 21 28 48 01 	lea    0x1482821(%rip),%rax        # 5a74300 <type:hE5I1The@@Base>
 45f1adf:	90                   	nop
 45f1ae0:	e8 fb e9 8f fd       	call   1ef04e0 <runtime.newobject@@Base>
 45f1ae5:	48 c7 40 08 28 00 00 	movq   $0x28,0x8(%rax)
 45f1aec:	00 
 45f1aed:	48 8d 0d 6e 85 82 00 	lea    0x82856e(%rip),%rcx        # 4e1a062 <_IO_stdin_used@@Base+0x1e7062>
 45f1af4:	48 89 08             	mov    %rcx,(%rax)
 45f1af7:	48 8d 0d c2 c3 90 01 	lea    0x190c3c2(%rip),%rcx        # 5efdec0 <go:itab.*errors.errorString,error@@Base>
 45f1afe:	48 89 0d cb 10 84 03 	mov    %rcx,0x38410cb(%rip)        # 7e32bd0 <github.com/multiformats/go-varint.ErrOverflow@@Base>
 45f1b05:	83 3d 54 9e 88 03 00 	cmpl   $0x0,0x3889e54(%rip)        # 7e7b960 <runtime.writeBarrier@@Base>
 45f1b0c:	75 09                	jne    45f1b17 <github.com/multiformats/go-varint.init@@Base+0x57>
 45f1b0e:	48 89 05 c3 10 84 03 	mov    %rax,0x38410c3(%rip)        # 7e32bd8 <github.com/multiformats/go-varint.ErrOverflow@@Base+0x8>
 45f1b15:	eb 0e                	jmp    45f1b25 <github.com/multiformats/go-varint.init@@Base+0x65>
 45f1b17:	48 8d 3d ba 10 84 03 	lea    0x38410ba(%rip),%rdi        # 7e32bd8 <github.com/multiformats/go-varint.ErrOverflow@@Base+0x8>
 45f1b1e:	66 90                	xchg   %ax,%ax
 45f1b20:	e8 db 4a 96 fd       	call   1f56600 <runtime.gcWriteBarrier@@Base>
 45f1b25:	48 8d 05 d4 27 48 01 	lea    0x14827d4(%rip),%rax        # 5a74300 <type:hE5I1The@@Base>
 45f1b2c:	e8 af e9 8f fd       	call   1ef04e0 <runtime.newobject@@Base>
 45f1b31:	48 c7 40 08 2a 00 00 	movq   $0x2a,0x8(%rax)
 45f1b38:	00 
 45f1b39:	48 8d 0d b6 02 83 00 	lea    0x8302b6(%rip),%rcx        # 4e21df6 <_IO_stdin_used@@Base+0x1eedf6>
 45f1b40:	48 89 08             	mov    %rcx,(%rax)
 45f1b43:	48 8d 0d 76 c3 90 01 	lea    0x190c376(%rip),%rcx        # 5efdec0 <go:itab.*errors.errorString,error@@Base>
 45f1b4a:	48 89 0d 8f 10 84 03 	mov    %rcx,0x384108f(%rip)        # 7e32be0 <github.com/multiformats/go-varint.ErrUnderflow@@Base>
 45f1b51:	83 3d 08 9e 88 03 00 	cmpl   $0x0,0x3889e08(%rip)        # 7e7b960 <runtime.writeBarrier@@Base>
 45f1b58:	75 09                	jne    45f1b63 <github.com/multiformats/go-varint.init@@Base+0xa3>
 45f1b5a:	48 89 05 87 10 84 03 	mov    %rax,0x3841087(%rip)        # 7e32be8 <github.com/multiformats/go-varint.ErrUnderflow@@Base+0x8>
 45f1b61:	eb 0c                	jmp    45f1b6f <github.com/multiformats/go-varint.init@@Base+0xaf>
 45f1b63:	48 8d 3d 7e 10 84 03 	lea    0x384107e(%rip),%rdi        # 7e32be8 <github.com/multiformats/go-varint.ErrUnderflow@@Base+0x8>
 45f1b6a:	e8 91 4a 96 fd       	call   1f56600 <runtime.gcWriteBarrier@@Base>
 45f1b6f:	48 8d 05 8a 27 48 01 	lea    0x148278a(%rip),%rax        # 5a74300 <type:hE5I1The@@Base>
 45f1b76:	e8 65 e9 8f fd       	call   1ef04e0 <runtime.newobject@@Base>
 45f1b7b:	48 c7 40 08 1c 00 00 	movq   $0x1c,0x8(%rax)
 45f1b82:	00 
 45f1b83:	48 8d 0d 5a 8e 7f 00 	lea    0x7f8e5a(%rip),%rcx        # 4dea9e4 <_IO_stdin_used@@Base+0x1b79e4>
 45f1b8a:	48 89 08             	mov    %rcx,(%rax)
 45f1b8d:	48 8d 0d 2c c3 90 01 	lea    0x190c32c(%rip),%rcx        # 5efdec0 <go:itab.*errors.errorString,error@@Base>
 45f1b94:	48 89 0d 25 10 84 03 	mov    %rcx,0x3841025(%rip)        # 7e32bc0 <github.com/multiformats/go-varint.ErrNotMinimal@@Base>
 45f1b9b:	83 3d be 9d 88 03 00 	cmpl   $0x0,0x3889dbe(%rip)        # 7e7b960 <runtime.writeBarrier@@Base>
 45f1ba2:	75 09                	jne    45f1bad <github.com/multiformats/go-varint.init@@Base+0xed>
 45f1ba4:	48 89 05 1d 10 84 03 	mov    %rax,0x384101d(%rip)        # 7e32bc8 <github.com/multiformats/go-varint.ErrNotMinimal@@Base+0x8>
 45f1bab:	eb 0c                	jmp    45f1bb9 <github.com/multiformats/go-varint.init@@Base+0xf9>
 45f1bad:	48 8d 3d 14 10 84 03 	lea    0x3841014(%rip),%rdi        # 7e32bc8 <github.com/multiformats/go-varint.ErrNotMinimal@@Base+0x8>
 45f1bb4:	e8 47 4a 96 fd       	call   1f56600 <runtime.gcWriteBarrier@@Base>
 45f1bb9:	48 8b 6c 24 10       	mov    0x10(%rsp),%rbp
 45f1bbe:	48 83 c4 18          	add    $0x18,%rsp
 45f1bc2:	c3                   	ret
 45f1bc3:	e8 98 28 96 fd       	call   1f54460 <runtime.morestack_noctxt.abi0@@Base>
 45f1bc8:	e9 f3 fe ff ff       	jmp    45f1ac0 <github.com/multiformats/go-varint.init@@Base>
 45f1bcd:	cc                   	int3
 45f1bce:	cc                   	int3
 45f1bcf:	cc                   	int3
 45f1bd0:	cc                   	int3
 45f1bd1:	cc                   	int3
 45f1bd2:	cc                   	int3
 45f1bd3:	cc                   	int3
 45f1bd4:	cc                   	int3
 45f1bd5:	cc                   	int3
 45f1bd6:	cc                   	int3
 45f1bd7:	cc                   	int3
 45f1bd8:	cc                   	int3
 45f1bd9:	cc                   	int3
 45f1bda:	cc                   	int3
 45f1bdb:	cc                   	int3
 45f1bdc:	cc                   	int3
 45f1bdd:	cc                   	int3
 45f1bde:	cc                   	int3
 45f1bdf:	cc                   	int3

00000000045f1be0 <github.com/mr-tron/base58/base58.FastBase58EncodingAlphabet@@Base>:
 45f1be0:	49 3b 66 10          	cmp    0x10(%r14),%rsp
 45f1be4:	0f 86 5c 02 00 00    	jbe    45f1e46 <github.com/mr-tron/base58/base58.FastBase58EncodingAlphabet@@Base+0x266>
 45f1bea:	48 83 ec 48          	sub    $0x48,%rsp
 45f1bee:	48 89 6c 24 40       	mov    %rbp,0x40(%rsp)
 45f1bf3:	48 8d 6c 24 40       	lea    0x40(%rsp),%rbp
 45f1bf8:	48 89 7c 24 68       	mov    %rdi,0x68(%rsp)
 45f1bfd:	48 89 44 24 50       	mov    %rax,0x50(%rsp)
 45f1c02:	0f b6 97 80 00 00 00 	movzbl 0x80(%rdi),%edx
 45f1c09:	88 54 24 1f          	mov    %dl,0x1f(%rsp)
 45f1c0d:	31 c9                	xor    %ecx,%ecx
 45f1c0f:	eb 03                	jmp    45f1c14 <github.com/mr-tron/base58/base58.FastBase58EncodingAlphabet@@Base+0x34>
 45f1c11:	48 ff c1             	inc    %rcx
 45f1c14:	48 39 cb             	cmp    %rcx,%rbx
 45f1c17:	7e 0c                	jle    45f1c25 <github.com/mr-tron/base58/base58.FastBase58EncodingAlphabet@@Base+0x45>
 45f1c19:	0f b6 34 08          	movzbl (%rax,%rcx,1),%esi
 45f1c1d:	0f 1f 00             	nopl   (%rax)
 45f1c20:	40 84 f6             	test   %sil,%sil
 45f1c23:	74 ec                	je     45f1c11 <github.com/mr-tron/base58/base58.FastBase58EncodingAlphabet@@Base+0x31>
 45f1c25:	48 89 5c 24 58       	mov    %rbx,0x58(%rsp)
 45f1c2a:	48 89 4c 24 20       	mov    %rcx,0x20(%rsp)
 45f1c2f:	48 29 cb             	sub    %rcx,%rbx
 45f1c32:	48 69 f3 8a 00 00 00 	imul   $0x8a,%rbx,%rsi
 45f1c39:	48 b8 0b d7 a3 70 3d 	movabs $0xa3d70a3d70a3d70b,%rax
 45f1c40:	0a d7 a3 
 45f1c43:	48 f7 ee             	imul   %rsi
 45f1c46:	48 01 f2             	add    %rsi,%rdx
 45f1c49:	48 c1 fa 06          	sar    $0x6,%rdx
 45f1c4d:	48 c1 fe 3f          	sar    $0x3f,%rsi
 45f1c51:	48 29 f2             	sub    %rsi,%rdx
 45f1c54:	48 89 54 24 38       	mov    %rdx,0x38(%rsp)
 45f1c59:	48 8d 34 51          	lea    (%rcx,%rdx,2),%rsi
 45f1c5d:	48 8d 76 02          	lea    0x2(%rsi),%rsi
 45f1c61:	48 89 74 24 28       	mov    %rsi,0x28(%rsp)
 45f1c66:	48 8d 05 f3 cc 1b 01 	lea    0x11bccf3(%rip),%rax        # 57ae960 <type:uint8@@Base>
 45f1c6d:	48 89 f3             	mov    %rsi,%rbx
 45f1c70:	48 89 d9             	mov    %rbx,%rcx
 45f1c73:	e8 68 47 94 fd       	call   1f363e0 <runtime.makeslice@@Base>
 45f1c78:	48 8b 54 24 20       	mov    0x20(%rsp),%rdx
 45f1c7d:	48 8b 74 24 38       	mov    0x38(%rsp),%rsi
 45f1c82:	48 8d 3c 16          	lea    (%rsi,%rdx,1),%rdi
 45f1c86:	48 8d 7f 01          	lea    0x1(%rdi),%rdi
 45f1c8a:	4c 8d 04 32          	lea    (%rdx,%rsi,1),%r8
 45f1c8e:	48 8b 4c 24 28       	mov    0x28(%rsp),%rcx
 45f1c93:	48 39 f9             	cmp    %rdi,%rcx
 45f1c96:	0f 82 9c 01 00 00    	jb     45f1e38 <github.com/mr-tron/base58/base58.FastBase58EncodingAlphabet@@Base+0x258>
 45f1c9c:	49 89 c9             	mov    %rcx,%r9
 45f1c9f:	4c 29 c1             	sub    %r8,%rcx
 45f1ca2:	48 ff c9             	dec    %rcx
 45f1ca5:	49 89 c8             	mov    %rcx,%r8
 45f1ca8:	48 f7 d9             	neg    %rcx
 45f1cab:	48 c1 f9 3f          	sar    $0x3f,%rcx
 45f1caf:	48 21 cf             	and    %rcx,%rdi
 45f1cb2:	48 01 c7             	add    %rax,%rdi
 45f1cb5:	4c 8b 54 24 50       	mov    0x50(%rsp),%r10
 45f1cba:	48 8b 4c 24 58       	mov    0x58(%rsp),%rcx
 45f1cbf:	48 89 d3             	mov    %rdx,%rbx
 45f1cc2:	49 89 f3             	mov    %rsi,%r11
 45f1cc5:	eb 09                	jmp    45f1cd0 <github.com/mr-tron/base58/base58.FastBase58EncodingAlphabet@@Base+0xf0>
 45f1cc7:	48 ff c2             	inc    %rdx
 45f1cca:	4c 89 de             	mov    %r11,%rsi
 45f1ccd:	4d 89 eb             	mov    %r13,%r11
 45f1cd0:	48 39 d1             	cmp    %rdx,%rcx
 45f1cd3:	7e 13                	jle    45f1ce8 <github.com/mr-tron/base58/base58.FastBase58EncodingAlphabet@@Base+0x108>
 45f1cd5:	0f 86 55 01 00 00    	jbe    45f1e30 <github.com/mr-tron/base58/base58.FastBase58EncodingAlphabet@@Base+0x250>
 45f1cdb:	45 0f b6 24 12       	movzbl (%r10,%rdx,1),%r12d
 45f1ce0:	4d 89 dd             	mov    %r11,%r13
 45f1ce3:	e9 28 01 00 00       	jmp    45f1e10 <github.com/mr-tron/base58/base58.FastBase58EncodingAlphabet@@Base+0x230>
 45f1ce8:	49 8d 73 01          	lea    0x1(%r11),%rsi
 45f1cec:	31 c9                	xor    %ecx,%ecx
 45f1cee:	eb 03                	jmp    45f1cf3 <github.com/mr-tron/base58/base58.FastBase58EncodingAlphabet@@Base+0x113>
 45f1cf0:	48 ff c1             	inc    %rcx
 45f1cf3:	48 39 f1             	cmp    %rsi,%rcx
 45f1cf6:	7d 1b                	jge    45f1d13 <github.com/mr-tron/base58/base58.FastBase58EncodingAlphabet@@Base+0x133>
 45f1cf8:	0f 1f 84 00 00 00 00 	nopl   0x0(%rax,%rax,1)
 45f1cff:	00 
 45f1d00:	4c 39 c1             	cmp    %r8,%rcx
 45f1d03:	0f 83 c7 00 00 00    	jae    45f1dd0 <github.com/mr-tron/base58/base58.FastBase58EncodingAlphabet@@Base+0x1f0>
 45f1d09:	44 0f b6 14 39       	movzbl (%rcx,%rdi,1),%r10d
 45f1d0e:	45 84 d2             	test   %r10b,%r10b
 45f1d11:	74 dd                	je     45f1cf0 <github.com/mr-tron/base58/base58.FastBase58EncodingAlphabet@@Base+0x110>
 45f1d13:	49 29 cb             	sub    %rcx,%r11
 45f1d16:	4d 8d 14 1b          	lea    (%r11,%rbx,1),%r10
 45f1d1a:	4d 8d 52 01          	lea    0x1(%r10),%r10
 45f1d1e:	66 90                	xchg   %ax,%ax
 45f1d20:	4d 39 d1             	cmp    %r10,%r9
 45f1d23:	0f 82 9c 00 00 00    	jb     45f1dc5 <github.com/mr-tron/base58/base58.FastBase58EncodingAlphabet@@Base+0x1e5>
 45f1d29:	48 85 db             	test   %rbx,%rbx
 45f1d2c:	74 0a                	je     45f1d38 <github.com/mr-tron/base58/base58.FastBase58EncodingAlphabet@@Base+0x158>
 45f1d2e:	0f b6 54 24 1f       	movzbl 0x1f(%rsp),%edx
 45f1d33:	45 31 c9             	xor    %r9d,%r9d
 45f1d36:	eb 77                	jmp    45f1daf <github.com/mr-tron/base58/base58.FastBase58EncodingAlphabet@@Base+0x1cf>
 45f1d38:	48 8b 54 24 68       	mov    0x68(%rsp),%rdx
 45f1d3d:	eb 0a                	jmp    45f1d49 <github.com/mr-tron/base58/base58.FastBase58EncodingAlphabet@@Base+0x169>
 45f1d3f:	44 88 0c 18          	mov    %r9b,(%rax,%rbx,1)
 45f1d43:	48 ff c3             	inc    %rbx
 45f1d46:	48 ff c1             	inc    %rcx
 45f1d49:	48 39 f1             	cmp    %rsi,%rcx
 45f1d4c:	7d 20                	jge    45f1d6e <github.com/mr-tron/base58/base58.FastBase58EncodingAlphabet@@Base+0x18e>
 45f1d4e:	4c 39 c1             	cmp    %r8,%rcx
 45f1d51:	73 4a                	jae    45f1d9d <github.com/mr-tron/base58/base58.FastBase58EncodingAlphabet@@Base+0x1bd>
 45f1d53:	44 0f b6 0c 0f       	movzbl (%rdi,%rcx,1),%r9d
 45f1d58:	49 83 f9 3a          	cmp    $0x3a,%r9
 45f1d5c:	73 32                	jae    45f1d90 <github.com/mr-tron/base58/base58.FastBase58EncodingAlphabet@@Base+0x1b0>
 45f1d5e:	46 0f b6 8c 0a 80 00 	movzbl 0x80(%rdx,%r9,1),%r9d
 45f1d65:	00 00 
 45f1d67:	4c 39 d3             	cmp    %r10,%rbx
 45f1d6a:	72 d3                	jb     45f1d3f <github.com/mr-tron/base58/base58.FastBase58EncodingAlphabet@@Base+0x15f>
 45f1d6c:	eb 17                	jmp    45f1d85 <github.com/mr-tron/base58/base58.FastBase58EncodingAlphabet@@Base+0x1a5>
 45f1d6e:	48 89 c3             	mov    %rax,%rbx
 45f1d71:	4c 89 d1             	mov    %r10,%rcx
 45f1d74:	31 c0                	xor    %eax,%eax
 45f1d76:	e8 45 89 94 fd       	call   1f3a6c0 <runtime.slicebytetostring@@Base>
 45f1d7b:	48 8b 6c 24 40       	mov    0x40(%rsp),%rbp
 45f1d80:	48 83 c4 48          	add    $0x48,%rsp
 45f1d84:	c3                   	ret
 45f1d85:	48 89 d8             	mov    %rbx,%rax
 45f1d88:	4c 89 d1             	mov    %r10,%rcx
 45f1d8b:	e8 10 4d 96 fd       	call   1f56aa0 <runtime.panicIndex@@Base>
 45f1d90:	4c 89 c8             	mov    %r9,%rax
 45f1d93:	b9 3a 00 00 00       	mov    $0x3a,%ecx
 45f1d98:	e8 03 4d 96 fd       	call   1f56aa0 <runtime.panicIndex@@Base>
 45f1d9d:	48 89 c8             	mov    %rcx,%rax
 45f1da0:	4c 89 c1             	mov    %r8,%rcx
 45f1da3:	e8 f8 4c 96 fd       	call   1f56aa0 <runtime.panicIndex@@Base>
 45f1da8:	42 88 14 08          	mov    %dl,(%rax,%r9,1)
 45f1dac:	49 ff c1             	inc    %r9
 45f1daf:	49 39 d9             	cmp    %rbx,%r9
 45f1db2:	7d 84                	jge    45f1d38 <github.com/mr-tron/base58/base58.FastBase58EncodingAlphabet@@Base+0x158>
 45f1db4:	4d 39 d1             	cmp    %r10,%r9
 45f1db7:	72 ef                	jb     45f1da8 <github.com/mr-tron/base58/base58.FastBase58EncodingAlphabet@@Base+0x1c8>
 45f1db9:	4c 89 c8             	mov    %r9,%rax
 45f1dbc:	4c 89 d1             	mov    %r10,%rcx
 45f1dbf:	90                   	nop
 45f1dc0:	e8 db 4c 96 fd       	call   1f56aa0 <runtime.panicIndex@@Base>
 45f1dc5:	4c 89 d1             	mov    %r10,%rcx
 45f1dc8:	4c 89 ca             	mov    %r9,%rdx
 45f1dcb:	e8 50 4d 96 fd       	call   1f56b20 <runtime.panicSliceAcap@@Base>
 45f1dd0:	48 89 c8             	mov    %rcx,%rax
 45f1dd3:	4c 89 c1             	mov    %r8,%rcx
 45f1dd6:	e8 c5 4c 96 fd       	call   1f56aa0 <runtime.panicIndex@@Base>
 45f1ddb:	45 0f b6 3c 3b       	movzbl (%r11,%rdi,1),%r15d
 45f1de0:	41 c1 e7 08          	shl    $0x8,%r15d
 45f1de4:	45 01 fc             	add    %r15d,%r12d
 45f1de7:	41 bf 09 cb 3d 8d    	mov    $0x8d3dcb09,%r15d
 45f1ded:	4d 0f af fc          	imul   %r12,%r15
 45f1df1:	49 c1 ef 25          	shr    $0x25,%r15
 45f1df5:	4c 89 7c 24 30       	mov    %r15,0x30(%rsp)
 45f1dfa:	45 6b ff 3a          	imul   $0x3a,%r15d,%r15d
 45f1dfe:	45 29 fc             	sub    %r15d,%r12d
 45f1e01:	46 88 24 1f          	mov    %r12b,(%rdi,%r11,1)
 45f1e05:	49 ff cb             	dec    %r11
 45f1e08:	4c 8b 7c 24 30       	mov    0x30(%rsp),%r15
 45f1e0d:	4d 89 fc             	mov    %r15,%r12
 45f1e10:	4c 39 de             	cmp    %r11,%rsi
 45f1e13:	7c 0b                	jl     45f1e20 <github.com/mr-tron/base58/base58.FastBase58EncodingAlphabet@@Base+0x240>
 45f1e15:	45 85 e4             	test   %r12d,%r12d
 45f1e18:	0f 84 a9 fe ff ff    	je     45f1cc7 <github.com/mr-tron/base58/base58.FastBase58EncodingAlphabet@@Base+0xe7>
 45f1e1e:	66 90                	xchg   %ax,%ax
 45f1e20:	4d 39 c3             	cmp    %r8,%r11
 45f1e23:	72 b6                	jb     45f1ddb <github.com/mr-tron/base58/base58.FastBase58EncodingAlphabet@@Base+0x1fb>
 45f1e25:	4c 89 d8             	mov    %r11,%rax
 45f1e28:	4c 89 c1             	mov    %r8,%rcx
 45f1e2b:	e8 70 4c 96 fd       	call   1f56aa0 <runtime.panicIndex@@Base>
 45f1e30:	48 89 d0             	mov    %rdx,%rax
 45f1e33:	e8 68 4c 96 fd       	call   1f56aa0 <runtime.panicIndex@@Base>
 45f1e38:	48 89 f8             	mov    %rdi,%rax
 45f1e3b:	0f 1f 44 00 00       	nopl   0x0(%rax,%rax,1)
 45f1e40:	e8 1b 4d 96 fd       	call   1f56b60 <runtime.panicSliceB@@Base>
 45f1e45:	90                   	nop
 45f1e46:	48 89 44 24 08       	mov    %rax,0x8(%rsp)
 45f1e4b:	48 89 5c 24 10       	mov    %rbx,0x10(%rsp)
 45f1e50:	48 89 4c 24 18       	mov    %rcx,0x18(%rsp)
 45f1e55:	48 89 7c 24 20       	mov    %rdi,0x20(%rsp)
 45f1e5a:	e8 01 26 96 fd       	call   1f54460 <runtime.morestack_noctxt.abi0@@Base>
 45f1e5f:	48 8b 44 24 08       	mov    0x8(%rsp),%rax
 45f1e64:	48 8b 5c 24 10       	mov    0x10(%rsp),%rbx
 45f1e69:	48 8b 4c 24 18       	mov    0x18(%rsp),%rcx
 45f1e6e:	48 8b 7c 24 20       	mov    0x20(%rsp),%rdi
 45f1e73:	e9 68 fd ff ff       	jmp    45f1be0 <github.com/mr-tron/base58/base58.FastBase58EncodingAlphabet@@Base>
 45f1e78:	cc                   	int3
 45f1e79:	cc                   	int3
 45f1e7a:	cc                   	int3
 45f1e7b:	cc                   	int3
 45f1e7c:	cc                   	int3
 45f1e7d:	cc                   	int3
 45f1e7e:	cc                   	int3
 45f1e7f:	cc                   	int3

00000000045f1e80 <github.com/mr-tron/base58/base58.Decode@@Base>:
 45f1e80:	49 3b 66 10          	cmp    0x10(%r14),%rsp
 45f1e84:	76 29                	jbe    45f1eaf <github.com/mr-tron/base58/base58.Decode@@Base+0x2f>
 45f1e86:	48 83 ec 20          	sub    $0x20,%rsp
 45f1e8a:	48 89 6c 24 18       	mov    %rbp,0x18(%rsp)
 45f1e8f:	48 8d 6c 24 18       	lea    0x18(%rsp),%rbp
 45f1e94:	48 89 44 24 28       	mov    %rax,0x28(%rsp)
 45f1e99:	48 8b 0d a8 a9 83 03 	mov    0x383a9a8(%rip),%rcx        # 7e2c848 <github.com/mr-tron/base58/base58.BTCAlphabet@@Base>
 45f1ea0:	e8 3b 00 00 00       	call   45f1ee0 <github.com/mr-tron/base58/base58.FastBase58DecodingAlphabet@@Base>
 45f1ea5:	48 8b 6c 24 18       	mov    0x18(%rsp),%rbp
 45f1eaa:	48 83 c4 20          	add    $0x20,%rsp
 45f1eae:	c3                   	ret
 45f1eaf:	48 89 44 24 08       	mov    %rax,0x8(%rsp)
 45f1eb4:	48 89 5c 24 10       	mov    %rbx,0x10(%rsp)
 45f1eb9:	e8 a2 25 96 fd       	call   1f54460 <runtime.morestack_noctxt.abi0@@Base>
 45f1ebe:	48 8b 44 24 08       	mov    0x8(%rsp),%rax
 45f1ec3:	48 8b 5c 24 10       	mov    0x10(%rsp),%rbx
 45f1ec8:	eb b6                	jmp    45f1e80 <github.com/mr-tron/base58/base58.Decode@@Base>
 45f1eca:	cc                   	int3
 45f1ecb:	cc                   	int3
 45f1ecc:	cc                   	int3
 45f1ecd:	cc                   	int3
 45f1ece:	cc                   	int3
 45f1ecf:	cc                   	int3
 45f1ed0:	cc                   	int3
 45f1ed1:	cc                   	int3
 45f1ed2:	cc                   	int3
 45f1ed3:	cc                   	int3
 45f1ed4:	cc                   	int3
 45f1ed5:	cc                   	int3
 45f1ed6:	cc                   	int3
 45f1ed7:	cc                   	int3
 45f1ed8:	cc                   	int3
 45f1ed9:	cc                   	int3
 45f1eda:	cc                   	int3
 45f1edb:	cc                   	int3
 45f1edc:	cc                   	int3
 45f1edd:	cc                   	int3
 45f1ede:	cc                   	int3
 45f1edf:	cc                   	int3

00000000045f1ee0 <github.com/mr-tron/base58/base58.FastBase58DecodingAlphabet@@Base>:
 45f1ee0:	4c 8d 64 24 80       	lea    -0x80(%rsp),%r12
 45f1ee5:	4d 3b 66 10          	cmp    0x10(%r14),%r12
 45f1ee9:	0f 86 4f 04 00 00    	jbe    45f233e <github.com/mr-tron/base58/base58.FastBase58DecodingAlphabet@@Base+0x45e>
 45f1eef:	48 81 ec 00 01 00 00 	sub    $0x100,%rsp
 45f1ef6:	48 89 ac 24 f8 00 00 	mov    %rbp,0xf8(%rsp)
 45f1efd:	00 
 45f1efe:	48 8d ac 24 f8 00 00 	lea    0xf8(%rsp),%rbp
 45f1f05:	00 
 45f1f06:	48 89 84 24 08 01 00 	mov    %rax,0x108(%rsp)
 45f1f0d:	00 
 45f1f0e:	48 85 db             	test   %rbx,%rbx
 45f1f11:	0f 84 e3 00 00 00    	je     45f1ffa <github.com/mr-tron/base58/base58.FastBase58DecodingAlphabet@@Base+0x11a>
 45f1f17:	48 89 8c 24 18 01 00 	mov    %rcx,0x118(%rsp)
 45f1f1e:	00 
 45f1f1f:	48 89 d9             	mov    %rbx,%rcx
 45f1f22:	48 89 c3             	mov    %rax,%rbx
 45f1f25:	48 8d 44 24 58       	lea    0x58(%rsp),%rax
 45f1f2a:	e8 71 8a 94 fd       	call   1f3a9a0 <runtime.stringtoslicerune@@Base>
 45f1f2f:	48 89 84 24 d8 00 00 	mov    %rax,0xd8(%rsp)
 45f1f36:	00 
 45f1f37:	48 89 5c 24 48       	mov    %rbx,0x48(%rsp)
 45f1f3c:	48 8d 0c 5b          	lea    (%rbx,%rbx,2),%rcx
 45f1f40:	48 8d 49 09          	lea    0x9(%rcx),%rcx
 45f1f44:	48 89 4c 24 40       	mov    %rcx,0x40(%rsp)
 45f1f49:	48 8d 05 10 ca 1b 01 	lea    0x11bca10(%rip),%rax        # 57ae960 <type:uint8@@Base>
 45f1f50:	48 89 cb             	mov    %rcx,%rbx
 45f1f53:	e8 88 44 94 fd       	call   1f363e0 <runtime.makeslice@@Base>
 45f1f58:	48 89 84 24 e0 00 00 	mov    %rax,0xe0(%rsp)
 45f1f5f:	00 
 45f1f60:	48 8b 4c 24 48       	mov    0x48(%rsp),%rcx
 45f1f65:	48 8d 51 03          	lea    0x3(%rcx),%rdx
 45f1f69:	48 c1 fa 3f          	sar    $0x3f,%rdx
 45f1f6d:	48 c1 ea 3e          	shr    $0x3e,%rdx
 45f1f71:	48 8d 1c 0a          	lea    (%rdx,%rcx,1),%rbx
 45f1f75:	48 8d 5b 03          	lea    0x3(%rbx),%rbx
 45f1f79:	48 8d 14 49          	lea    (%rcx,%rcx,2),%rdx
 45f1f7d:	48 89 54 24 50       	mov    %rdx,0x50(%rsp)
 45f1f82:	83 e1 03             	and    $0x3,%ecx
 45f1f85:	48 8b bc 24 18 01 00 	mov    0x118(%rsp),%rdi
 45f1f8c:	00 
 45f1f8d:	44 0f b6 87 80 00 00 	movzbl 0x80(%rdi),%r8d
 45f1f94:	00 
 45f1f95:	44 89 44 24 2c       	mov    %r8d,0x2c(%rsp)
 45f1f9a:	48 85 c9             	test   %rcx,%rcx
 45f1f9d:	74 1b                	je     45f1fba <github.com/mr-tron/base58/base58.FastBase58DecodingAlphabet@@Base+0xda>
 45f1f9f:	49 89 c9             	mov    %rcx,%r9
 45f1fa2:	48 c1 e1 03          	shl    $0x3,%rcx
 45f1fa6:	83 f9 20             	cmp    $0x20,%ecx
 45f1fa9:	45 19 d2             	sbb    %r10d,%r10d
 45f1fac:	41 bb ff ff ff ff    	mov    $0xffffffff,%r11d
 45f1fb2:	41 d3 e3             	shl    %cl,%r11d
 45f1fb5:	45 21 d3             	and    %r10d,%r11d
 45f1fb8:	eb 09                	jmp    45f1fc3 <github.com/mr-tron/base58/base58.FastBase58DecodingAlphabet@@Base+0xe3>
 45f1fba:	45 31 db             	xor    %r11d,%r11d
 45f1fbd:	41 b9 04 00 00 00    	mov    $0x4,%r9d
 45f1fc3:	4c 89 4c 24 38       	mov    %r9,0x38(%rsp)
 45f1fc8:	44 89 5c 24 28       	mov    %r11d,0x28(%rsp)
 45f1fcd:	48 c1 fb 02          	sar    $0x2,%rbx
 45f1fd1:	48 89 5c 24 30       	mov    %rbx,0x30(%rsp)
 45f1fd6:	48 8d 05 03 c9 1b 01 	lea    0x11bc903(%rip),%rax        # 57ae8e0 <type:uint32@@Base>
 45f1fdd:	48 89 d9             	mov    %rbx,%rcx
 45f1fe0:	e8 fb 43 94 fd       	call   1f363e0 <runtime.makeslice@@Base>
 45f1fe5:	8b 54 24 2c          	mov    0x2c(%rsp),%edx
 45f1fe9:	48 8b 74 24 48       	mov    0x48(%rsp),%rsi
 45f1fee:	48 8b bc 24 d8 00 00 	mov    0xd8(%rsp),%rdi
 45f1ff5:	00 
 45f1ff6:	31 c9                	xor    %ecx,%ecx
 45f1ff8:	eb 38                	jmp    45f2032 <github.com/mr-tron/base58/base58.FastBase58DecodingAlphabet@@Base+0x152>
 45f1ffa:	48 8d 05 ed 4e 77 00 	lea    0x774eed(%rip),%rax        # 4d66eee <_IO_stdin_used@@Base+0x133eee>
 45f2001:	bb 12 00 00 00       	mov    $0x12,%ebx
 45f2006:	31 c9                	xor    %ecx,%ecx
 45f2008:	31 ff                	xor    %edi,%edi
 45f200a:	48 89 fe             	mov    %rdi,%rsi
 45f200d:	e8 4e f2 9f fd       	call   1ff1260 <fmt.Errorf@@Base>
 45f2012:	31 c9                	xor    %ecx,%ecx
 45f2014:	48 89 c7             	mov    %rax,%rdi
 45f2017:	48 89 de             	mov    %rbx,%rsi
 45f201a:	31 c0                	xor    %eax,%eax
 45f201c:	48 89 cb             	mov    %rcx,%rbx
 45f201f:	48 8b ac 24 f8 00 00 	mov    0xf8(%rsp),%rbp
 45f2026:	00 
 45f2027:	48 81 c4 00 01 00 00 	add    $0x100,%rsp
 45f202e:	c3                   	ret
 45f202f:	48 ff c1             	inc    %rcx
 45f2032:	48 39 ce             	cmp    %rcx,%rsi
 45f2035:	7e 0e                	jle    45f2045 <github.com/mr-tron/base58/base58.FastBase58DecodingAlphabet@@Base+0x165>
 45f2037:	44 8b 04 8f          	mov    (%rdi,%rcx,4),%r8d
 45f203b:	0f 1f 44 00 00       	nopl   0x0(%rax,%rax,1)
 45f2040:	41 39 d0             	cmp    %edx,%r8d
 45f2043:	74 ea                	je     45f202f <github.com/mr-tron/base58/base58.FastBase58DecodingAlphabet@@Base+0x14f>
 45f2045:	4c 8b 84 24 18 01 00 	mov    0x118(%rsp),%r8
 45f204c:	00 
 45f204d:	4c 8b 4c 24 30       	mov    0x30(%rsp),%r9
 45f2052:	31 d2                	xor    %edx,%edx
 45f2054:	eb 0a                	jmp    45f2060 <github.com/mr-tron/base58/base58.FastBase58DecodingAlphabet@@Base+0x180>
 45f2056:	48 ff c2             	inc    %rdx
 45f2059:	0f 1f 80 00 00 00 00 	nopl   0x0(%rax)
 45f2060:	48 39 d6             	cmp    %rdx,%rsi
 45f2063:	0f 8e fc 00 00 00    	jle    45f2165 <github.com/mr-tron/base58/base58.FastBase58DecodingAlphabet@@Base+0x285>
 45f2069:	44 8b 14 97          	mov    (%rdi,%rdx,4),%r10d
 45f206d:	41 83 fa 7f          	cmp    $0x7f,%r10d
 45f2071:	0f 8f b9 00 00 00    	jg     45f2130 <github.com/mr-tron/base58/base58.FastBase58DecodingAlphabet@@Base+0x250>
 45f2077:	4d 63 da             	movslq %r10d,%r11
 45f207a:	66 0f 1f 44 00 00    	nopw   0x0(%rax,%rax,1)
 45f2080:	49 81 fb 80 00 00 00 	cmp    $0x80,%r11
 45f2087:	0f 83 a3 02 00 00    	jae    45f2330 <github.com/mr-tron/base58/base58.FastBase58DecodingAlphabet@@Base+0x450>
 45f208d:	47 0f b6 1c 18       	movzbl (%r8,%r11,1),%r11d
 45f2092:	41 80 fb ff          	cmp    $0xff,%r11b
 45f2096:	74 32                	je     45f20ca <github.com/mr-tron/base58/base58.FastBase58DecodingAlphabet@@Base+0x1ea>
 45f2098:	4d 0f be d3          	movsbq %r11b,%r10
 45f209c:	4d 8d 59 ff          	lea    -0x1(%r9),%r11
 45f20a0:	e9 fb 01 00 00       	jmp    45f22a0 <github.com/mr-tron/base58/base58.FastBase58DecodingAlphabet@@Base+0x3c0>
 45f20a5:	45 85 d2             	test   %r10d,%r10d
 45f20a8:	0f 87 37 02 00 00    	ja     45f22e5 <github.com/mr-tron/base58/base58.FastBase58DecodingAlphabet@@Base+0x405>
 45f20ae:	4d 85 c9             	test   %r9,%r9
 45f20b1:	0f 86 63 02 00 00    	jbe    45f231a <github.com/mr-tron/base58/base58.FastBase58DecodingAlphabet@@Base+0x43a>
 45f20b7:	44 8b 10             	mov    (%rax),%r10d
 45f20ba:	44 8b 5c 24 28       	mov    0x28(%rsp),%r11d
 45f20bf:	90                   	nop
 45f20c0:	45 85 da             	test   %r11d,%r10d
 45f20c3:	74 91                	je     45f2056 <github.com/mr-tron/base58/base58.FastBase58DecodingAlphabet@@Base+0x176>
 45f20c5:	e9 e6 01 00 00       	jmp    45f22b0 <github.com/mr-tron/base58/base58.FastBase58DecodingAlphabet@@Base+0x3d0>
 45f20ca:	44 0f 11 bc 24 e8 00 	movups %xmm15,0xe8(%rsp)
 45f20d1:	00 00 
 45f20d3:	44 89 d0             	mov    %r10d,%eax
 45f20d6:	e8 85 bb 8f fd       	call   1eedc60 <runtime.convT32@@Base>
 45f20db:	48 8d 0d fe 85 1b 01 	lea    0x11b85fe(%rip),%rcx        # 57aa6e0 <type:int32@@Base>
 45f20e2:	48 89 8c 24 e8 00 00 	mov    %rcx,0xe8(%rsp)
 45f20e9:	00 
 45f20ea:	48 89 84 24 f0 00 00 	mov    %rax,0xf0(%rsp)
 45f20f1:	00 
 45f20f2:	48 8d 05 01 9b 7e 00 	lea    0x7e9b01(%rip),%rax        # 4ddbbfa <_IO_stdin_used@@Base+0x1a8bfa>
 45f20f9:	bb 19 00 00 00       	mov    $0x19,%ebx
 45f20fe:	48 8d 8c 24 e8 00 00 	lea    0xe8(%rsp),%rcx
 45f2105:	00 
 45f2106:	bf 01 00 00 00       	mov    $0x1,%edi
 45f210b:	48 89 fe             	mov    %rdi,%rsi
 45f210e:	e8 4d f1 9f fd       	call   1ff1260 <fmt.Errorf@@Base>
 45f2113:	31 c9                	xor    %ecx,%ecx
 45f2115:	48 89 c7             	mov    %rax,%rdi
 45f2118:	48 89 de             	mov    %rbx,%rsi
 45f211b:	31 c0                	xor    %eax,%eax
 45f211d:	48 89 cb             	mov    %rcx,%rbx
 45f2120:	48 8b ac 24 f8 00 00 	mov    0xf8(%rsp),%rbp
 45f2127:	00 
 45f2128:	48 81 c4 00 01 00 00 	add    $0x100,%rsp
 45f212f:	c3                   	ret
 45f2130:	48 8d 05 cf 97 7f 00 	lea    0x7f97cf(%rip),%rax        # 4deb906 <_IO_stdin_used@@Base+0x1b8906>
 45f2137:	bb 1d 00 00 00       	mov    $0x1d,%ebx
 45f213c:	31 c9                	xor    %ecx,%ecx
 45f213e:	31 ff                	xor    %edi,%edi
 45f2140:	48 89 fe             	mov    %rdi,%rsi
 45f2143:	e8 18 f1 9f fd       	call   1ff1260 <fmt.Errorf@@Base>
 45f2148:	31 c9                	xor    %ecx,%ecx
 45f214a:	48 89 c7             	mov    %rax,%rdi
 45f214d:	48 89 de             	mov    %rbx,%rsi
 45f2150:	31 c0                	xor    %eax,%eax
 45f2152:	48 89 cb             	mov    %rcx,%rbx
 45f2155:	48 8b ac 24 f8 00 00 	mov    0xf8(%rsp),%rbp
 45f215c:	00 
 45f215d:	48 81 c4 00 01 00 00 	add    $0x100,%rsp
 45f2164:	c3                   	ret
 45f2165:	4c 8b 84 24 e0 00 00 	mov    0xe0(%rsp),%r8
 45f216c:	00 
 45f216d:	48 8b 54 24 40       	mov    0x40(%rsp),%rdx
 45f2172:	4c 8b 54 24 38       	mov    0x38(%rsp),%r10
 45f2177:	31 db                	xor    %ebx,%ebx
 45f2179:	31 f6                	xor    %esi,%esi
 45f217b:	eb 10                	jmp    45f218d <github.com/mr-tron/base58/base58.FastBase58DecodingAlphabet@@Base+0x2ad>
 45f217d:	48 85 db             	test   %rbx,%rbx
 45f2180:	41 bb 04 00 00 00    	mov    $0x4,%r11d
 45f2186:	4d 0f 44 d3          	cmove  %r11,%r10
 45f218a:	48 ff c3             	inc    %rbx
 45f218d:	4c 39 cb             	cmp    %r9,%rbx
 45f2190:	7d 0d                	jge    45f219f <github.com/mr-tron/base58/base58.FastBase58DecodingAlphabet@@Base+0x2bf>
 45f2192:	4d 8d 5a ff          	lea    -0x1(%r10),%r11
 45f2196:	41 c1 e3 03          	shl    $0x3,%r11d
 45f219a:	e9 b4 00 00 00       	jmp    45f2253 <github.com/mr-tron/base58/base58.FastBase58DecodingAlphabet@@Base+0x373>
 45f219f:	31 c0                	xor    %eax,%eax
 45f21a1:	eb 03                	jmp    45f21a6 <github.com/mr-tron/base58/base58.FastBase58DecodingAlphabet@@Base+0x2c6>
 45f21a3:	48 ff c0             	inc    %rax
 45f21a6:	48 39 d0             	cmp    %rdx,%rax
 45f21a9:	7d 5e                	jge    45f2209 <github.com/mr-tron/base58/base58.FastBase58DecodingAlphabet@@Base+0x329>
 45f21ab:	45 0f b6 0c 00       	movzbl (%r8,%rax,1),%r9d
 45f21b0:	45 84 c9             	test   %r9b,%r9b
 45f21b3:	76 ee                	jbe    45f21a3 <github.com/mr-tron/base58/base58.FastBase58DecodingAlphabet@@Base+0x2c3>
 45f21b5:	48 29 c8             	sub    %rcx,%rax
 45f21b8:	48 85 c0             	test   %rax,%rax
 45f21bb:	41 b9 00 00 00 00    	mov    $0x0,%r9d
 45f21c1:	49 0f 4c c1          	cmovl  %r9,%rax
 45f21c5:	48 39 d6             	cmp    %rdx,%rsi
 45f21c8:	77 71                	ja     45f223b <github.com/mr-tron/base58/base58.FastBase58DecodingAlphabet@@Base+0x35b>
 45f21ca:	48 39 c6             	cmp    %rax,%rsi
 45f21cd:	72 64                	jb     45f2233 <github.com/mr-tron/base58/base58.FastBase58DecodingAlphabet@@Base+0x353>
 45f21cf:	48 8b 4c 24 50       	mov    0x50(%rsp),%rcx
 45f21d4:	48 29 c1             	sub    %rax,%rcx
 45f21d7:	48 29 c6             	sub    %rax,%rsi
 45f21da:	48 83 c1 09          	add    $0x9,%rcx
 45f21de:	48 89 ca             	mov    %rcx,%rdx
 45f21e1:	48 f7 d9             	neg    %rcx
 45f21e4:	48 c1 f9 3f          	sar    $0x3f,%rcx
 45f21e8:	48 21 c1             	and    %rax,%rcx
 45f21eb:	49 8d 04 08          	lea    (%r8,%rcx,1),%rax
 45f21ef:	48 89 f3             	mov    %rsi,%rbx
 45f21f2:	48 89 d1             	mov    %rdx,%rcx
 45f21f5:	31 ff                	xor    %edi,%edi
 45f21f7:	31 f6                	xor    %esi,%esi
 45f21f9:	48 8b ac 24 f8 00 00 	mov    0xf8(%rsp),%rbp
 45f2200:	00 
 45f2201:	48 81 c4 00 01 00 00 	add    $0x100,%rsp
 45f2208:	c3                   	ret
 45f2209:	48 39 d6             	cmp    %rdx,%rsi
 45f220c:	77 1d                	ja     45f222b <github.com/mr-tron/base58/base58.FastBase58DecodingAlphabet@@Base+0x34b>
 45f220e:	4c 89 c0             	mov    %r8,%rax
 45f2211:	48 89 f3             	mov    %rsi,%rbx
 45f2214:	48 89 d1             	mov    %rdx,%rcx
 45f2217:	31 ff                	xor    %edi,%edi
 45f2219:	31 f6                	xor    %esi,%esi
 45f221b:	48 8b ac 24 f8 00 00 	mov    0xf8(%rsp),%rbp
 45f2222:	00 
 45f2223:	48 81 c4 00 01 00 00 	add    $0x100,%rsp
 45f222a:	c3                   	ret
 45f222b:	48 89 f1             	mov    %rsi,%rcx
 45f222e:	e8 ed 48 96 fd       	call   1f56b20 <runtime.panicSliceAcap@@Base>
 45f2233:	48 89 f1             	mov    %rsi,%rcx
 45f2236:	e8 25 49 96 fd       	call   1f56b60 <runtime.panicSliceB@@Base>
 45f223b:	48 89 f1             	mov    %rsi,%rcx
 45f223e:	66 90                	xchg   %ax,%ax
