# github.com/lasselj/timebeat/beater/clocksync/clients/ptp/client.(*Offsets).addAsymmetryCompensation
# addr 0x45d83e0 size 416 (0x1a0)


/mnt/c/Users/SHIWA/GitHub/TimeCard-Mini/timebeat-extracted/usr/share/timebeat/bin/timebeat:     file format elf64-x86-64


Disassembly of section .text:

00000000045d83e0 <github.com/lasselj/timebeat/beater/clocksync/clients/ptp/client.(*Offsets).addAsymmetryCompensation@@Base>:
 45d83e0:	49 3b 66 10          	cmp    0x10(%r14),%rsp
 45d83e4:	0f 86 45 01 00 00    	jbe    45d852f <github.com/lasselj/timebeat/beater/clocksync/clients/ptp/client.(*Offsets).addAsymmetryCompensation@@Base+0x14f>
 45d83ea:	48 83 ec 70          	sub    $0x70,%rsp
 45d83ee:	48 89 6c 24 68       	mov    %rbp,0x68(%rsp)
 45d83f3:	48 8d 6c 24 68       	lea    0x68(%rsp),%rbp
 45d83f8:	66 83 f9 01          	cmp    $0x1,%cx
 45d83fc:	74 08                	je     45d8406 <github.com/lasselj/timebeat/beater/clocksync/clients/ptp/client.(*Offsets).addAsymmetryCompensation@@Base+0x26>
 45d83fe:	66 90                	xchg   %ax,%ax
 45d8400:	66 83 f9 02          	cmp    $0x2,%cx
 45d8404:	75 04                	jne    45d840a <github.com/lasselj/timebeat/beater/clocksync/clients/ptp/client.(*Offsets).addAsymmetryCompensation@@Base+0x2a>
 45d8406:	31 d2                	xor    %edx,%edx
 45d8408:	eb 05                	jmp    45d840f <github.com/lasselj/timebeat/beater/clocksync/clients/ptp/client.(*Offsets).addAsymmetryCompensation@@Base+0x2f>
 45d840a:	ba 01 00 00 00       	mov    $0x1,%edx
 45d840f:	90                   	nop
 45d8410:	66 83 f9 08          	cmp    $0x8,%cx
 45d8414:	74 16                	je     45d842c <github.com/lasselj/timebeat/beater/clocksync/clients/ptp/client.(*Offsets).addAsymmetryCompensation@@Base+0x4c>
 45d8416:	66 83 f9 04          	cmp    $0x4,%cx
 45d841a:	74 10                	je     45d842c <github.com/lasselj/timebeat/beater/clocksync/clients/ptp/client.(*Offsets).addAsymmetryCompensation@@Base+0x4c>
 45d841c:	0f 1f 40 00          	nopl   0x0(%rax)
 45d8420:	66 83 f9 10          	cmp    $0x10,%cx
 45d8424:	74 06                	je     45d842c <github.com/lasselj/timebeat/beater/clocksync/clients/ptp/client.(*Offsets).addAsymmetryCompensation@@Base+0x4c>
 45d8426:	66 83 f9 20          	cmp    $0x20,%cx
 45d842a:	75 0f                	jne    45d843b <github.com/lasselj/timebeat/beater/clocksync/clients/ptp/client.(*Offsets).addAsymmetryCompensation@@Base+0x5b>
 45d842c:	84 00                	test   %al,(%rax)
 45d842e:	0f b6 f3             	movzbl %bl,%esi
 45d8431:	0f b7 b4 70 70 20 01 	movzwl 0x12070(%rax,%rsi,2),%esi
 45d8438:	00 
 45d8439:	eb 02                	jmp    45d843d <github.com/lasselj/timebeat/beater/clocksync/clients/ptp/client.(*Offsets).addAsymmetryCompensation@@Base+0x5d>
 45d843b:	89 de                	mov    %ebx,%esi
 45d843d:	84 00                	test   %al,(%rax)
 45d843f:	40 0f b6 f6          	movzbl %sil,%esi
 45d8443:	48 8d 34 f6          	lea    (%rsi,%rsi,8),%rsi
 45d8447:	48 c1 e6 05          	shl    $0x5,%rsi
 45d844b:	48 8d 34 30          	lea    (%rax,%rsi,1),%rsi
 45d844f:	48 8d b6 60 01 00 00 	lea    0x160(%rsi),%rsi
 45d8456:	49 89 f8             	mov    %rdi,%r8
 45d8459:	48 c1 ff 3f          	sar    $0x3f,%rdi
 45d845d:	48 c1 ef 30          	shr    $0x30,%rdi
 45d8461:	4c 01 c7             	add    %r8,%rdi
 45d8464:	48 c1 ff 10          	sar    $0x10,%rdi
 45d8468:	48 01 3c d6          	add    %rdi,(%rsi,%rdx,8)
 45d846c:	80 b8 b0 22 01 00 00 	cmpb   $0x0,0x122b0(%rax)
 45d8473:	0f 84 ac 00 00 00    	je     45d8525 <github.com/lasselj/timebeat/beater/clocksync/clients/ptp/client.(*Offsets).addAsymmetryCompensation@@Base+0x145>
 45d8479:	66 89 9c 24 80 00 00 	mov    %bx,0x80(%rsp)
 45d8480:	00 
 45d8481:	66 89 8c 24 82 00 00 	mov    %cx,0x82(%rsp)
 45d8488:	00 
 45d8489:	44 0f 11 7c 24 38    	movups %xmm15,0x38(%rsp)
 45d848f:	44 0f 11 7c 24 48    	movups %xmm15,0x48(%rsp)
 45d8495:	44 0f 11 7c 24 58    	movups %xmm15,0x58(%rsp)
 45d849b:	48 89 f8             	mov    %rdi,%rax
 45d849e:	66 90                	xchg   %ax,%ax
 45d84a0:	e8 3b 58 91 fd       	call   1eedce0 <runtime.convT64@@Base>
 45d84a5:	48 8d 0d 14 be 6e 01 	lea    0x16ebe14(%rip),%rcx        # 5cc42c0 <type:cP1vjca2@@Base>
 45d84ac:	48 89 4c 24 38       	mov    %rcx,0x38(%rsp)
 45d84b1:	48 89 44 24 40       	mov    %rax,0x40(%rsp)
 45d84b6:	0f b7 84 24 82 00 00 	movzwl 0x82(%rsp),%eax
 45d84bd:	00 
 45d84be:	66 90                	xchg   %ax,%ax
 45d84c0:	e8 1b 57 91 fd       	call   1eedbe0 <runtime.convT16@@Base>
 45d84c5:	48 8d 0d d4 63 1d 01 	lea    0x11d63d4(%rip),%rcx        # 57ae8a0 <type:uint16@@Base>
 45d84cc:	48 89 4c 24 48       	mov    %rcx,0x48(%rsp)
 45d84d1:	48 89 44 24 50       	mov    %rax,0x50(%rsp)
 45d84d6:	0f b7 84 24 80 00 00 	movzwl 0x80(%rsp),%eax
 45d84dd:	00 
 45d84de:	66 90                	xchg   %ax,%ax
 45d84e0:	e8 fb 56 91 fd       	call   1eedbe0 <runtime.convT16@@Base>
 45d84e5:	48 8d 0d b4 63 1d 01 	lea    0x11d63b4(%rip),%rcx        # 57ae8a0 <type:uint16@@Base>
 45d84ec:	48 89 4c 24 58       	mov    %rcx,0x58(%rsp)
 45d84f1:	48 89 44 24 60       	mov    %rax,0x60(%rsp)
 45d84f6:	48 8b 1d 43 6d 85 03 	mov    0x3856d43(%rip),%rbx        # 7e2f240 <os.Stdout@@Base>
 45d84fd:	48 8d 05 1c cd 92 01 	lea    0x192cd1c(%rip),%rax        # 5f05220 <go:itab.*os.File,io.Writer@@Base>
 45d8504:	48 8d 0d 4c 2d 81 00 	lea    0x812d4c(%rip),%rcx        # 4deb257 <_IO_stdin_used@@Base+0x1b8257>
 45d850b:	bf 1d 00 00 00       	mov    $0x1d,%edi
 45d8510:	48 8d 74 24 38       	lea    0x38(%rsp),%rsi
 45d8515:	41 b8 03 00 00 00    	mov    $0x3,%r8d
 45d851b:	4d 89 c1             	mov    %r8,%r9
 45d851e:	66 90                	xchg   %ax,%ax
 45d8520:	e8 bb c2 a1 fd       	call   1ff47e0 <fmt.Fprintf@@Base>
 45d8525:	48 8b 6c 24 68       	mov    0x68(%rsp),%rbp
 45d852a:	48 83 c4 70          	add    $0x70,%rsp
 45d852e:	c3                   	ret
 45d852f:	48 89 44 24 08       	mov    %rax,0x8(%rsp)
 45d8534:	66 89 5c 24 10       	mov    %bx,0x10(%rsp)
 45d8539:	66 89 4c 24 12       	mov    %cx,0x12(%rsp)
 45d853e:	48 89 7c 24 18       	mov    %rdi,0x18(%rsp)
 45d8543:	e8 18 bf 97 fd       	call   1f54460 <runtime.morestack_noctxt.abi0@@Base>
 45d8548:	48 8b 44 24 08       	mov    0x8(%rsp),%rax
 45d854d:	0f b7 5c 24 10       	movzwl 0x10(%rsp),%ebx
 45d8552:	0f b7 4c 24 12       	movzwl 0x12(%rsp),%ecx
 45d8557:	48 8b 7c 24 18       	mov    0x18(%rsp),%rdi
 45d855c:	0f 1f 40 00          	nopl   0x0(%rax)
 45d8560:	e9 7b fe ff ff       	jmp    45d83e0 <github.com/lasselj/timebeat/beater/clocksync/clients/ptp/client.(*Offsets).addAsymmetryCompensation@@Base>
 45d8565:	cc                   	int3
 45d8566:	cc                   	int3
 45d8567:	cc                   	int3
 45d8568:	cc                   	int3
 45d8569:	cc                   	int3
 45d856a:	cc                   	int3
 45d856b:	cc                   	int3
 45d856c:	cc                   	int3
 45d856d:	cc                   	int3
 45d856e:	cc                   	int3
 45d856f:	cc                   	int3
 45d8570:	cc                   	int3
 45d8571:	cc                   	int3
 45d8572:	cc                   	int3
 45d8573:	cc                   	int3
 45d8574:	cc                   	int3
 45d8575:	cc                   	int3
 45d8576:	cc                   	int3
 45d8577:	cc                   	int3
 45d8578:	cc                   	int3
 45d8579:	cc                   	int3
 45d857a:	cc                   	int3
 45d857b:	cc                   	int3
 45d857c:	cc                   	int3
 45d857d:	cc                   	int3
 45d857e:	cc                   	int3
 45d857f:	cc                   	int3
