# github.com/lasselj/timebeat/beater/clocksync/clients/vendors/ocp_timecard/client.(*Client).runGNSSRunloop
# addr 0x4b6d040 size 704 (0x2c0)


/mnt/c/Users/SHIWA/GitHub/TimeCard-Mini/timebeat-extracted/usr/share/timebeat/bin/timebeat:     file format elf64-x86-64


Disassembly of section .text:

0000000004b6d040 <github.com/lasselj/timebeat/beater/clocksync/clients/vendors/ocp_timecard/client.(*Client).runGNSSRunloop@@Base>:
 4b6d040:	4c 8d 64 24 80       	lea    -0x80(%rsp),%r12
 4b6d045:	4d 3b 66 10          	cmp    0x10(%r14),%r12
 4b6d049:	0f 86 77 02 00 00    	jbe    4b6d2c6 <github.com/lasselj/timebeat/beater/clocksync/clients/vendors/ocp_timecard/client.(*Client).runGNSSRunloop@@Base+0x286>
 4b6d04f:	48 81 ec 00 01 00 00 	sub    $0x100,%rsp
 4b6d056:	48 89 ac 24 f8 00 00 	mov    %rbp,0xf8(%rsp)
 4b6d05d:	00 
 4b6d05e:	48 8d ac 24 f8 00 00 	lea    0xf8(%rsp),%rbp
 4b6d065:	00 
 4b6d066:	48 89 9c 24 10 01 00 	mov    %rbx,0x110(%rsp)
 4b6d06d:	00 
 4b6d06e:	48 89 4c 24 40       	mov    %rcx,0x40(%rsp)
 4b6d073:	48 89 84 24 08 01 00 	mov    %rax,0x108(%rsp)
 4b6d07a:	00 
 4b6d07b:	eb 10                	jmp    4b6d08d <github.com/lasselj/timebeat/beater/clocksync/clients/vendors/ocp_timecard/client.(*Client).runGNSSRunloop@@Base+0x4d>
 4b6d07d:	48 8b 84 24 08 01 00 	mov    0x108(%rsp),%rax
 4b6d084:	00 
 4b6d085:	48 8b 9c 24 10 01 00 	mov    0x110(%rsp),%rbx
 4b6d08c:	00 
 4b6d08d:	48 8b 50 18          	mov    0x18(%rax),%rdx
 4b6d091:	4c 8b 4b 78          	mov    0x78(%rbx),%r9
 4b6d095:	44 0f 11 bc 24 80 00 	movups %xmm15,0x80(%rsp)
 4b6d09c:	00 00 
 4b6d09e:	48 c7 84 24 90 00 00 	movq   $0x0,0x90(%rsp)
 4b6d0a5:	00 00 00 00 00 
 4b6d0aa:	4c 8b 93 80 00 00 00 	mov    0x80(%rbx),%r10
 4b6d0b1:	48 c7 44 24 78 00 00 	movq   $0x0,0x78(%rsp)
 4b6d0b8:	00 00 
 4b6d0ba:	4c 8b 9b 88 00 00 00 	mov    0x88(%rbx),%r11
 4b6d0c1:	48 c7 44 24 70 00 00 	movq   $0x0,0x70(%rsp)
 4b6d0c8:	00 00 
 4b6d0ca:	44 0f 11 bc 24 b8 00 	movups %xmm15,0xb8(%rsp)
 4b6d0d1:	00 00 
 4b6d0d3:	44 0f 11 bc 24 c8 00 	movups %xmm15,0xc8(%rsp)
 4b6d0da:	00 00 
 4b6d0dc:	44 0f 11 bc 24 d8 00 	movups %xmm15,0xd8(%rsp)
 4b6d0e3:	00 00 
 4b6d0e5:	44 0f 11 bc 24 e8 00 	movups %xmm15,0xe8(%rsp)
 4b6d0ec:	00 00 
 4b6d0ee:	48 89 94 24 e8 00 00 	mov    %rdx,0xe8(%rsp)
 4b6d0f5:	00 
 4b6d0f6:	4c 89 8c 24 d8 00 00 	mov    %r9,0xd8(%rsp)
 4b6d0fd:	00 
 4b6d0fe:	48 8d 94 24 80 00 00 	lea    0x80(%rsp),%rdx
 4b6d105:	00 
 4b6d106:	48 89 94 24 e0 00 00 	mov    %rdx,0xe0(%rsp)
 4b6d10d:	00 
 4b6d10e:	4c 89 94 24 c8 00 00 	mov    %r10,0xc8(%rsp)
 4b6d115:	00 
 4b6d116:	48 8d 54 24 78       	lea    0x78(%rsp),%rdx
 4b6d11b:	48 89 94 24 d0 00 00 	mov    %rdx,0xd0(%rsp)
 4b6d122:	00 
 4b6d123:	4c 89 9c 24 b8 00 00 	mov    %r11,0xb8(%rsp)
 4b6d12a:	00 
 4b6d12b:	48 8d 54 24 70       	lea    0x70(%rsp),%rdx
 4b6d130:	48 89 94 24 c0 00 00 	mov    %rdx,0xc0(%rsp)
 4b6d137:	00 
 4b6d138:	31 c9                	xor    %ecx,%ecx
 4b6d13a:	31 ff                	xor    %edi,%edi
 4b6d13c:	be 04 00 00 00       	mov    $0x4,%esi
 4b6d141:	41 b8 01 00 00 00    	mov    $0x1,%r8d
 4b6d147:	48 8d 84 24 b8 00 00 	lea    0xb8(%rsp),%rax
 4b6d14e:	00 
 4b6d14f:	48 8d 5c 24 48       	lea    0x48(%rsp),%rbx
 4b6d154:	e8 67 3a 3c fd       	call   1f30bc0 <runtime.selectgo@@Base>
 4b6d159:	0f 1f 80 00 00 00 00 	nopl   0x0(%rax)
 4b6d160:	48 85 c0             	test   %rax,%rax
 4b6d163:	0f 84 94 00 00 00    	je     4b6d1fd <github.com/lasselj/timebeat/beater/clocksync/clients/vendors/ocp_timecard/client.(*Client).runGNSSRunloop@@Base+0x1bd>
 4b6d169:	48 83 f8 01          	cmp    $0x1,%rax
 4b6d16d:	74 56                	je     4b6d1c5 <github.com/lasselj/timebeat/beater/clocksync/clients/vendors/ocp_timecard/client.(*Client).runGNSSRunloop@@Base+0x185>
 4b6d16f:	48 83 f8 02          	cmp    $0x2,%rax
 4b6d173:	0f 85 3d 01 00 00    	jne    4b6d2b6 <github.com/lasselj/timebeat/beater/clocksync/clients/vendors/ocp_timecard/client.(*Client).runGNSSRunloop@@Base+0x276>
 4b6d179:	48 8b 84 24 80 00 00 	mov    0x80(%rsp),%rax
 4b6d180:	00 
 4b6d181:	48 89 44 24 68       	mov    %rax,0x68(%rsp)
 4b6d186:	48 8b 8c 24 88 00 00 	mov    0x88(%rsp),%rcx
 4b6d18d:	00 
 4b6d18e:	48 89 4c 24 38       	mov    %rcx,0x38(%rsp)
 4b6d193:	48 8b 94 24 90 00 00 	mov    0x90(%rsp),%rdx
 4b6d19a:	00 
 4b6d19b:	48 89 54 24 30       	mov    %rdx,0x30(%rsp)
 4b6d1a0:	e8 1b 77 a2 ff       	call   45948c0 <github.com/lasselj/timebeat/beater/clocksync/hostclocks.GetController@@Base>
 4b6d1a5:	48 8b 5c 24 30       	mov    0x30(%rsp),%rbx
 4b6d1aa:	b9 03 00 00 00       	mov    $0x3,%ecx
 4b6d1af:	48 8b 7c 24 68       	mov    0x68(%rsp),%rdi
 4b6d1b4:	48 8b 74 24 38       	mov    0x38(%rsp),%rsi
 4b6d1b9:	e8 82 ab a2 ff       	call   4597d40 <github.com/lasselj/timebeat/beater/clocksync/hostclocks.(*HostClockController).NotifyTAIOffset@@Base>
 4b6d1be:	66 90                	xchg   %ax,%ax
 4b6d1c0:	e9 b8 fe ff ff       	jmp    4b6d07d <github.com/lasselj/timebeat/beater/clocksync/clients/vendors/ocp_timecard/client.(*Client).runGNSSRunloop@@Base+0x3d>
 4b6d1c5:	48 8b 5c 24 78       	mov    0x78(%rsp),%rbx
 4b6d1ca:	48 89 5c 24 58       	mov    %rbx,0x58(%rsp)
 4b6d1cf:	48 8b 84 24 08 01 00 	mov    0x108(%rsp),%rax
 4b6d1d6:	00 
 4b6d1d7:	48 8b 4c 24 40       	mov    0x40(%rsp),%rcx
 4b6d1dc:	0f 1f 40 00          	nopl   0x0(%rax)
 4b6d1e0:	e8 1b 01 00 00       	call   4b6d300 <github.com/lasselj/timebeat/beater/clocksync/clients/vendors/ocp_timecard/client.(*Client).decorateObservation@@Base>
 4b6d1e5:	e8 96 35 a3 ff       	call   45a0780 <github.com/lasselj/timebeat/beater/clocksync/servo.GetController@@Base>
 4b6d1ea:	48 8b 40 10          	mov    0x10(%rax),%rax
 4b6d1ee:	48 8b 5c 24 58       	mov    0x58(%rsp),%rbx
 4b6d1f3:	e8 68 59 a3 ff       	call   45a2b60 <github.com/lasselj/timebeat/beater/clocksync/servo.(*Offsets).RegisterObservation@@Base>
 4b6d1f8:	e9 80 fe ff ff       	jmp    4b6d07d <github.com/lasselj/timebeat/beater/clocksync/clients/vendors/ocp_timecard/client.(*Client).runGNSSRunloop@@Base+0x3d>
 4b6d1fd:	48 8b 4c 24 70       	mov    0x70(%rsp),%rcx
 4b6d202:	48 89 4c 24 60       	mov    %rcx,0x60(%rsp)
 4b6d207:	44 0f 11 bc 24 98 00 	movups %xmm15,0x98(%rsp)
 4b6d20e:	00 00 
 4b6d210:	44 0f 11 bc 24 a8 00 	movups %xmm15,0xa8(%rsp)
 4b6d217:	00 00 
 4b6d219:	48 8b 94 24 08 01 00 	mov    0x108(%rsp),%rdx
 4b6d220:	00 
 4b6d221:	48 8b 82 78 02 00 00 	mov    0x278(%rdx),%rax
 4b6d228:	48 8b 9a 80 02 00 00 	mov    0x280(%rdx),%rbx
 4b6d22f:	e8 2c 0b 38 fd       	call   1eedd60 <runtime.convTstring@@Base>
 4b6d234:	48 8d 0d 65 14 c4 00 	lea    0xc41465(%rip),%rcx        # 57ae6a0 <type:string@@Base>
 4b6d23b:	48 89 8c 24 98 00 00 	mov    %rcx,0x98(%rsp)
 4b6d242:	00 
 4b6d243:	48 89 84 24 a0 00 00 	mov    %rax,0xa0(%rsp)
 4b6d24a:	00 
 4b6d24b:	48 8b 44 24 40       	mov    0x40(%rsp),%rax
 4b6d250:	e8 8b 0a 38 fd       	call   1eedce0 <runtime.convT64@@Base>
 4b6d255:	48 8d 0d 04 d4 c3 00 	lea    0xc3d404(%rip),%rcx        # 57aa660 <type:int@@Base>
 4b6d25c:	48 89 8c 24 a8 00 00 	mov    %rcx,0xa8(%rsp)
 4b6d263:	00 
 4b6d264:	48 89 84 24 b0 00 00 	mov    %rax,0xb0(%rsp)
 4b6d26b:	00 
 4b6d26c:	48 8d 05 ac a0 0f 00 	lea    0xfa0ac(%rip),%rax        # 4c6731f <_IO_stdin_used@@Base+0x3431f>
 4b6d273:	bb 0a 00 00 00       	mov    $0xa,%ebx
 4b6d278:	bf 02 00 00 00       	mov    $0x2,%edi
 4b6d27d:	48 89 fe             	mov    %rdi,%rsi
 4b6d280:	48 8d 8c 24 98 00 00 	lea    0x98(%rsp),%rcx
 4b6d287:	00 
 4b6d288:	e8 73 76 48 fd       	call   1ff4900 <fmt.Sprintf@@Base>
 4b6d28d:	48 8b 7c 24 60       	mov    0x60(%rsp),%rdi
 4b6d292:	48 89 5f 08          	mov    %rbx,0x8(%rdi)
 4b6d296:	83 3d c3 e6 30 03 00 	cmpl   $0x0,0x330e6c3(%rip)        # 7e7b960 <runtime.writeBarrier@@Base>
 4b6d29d:	75 05                	jne    4b6d2a4 <github.com/lasselj/timebeat/beater/clocksync/clients/vendors/ocp_timecard/client.(*Client).runGNSSRunloop@@Base+0x264>
 4b6d29f:	48 89 07             	mov    %rax,(%rdi)
 4b6d2a2:	eb 05                	jmp    4b6d2a9 <github.com/lasselj/timebeat/beater/clocksync/clients/vendors/ocp_timecard/client.(*Client).runGNSSRunloop@@Base+0x269>
 4b6d2a4:	e8 57 93 3e fd       	call   1f56600 <runtime.gcWriteBarrier@@Base>
 4b6d2a9:	48 89 f8             	mov    %rdi,%rax
 4b6d2ac:	e8 8f d5 89 ff       	call   440a840 <github.com/lasselj/timebeat/beater/logging.(*NMEAGSVLogEntry).Log@@Base>
 4b6d2b1:	e9 c7 fd ff ff       	jmp    4b6d07d <github.com/lasselj/timebeat/beater/clocksync/clients/vendors/ocp_timecard/client.(*Client).runGNSSRunloop@@Base+0x3d>
 4b6d2b6:	48 8b ac 24 f8 00 00 	mov    0xf8(%rsp),%rbp
 4b6d2bd:	00 
 4b6d2be:	48 81 c4 00 01 00 00 	add    $0x100,%rsp
 4b6d2c5:	c3                   	ret
 4b6d2c6:	48 89 44 24 08       	mov    %rax,0x8(%rsp)
 4b6d2cb:	48 89 5c 24 10       	mov    %rbx,0x10(%rsp)
 4b6d2d0:	48 89 4c 24 18       	mov    %rcx,0x18(%rsp)
 4b6d2d5:	e8 86 71 3e fd       	call   1f54460 <runtime.morestack_noctxt.abi0@@Base>
 4b6d2da:	48 8b 44 24 08       	mov    0x8(%rsp),%rax
 4b6d2df:	48 8b 5c 24 10       	mov    0x10(%rsp),%rbx
 4b6d2e4:	48 8b 4c 24 18       	mov    0x18(%rsp),%rcx
 4b6d2e9:	e9 52 fd ff ff       	jmp    4b6d040 <github.com/lasselj/timebeat/beater/clocksync/clients/vendors/ocp_timecard/client.(*Client).runGNSSRunloop@@Base>
 4b6d2ee:	cc                   	int3
 4b6d2ef:	cc                   	int3
 4b6d2f0:	cc                   	int3
 4b6d2f1:	cc                   	int3
 4b6d2f2:	cc                   	int3
 4b6d2f3:	cc                   	int3
 4b6d2f4:	cc                   	int3
 4b6d2f5:	cc                   	int3
 4b6d2f6:	cc                   	int3
 4b6d2f7:	cc                   	int3
 4b6d2f8:	cc                   	int3
 4b6d2f9:	cc                   	int3
 4b6d2fa:	cc                   	int3
 4b6d2fb:	cc                   	int3
 4b6d2fc:	cc                   	int3
 4b6d2fd:	cc                   	int3
 4b6d2fe:	cc                   	int3
 4b6d2ff:	cc                   	int3
