# github.com/lasselj/timebeat/beater/clocksync/clients/vendors/timebeat/clock_gen/clock_gen_8A34002E.(*ClockGen8A34012).SetPageAddress2ByteMode
# addr 0x4b96ae0 size 416 (0x1a0)


/mnt/c/Users/SHIWA/GitHub/TimeCard-Mini/timebeat-extracted/usr/share/timebeat/bin/timebeat:     file format elf64-x86-64


Disassembly of section .text:

0000000004b96ae0 <github.com/lasselj/timebeat/beater/clocksync/clients/vendors/timebeat/clock_gen/clock_gen_8A34002E.(*ClockGen8A34012).SetPageAddress2ByteMode@@Base>:
 4b96ae0:	49 3b 66 10          	cmp    0x10(%r14),%rsp
 4b96ae4:	0f 86 6b 01 00 00    	jbe    4b96c55 <github.com/lasselj/timebeat/beater/clocksync/clients/vendors/timebeat/clock_gen/clock_gen_8A34002E.(*ClockGen8A34012).SetPageAddress2ByteMode@@Base+0x175>
 4b96aea:	48 83 ec 48          	sub    $0x48,%rsp
 4b96aee:	48 89 6c 24 40       	mov    %rbp,0x40(%rsp)
 4b96af3:	48 8d 6c 24 40       	lea    0x40(%rsp),%rbp
 4b96af8:	48 89 44 24 50       	mov    %rax,0x50(%rsp)
 4b96afd:	48 8d 05 dc 03 c4 00 	lea    0xc403dc(%rip),%rax        # 57d6ee0 <type:[5]uint8@@Base>
 4b96b04:	e8 d7 99 35 fd       	call   1ef04e0 <runtime.newobject@@Base>
 4b96b09:	48 89 44 24 38       	mov    %rax,0x38(%rsp)
 4b96b0e:	c7 00 fc 00 ca 10    	movl   $0x10ca00fc,(%rax)
 4b96b14:	c6 40 04 20          	movb   $0x20,0x4(%rax)
 4b96b18:	48 8d 05 01 af c3 00 	lea    0xc3af01(%rip),%rax        # 57d1a20 <type:[2]uint8@@Base>
 4b96b1f:	90                   	nop
 4b96b20:	e8 bb 99 35 fd       	call   1ef04e0 <runtime.newobject@@Base>
 4b96b25:	48 89 44 24 30       	mov    %rax,0x30(%rsp)
 4b96b2a:	66 c7 00 e2 04       	movw   $0x4e2,(%rax)
 4b96b2f:	48 8d 05 ea ae c3 00 	lea    0xc3aeea(%rip),%rax        # 57d1a20 <type:[2]uint8@@Base>
 4b96b36:	e8 a5 99 35 fd       	call   1ef04e0 <runtime.newobject@@Base>
 4b96b3b:	48 89 44 24 28       	mov    %rax,0x28(%rsp)
 4b96b40:	66 c7 00 e8 a0       	movw   $0xa0e8,(%rax)
 4b96b45:	48 8d 05 94 03 c4 00 	lea    0xc40394(%rip),%rax        # 57d6ee0 <type:[5]uint8@@Base>
 4b96b4c:	e8 8f 99 35 fd       	call   1ef04e0 <runtime.newobject@@Base>
 4b96b51:	48 89 44 24 20       	mov    %rax,0x20(%rsp)
 4b96b56:	c7 00 ff fd 00 10    	movl   $0x1000fdff,(%rax)
 4b96b5c:	c6 40 04 20          	movb   $0x20,0x4(%rax)
 4b96b60:	b8 40 42 0f 00       	mov    $0xf4240,%eax
 4b96b65:	e8 76 c6 3b fd       	call   1f531e0 <time.Sleep@@Base>
 4b96b6a:	48 8b 4c 24 50       	mov    0x50(%rsp),%rcx
 4b96b6f:	48 8b 41 18          	mov    0x18(%rcx),%rax
 4b96b73:	48 8b 5c 24 38       	mov    0x38(%rsp),%rbx
 4b96b78:	bf 05 00 00 00       	mov    $0x5,%edi
 4b96b7d:	48 89 f9             	mov    %rdi,%rcx
 4b96b80:	e8 fb 6b ff ff       	call   4b8d780 <github.com/lasselj/timebeat/beater/clocksync/clients/vendors/generic_serial_device.(*I2CDevice).Write@@Base>
 4b96b85:	48 85 c0             	test   %rax,%rax
 4b96b88:	0f 85 bd 00 00 00    	jne    4b96c4b <github.com/lasselj/timebeat/beater/clocksync/clients/vendors/timebeat/clock_gen/clock_gen_8A34002E.(*ClockGen8A34012).SetPageAddress2ByteMode@@Base+0x16b>
 4b96b8e:	b8 40 42 0f 00       	mov    $0xf4240,%eax
 4b96b93:	e8 48 c6 3b fd       	call   1f531e0 <time.Sleep@@Base>
 4b96b98:	48 8b 4c 24 50       	mov    0x50(%rsp),%rcx
 4b96b9d:	48 8b 41 18          	mov    0x18(%rcx),%rax
 4b96ba1:	48 8b 5c 24 30       	mov    0x30(%rsp),%rbx
 4b96ba6:	bf 02 00 00 00       	mov    $0x2,%edi
 4b96bab:	48 89 f9             	mov    %rdi,%rcx
 4b96bae:	e8 cd 6b ff ff       	call   4b8d780 <github.com/lasselj/timebeat/beater/clocksync/clients/vendors/generic_serial_device.(*I2CDevice).Write@@Base>
 4b96bb3:	48 85 c0             	test   %rax,%rax
 4b96bb6:	0f 85 85 00 00 00    	jne    4b96c41 <github.com/lasselj/timebeat/beater/clocksync/clients/vendors/timebeat/clock_gen/clock_gen_8A34002E.(*ClockGen8A34012).SetPageAddress2ByteMode@@Base+0x161>
 4b96bbc:	b8 40 42 0f 00       	mov    $0xf4240,%eax
 4b96bc1:	e8 1a c6 3b fd       	call   1f531e0 <time.Sleep@@Base>
 4b96bc6:	48 8b 4c 24 50       	mov    0x50(%rsp),%rcx
 4b96bcb:	48 8b 41 18          	mov    0x18(%rcx),%rax
 4b96bcf:	48 8b 5c 24 28       	mov    0x28(%rsp),%rbx
 4b96bd4:	bf 02 00 00 00       	mov    $0x2,%edi
 4b96bd9:	48 89 f9             	mov    %rdi,%rcx
 4b96bdc:	0f 1f 40 00          	nopl   0x0(%rax)
 4b96be0:	e8 9b 6b ff ff       	call   4b8d780 <github.com/lasselj/timebeat/beater/clocksync/clients/vendors/generic_serial_device.(*I2CDevice).Write@@Base>
 4b96be5:	48 85 c0             	test   %rax,%rax
 4b96be8:	75 4c                	jne    4b96c36 <github.com/lasselj/timebeat/beater/clocksync/clients/vendors/timebeat/clock_gen/clock_gen_8A34002E.(*ClockGen8A34012).SetPageAddress2ByteMode@@Base+0x156>
 4b96bea:	b8 40 42 0f 00       	mov    $0xf4240,%eax
 4b96bef:	e8 ec c5 3b fd       	call   1f531e0 <time.Sleep@@Base>
 4b96bf4:	48 8b 4c 24 50       	mov    0x50(%rsp),%rcx
 4b96bf9:	48 8b 41 18          	mov    0x18(%rcx),%rax
 4b96bfd:	48 8b 5c 24 20       	mov    0x20(%rsp),%rbx
 4b96c02:	b9 05 00 00 00       	mov    $0x5,%ecx
 4b96c07:	48 89 cf             	mov    %rcx,%rdi
 4b96c0a:	e8 71 6b ff ff       	call   4b8d780 <github.com/lasselj/timebeat/beater/clocksync/clients/vendors/generic_serial_device.(*I2CDevice).Write@@Base>
 4b96c0f:	48 85 c0             	test   %rax,%rax
 4b96c12:	74 0a                	je     4b96c1e <github.com/lasselj/timebeat/beater/clocksync/clients/vendors/timebeat/clock_gen/clock_gen_8A34002E.(*ClockGen8A34012).SetPageAddress2ByteMode@@Base+0x13e>
 4b96c14:	48 8b 6c 24 40       	mov    0x40(%rsp),%rbp
 4b96c19:	48 83 c4 48          	add    $0x48,%rsp
 4b96c1d:	c3                   	ret
 4b96c1e:	b8 40 42 0f 00       	mov    $0xf4240,%eax
 4b96c23:	e8 b8 c5 3b fd       	call   1f531e0 <time.Sleep@@Base>
 4b96c28:	31 c0                	xor    %eax,%eax
 4b96c2a:	31 db                	xor    %ebx,%ebx
 4b96c2c:	48 8b 6c 24 40       	mov    0x40(%rsp),%rbp
 4b96c31:	48 83 c4 48          	add    $0x48,%rsp
 4b96c35:	c3                   	ret
 4b96c36:	48 8b 6c 24 40       	mov    0x40(%rsp),%rbp
 4b96c3b:	48 83 c4 48          	add    $0x48,%rsp
 4b96c3f:	90                   	nop
 4b96c40:	c3                   	ret
 4b96c41:	48 8b 6c 24 40       	mov    0x40(%rsp),%rbp
 4b96c46:	48 83 c4 48          	add    $0x48,%rsp
 4b96c4a:	c3                   	ret
 4b96c4b:	48 8b 6c 24 40       	mov    0x40(%rsp),%rbp
 4b96c50:	48 83 c4 48          	add    $0x48,%rsp
 4b96c54:	c3                   	ret
 4b96c55:	48 89 44 24 08       	mov    %rax,0x8(%rsp)
 4b96c5a:	e8 01 d8 3b fd       	call   1f54460 <runtime.morestack_noctxt.abi0@@Base>
 4b96c5f:	48 8b 44 24 08       	mov    0x8(%rsp),%rax
 4b96c64:	e9 77 fe ff ff       	jmp    4b96ae0 <github.com/lasselj/timebeat/beater/clocksync/clients/vendors/timebeat/clock_gen/clock_gen_8A34002E.(*ClockGen8A34012).SetPageAddress2ByteMode@@Base>
 4b96c69:	cc                   	int3
 4b96c6a:	cc                   	int3
 4b96c6b:	cc                   	int3
 4b96c6c:	cc                   	int3
 4b96c6d:	cc                   	int3
 4b96c6e:	cc                   	int3
 4b96c6f:	cc                   	int3
 4b96c70:	cc                   	int3
 4b96c71:	cc                   	int3
 4b96c72:	cc                   	int3
 4b96c73:	cc                   	int3
 4b96c74:	cc                   	int3
 4b96c75:	cc                   	int3
 4b96c76:	cc                   	int3
 4b96c77:	cc                   	int3
 4b96c78:	cc                   	int3
 4b96c79:	cc                   	int3
 4b96c7a:	cc                   	int3
 4b96c7b:	cc                   	int3
 4b96c7c:	cc                   	int3
 4b96c7d:	cc                   	int3
 4b96c7e:	cc                   	int3
 4b96c7f:	cc                   	int3
