# github.com/lasselj/timebeat/beater/clocksync/clients/ptp/client.(*Client).processSavedFollowUpMessage
# addr 0x45d1b00 size 448 (0x1c0)


/mnt/c/Users/SHIWA/GitHub/TimeCard-Mini/timebeat-extracted/usr/share/timebeat/bin/timebeat:     file format elf64-x86-64


Disassembly of section .text:

00000000045d1b00 <github.com/lasselj/timebeat/beater/clocksync/clients/ptp/client.(*Client).processSavedFollowUpMessage@@Base>:
 45d1b00:	49 3b 66 10          	cmp    0x10(%r14),%rsp
 45d1b04:	0f 86 85 01 00 00    	jbe    45d1c8f <github.com/lasselj/timebeat/beater/clocksync/clients/ptp/client.(*Client).processSavedFollowUpMessage@@Base+0x18f>
 45d1b0a:	48 83 ec 78          	sub    $0x78,%rsp
 45d1b0e:	48 89 6c 24 70       	mov    %rbp,0x70(%rsp)
 45d1b13:	48 8d 6c 24 70       	lea    0x70(%rsp),%rbp
 45d1b18:	48 8b 88 e8 02 00 00 	mov    0x2e8(%rax),%rcx
 45d1b1f:	48 89 4c 24 18       	mov    %rcx,0x18(%rsp)
 45d1b24:	0f 10 80 f0 02 00 00 	movups 0x2f0(%rax),%xmm0
 45d1b2b:	0f 11 44 24 20       	movups %xmm0,0x20(%rsp)
 45d1b30:	0f 10 80 00 03 00 00 	movups 0x300(%rax),%xmm0
 45d1b37:	0f 11 44 24 30       	movups %xmm0,0x30(%rsp)
 45d1b3c:	0f 10 80 10 03 00 00 	movups 0x310(%rax),%xmm0
 45d1b43:	0f 11 44 24 40       	movups %xmm0,0x40(%rsp)
 45d1b48:	8b 4c 24 44          	mov    0x44(%rsp),%ecx
 45d1b4c:	8b 54 24 48          	mov    0x48(%rsp),%edx
 45d1b50:	48 81 fa 00 ca 9a 3b 	cmp    $0x3b9aca00,%rdx
 45d1b57:	72 3d                	jb     45d1b96 <github.com/lasselj/timebeat/beater/clocksync/clients/ptp/client.(*Client).processSavedFollowUpMessage@@Base+0x96>
 45d1b59:	48 89 c3             	mov    %rax,%rbx
 45d1b5c:	48 b8 cc 52 5a 9b a0 	movabs $0x44b82fa09b5a52cc,%rax
 45d1b63:	2f b8 44 
 45d1b66:	48 89 d6             	mov    %rdx,%rsi
 45d1b69:	48 f7 ea             	imul   %rdx
 45d1b6c:	48 c1 fa 1c          	sar    $0x1c,%rdx
 45d1b70:	48 8d 3c 0a          	lea    (%rdx,%rcx,1),%rdi
 45d1b74:	4c 69 c2 00 ca 9a 3b 	imul   $0x3b9aca00,%rdx,%r8
 45d1b7b:	4c 29 c6             	sub    %r8,%rsi
 45d1b7e:	66 90                	xchg   %ax,%ax
 45d1b80:	48 85 f6             	test   %rsi,%rsi
 45d1b83:	7d 1a                	jge    45d1b9f <github.com/lasselj/timebeat/beater/clocksync/clients/ptp/client.(*Client).processSavedFollowUpMessage@@Base+0x9f>
 45d1b85:	48 81 c6 00 ca 9a 3b 	add    $0x3b9aca00,%rsi
 45d1b8c:	48 8d 3c 0a          	lea    (%rdx,%rcx,1),%rdi
 45d1b90:	48 8d 7f ff          	lea    -0x1(%rdi),%rdi
 45d1b94:	eb 09                	jmp    45d1b9f <github.com/lasselj/timebeat/beater/clocksync/clients/ptp/client.(*Client).processSavedFollowUpMessage@@Base+0x9f>
 45d1b96:	48 89 c3             	mov    %rax,%rbx
 45d1b99:	48 89 cf             	mov    %rcx,%rdi
 45d1b9c:	48 89 d6             	mov    %rdx,%rsi
 45d1b9f:	48 8b 05 52 d3 3a 03 	mov    0x33ad352(%rip),%rax        # 797eef8 <time.Local@@Base>
 45d1ba6:	48 63 ce             	movslq %esi,%rcx
 45d1ba9:	48 89 4c 24 58       	mov    %rcx,0x58(%rsp)
 45d1bae:	48 ba 00 f7 91 77 0e 	movabs $0xe7791f700,%rdx
 45d1bb5:	00 00 00 
 45d1bb8:	48 01 fa             	add    %rdi,%rdx
 45d1bbb:	48 89 54 24 60       	mov    %rdx,0x60(%rsp)
 45d1bc0:	48 89 44 24 68       	mov    %rax,0x68(%rsp)
 45d1bc5:	48 0f ba e1 3f       	bt     $0x3f,%rcx
 45d1bca:	73 1a                	jae    45d1be6 <github.com/lasselj/timebeat/beater/clocksync/clients/ptp/client.(*Client).processSavedFollowUpMessage@@Base+0xe6>
 45d1bcc:	48 89 c8             	mov    %rcx,%rax
 45d1bcf:	48 d1 e1             	shl    $1,%rcx
 45d1bd2:	48 c1 e9 1f          	shr    $0x1f,%rcx
 45d1bd6:	48 be 80 7f b1 d7 0d 	movabs $0xdd7b17f80,%rsi
 45d1bdd:	00 00 00 
 45d1be0:	48 8d 14 31          	lea    (%rcx,%rsi,1),%rdx
 45d1be4:	eb 03                	jmp    45d1be9 <github.com/lasselj/timebeat/beater/clocksync/clients/ptp/client.(*Client).processSavedFollowUpMessage@@Base+0xe9>
 45d1be6:	48 89 c8             	mov    %rcx,%rax
 45d1be9:	48 89 5c 24 50       	mov    %rbx,0x50(%rsp)
 45d1bee:	48 85 d2             	test   %rdx,%rdx
 45d1bf1:	75 13                	jne    45d1c06 <github.com/lasselj/timebeat/beater/clocksync/clients/ptp/client.(*Client).processSavedFollowUpMessage@@Base+0x106>
 45d1bf3:	25 ff ff ff 3f       	and    $0x3fffffff,%eax
 45d1bf8:	85 c0                	test   %eax,%eax
 45d1bfa:	75 0a                	jne    45d1c06 <github.com/lasselj/timebeat/beater/clocksync/clients/ptp/client.(*Client).processSavedFollowUpMessage@@Base+0x106>
 45d1bfc:	48 8b 6c 24 70       	mov    0x70(%rsp),%rbp
 45d1c01:	48 83 c4 78          	add    $0x78,%rsp
 45d1c05:	c3                   	ret
 45d1c06:	e8 b5 2c fc ff       	call   45948c0 <github.com/lasselj/timebeat/beater/clocksync/hostclocks.GetController@@Base>
 45d1c0b:	e8 10 2d fc ff       	call   4594920 <github.com/lasselj/timebeat/beater/clocksync/hostclocks.(*HostClockController).GetMasterHostClock@@Base>
 45d1c10:	48 8b 40 40          	mov    0x40(%rax),%rax
 45d1c14:	48 85 c0             	test   %rax,%rax
 45d1c17:	75 07                	jne    45d1c20 <github.com/lasselj/timebeat/beater/clocksync/clients/ptp/client.(*Client).processSavedFollowUpMessage@@Base+0x120>
 45d1c19:	31 c0                	xor    %eax,%eax
 45d1c1b:	31 db                	xor    %ebx,%ebx
 45d1c1d:	eb 06                	jmp    45d1c25 <github.com/lasselj/timebeat/beater/clocksync/clients/ptp/client.(*Client).processSavedFollowUpMessage@@Base+0x125>
 45d1c1f:	90                   	nop
 45d1c20:	e8 1b 5a fb ff       	call   4587640 <github.com/lasselj/timebeat/beater/clocksync/phc.(*PHCDevice).GetDeviceName@@Base>
 45d1c25:	48 83 fb 06          	cmp    $0x6,%rbx
 45d1c29:	75 1a                	jne    45d1c45 <github.com/lasselj/timebeat/beater/clocksync/clients/ptp/client.(*Client).processSavedFollowUpMessage@@Base+0x145>
 45d1c2b:	81 38 73 79 73 74    	cmpl   $0x74737973,(%rax)
 45d1c31:	75 12                	jne    45d1c45 <github.com/lasselj/timebeat/beater/clocksync/clients/ptp/client.(*Client).processSavedFollowUpMessage@@Base+0x145>
 45d1c33:	66 81 78 04 65 6d    	cmpw   $0x6d65,0x4(%rax)
 45d1c39:	75 0a                	jne    45d1c45 <github.com/lasselj/timebeat/beater/clocksync/clients/ptp/client.(*Client).processSavedFollowUpMessage@@Base+0x145>
 45d1c3b:	90                   	nop
 45d1c3c:	0f 1f 40 00          	nopl   0x0(%rax)
 45d1c40:	e8 7b 2c fc ff       	call   45948c0 <github.com/lasselj/timebeat/beater/clocksync/hostclocks.GetController@@Base>
 45d1c45:	48 8b 54 24 50       	mov    0x50(%rsp),%rdx
 45d1c4a:	48 8b 82 30 04 00 00 	mov    0x430(%rdx),%rax
 45d1c51:	0f b7 5c 24 36       	movzwl 0x36(%rsp),%ebx
 45d1c56:	48 8b 7c 24 20       	mov    0x20(%rsp),%rdi
 45d1c5b:	b9 01 00 00 00       	mov    $0x1,%ecx
 45d1c60:	e8 7b 67 00 00       	call   45d83e0 <github.com/lasselj/timebeat/beater/clocksync/clients/ptp/client.(*Offsets).addAsymmetryCompensation@@Base>
 45d1c65:	48 8b 54 24 50       	mov    0x50(%rsp),%rdx
 45d1c6a:	48 8b 82 30 04 00 00 	mov    0x430(%rdx),%rax
 45d1c71:	0f b7 5c 24 36       	movzwl 0x36(%rsp),%ebx
 45d1c76:	b9 01 00 00 00       	mov    $0x1,%ecx
 45d1c7b:	48 8d 7c 24 58       	lea    0x58(%rsp),%rdi
 45d1c80:	e8 7b 61 00 00       	call   45d7e00 <github.com/lasselj/timebeat/beater/clocksync/clients/ptp/client.(*Offsets).addTimestamp@@Base>
 45d1c85:	48 8b 6c 24 70       	mov    0x70(%rsp),%rbp
 45d1c8a:	48 83 c4 78          	add    $0x78,%rsp
 45d1c8e:	c3                   	ret
 45d1c8f:	48 89 44 24 08       	mov    %rax,0x8(%rsp)
 45d1c94:	e8 c7 27 98 fd       	call   1f54460 <runtime.morestack_noctxt.abi0@@Base>
 45d1c99:	48 8b 44 24 08       	mov    0x8(%rsp),%rax
 45d1c9e:	66 90                	xchg   %ax,%ax
 45d1ca0:	e9 5b fe ff ff       	jmp    45d1b00 <github.com/lasselj/timebeat/beater/clocksync/clients/ptp/client.(*Client).processSavedFollowUpMessage@@Base>
 45d1ca5:	cc                   	int3
 45d1ca6:	cc                   	int3
 45d1ca7:	cc                   	int3
 45d1ca8:	cc                   	int3
 45d1ca9:	cc                   	int3
 45d1caa:	cc                   	int3
 45d1cab:	cc                   	int3
 45d1cac:	cc                   	int3
 45d1cad:	cc                   	int3
 45d1cae:	cc                   	int3
 45d1caf:	cc                   	int3
 45d1cb0:	cc                   	int3
 45d1cb1:	cc                   	int3
 45d1cb2:	cc                   	int3
 45d1cb3:	cc                   	int3
 45d1cb4:	cc                   	int3
 45d1cb5:	cc                   	int3
 45d1cb6:	cc                   	int3
 45d1cb7:	cc                   	int3
 45d1cb8:	cc                   	int3
 45d1cb9:	cc                   	int3
 45d1cba:	cc                   	int3
 45d1cbb:	cc                   	int3
 45d1cbc:	cc                   	int3
 45d1cbd:	cc                   	int3
 45d1cbe:	cc                   	int3
 45d1cbf:	cc                   	int3
